(lp0
(icmyWordsCompare
CoWords
p1
(dp2
S'WAC'
p3
F0.58
sS'ComWOnConc'
p4
(lp5
S'regulates'
p6
aS'semantic'
p7
aS'proposed'
p8
aS'manage'
p9
aS'instances'
p10
aS'networks'
p11
aS'network'
p12
aS'rule-constraint'
p13
aS'relations'
p14
aS'forms'
p15
aS'algorithms'
p16
aS'schema'
p17
aS'normal'
p18
aS'deriving'
p19
aS'link'
p20
aS'semantics'
p21
aS'reasoning'
p22
aS'sln'
p23
aS'maintain'
p24
asS'Abs2CE'
p25
F0.25039872408293457
sS'WConc'
p26
F0.7307692307692307
sS'Conc2CE'
p27
F0.200956937799043
sS'OnConc'
p28
F0.8250000000000002
sS'ComWOnAC'
p29
(lp30
S'semantic'
p31
aS'links'
p32
ag6
ag9
ag11
aS'web'
p33
aS'network'
p34
aS'rule-constraint'
p35
aS'relations'
p36
aS'forms'
p37
aS'potential'
p38
aS'type'
p39
aS'resources'
p40
aS'schema'
p41
aS'normal'
p42
aS'concepts'
p43
aS'derived'
p44
aS'reasoning'
p45
aS'rules'
p46
ag19
aS'link'
p47
ag24
ag21
aS'resource'
p48
ag10
aS'proposed'
p49
aS'sln'
p50
aS'algorithms'
p51
aS'study'
p52
asS'OnAbs'
p53
F0.6122448979591839
sS'ComWOnAbs'
p54
(lp55
g31
ag32
ag35
ag33
ag34
ag49
ag36
ag37
ag38
ag39
ag40
ag41
ag42
ag43
ag44
ag47
ag48
ag46
ag52
ag50
ag51
ag45
asS'AC2CE'
p56
F0.26953748006379574
sS'WAbs'
p57
F0.5641025641025641
sS'FWDic'
p58
(icmyWordsCompare
FWordDic
p59
(dp60
S'CEWordDic'
p61
(dp62
S'semantic'
p63
F0.05582137161084529
sS'global'
p64
F0.006379585326953748
sS'1,2'
p65
F0.001594896331738437
sS'leads'
p66
F0.003189792663476874
sS'machine-understandable'
p67
F0.001594896331738437
sS'reasoning'
p68
F0.014354066985645933
sS'issues'
p69
F0.001594896331738437
sS'graph'
p70
F0.003189792663476874
sS'languages'
p71
F0.001594896331738437
sS'resources'
p72
F0.011164274322169059
sS'rn'
p73
F0.001594896331738437
sS'query'
p74
F0.001594896331738437
sS'sln'
p75
F0.01594896331738437
sS'networks'
p76
F0.001594896331738437
sS'net'
p77
F0.007974481658692184
sS'metadata'
p78
F0.003189792663476874
sS'satisfy'
p79
F0.001594896331738437
sS'm\xe2\x88\x921'
p80
F0.001594896331738437
sS'modify'
p81
F0.001594896331738437
sS'change'
p82
F0.001594896331738437
sS'changed'
p83
F0.001594896331738437
sS'contradiction'
p84
F0.003189792663476874
sS'rdf'
p85
F0.004784688995215311
sS'projection'
p86
F0.001594896331738437
sS'classification'
p87
F0.004784688995215311
sS'manage'
p88
F0.001594896331738437
sS'modifying'
p89
F0.001594896331738437
sS'unit'
p90
F0.001594896331738437
sS'6'
p91
F0.003189792663476874
sS'type'
p92
F0.01594896331738437
sS'appending'
p93
F0.001594896331738437
sS'join'
p94
F0.001594896331738437
sS'concepts'
p95
F0.003189792663476874
sS'\xe2\x88\x921'
p96
F0.001594896331738437
sS'links'
p97
F0.007974481658692184
sS'involve'
p98
F0.001594896331738437
sS'rec-rdf-schema-20040210'
p99
F0.001594896331738437
sS'sense'
p100
F0.001594896331738437
sS'schemas'
p101
F0.007974481658692184
sS'redundancy'
p102
F0.004784688995215311
sS'verify'
p103
F0.001594896331738437
sS'1'
p104
F0.012759170653907496
sS'classify'
p105
F0.003189792663476874
sS'map'
p106
F0.001594896331738437
sS'replacing'
p107
F0.003189792663476874
sS'derived'
p108
F0.001594896331738437
sS'types'
p109
F0.012759170653907496
sS'light'
p110
F0.001594896331738437
sS'complexity'
p111
F0.003189792663476874
sS'maintain'
p112
F0.001594896331738437
sS'representation'
p113
F0.001594896331738437
sS'rc-nf2'
p114
F0.01594896331738437
sS'executed'
p115
F0.003189792663476874
sS'essence'
p116
F0.003189792663476874
sS'structuring'
p117
F0.001594896331738437
sS'satisfies'
p118
F0.001594896331738437
sS'ld'
p119
F0.003189792663476874
sS'21'
p120
F0.001594896331738437
sS'lm'
p121
F0.001594896331738437
sS'li'
p122
F0.003189792663476874
sS'forms'
p123
F0.001594896331738437
sS'fig'
p124
F0.004784688995215311
sS'defining'
p125
F0.003189792663476874
sS'combination'
p126
F0.001594896331738437
sS'^s2.2'
p127
F0.001594896331738437
sS'^s2.1'
p128
F0.001594896331738437
sS'l2'
p129
F0.001594896331738437
sS'l1'
p130
F0.003189792663476874
sS'www.w3.org/tr/2004/'
p131
F0.001594896331738437
sS'n/m'
p132
F0.001594896331738437
sS'reduce'
p133
F0.001594896331738437
sS'^s1.40'
p134
F0.003189792663476874
sS'network'
p135
F0.009569377990430622
sS'rs'
p136
F0.01594896331738437
sS'content'
p137
F0.001594896331738437
sS'7'
p138
F0.003189792663476874
sS'denoted'
p139
F0.001594896331738437
sS'rm'
p140
F0.001594896331738437
sS'ri'
p141
F0.004784688995215311
sS'reason'
p142
F0.001594896331738437
sS'definition'
p143
F0.003189792663476874
sS'r1'
p144
F0.001594896331738437
sS'language'
p145
F0.001594896331738437
sS'length'
p146
F0.001594896331738437
sS'instances'
p147
F0.006379585326953748
sS'relations'
p148
F0.006379585326953748
sS'directly'
p149
F0.003189792663476874
sS'rs1'
p150
F0.001594896331738437
sS'size'
p151
F0.001594896331738437
sS'rule-constraint'
p152
F0.004784688995215311
sS'construct'
p153
F0.003189792663476874
sS'assumption'
p154
F0.001594896331738437
sS'store'
p155
F0.001594896331738437
sS'schema'
p156
F0.03189792663476874
sS'rsm'
p157
F0.001594896331738437
sS'rsi'
p158
F0.004784688995215311
sS'rsd'
p159
F0.003189792663476874
sS'updating'
p160
F0.004784688995215311
sS'14\xe2\x80\x9318'
p161
F0.001594896331738437
sS'12'
p162
F0.001594896331738437
sS'holds'
p163
F0.003189792663476874
sS'database'
p164
F0.001594896331738437
sS'vocabularies'
p165
F0.001594896331738437
sS'aims'
p166
F0.001594896331738437
sS'decompose'
p167
F0.003189792663476874
sS'lbi'
p168
F0.004784688995215311
sS'paths'
p169
F0.001594896331738437
sS'documents'
p170
F0.001594896331738437
sS'efficient'
p171
F0.001594896331738437
sS'si'
p172
F0.003189792663476874
sS'concerns'
p173
F0.001594896331738437
sS'algorithms'
p174
F0.003189792663476874
sS'='
p175
F0.001594896331738437
sS'normal'
p176
F0.004784688995215311
sS'connected'
p177
F0.001594896331738437
sS'^s1.10'
p178
F0.003189792663476874
sS'pair'
p179
F0.001594896331738437
sS'class'
p180
F0.001594896331738437
sS'constructed'
p181
F0.001594896331738437
sS'average'
p182
F0.001594896331738437
sS'^s'
p183
F0.007974481658692184
sS'traditional'
p184
F0.001594896331738437
sS'k\xe2\x88\x92'
p185
F0.001594896331738437
sS'syntax'
p186
F0.001594896331738437
sS'xml'
p187
F0.004784688995215311
sS'based'
p188
F0.007974481658692184
sS'knowledge'
p189
F0.001594896331738437
sS'dividing'
p190
F0.001594896331738437
sS'lemma'
p191
F0.004784688995215311
sS'semantics'
p192
F0.004784688995215311
sS'8'
p193
F0.001594896331738437
sS'syntaxes'
p194
F0.001594896331738437
sS'relational'
p195
F0.003189792663476874
sS'2'
p196
F0.004784688995215311
sS'loss-less'
p197
F0.006379585326953748
sS'closure'
p198
F0.001594896331738437
sS'resource'
p199
F0.006379585326953748
sS'sub-schemas'
p200
F0.023923444976076555
sS'cycles'
p201
F0.003189792663476874
sS'set'
p202
F0.03508771929824561
sS'reference'
p203
F0.003189792663476874
sS'up-closure'
p204
F0.001594896331738437
sS'closures'
p205
F0.001594896331738437
sS'relative'
p206
F0.009569377990430622
sS'3'
p207
F0.009569377990430622
sS'closed'
p208
F0.003189792663476874
sS'creating'
p209
F0.003189792663476874
sS'tables'
p210
F0.001594896331738437
sS'distribution'
p211
F0.001594896331738437
sS'equal'
p212
F0.001594896331738437
sS'regulates'
p213
F0.001594896331738437
sS'lk'
p214
F0.001594896331738437
sS'conference'
p215
F0.001594896331738437
sS'i.e.'
p216
F0.001594896331738437
sS'basic'
p217
F0.001594896331738437
sS'pm'
p218
F0.001594896331738437
sS'sub-shcema'
p219
F0.001594896331738437
sS'^sj'
p220
F0.003189792663476874
sS'rbi'
p221
F0.004784688995215311
sS'study'
p222
F0.001594896331738437
sS'sub-schema'
p223
F0.012759170653907496
sS'\xe2\x8a\x86'
p224
F0.009569377990430622
sS'enriching'
p225
F0.001594896331738437
sS'swrl'
p226
F0.001594896331738437
sS'ruleml'
p227
F0.001594896331738437
sS'cycle'
p228
F0.001594896331738437
sS'^s1.1'
p229
F0.006379585326953748
sS'^s1.3'
p230
F0.001594896331738437
sS'^s1.2'
p231
F0.006379585326953748
sS'markup'
p232
F0.001594896331738437
sS'proposed'
p233
F0.001594896331738437
sS'^s1.20'
p234
F0.003189792663476874
sS'web'
p235
F0.004784688995215311
sS'decomposing'
p236
F0.001594896331738437
sS'potential'
p237
F0.003189792663476874
sS'4'
p238
F0.004784688995215311
sS'easy'
p239
F0.001594896331738437
sS'theorem'
p240
F0.003189792663476874
sS'...'
p241
F0.003189792663476874
sS'rules'
p242
F0.012759170653907496
sS'decomposed'
p243
F0.003189792663476874
sS'rc-nf1'
p244
F0.007974481658692184
sS'advanced'
p245
F0.001594896331738437
sS'loses'
p246
F0.001594896331738437
sS'engagein'
p247
F0.004784688995215311
sS'sparse'
p248
F0.001594896331738437
sS'reduced'
p249
F0.001594896331738437
sS'deal'
p250
F0.003189792663476874
sS'instantiating'
p251
F0.006379585326953748
sS'examples'
p252
F0.001594896331738437
sS'scale'
p253
F0.004784688995215311
sS'rdfs'
p254
F0.001594896331738437
sS'avoid'
p255
F0.001594896331738437
sS'decomposition'
p256
F0.01594896331738437
sS'deleted'
p257
F0.006379585326953748
sS'equivalent'
p258
F0.003189792663476874
sS'bi'
p259
F0.001594896331738437
sS'variation'
p260
F0.001594896331738437
sS'theorems'
p261
F0.001594896331738437
sS'owl'
p262
F0.001594896331738437
sS'reducing'
p263
F0.001594896331738437
sS'removing'
p264
F0.001594896331738437
sS'start'
p265
F0.001594896331738437
sS'form'
p266
F0.006379585326953748
sS'rsbi'
p267
F0.004784688995215311
sS'link'
p268
F0.03189792663476874
sS'directed'
p269
F0.003189792663476874
sS'compute'
p270
F0.003189792663476874
sS'^sbi'
p271
F0.003189792663476874
sS'subschemas'
p272
F0.001594896331738437
sS'define'
p273
F0.006379585326953748
sS'called'
p274
F0.001594896331738437
sS'delete'
p275
F0.001594896331738437
sS'constant'
p276
F0.001594896331738437
sS'classic'
p277
F0.001594896331738437
sS'defined'
p278
F0.001594896331738437
sS'denote'
p279
F0.003189792663476874
sS'^si'
p280
F0.003189792663476874
sS'single'
p281
F0.001594896331738437
sS'exist'
p282
F0.001594896331738437
sS'^sm'
p283
F0.001594896331738437
sS'defines'
p284
F0.001594896331738437
sS'5'
p285
F0.001594896331738437
sS'2dk'
p286
F0.001594896331738437
sS'users'
p287
F0.003189792663476874
sS'^s1'
p288
F0.004784688995215311
sS'^s2'
p289
F0.003189792663476874
sS'^s4'
p290
F0.001594896331738437
sS'^s5'
p291
F0.001594896331738437
sS'^s6'
p292
F0.001594896331738437
sS'deriving'
p293
F0.001594896331738437
sS'structure'
p294
F0.003189792663476874
sS'building'
p295
F0.004784688995215311
sS'lead'
p296
F0.001594896331738437
sS'algorithm'
p297
F0.022328548644338118
sS'bottom'
p298
F0.001594896331738437
sS'rule'
p299
F0.023923444976076555
sS'original'
p300
F0.001594896331738437
ssS'Ftag'
p301
S'f0013'
p302
sS'ConcWordDic'
p303
(dp304
g6
F0.025
sg7
F0.075
sg8
F0.075
sg9
F0.05
sg10
F0.025
sg11
F0.025
sg12
F0.025
sg13
F0.025
sg14
F0.025
sg15
F0.025
sS'reduction'
p305
F0.025
sg16
F0.05
sg17
F0.1
sS'theory'
p306
F0.025
sg18
F0.025
sS'relevant'
p307
F0.025
sg19
F0.025
sg20
F0.05
sS'model'
p308
F0.025
sg21
F0.025
sS'efficiently'
p309
F0.025
sS'extension'
p310
F0.025
sg22
F0.025
sg23
F0.125
sg24
F0.025
sS'introduced'
p311
F0.025
ssS'AbsWordDic'
p312
(dp313
S'relevant'
p314
F0.02040816326530612
sg31
F0.12244897959183673
sg32
F0.02040816326530612
sS'coupled'
p315
F0.02040816326530612
sg35
F0.02040816326530612
sS'proposes'
p316
F0.02040816326530612
sS'paper'
p317
F0.02040816326530612
sS'relation'
p318
F0.02040816326530612
sg33
F0.02040816326530612
sS'management'
p319
F0.02040816326530612
sg34
F0.04081632653061224
sS'basis'
p320
F0.02040816326530612
sg49
F0.02040816326530612
sg36
F0.02040816326530612
sg37
F0.02040816326530612
sg38
F0.02040816326530612
sS'nodes'
p321
F0.02040816326530612
sg39
F0.02040816326530612
sg40
F0.02040816326530612
sg41
F0.02040816326530612
sS'theory'
p322
F0.061224489795918366
sg42
F0.02040816326530612
sS'demonstrates'
p323
F0.02040816326530612
sg43
F0.02040816326530612
sg44
F0.02040816326530612
sS'edges'
p324
F0.02040816326530612
sg47
F0.04081632653061224
sS'normalized'
p325
F0.02040816326530612
sS'data'
p326
F0.02040816326530612
sS'model'
p327
F0.02040816326530612
sg48
F0.02040816326530612
sg46
F0.02040816326530612
sg52
F0.02040816326530612
sS'loosely'
p328
F0.02040816326530612
sS'managing'
p329
F0.02040816326530612
sg50
F0.04081632653061224
sg51
F0.02040816326530612
sg45
F0.02040816326530612
sS'including'
p330
F0.02040816326530612
ssS'A_CWordDic'
p331
(dp332
g314
F0.02247191011235955
sg31
F0.10112359550561797
sg32
F0.011235955056179775
sg315
F0.011235955056179775
sg6
F0.011235955056179775
sg9
F0.02247191011235955
sg11
F0.011235955056179775
sg316
F0.011235955056179775
sg317
F0.011235955056179775
sg318
F0.011235955056179775
sg33
F0.011235955056179775
sg319
F0.011235955056179775
sg34
F0.033707865168539325
sg320
F0.011235955056179775
sg35
F0.02247191011235955
sg36
F0.02247191011235955
sg37
F0.02247191011235955
sg305
F0.011235955056179775
sg38
F0.011235955056179775
sg321
F0.011235955056179775
sg39
F0.011235955056179775
sg40
F0.011235955056179775
sg41
F0.056179775280898875
sg322
F0.0449438202247191
sg42
F0.02247191011235955
sg43
F0.011235955056179775
sg44
F0.011235955056179775
sg45
F0.02247191011235955
sg46
F0.011235955056179775
sg19
F0.011235955056179775
sg324
F0.011235955056179775
sg47
F0.0449438202247191
sg325
F0.011235955056179775
sg24
F0.011235955056179775
sg326
F0.011235955056179775
sg21
F0.011235955056179775
sg309
F0.011235955056179775
sg311
F0.011235955056179775
sg48
F0.011235955056179775
sg310
F0.011235955056179775
sg10
F0.011235955056179775
sg49
F0.0449438202247191
sg328
F0.011235955056179775
sg329
F0.011235955056179775
sg50
F0.07865168539325842
sg51
F0.033707865168539325
sg323
F0.011235955056179775
sg330
F0.011235955056179775
sg327
F0.02247191011235955
sg52
F0.011235955056179775
ssbsS'OnAC'
p333
F0.707865168539326
sba.