(lp0
(icmyPackage
FWordDic
p1
(dp2
S'CEWordDic'
p3
(dp4
Vlimited
p5
I6
sVall
p6
I3
sVwritings
p7
I1
sVsemantic
p8
I7
sVtwo-dimensional
p9
I1
sVrepresent
p10
I4
sVdesirable
p11
I1
sVfocus
p12
I2
sVextends
p13
I1
sVleads
p14
I4
sVcontinual
p15
I1
sVdisplaying
p16
I1
sVconsider
p17
I1
sVgraph
p18
I4
sVsegments
p19
I1
sVlanguages
p20
I3
sVto
p21
I104
sVhelps
p22
I1
sVmarks
p23
I1
sVal.
p24
I4
sVsummarizer
p25
I25
sVgarden
p26
I1
sVvery
p27
I2
sVimplicitly
p28
I1
sVinnovation
p29
I1
sVhuman-machine
p30
I2
sVword
p31
I1
sVexisting
p32
I3
sVcondition
p33
I1
sVarrange
p34
I1
sVfour
p35
I1
sVmoderate
p36
I7
sVprovide
p37
I3
sVlevel
p38
I18
sVupload
p39
I1
sVlarge
p40
I1
sVthis
p41
I36
sVlicklider
p42
I1
sVmckeown
p43
I1
sVsmall
p44
I1
sVenhance
p45
I1
sVadded
p46
I1
sVsays
p47
I1
sVinsignificant
p48
I4
sVphones
p49
I1
sVrequirements
p50
I2
sVd
p51
I1
sVvideo
p52
I4
sVevaluated
p53
I1
sVmachines
p54
I1
sVeven
p55
I4
sVtext-only
p56
I2
sVappear
p57
I2
sVmovies
p58
I1
sVselected
p59
I3
sVnear
p60
I1
sVshares
p61
I3
sVuniform
p62
I1
sVaccess
p63
I2
sVattitudes
p64
I2
sVabove
p65
I9
sVscientists
p66
I1
sVnew
p67
I8
sVlearned
p68
I3
sVmethod
p69
I3
sVcontrast
p70
I1
sVpublications
p71
I1
sVsatisfy
p72
I3
sVfull
p73
I1
sVled
p74
I1
sVtags
p75
I3
sVunderstanding
p76
I22
sVexplore
p77
I1
sVobjects
p78
I1
sVpursuit
p79
I6
sVseparation
p80
I10
sVmaking
p81
I8
sVrepresented
p82
I18
sVlayout
p83
I1
sV[
p84
I14
sVinvented
p85
I1
sVimplicit
p86
I4
sVchange
p87
I4
sVinvolved
p88
I4
sVstudied
p89
I1
sVapproaches
p90
I1
sVcommonly
p91
I4
sVsocial
p92
I26
sVusually
p93
I1
sVopinion
p94
I1
sV{
p95
I2
sVsuitable
p96
I33
sVnavigation
p97
I1
sVcomposed
p98
I2
sVup-to-date
p99
I1
sVwriter
p100
I1
sVthin
p101
I1
sVtexts
p102
I15
sVnames
p103
I1
sVestablish
p104
I1
sVselect
p105
I2
sVenvironment
p106
I2
sVuse
p107
I24
sVfrom
p108
I18
sVlinks
p109
I7
sVscan
p110
I1
sVuniformly
p111
I2
sVcomparing
p112
I1
sVtherefore
p113
I3
sVcriteria
p114
I3
sVrationalism
p115
I1
sVmore
p116
I24
sVseparated
p117
I10
sV``
p118
I9
sVsharing
p119
I5
sVknows
p120
I1
sVbecomes
p121
I2
sVit
p122
I20
sVzhuge
p123
I4
sVparticular
p124
I4
sVrendered
p125
I2
sVme
p126
I1
sVevolves
p127
I5
sV1995
p128
I2
sV1997
p129
I1
sVintegrating
p130
I1
sV1999
p131
I1
sV1998
p132
I1
sVwork
p133
I3
sVentertainment
p134
I1
sVtheories
p135
I3
sVreviews
p136
I2
sVhuge
p137
I1
sVeasier
p138
I1
sVparagraph
p139
I1
sVcan
p140
I66
sVconcepts
p141
I4
sVfollowing
p142
I16
sVstrategies
p143
I2
sVspecialized
p144
I1
sVexample
p145
I1
sVcad
p146
I1
sVsummarizes
p147
I1
sVe.g.
p148
I15
sVranking
p149
I1
sVprocess
p150
I5
sVcited
p151
I5
sVtopic
p152
I1
sVindicates
p153
I9
sVtag
p154
I3
sVkeep
p155
I1
sVcites
p156
I3
sVguarantee
p157
I1
sV!
p158
I1
sVinfluenced
p159
I3
sVneeds
p160
I2
sVend
p161
I1
sVrecursive
p162
I1
sVworldview
p163
I3
sVrather
p164
I2
sVget
p165
I1
sVdifferences
p166
I1
sVfeature
p167
I1
sVeveryday
p168
I1
sV1
p169
I13
sVlocated
p170
I1
sVmethodology
p171
I1
sVwriters
p172
I2
sVfamiliar
p173
I1
sVestablishment
p174
I2
sVeconomy
p175
I3
sVinputs
p176
I1
sVabstraction
p177
I2
sVinformation
p178
I2
sVmay
p179
I21
sVearlier
p180
I1
sVderived
p181
I6
sVreflect
p182
I4
sVapplications
p183
I1
sVdesigned
p184
I1
sVrepresentations
p185
I27
sVsummarize
p186
I7
sVmeaningful
p187
I1
sVconcerns
p188
I2
sVtypes
p189
I2
sVefficiently
p190
I1
sVsummarization
p191
I52
sVshort
p192
I3
sVnatural
p193
I7
sVaccelerates
p194
I1
sVsets
p195
I1
sVlemmas
p196
I3
sVseparations
p197
I3
sVmark
p198
I3
sVcomplexity
p199
I1
sVso
p200
I21
sVfundamental
p201
I2
sVthings
p202
I2
sVrepresentation
p203
I65
sVcore
p204
I7
sVorder
p205
I1
sVoperations
p206
I2
sVhelp
p207
I2
sVhierarchy
p208
I2
sVdeveloped
p209
I1
sVover
p210
I1
sVvary
p211
I4
sVsatisfied
p212
I18
sVyears
p213
I4
sVstructuring
p214
I1
sVpaper
p215
I2
sVthrough
p216
I15
sVexternalize
p217
I1
sVmentioned
p218
I1
sVsatisfies
p219
I3
sVstill
p220
I1
sVits
p221
I12
sVbefore
p222
I3
sVwrite
p223
I1
sVmulti-dimensional
p224
I1
sVclassifying
p225
I1
sVmonitor
p226
I1
sVpersonal
p227
I5
sVrelativity
p228
I6
sV,
p229
I164
sVactually
p230
I3
sVbetter
p231
I2
sVplatform
p232
I1
sVsystems
p233
I6
sVconstitutes
p234
I1
sVhidden
p235
I1
sVmain
p236
I4
sV2011
p237
I1
sV2010
p238
I1
sV2012
p239
I1
sVthen
p240
I5
sVthem
p241
I1
sVgood
p242
I3
sVmatches
p243
I1
sVconversations
p244
I1
sVprocesses
p245
I3
sVthey
p246
I8
sVhalf
p247
I1
sVnot
p248
I33
sV1958
p249
I1
sVsubtitles
p250
I1
sVeasily
p251
I3
sVgrammar
p252
I6
sVidentified
p253
I2
sVestablishing
p254
I3
sVmerge
p255
I2
sVsomeone
p256
I2
sVreasonable
p257
I1
sVeach
p258
I7
sVhigher
p259
I1
sV|
p260
I2
sVcharacterized
p261
I1
sVdomain
p262
I1
sVsignificantly
p263
I1
sVpursue
p264
I1
sVcyberspace
p265
I5
sVenergy
p266
I1
sVhard
p267
I3
sV1-10
p268
I1
sVprinciples
p269
I16
sVconstitute
p270
I2
sVsociety
p271
I5
sVused
p272
I2
sVstatic
p273
I3
sVet
p274
I4
sVluhn
p275
I1
sVextract
p276
I1
sVhuman-level
p277
I1
sVspecial
p278
I2
sVout
p279
I3
sVprojections
p280
I1
sVreused
p281
I1
sVreducing
p282
I2
sVnetwork
p283
I6
sV'
p284
I11
sVp
p285
I14
sVsince
p286
I2
sVpublish
p287
I1
sVresearch
p288
I2
sVcontent
p289
I1
sVtransforming
p290
I1
sVencourage
p291
I1
sVhealth
p292
I3
sVreader
p293
I12
sVevaluation
p294
I2
sVunifying
p295
I1
sVcreating
p296
I1
sVafter
p297
I1
sVlinear
p298
I1
sVinteractions
p299
I3
sVcontain
p300
I1
sVpossibility
p301
I1
sVtian
p302
I1
sVreason
p303
I2
sVadvantages
p304
I1
sVuncover
p305
I1
sVput
p306
I1
sVvolumes
p307
I2
sVgenerate
p308
I6
sVretrieves
p309
I1
sVinteraction
p310
I4
sVderivation
p311
I1
sVlanguage
p312
I16
sVwhere
p313
I1
sVcould
p314
I1
sVcorrectness
p315
I1
sVtimes
p316
I4
sVdue
p317
I2
sVneglect
p318
I1
sVradev
p319
I1
sVorganize
p320
I1
sVsocial/individual
p321
I1
sVrender
p322
I5
sVreflected
p323
I1
sVone
p324
I8
sVchannels
p325
I1
sVdone
p326
I1
sVneglects
p327
I1
sVdirectly
p328
I5
sVsummarizers
p329
I6
sVreached
p330
I3
sVopen
p331
I3
sVxu
p332
I1
sVstory
p333
I1
sVmanagement
p334
I2
sVtheir
p335
I8
sVdata
p336
I3
sVinteract
p337
I1
sVmoderately
p338
I3
sVsystem
p339
I5
sVrelations
p340
I5
sVpriority
p341
I1
sVindicate
p342
I7
sV2
p343
I13
sVstatement
p344
I1
sVarticles
p345
I1
sVcite
p346
I2
sVfriend
p347
I3
sVgives
p348
I1
sVinterests
p349
I7
sVa
p350
I108
sVthat
p351
I39
sV1599
p352
I1
sVexplanation
p353
I2
sVhotel
p354
I1
sVinexact
p355
I3
sVauthors
p356
I20
sVinventing
p357
I1
sVthan
p358
I5
sVsemantics
p359
I8
sVinventor
p360
I1
sVwide
p361
I2
sVkind
p362
I5
sVanalyze
p363
I2
sVtarget
p364
I1
sVsections
p365
I2
sVconstructionism
p366
I1
sVsummarizations
p367
I2
sVenables
p368
I1
sVabstracts
p369
I1
sVdistinguished
p370
I1
sVdisplays
p371
I1
sVand
p372
I188
sVviewer
p373
I1
sVexplicit
p374
I1
sVmodern
p375
I1
sVoptimizing
p376
I1
sVgeneralization
p377
I1
sV'story
p378
I1
sVhave
p379
I31
sVsentences
p380
I4
sVneed
p381
I1
sVtells
p382
I1
sVcontents
p383
I3
sVgreek
p384
I1
sVnanba
p385
I1
sV1960
p386
I1
sVideas
p387
I1
sVsciences
p388
I1
sVempirically
p389
I1
sVpotential
p390
I2
sVincorporating
p391
I1
sVwhich
p392
I9
sVonline
p393
I4
sVfinding
p394
I1
sV=
p395
I1
sVmemory
p396
I1
sVsuch
p397
I7
sVprinter
p398
I1
sVmultiple
p399
I7
sVcomponents
p400
I2
sVgudivada
p401
I1
sVwho
p402
I9
sV]
p403
I14
sVwhy
p404
I1
sVstands
p405
I1
sVknown
p406
I1
sVespecially
p407
I1
sVpopularity
p408
I1
sVstronger
p409
I1
sVretrieval
p410
I2
sVtraditional
p411
I2
sVgraphs
p412
I2
sVprinciple
p413
I43
sVmovie
p414
I1
sV}
p415
I2
sVincorporate
p416
I1
sVselection
p417
I16
sVgolf
p418
I1
sVlocation
p419
I4
sVtext
p420
I25
sVable
p421
I3
sVattempts
p422
I1
sVspaces
p423
I2
sVnetworks
p424
I4
sVground
p425
I2
sVimpact
p426
I1
sVcurrent
p427
I1
sVbased
p428
I2
sVknowledge
p429
I74
sVtitle
p430
I1
sV(
p431
I71
sVexplain
p432
I2
sVsentence
p433
I1
sVwritten
p434
I1
sVshould
p435
I17
sVonly
p436
I10
sVcandidates
p437
I5
sVsummarizing
p438
I8
sVrich
p439
I4
sVpursuing
p440
I1
sVaxiom
p441
I5
sVdo
p442
I3
sVhis
p443
I1
sVspecifications
p444
I1
sVestablishes
p445
I1
sVmeans
p446
I4
sVmainly
p447
I1
sVdesigning
p448
I2
sVb
p449
I4
sVwords
p450
I6
sVshared
p451
I7
sVareas
p452
I2
sVevolution
p453
I4
sVidioms
p454
I3
sVsummary
p455
I51
sVbook
p456
I1
sVcommon
p457
I5
sVfind
p458
I1
sVincluding
p459
I7
sV3d
p460
I2
sVautomatic
p461
I3
sVview
p462
I4
sVevolutionism
p463
I1
sVset
p464
I8
sVconstructing
p465
I1
sVour
p466
I1
sVhumans
p467
I12
sVoperates
p468
I1
sVrelative
p469
I3
sVculture
p470
I3
sVindividual
p471
I6
sVradius
p472
I1
sVare
p473
I38
sVexplosion
p474
I2
sV2.0
p475
I1
sVbest
p476
I15
sVtechniques
p477
I1
sVways
p478
I2
sVpictures
p479
I27
sVfamiliarity
p480
I1
sVcontinually
p481
I2
sV3
p482
I9
sVunable
p483
I1
sVvarious
p484
I4
sVclosed
p485
I4
sVbetween
p486
I5
sVreading
p487
I7
sVapproach
p488
I1
sVwe
p489
I1
sVrecently
p490
I2
sVability
p491
I1
sVnature
p492
I3
sVscreen
p493
I1
sVhowever
p494
I4
sVefficiency
p495
I1
sVregional
p496
I1
sVkey
p497
I2
sVinterface
p498
I2
sVnews
p499
I1
sVrelying
p500
I1
sVjon
p501
I1
sVimprove
p502
I1
sVadapting
p503
I2
sVboth
p504
I2
sVc
p505
I2
sVhyperlink
p506
I1
sVfreely
p507
I1
sVaccording
p508
I8
sVminds
p509
I6
sVfacet
p510
I1
sVetc
p511
I4
sVs
p512
I1
sVgames
p513
I1
sVlong-term
p514
I1
sVrequests
p515
I2
sVwhole
p516
I1
sVbehaviors
p517
I6
sVrelevant
p518
I3
sVpoint
p519
I3
sVappeared
p520
I1
sVothers
p521
I1
sVaudios
p522
I1
sVdistinguish
p523
I1
sVopenness
p524
I6
sVforms
p525
I1
sVcameras
p526
I3
sVsource
p527
I1
sVunion
p528
I1
sVcreate
p529
I2
sVacceptance
p530
I1
sVthree
p531
I4
sVbeen
p532
I7
sVquickly
p533
I4
sVreduction
p534
I1
sVcitations
p535
I5
sVcomplicated
p536
I1
sVinterest
p537
I4
sVbasic
p538
I8
sVadoption
p539
I1
sVformalized
p540
I1
sVattractive
p541
I1
sVlife
p542
I4
sVenable
p543
I1
sVmind
p544
I4
sVbody
p545
I1
sVself-organizes
p546
I2
sVunderstand
p547
I4
sVpersonally
p548
I3
sVan
p549
I10
sVplay
p550
I1
sVnovel
p551
I1
sVthese
p552
I5
sVsingle
p553
I1
sVvalue
p554
I1
sVair
p555
I1
sVwill
p556
I1
sVwhile
p557
I1
sVsmart
p558
I1
sVevaluating
p559
I4
sVmany
p560
I2
sVjulius
p561
I1
sVchanged
p562
I2
sVekin
p563
I1
sVreinventions
p564
I1
sVcentury
p565
I1
sVlinked
p566
I3
sVcharacteristics
p567
I21
sVis
p568
I90
sVthus
p569
I2
sVfaceted
p570
I1
sVgrammars
p571
I3
sVobstacle
p572
I3
sVexperience
p573
I9
sVin
p574
I60
sVcaesar
p575
I1
sVif
p576
I8
sVagarwal
p577
I1
sVenabling
p578
I2
sVdifferent
p579
I31
sVspecialization
p580
I1
sVauthor
p581
I12
sV)
p582
I72
sVmedia
p583
I1
sVmake
p584
I8
sVsame
p585
I15
sVany
p586
I3
sVcomplex
p587
I2
sVwidely
p588
I1
sVraghavan
p589
I1
sVevents
p590
I1
sVdifficult
p591
I1
sVdevelopment
p592
I2
sVevolve
p593
I1
sVliterature
p594
I2
sVcommonsense
p595
I3
sVpublished
p596
I1
sVhand
p597
I1
sVpersons
p598
I12
sVcontribution
p599
I1
sVthoughts
p600
I1
sVrecent
p601
I2
sVrelies
p602
I2
sVlower
p603
I1
sVscenario
p604
I1
sVocean
p605
I1
sVperson
p606
I17
sVwithout
p607
I1
sVincapable
p608
I3
sVstudying
p609
I1
sVorganization
p610
I1
sVthe
p611
I334
sVdimension
p612
I4
sVresearchers
p613
I4
sVbrowsing
p614
I1
sVunified
p615
I2
sVimpression
p616
I1
sVjust
p617
I1
sVamong
p618
I1
sVwhen
p619
I3
sV2003
p620
I1
sVfront
p621
I1
sVhuman
p622
I9
sVbehind
p623
I1
sVnavlakha
p624
I1
sVsummaries
p625
I25
sVprevious
p626
I1
sVweb
p627
I2
sVoverlapped
p628
I1
sVrapid
p629
I1
sVreaders
p630
I21
sVregarded
p631
I4
sVlarge-scale
p632
I1
sVadvertisements
p633
I1
sVrecognizing
p634
I1
sVempiricism
p635
I1
sVrealize
p636
I3
sVsimple
p637
I1
sVinterested
p638
I1
sVtransformed
p639
I3
sV4
p640
I3
sVeasy
p641
I1
sVtechnological
p642
I1
sVusage
p643
I2
sVinput
p644
I4
sVhas
p645
I4
sVtransformation
p646
I4
sVmatch
p647
I2
sVreal
p648
I1
sV...
p649
I4
sVaspects
p650
I3
sVreuse
p651
I1
sVrepresents
p652
I2
sVread
p653
I5
sVbig
p654
I1
sVdigital
p655
I3
sVgame
p656
I1
sVknow
p657
I7
sVbackground
p658
I1
sVdeployment
p659
I1
sVusing
p660
I1
sVunique
p661
I5
sVcognitive
p662
I15
sVnecessary
p663
I2
sVlike
p664
I5
sVfollows
p665
I2
sVfacets
p666
I1
sVdictionaries
p667
I1
sVunnecessary
p668
I5
sVloses
p669
I1
sVspecific
p670
I6
sVcollect
p671
I2
sVindividuals
p672
I1
sVoutput
p673
I1
sVsecurity
p674
I1
sVworks
p675
I1
sVessential
p676
I1
sVmathematical
p677
I1
sVsatisfactory
p678
I3
sVbecause
p679
I29
sVmethods
p680
I1
sVpeople
p681
I17
sVsome
p682
I6
sVsearching
p683
I4
sVcompetition
p684
I1
sVunderstood
p685
I2
sVeconomic
p686
I1
sVconvey
p687
I2
sV's
p688
I21
sVextended
p689
I1
sVcategory
p690
I2
sVreasons
p691
I1
sVshort-term
p692
I1
sVscale
p693
I1
sVdimensions
p694
I16
sVfor
p695
I58
sVsymbiotic
p696
I1
sVarchitecture
p697
I1
sVdoes
p698
I4
sVshakespeare
p699
I1
sVprovides
p700
I2
sVdynamicity
p701
I3
sVsemantically
p702
I1
sVunderstandings
p703
I2
sV?
p704
I1
sVinserting
p705
I1
sVbe
p706
I69
sVscientific
p707
I6
sVreaching
p708
I3
sVseconds
p709
I1
sVselecting
p710
I2
sVprocessing
p711
I2
sVcommunicate
p712
I4
sVexpansion
p713
I2
sVnotably
p714
I1
sVadditive
p715
I2
sVontology
p716
I1
sVby
p717
I14
sVtakes
p718
I1
sVon
p719
I16
sVabout
p720
I2
sVcarried
p721
I1
sVextension
p722
I2
sVof
p723
I166
sVgenerated
p724
I3
sVcarries
p725
I1
sVor
p726
I3
sVautomatically
p727
I1
sVown
p728
I4
sVinto
p729
I7
sVwithin
p730
I2
sVcombine
p731
I1
sVrendering
p732
I1
sVappropriate
p733
I3
sVright
p734
I1
sVreferences
p735
I1
sVdetermine
p736
I2
sV.
p737
I275
sVmental
p738
I3
sVimpressed
p739
I1
sVrely
p740
I3
sVartifacts
p741
I1
sVthere
p742
I2
sVcomposing
p743
I1
sVslow-motion
p744
I1
sVway
p745
I3
sV:
p746
I13
sVwas
p747
I4
sVform
p748
I6
sV6
p749
I1
sVbut
p750
I6
sVidea
p751
I2
sVconstruction
p752
I2
sVlink
p753
I5
sVgoals
p754
I1
sVwith
p755
I33
sValso
p756
I4
sVarranged
p757
I1
sVcharacteristic
p758
I1
sVdevices
p759
I2
sVplaced
p760
I1
sVproblem
p761
I7
sVsimilar
p762
I3
sVdisplay
p763
I3
sVvideos
p764
I6
sVpatterns
p765
I2
sVcertain
p766
I2
sVabstract
p767
I1
sVcitation
p768
I4
sVinfluence
p769
I4
sVgenerating
p770
I1
sVgeneral
p771
I3
sV''
p772
I8
sVas
p773
I27
sVdiverse
p774
I1
sVexist
p775
I4
sVat
p776
I11
sVwebpages
p777
I2
sVclauses
p778
I1
sVeducation
p779
I4
sVhumanized
p780
I1
sVinternal
p781
I1
sVphysical
p782
I2
sVbeyond
p783
I1
sVlocality
p784
I1
sVimage
p785
I1
sVhybrid
p786
I1
sVfield
p787
I2
sVother
p788
I11
sV5
p789
I3
sVpapers
p790
I5
sVu
p791
I4
sVconclusion
p792
I1
sVpoor
p793
I1
sVpicture
p794
I6
sVkinds
p795
I3
sVusers
p796
I3
sVfootball
p797
I1
sVproblems
p798
I1
sVmeaning
p799
I8
sVimportant
p800
I7
sV'a
p801
I1
sVformal
p802
I1
sVcooperate
p803
I2
sVstructure
p804
I10
sVmood
p805
I3
sVimplies
p806
I4
sVlead
p807
I5
sVassume
p808
I1
sVspace
p809
I11
sVdaily
p810
I3
sV2002
p811
I1
sVcikm2012
p812
I1
sVcompete
p813
I1
sVback
p814
I1
sVtime
p815
I12
sV2008
p816
I2
sV2009
p817
I2
sVkrakauer
p818
I1
sVoriginal
p819
I7
ssS'Ftag'
p820
Vf0001
p821
sS'ConcWordDic'
p822
(dp823
Vrepresent
p824
I1
sVhelp
p825
I1
sVtext
p826
I1
sVbroaden
p827
I1
sVmainly
p828
I2
sVexisting
p829
I1
sVpaper
p830
I1
sVthrough
p831
I2
sVhuman
p832
I3
sVinnovative
p833
I1
sVprevious
p834
I1
sVlinguistics
p835
I1
sVrapidly
p836
I1
sVreaders
p837
I1
sg229
I19
sVforms
p838
I1
sVto
p839
I7
sVciting
p840
I1
sVconcerns
p841
I1
sVsystems
p842
I2
sVinclude
p843
I1
sVsummarizes
p844
I1
sVviewpoint
p845
I1
sVmeans
p846
I1
sVputting
p847
I1
sVpsychology
p848
I1
sVrealize
p849
I1
sVevolution
p850
I1
sVnecessary
p851
I1
sVcognitive
p852
I1
sVspaces
p853
I1
sVincluding
p854
I1
sVautomatic
p855
I2
sVessential
p856
I1
sVrequirement
p857
I1
sVcyberspace
p858
I1
sVintelligence
p859
I1
sVhard
p860
I1
sVbreakthrough
p861
I1
sVsociety
p862
I1
sVcomputer
p863
I1
sVvideo
p864
I1
sVare
p865
I1
sVmultiple
p866
I4
sVorganizing
p867
I1
sVhuman-level
p868
I1
sVout
p869
I1
sVdimensions
p870
I3
sVfor
p871
I2
sVpictures
p872
I1
sVsymbiotic
p873
I1
sVnature
p874
I1
sVartificial
p875
I1
sVresearch
p876
I3
sVimplicit
p877
I1
sVvarious
p878
I2
sVbetween
p879
I1
sVprogress
p880
I1
sVmethod
p881
I2
sVcore
p882
I1
sVtheory
p883
I1
sVinteractions
p884
I3
sVselecting
p885
I1
sVhowever
p886
I1
sVunderstanding
p887
I1
sVexplore
p888
I1
sVcross-disciplinary
p889
I1
sVrelying
p890
I1
sVon
p891
I2
sVcarried
p892
I1
sVinvolved
p893
I1
sVaccording
p894
I1
sVsocial
p895
I1
sVor
p896
I1
sVmajor
p897
I1
sVhuman-machine-nature
p898
I1
sVinto
p899
I1
sVreaches
p900
I1
sVtexts
p901
I2
sVneuroscience
p902
I1
sVopen
p903
I1
sVstatistics
p904
I1
sVfrom
p905
I3
sVarea
p906
I1
sVbeen
p907
I1
sg737
I13
sVcitations
p908
I1
sVway
p909
I1
sVbasic
p910
I1
sVlinguistic
p911
I1
sg350
I5
sVthat
p912
I1
sVdifferences
p913
I1
sVscope
p914
I1
sVattempt
p915
I1
sVgeneral
p916
I1
sVwith
p917
I1
sVthis
p918
I3
sVscience
p919
I2
sVwork
p920
I1
sVempirical
p921
I1
sVwhile
p922
I1
sVof
p923
I8
sVapproaches
p924
I2
sVand
p925
I15
sVmotivation
p926
I1
sVvideos
p927
I1
sVexpanding
p928
I1
sVis
p929
I7
sVit
p930
I3
sVan
p931
I3
sVas
p932
I1
sVdiverse
p933
I1
sVhave
p934
I1
sVin
p935
I4
sVdevelop
p936
I1
sVneglecting
p937
I1
sVmake
p938
I1
sVmachine
p939
I1
sVwriters
p940
I1
sVrelies
p941
I1
sVinspire
p942
I1
sVpicture
p943
I1
sVexplores
p944
I1
sVphilosophy
p945
I1
sVreflect
p946
I1
sVsignificant
p947
I1
sVrepresentations
p948
I2
sVstructure
p949
I1
sVnetwork
p950
I1
sVsummarization
p951
I12
sVnatural
p952
I1
sVexplicit
p953
I1
sVanalysis
p954
I1
sVgraphs
p955
I1
sVfundamental
p956
I1
sVstudying
p957
I1
sVrepresentation
p958
I3
sVthe
p959
I10
sVphysics
p960
I1
ssS'AbsWordDic'
p961
(dp962
Vtext
p963
I2
sVover
p964
I1
sVdesirable
p965
I1
sVsatisfied
p966
I1
sVproposes
p967
I1
sVpaper
p968
I1
sVthrough
p969
I1
sVhuman
p970
I1
sVstill
p971
I1
sVits
p972
I1
sVprevious
p973
I1
sVmulti-dimensional
p974
I3
sVrapid
p975
I1
sg431
I3
sg229
I15
sVshould
p976
I1
sVforms
p977
I1
sVto
p978
I3
sVextends
p979
I1
sVhas
p980
I1
sVsummarizes
p981
I1
sVthen
p982
I1
sg482
I1
sVframework
p983
I1
sVhalf
p984
I1
sVsummary
p985
I3
sVautomatic
p986
I1
sVmethods
p987
I1
sVintelligence
p988
I1
sVhard
p989
I1
sVsome
p990
I2
sVprinciples
p991
I2
sVare
p992
I1
sVfurther
p993
I1
sVout
p994
I1
sVby
p995
I1
sVplays
p996
I1
sVdimensions
p997
I2
sVfor
p998
I3
sVspace
p999
I4
sVpictures
p1000
I3
sVresearch
p1001
I1
sVimplicit
p1002
I1
sVinvestigation
p1003
I1
sVvarious
p1004
I2
sV;
p1005
I2
sVevaluation
p1006
I1
sVconsisting
p1007
I1
sVcore
p1008
I1
sVinteractions
p1009
I1
sVmechanisms
p1010
I2
sVexpansion
p1011
I1
sVunderstanding
p1012
I3
sVapproaches
p1013
I1
sVviewpoints
p1014
I1
sVkey
p1015
I1
sVgenerate
p1016
I1
sVlanguage
p1017
I2
sVof
p1018
I13
sVstudied
p1019
I2
sVintroduces
p1020
I1
sVmethodology
p1021
I1
sVcarries
p1022
I1
sVcitations
p1023
I1
sVsocial
p1024
I1
sVsuitable
p1025
I1
sVstudies
p1026
I1
sVneglect
p1027
I1
sVautomatically
p1028
I1
sVbehaviors
p1029
I1
sVfeatures
p1030
I1
sVclassification
p1031
I1
sVinto
p1032
I1
sVreaches
p1033
I1
sVone
p1034
I1
sVtexts
p1035
I2
sVopen
p1036
I1
sVuse
p1037
I2
sVindicated
p1038
I1
sVbeen
p1039
I1
sg737
I9
sVintention
p1040
I1
sg343
I1
sVbasic
p1041
I3
sg746
I1
sVmore
p1042
I2
sg350
I7
sVform
p1043
I1
sVbecomes
p1044
I1
sVbut
p1045
I1
sVincorporation
p1046
I1
sVcontinual
p1047
I1
sVgeneral
p1048
I1
sVwith
p1049
I1
sVinclude
p1050
I1
sVextension
p1051
I1
sVthis
p1052
I1
sVunveils
p1053
I1
sVinvolved
p1054
I1
sVand
p1055
I20
sVvideos
p1056
I2
sVcentury
p1057
I1
sVprocess
p1058
I2
sVcharacteristics
p1059
I2
sVis
p1060
I4
sVit
p1061
I2
sVan
p1062
I2
sVdiverse
p1063
I1
sVhave
p1064
I1
sVin
p1065
I5
sVphysical
p1066
I1
sg582
I3
sg169
I1
sVempirically
p1067
I1
sVcomplex
p1068
I1
sVrole
p1069
I1
sVdevelopment
p1070
I1
sVcyberspace
p1071
I2
sVmultiple
p1072
I1
sVimportant
p1073
I1
sVinvestigates
p1074
I1
sVrepresentations
p1075
I1
sVsummarization
p1076
I11
sVexplicit
p1077
I1
sVtraditional
p1078
I1
sVgraphs
p1079
I1
sVfundamental
p1080
I2
sVrepresentation
p1081
I2
sVthe
p1082
I9
ssS'A_CWordDic'
p1083
(dp1084
g824
I1
sg825
I1
sg963
I3
sg964
I1
sg965
I1
sg966
I1
sg829
I1
sg967
I1
sg968
I2
sg969
I3
sg970
I4
sg833
I1
sg971
I1
sg972
I1
sg973
I2
sg835
I1
sg974
I3
sg975
I1
sg836
I1
sg837
I1
sg431
I3
sg229
I34
sg976
I1
sg977
I2
sg978
I10
sg840
I1
sg841
I1
sg979
I1
sg842
I2
sg980
I1
sg827
I1
sg981
I2
sg982
I1
sg845
I1
sg846
I1
sg828
I2
sg983
I1
sg847
I1
sg984
I1
sg343
I1
sg849
I1
sg850
I1
sg851
I1
sg852
I1
sg894
I1
sg985
I3
sg950
I1
sg853
I1
sg854
I1
sg986
I3
sg856
I1
sg1067
I1
sg857
I1
sg987
I1
sg943
I1
sg988
I2
sg989
I2
sg990
I2
sg991
I2
sg861
I1
sg862
I1
sg863
I1
sg864
I1
sg992
I2
sg993
I1
sg867
I1
sg868
I1
sg994
I2
sg996
I1
sg997
I5
sg998
I5
sg999
I4
sg1000
I4
sg873
I1
sg874
I1
sg875
I1
sg1001
I4
sg881
I2
sg482
I1
sg1003
I1
sg1004
I4
sg879
I1
sg880
I1
sg1005
I2
sg1006
I1
sg1007
I1
sg1008
I2
sg883
I1
sg1009
I4
sg885
I1
sg1010
I2
sg886
I1
sg1011
I1
sg1012
I4
sg1013
I3
sg1014
I1
sg1015
I1
sg889
I1
sg995
I1
sg891
I2
sg892
I1
sg1017
I2
sg1018
I21
sg1019
I2
sg1020
I1
sg888
I1
sg1022
I1
sg1024
I2
sg940
I1
sg1025
I1
sg1026
I1
sg1027
I1
sg1028
I1
sg1055
I35
sg897
I1
sg1030
I1
sg1031
I1
sg898
I1
sg1032
I2
sg926
I1
sg1033
I2
sg1034
I1
sg1035
I4
sg902
I1
sg737
I22
sg1036
I2
sg1037
I2
sg904
I1
sg905
I3
sg1056
I3
sg906
I1
sg1039
I2
sg1002
I2
sg1040
I1
sg1023
I2
sg909
I1
sg1041
I4
sg911
I1
sg746
I1
sg1042
I2
sg1076
I23
sg1043
I1
sg912
I1
sg1044
I1
sg913
I1
sg944
I1
sg1045
I1
sg1046
I1
sg914
I1
sg1047
I1
sg952
I1
sg1062
I5
sg1049
I2
sg928
I1
sg1050
I2
sg1051
I1
sg1052
I4
sg919
I2
sg920
I1
sg921
I1
sg1053
I1
sg922
I1
sg1054
I2
sg1029
I1
sg1016
I1
sg1038
I1
sg1057
I1
sg1058
I2
sg1059
I2
sg1060
I11
sg1061
I5
sg1048
I2
sg890
I1
sg1063
I2
sg1064
I2
sg1065
I9
sg932
I1
sg1066
I1
sg939
I1
sg936
I1
sg582
I3
sg937
I1
sg938
I1
sg169
I1
sg1021
I1
sg1068
I1
sg1069
I1
sg941
I1
sg942
I1
sg1070
I1
sg1071
I3
sg1072
I5
sg945
I1
sg946
I1
sg1073
I1
sg1074
I1
sg947
I1
sg1075
I3
sg949
I1
sg848
I1
sg350
I12
sg915
I1
sg1077
I2
sg954
I1
sg896
I1
sg1078
I1
sg1079
I2
sg1080
I3
sg957
I1
sg1081
I5
sg1082
I19
sg960
I1
ssba(icmyPackage
FWordDic
p1085
(dp1086
g3
(dp1087
Vdisplays
p1088
I1
sVhelp
p1089
I1
sVshow
p1090
I1
sVbeing
p1091
I2
sVdeveloped
p1092
I1
sVglobal
p1093
I1
sVdynamic
p1094
I1
sVresults
p1095
I3
sVdetermine
p1096
I1
sVthrough
p1097
I2
sVcomments
p1098
I1
sVhuman
p1099
I1
sVinnovative
p1100
I2
sVconsists
p1101
I1
sVresearch
p1102
I8
sVfusing
p1103
I1
sVnetworks
p1104
I7
sVdiscipline
p1105
I4
sVweb
p1106
I1
sVcategories
p1107
I1
sVbased
p1108
I1
sVknowledge
p1109
I33
sg403
I1
sVpersonal
p1110
I1
sg431
I2
sVsolving
p1111
I2
sg229
I33
sVincluding
p1112
I1
sVenvironment
p1113
I3
sVto
p1114
I16
sVonly
p1115
I2
sVspread
p1116
I2
sVspirals
p1117
I1
sVnetworking
p1118
I2
sV8
p1119
I1
sVnodes
p1120
I2
sVhas
p1121
I2
sVadvanced
p1122
I1
sVactivities
p1123
I1
sVthem
p1124
I3
sVgenerously
p1125
I1
sVinterdisciplinary
p1126
I1
sVvery
p1127
I1
sVenrich
p1128
I1
sVscientists
p1129
I5
sVe-science
p1130
I3
sVfusion
p1131
I1
sVevery
p1132
I2
sVepidemic
p1133
I1
sVnot
p1134
I2
sVusing
p1135
I2
sVemergence
p1136
I1
sVmaintaining
p1137
I1
sVareas
p1138
I3
sVarticles
p1139
I9
sVevolution
p1140
I3
sVeffectiveness
p1141
I3
sV--
p1142
I1
sVlist
p1143
I1
sVzoom
p1144
I1
sVbenefit
p1145
I1
sVcommon
p1146
I1
sVteam
p1147
I6
sVsustainable
p1148
I1
sVoutput
p1149
I1
sVcooperation
p1150
I1
sVeventually
p1151
I1
sVdevelopment
p1152
I4
sVeveryone
p1153
I1
sVstatistical
p1154
I2
sVhierarchy
p1155
I1
sVpeople
p1156
I1
sVenergy
p1157
I2
sVdiscover
p1158
I1
sVchronology
p1159
I1
sVimply
p1160
I2
sVinvention
p1161
I1
sVare
p1162
I1
sVoperation
p1163
I1
sVorganizing
p1164
I1
sVout
p1165
I1
sVcategory
p1166
I1
sVshown
p1167
I1
sg582
I2
sVdense
p1168
I2
sVnetwork
p1169
I14
sVfor
p1170
I3
sVmaturity
p1171
I1
sVmanaging
p1172
I1
sVcliques
p1173
I2
sVpublish
p1174
I1
sVreasoning
p1175
I1
sVincrease
p1176
I1
sVimplicit
p1177
I1
sVdiscovers
p1178
I1
sVgoes
p1179
I1
sVbetween
p1180
I5
sVnew
p1181
I4
sg1005
I2
sVknowing
p1182
I1
sVbe
p1183
I3
sVscientific
p1184
I3
sVraise
p1185
I1
sVrelationships
p1186
I1
sVselecting
p1187
I1
sVeach
p1188
I1
sVhowever
p1189
I1
sVefficiency
p1190
I1
sVmembers
p1191
I2
sg84
I1
sVarticle
p1192
I2
sVestimate
p1193
I2
sVby
p1194
I10
sVstage
p1195
I1
sVon
p1196
I1
sVemergent
p1197
I1
sVgeneralizing
p1198
I1
sVco-authors
p1199
I2
sVepidemics
p1200
I1
sVof
p1201
I28
sVretrieving
p1202
I1
sVbut
p1203
I2
sVaccording
p1204
I2
sV7
p1205
I1
sVpropagation
p1206
I1
sVensure
p1207
I1
sVshare
p1208
I1
sVchanges
p1209
I2
sVhelps
p1210
I2
sVplan
p1211
I1
sVthen
p1212
I2
sVrelevant
p1213
I2
sVgroups
p1214
I1
sVhigher-energy
p1215
I1
sVwithin
p1216
I2
sVpowerful
p1217
I1
sVencouraging
p1218
I1
sVcommunity
p1219
I2
sVlinking
p1220
I1
sVappropriate
p1221
I2
sVanalyzing
p1222
I2
sVanother
p1223
I1
sVpath
p1224
I1
sVopenness
p1225
I1
sVstrategy
p1226
I3
sVduring
p1227
I1
sVlibraries
p1228
I1
sVselect
p1229
I1
sVrevealing
p1230
I1
sVmanagement
p1231
I3
sVfrom
p1232
I6
sVpublication
p1233
I1
sVservice
p1234
I5
sVarea
p1235
I7
sVdata
p1236
I1
sVthere
p1237
I1
sVdirection
p1238
I1
sVsystem
p1239
I1
sg737
I28
sVtheir
p1240
I4
sVcitations
p1241
I7
sVrates
p1242
I1
sVinterest
p1243
I2
sVrecommend
p1244
I1
sVteamwork
p1245
I3
sg746
I1
sVcited
p1246
I3
sVinflow
p1247
I1
sVgenerating
p1248
I1
sVsharing
p1249
I1
sVenhancing
p1250
I1
sVthat
p1251
I6
sVbrains
p1252
I1
sVformed
p1253
I1
sVcontribute
p1254
I1
sVdistribution
p1255
I4
sVinnovate
p1256
I1
sVcooperate
p1257
I1
sVgenerate
p1258
I1
sVreflecting
p1259
I1
sVsimulate
p1260
I1
sVauthors
p1261
I9
sVconvergence
p1262
I1
sVinventing
p1263
I1
sVpromote
p1264
I1
sVwith
p1265
I2
sVthan
p1266
I1
sVsemantics
p1267
I1
sVespecially
p1268
I1
sV11
p1269
I1
sVevolves
p1270
I1
sVmining
p1271
I1
sVroles
p1272
I1
sVthis
p1273
I6
sValso
p1274
I2
sVcite
p1275
I2
sVtracing
p1276
I2
sVlead
p1277
I1
sVcan
p1278
I12
sVmature
p1279
I1
sVinvolved
p1280
I2
sVfollowing
p1281
I1
sVproblem
p1282
I2
sVenables
p1283
I5
sVdisplay
p1284
I1
sVextracting
p1285
I2
sVand
p1286
I32
sVreferences
p1287
I2
sVranking
p1288
I1
sVprocess
p1289
I1
sVis
p1290
I6
sVcitation
p1291
I7
sVthus
p1292
I2
sVit
p1293
I3
sVgeneralization
p1294
I1
sVan
p1295
I7
sVeffectively
p1296
I1
sVas
p1297
I5
sVat
p1298
I2
sVin
p1299
I16
sVtrusted
p1300
I1
sVif
p1301
I3
sVdifferent
p1302
I2
sVdocuments
p1303
I2
sVrelationship
p1304
I1
sVprovide
p1305
I1
sVwhen
p1306
I1
sVhow
p1307
I1
sVinfluences
p1308
I1
sVdigital
p1309
I1
sVfinding
p1310
I4
sVmore
p1311
I2
sVseveral
p1312
I1
sVnode
p1313
I2
sVclassifying
p1314
I1
sVliterature
p1315
I1
sVusers
p1316
I1
sVreach
p1317
I1
sVflows
p1318
I4
sVexpressing
p1319
I1
sVvirus
p1320
I1
sVdetect
p1321
I2
sVtwo
p1322
I3
sVservices
p1323
I2
sVunselfish
p1324
I1
sVmodel
p1325
I1
sVtypes
p1326
I1
sg350
I23
sVpeers
p1327
I1
sg284
I2
sVeffective
p1328
I4
sVrules
p1329
I1
sVmakes
p1330
I2
sVflow
p1331
I17
sVrather
p1332
I1
sVcontact
p1333
I2
sVso
p1334
I1
sVgreatest
p1335
I1
sVtime
p1336
I1
sVcomparisons
p1337
I1
sVthe
p1338
I52
sVlooking
p1339
I2
sVits
p1340
I4
ssg820
Vf0002
p1341
sg822
(dp1342
Vdynamic
p1343
I1
sVplanning
p1344
I1
sVincluding
p1345
I1
sVcooperative
p1346
I1
sVusing
p1347
I1
sVnetworks
p1348
I2
sVissues
p1349
I2
sV21st
p1350
I1
sVknowledge
p1351
I8
sg229
I17
sVenvironment
p1352
I2
sVto
p1353
I5
sVonly
p1354
I1
sVhelps
p1355
I1
sVtechnological
p1356
I1
sVdiscovering
p1357
I1
sVresolved
p1358
I1
sVactivities
p1359
I1
sVrules
p1360
I1
sVgrid
p1361
I1
sVnot
p1362
I1
sVduring
p1363
I1
sVevolution
p1364
I1
sVcognitive
p1365
I1
sVsupports
p1366
I1
sVinvestigate
p1367
I1
sVteam
p1368
I1
sVhuman
p1369
I3
sVdisciplines
p1370
I1
sVinnovative
p1371
I1
sVchallenges
p1372
I1
sVsociety
p1373
I2
sVindividual
p1374
I1
sVare
p1375
I3
sVoperation
p1376
I1
sVfor
p1377
I1
sVresearch
p1378
I2
sVeconomical
p1379
I1
sVscientists
p1380
I1
sVapproach
p1381
I1
sVbe
p1382
I1
sVscientific
p1383
I4
sVpower
p1384
I1
sVnature
p1385
I1
sVof
p1386
I5
sVhowever
p1387
I1
sVassists
p1388
I1
sVarticle
p1389
I1
sVgenerate
p1390
I1
sVgreat
p1391
I1
sVmany
p1392
I1
sVsocial
p1393
I1
sVmakes
p1394
I1
sVautomatically
p1395
I1
sVmajor
p1396
I1
sVrelevant
p1397
I1
sVwithin
p1398
I1
sVe-science
p1399
I1
sVpsychological
p1400
I1
sVphilosophical
p1401
I1
sVmanagement
p1402
I2
sVnetworking
p1403
I1
sg737
I6
sVdescribes
p1404
I1
sVteamwork
p1405
I1
sVmore
p1406
I1
sVexploring
p1407
I1
sVbut
p1408
I1
sVpromote
p1409
I1
sVthis
p1410
I1
sVscience
p1411
I1
sVchallenge
p1412
I1
sVfuture
p1413
I1
sVcan
p1414
I1
sVuniverse
p1415
I1
sVembody
p1416
I1
sVautonomous
p1417
I1
sVand
p1418
I11
sVcentury
p1419
I1
sVinfluence
p1420
I1
sVit
p1421
I1
sVan
p1422
I3
sVas
p1423
I1
sVin
p1424
I3
sVyet
p1425
I1
sVdocuments
p1426
I1
sValso
p1427
I1
sVother
p1428
I1
sVinterconnection
p1429
I1
sVwhich
p1430
I1
sVdevelopment
p1431
I2
sVexplores
p1432
I1
sVimportant
p1433
I1
sVsuch
p1434
I1
sg350
I1
sVeffective
p1435
I1
sVflow
p1436
I4
sVthe
p1437
I7
ssg961
(dp1438
Vand
p1439
I8
sVcontrol
p1440
I1
sVprocess
p1441
I1
sVis
p1442
I2
sVcitation
p1443
I1
sVpowerful
p1444
I1
sVe-science
p1445
I1
sVvaluable
p1446
I1
sVincluding
p1447
I1
sVare
p1448
I2
sVanother
p1449
I1
sVin
p1450
I1
sVconsists
p1451
I1
sVcoordinating
p1452
I1
sVfusing
p1453
I2
sVits
p1454
I1
sVby
p1455
I1
sVencouraging
p1456
I1
sVknowledge
p1457
I9
sVfor
p1458
I2
sVmanaging
p1459
I1
sVdata
p1460
I1
sVsolving
p1461
I1
sg229
I12
sg737
I5
sVenvironment
p1462
I1
sVrecognizing
p1463
I1
sVinventing
p1464
I1
sVteamwork
p1465
I1
sVhelps
p1466
I1
sVcooperation
p1467
I1
sVscientists
p1468
I1
sVdiscovering
p1469
I1
sVutilizing
p1470
I1
sVeffectiveness
p1471
I1
sVthat
p1472
I2
sVworkflows
p1473
I1
sVbetween
p1474
I2
sVreach
p1475
I1
sVproblem
p1476
I1
sVflows
p1477
I5
sVunderstanding
p1478
I1
sVnodes
p1479
I1
sVgrid
p1480
I1
sVauthors
p1481
I1
sVservices
p1482
I1
sVsuch
p1483
I1
sVunselfish
p1484
I1
sVimplicit
p1485
I1
sVadvanced
p1486
I1
sVnetwork
p1487
I3
sg350
I1
sVgeneralizing
p1488
I1
sVeffective
p1489
I1
sVco-authors
p1490
I1
sVscience
p1491
I1
sVmeans
p1492
I1
sVintegrating
p1493
I1
sVflow
p1494
I3
sVresoning
p1495
I1
sVgreatest
p1496
I1
sVof
p1497
I2
sVstategy
p1498
I1
sVmaking
p1499
I1
sVthe
p1500
I3
ssg1083
(dp1501
g1440
I1
sg1396
I1
sg1397
I1
sg1473
I1
sg1444
I1
sg1445
I2
sg1446
I1
sg1400
I1
sg1363
I1
sg1344
I1
sg1447
I2
sg1449
I1
sg1347
I1
sg1451
I1
sg1378
I2
sg1453
I2
sg1454
I1
sg1349
I2
sg1350
I1
sg1402
I2
sg1403
I1
sg1457
I17
sg1484
I1
sg1461
I1
sg229
I29
sg737
I11
sg1462
I3
sg1353
I5
sg1354
I1
sg1381
I1
sg1465
I2
sg1466
I2
sg1356
I1
sg1469
I2
sg1470
I1
sg1406
I1
sg1358
I1
sg1359
I1
sg1398
I1
sg1379
I1
sg1472
I2
sg1360
I1
sg1343
I1
sg1474
I2
sg1408
I1
sg1456
I1
sg1485
I1
sg1495
I1
sg1480
I2
sg1452
I1
sg1362
I1
sg1464
I1
sg1409
I1
sg1479
I1
sg1486
I1
sg1364
I1
sg1365
I1
sg1493
I1
sg1410
I1
sg1491
I2
sg1412
I1
sg1401
I1
sg1367
I1
sg1413
I1
sg1414
I1
sg1368
I1
sg1498
I1
sg1499
I1
sg1476
I1
sg1439
I19
sg1417
I1
sg1390
I1
sg1419
I1
sg1346
I1
sg1370
I1
sg1407
I1
sg1441
I1
sg1442
I2
sg1443
I1
sg1420
I1
sg1421
I1
sg1422
I3
sg1372
I1
sg1373
I2
sg1423
I1
sg1374
I1
sg1448
I5
sg1450
I4
sg1376
I1
sg1425
I1
sg1426
I1
sg1487
I3
sg1458
I3
sg1459
I1
sg1404
I1
sg1492
I1
sg1348
I2
sg1427
I1
sg1463
I1
sg1428
I1
sg1429
I1
sg1467
I1
sg1468
I2
sg1471
I1
sg1366
I1
sg1431
I2
sg1382
I1
sg1432
I1
sg1383
I4
sg1384
I1
sg1385
I1
sg1371
I1
sg1369
I3
sg1475
I1
sg1387
I1
sg1477
I5
sg1478
I1
sg1416
I1
sg1481
I1
sg1388
I1
sg1415
I1
sg1482
I1
sg1483
I2
sg1389
I1
sg1460
I1
sg1455
I1
sg350
I2
sg1391
I1
sg1488
I1
sg1489
I2
sg1490
I1
sg1497
I7
sg1392
I1
sg1494
I7
sg1430
I1
sg1433
I1
sg1496
I1
sg1393
I1
sg1500
I10
sg1394
I1
sg1395
I1
ssba(icmyPackage
FWordDic
p1502
(dp1503
g3
(dp1504
Vlimited
p1505
I5
sVall
p1506
I4
sVsemantic
p1507
I82
sVsecondly
p1508
I1
sVglobal
p1509
I1
sVtriangle-based
p1510
I1
sVresults
p1511
I2
sVexisting
p1512
I2
sVleads
p1513
I3
sVfacilities
p1514
I1
sVgo
p1515
I2
sVquery
p1516
I1
sVexpressions
p1517
I1
sVdecisions
p1518
I1
sVreasoning
p1519
I22
sVlocalized
p1520
I1
sVsystem
p1521
I4
sVmemex
p1522
I2
sVphysiological
p1523
I8
sVconcerned
p1524
I1
sVtechnique
p1525
I1
sVenvironment
p1526
I3
sVto
p1527
I153
sVbehave
p1528
I2
sVpreserved
p1529
I2
sVenhance
p1530
I2
sVnodes
p1531
I17
sVinclude
p1532
I1
sVpre-designed
p1533
I1
sVresources
p1534
I3
sVactivities
p1535
I1
sVcollaborate
p1536
I1
sVorthogonal
p1537
I2
sVdynamic
p1538
I2
sVfig.12
p1539
I1
sVconnects
p1540
I1
sVtelling
p1541
I1
sVemphasized
p1542
I1
sVdifference
p1543
I4
sVco-experience
p1544
I4
sVlevel
p1545
I2
sVcrops
p1546
I1
sVgraph-based
p1547
I2
sVintegrating
p1548
I3
sVstandards
p1549
I2
sVlarge
p1550
I1
sVassignments
p1551
I1
sVvector
p1552
I1
sVself-organize
p1553
I1
sVsmall
p1554
I2
sVreasoning/navigation
p1555
I1
sVpursuit
p1556
I1
sVdeleting
p1557
I1
sVthe
p1558
I308
sVabstracted
p1559
I11
sVmulti-agent
p1560
I1
sVphones
p1561
I1
sVamong
p1562
I1
sVdiscover
p1563
I2
sVcyber
p1564
I28
sVpast
p1565
I1
sVslowed
p1566
I2
sVinvention
p1567
I1
sVdesign
p1568
I6
sVvalue
p1569
I1
sVpass
p1570
I2
sVfurther
p1571
I2
sVimplemented
p1572
I1
sVmachines
p1573
I11
sVscientific
p1574
I2
sVeven
p1575
I1
sVwhat
p1576
I2
sVpaintings
p1577
I5
sVinteractions
p1578
I11
sVsln
p1579
I19
sVoverload
p1580
I1
sVnetworks
p1581
I1
sVcurrent
p1582
I5
sVexperiment
p1583
I1
sVissues
p1584
I4
sVabove
p1585
I2
sVscientists
p1586
I1
sVnew
p1587
I11
sVnet
p1588
I1
sVmethod
p1589
I4
sVcontrast
p1590
I1
sVmetadata
p1591
I1
sVsupporting
p1592
I1
sVevolving
p1593
I7
sVsimultaneously
p1594
I1
sVnotions
p1595
I1
sVunderstanding
p1596
I4
sVobjects
p1597
I6
sVoperating
p1598
I1
sVcompressed
p1599
I1
sVothers
p1600
I1
sVactive
p1601
I1
sVlatent
p1602
I1
sg84
I34
sVinvented
p1603
I1
sVimplicit
p1604
I3
sVchange
p1605
I5
sVsearch
p1606
I1
sV38
p1607
I2
sVhealthy
p1608
I1
sV32
p1609
I1
sV31
p1610
I1
sVstretching
p1611
I2
sVexperience
p1612
I5
sVrdf
p1613
I1
sVproducts
p1614
I1
sVbrowsing
p1615
I2
sVaction
p1616
I1
sVimplement
p1617
I1
sVchanges
p1618
I2
sVhelps
p1619
I3
sVemerge
p1620
I10
sVlive
p1621
I4
sVtasks
p1622
I1
sVclassification
p1623
I9
sVmanage
p1624
I1
sVengineering
p1625
I1
sVpsychological
p1626
I9
sVwhy
p1627
I3
sVanalyzing
p1628
I4
sVcommonalities
p1629
I2
sVestablish
p1630
I3
sVlanguages
p1631
I7
sVuse
p1632
I8
sVfrom
p1633
I12
sVlinks
p1634
I41
sVbrowse
p1635
I1
sVdestination
p1636
I1
sVnegative
p1637
I1
sVcentrality
p1638
I3
sVdepicted
p1639
I2
sVtherefore
p1640
I2
sg749
I2
sVtype
p1641
I4
sVpreliminary
p1642
I1
sVreflects
p1643
I2
sVmore
p1644
I7
sVintroducing
p1645
I1
sVanalogical
p1646
I2
sVbrings
p1647
I1
sVunder
p1648
I1
sVabout
p1649
I3
sVit
p1650
I15
sVcarrying
p1651
I2
sVcontrolling
p1652
I1
sVoop
p1653
I1
sVreal-time
p1654
I5
sVknown
p1655
I2
sV90
p1656
I1
sVeffort
p1657
I2
sVcoincidently
p1658
I1
sVco-location
p1659
I1
sVma
p1660
I2
sVindicates
p1661
I3
sVthis
p1662
I23
sVscience
p1663
I1
sVlongitude
p1664
I1
sVoffers
p1665
I2
sVfig.7
p1666
I1
sVregions
p1667
I3
sVcan
p1668
I69
sVlearn
p1669
I1
sVfollowing
p1670
I2
sVmaking
p1671
I1
sVharmonious
p1672
I1
sVspecialized
p1673
I1
sVexample
p1674
I9
sVhistory
p1675
I1
sVcontrol
p1676
I2
sVchallenging
p1677
I1
sVe.g.
p1678
I13
sVprocess
p1679
I8
sVprogramming
p1680
I1
sVarise
p1681
I2
sVorganized
p1682
I4
sVnear
p1683
I1
sVdependence
p1684
I2
sVeffectively
p1685
I1
sVanswering
p1686
I1
sVdictation
p1687
I1
sVsense
p1688
I2
sVkeep
p1689
I2
sVattract
p1690
I1
sVschemas
p1691
I1
sVecological
p1692
I2
sVinformation
p1693
I14
sVneeds
p1694
I2
sVrequirements
p1695
I2
sVgoal
p1696
I1
sVknows
p1697
I1
sVthing
p1698
I2
sVrather
p1699
I3
sVdiscussion
p1700
I2
sVmeans
p1701
I2
sg169
I5
sVhow
p1702
I5
sVclassifying
p1703
I3
sVfig.10
p1704
I1
sVanswer
p1705
I2
sVoptimal
p1706
I1
sVintelligent
p1707
I1
sVmap
p1708
I1
sVbuildings
p1709
I1
sVabstraction
p1710
I2
sVdescription
p1711
I1
sVcommunicating
p1712
I1
sVmay
p1713
I18
sVtyped
p1714
I1
sVafter
p1715
I2
sVderived
p1716
I1
sVrespective
p1717
I1
sVreflect
p1718
I4
sVapplications
p1719
I4
sVproduce
p1720
I1
sVlaozi
p1721
I1
sVimproving
p1722
I3
sVrepresentations
p1723
I3
sVdata
p1724
I4
sVannotation
p1725
I1
sVtypes
p1726
I5
sVefficiently
p1727
I1
sVa
p1728
I50
sVcollecting
p1729
I2
sVshort
p1730
I1
sVnatural
p1731
I4
sVaccelerates
p1732
I1
sVeffective
p1733
I4
sVobject
p1734
I2
sVcommunities
p1735
I9
sVlight
p1736
I1
sVinheritance
p1737
I1
sVobject-oriented
p1738
I3
sVso
p1739
I19
sVrealizes
p1740
I1
sVfundamental
p1741
I1
sVrepresentation
p1742
I1
sVoperate
p1743
I1
sVretrieval
p1744
I2
sVoperations
p1745
I5
sVbush
p1746
I1
sVhelp
p1747
I5
sVlsa
p1748
I1
sVdeveloped
p1749
I1
sVover
p1750
I1
sVmainly
p1751
I1
sVpronomes
p1752
I1
sVsymbols
p1753
I5
sVbrain
p1754
I2
sVthrough
p1755
I29
sg640
I1
sVstatistical
p1756
I1
sVreferencing
p1757
I1
sVagricultural
p1758
I2
sVstill
p1759
I1
sVnets
p1760
I1
sVits
p1761
I2
sVindustries
p1762
I1
sV25
p1763
I1
sVmulti-dimensional
p1764
I4
sVderive
p1765
I5
sVgroup
p1766
I2
sVmicro-environment
p1767
I1
sV23
p1768
I1
sVpersonal
p1769
I1
sVcause-effect
p1770
I1
sg229
I250
sVcoordinates
p1771
I1
sVwriting
p1772
I1
sVforms
p1773
I1
sVpreviously
p1774
I1
sVdetected
p1775
I2
sVproduction
p1776
I3
sVsystems
p1777
I5
sVlatitude
p1778
I1
sVclusters
p1779
I5
sVdefining
p1780
I1
sVimage
p1781
I4
sVthen
p1782
I2
sVthem
p1783
I2
sVgood
p1784
I2
sVseeking
p1785
I1
sVenrich
p1786
I1
sVmaterial
p1787
I5
sVevolution
p1788
I13
sVbreak
p1789
I1
sVframework
p1790
I1
sVeffects
p1791
I3
sVthey
p1792
I8
sVfront
p1793
I1
sVlinking
p1794
I15
sVrealize
p1795
I1
sVeasily
p1796
I2
sVfixed
p1797
I1
sVbackgrounds
p1798
I1
sVaccompanies
p1799
I1
sVestablishing
p1800
I2
sVlifetime
p1801
I3
sVrealistic
p1802
I2
sVtransmitted
p1803
I1
sVtruth
p1804
I1
sVeach
p1805
I4
sVlocate
p1806
I2
sVconstraints
p1807
I1
sVdevelopment
p1808
I4
sVtransforming
p1809
I1
sVmental
p1810
I23
sVevolve
p1811
I9
sVgeneration
p1812
I3
sVenergy
p1813
I7
sVenables
p1814
I18
sVprinciples
p1815
I1
sVrelated
p1816
I2
sVbreakthrough
p1817
I2
sVsociety
p1818
I3
sV88
p1819
I1
sV89
p1820
I4
sVconnect
p1821
I2
sVloops
p1822
I3
sVcommonsense
p1823
I1
sVoperation
p1824
I1
sVbeyond
p1825
I2
sV86
p1826
I1
sV87
p1827
I4
sVout
p1828
I7
sVemerges
p1829
I2
sVaccomplish
p1830
I1
sVnetwork
p1831
I16
sg284
I5
sVspace
p1832
I98
sVopen
p1833
I1
sVsince
p1834
I10
sVresearch
p1835
I8
sVstudying
p1836
I3
sVhealth
p1837
I1
sVadapt
p1838
I2
sVnavigating
p1839
I1
sVinternet
p1840
I1
sVdenoted
p1841
I1
sVproblem-solving
p1842
I1
sVadaptive
p1843
I1
sVissue
p1844
I1
sVindicating
p1845
I1
sVshows
p1846
I1
sVscopes
p1847
I1
sVprovide
p1848
I1
sVcooperatively
p1849
I2
sVtelegraphy
p1850
I1
sVmechanisms
p1851
I2
sVstory
p1852
I2
sVfree
p1853
I1
sVmapping
p1854
I1
sVapproaches
p1855
I2
sVbase
p1856
I2
sVformation
p1857
I3
sVimagine
p1858
I1
sVput
p1859
I1
sVsensors
p1860
I5
sVinductive
p1861
I2
sVgenerate
p1862
I2
sVinteraction
p1863
I18
sVregarding
p1864
I3
sVlanguage
p1865
I8
sVdetermining
p1866
I1
sVprivacy
p1867
I1
sVcorrectness
p1868
I2
sVtimes
p1869
I5
sVmotion
p1870
I1
sVwhere
p1871
I2
sVinputs
p1872
I1
sVplace
p1873
I1
sVconsequence
p1874
I2
sVisb
p1875
I1
sVview
p1876
I1
sVfacilitate
p1877
I1
sVfirst
p1878
I5
sVblind
p1879
I1
sVindustrial
p1880
I1
sVprobability
p1881
I4
sVvolcanic
p1882
I1
sVnumber
p1883
I1
sVone
p1884
I5
sVfig.1
p1885
I3
sVinstances
p1886
I3
sVphilosophical
p1887
I3
sVadopted
p1888
I1
sVdirectly
p1889
I1
sVsuch
p1890
I6
sVcarry
p1891
I1
sVfiction
p1892
I1
sVquality
p1893
I1
sVidea
p1894
I2
sVlittle
p1895
I8
sVturing
p1896
I2
sVpublication
p1897
I1
sVservice
p1898
I2
sVindicate
p1899
I3
sVdivorce
p1900
I1
sVinteract
p1901
I2
sVstructured
p1902
I1
sVparanomes
p1903
I2
sVrelations
p1904
I8
sVremotely
p1905
I2
sVpriority
p1906
I1
sVtheir
p1907
I5
sVregulation
p1908
I1
sg343
I1
sVstructures
p1909
I1
sVuris
p1910
I1
sVlens
p1911
I1
sVschema
p1912
I3
sVinterests
p1913
I2
sVexploring
p1914
I2
sVlot
p1915
I2
sVthat
p1916
I26
sVexplanation
p1917
I1
sVcontinuous
p1918
I2
sVrealized
p1919
I2
sVartifact
p1920
I6
sVdirect
p1921
I2
sVsciences
p1922
I1
sVpart
p1923
I4
sVpronome
p1924
I1
sVtranslation
p1925
I2
sVthan
p1926
I7
sVsemantics
p1927
I6
sVpopulation
p1928
I1
sVdistance
p1929
I3
sVkind
p1930
I2
sVb
p1931
I3
sVroles
p1932
I2
sVcyber-physical-socio
p1933
I4
sV18
p1934
I1
sVricher
p1935
I3
sVfinal
p1936
I1
sVrecording
p1937
I1
sVfuture
p1938
I2
sVhistorical
p1939
I2
sVaccessed
p1940
I1
sVtoward
p1941
I4
sVinteractive
p1942
I3
sVand
p1943
I200
sVmanufacture
p1944
I1
sVmotivation
p1945
I1
sVflights
p1946
I1
sV5-tuple
p1947
I1
sVnavigate
p1948
I2
sVtopics
p1949
I1
sVmind
p1950
I2
sVlocations
p1951
I2
sVrelieve
p1952
I2
sVraw
p1953
I1
sVadding
p1954
I5
sVsocio
p1955
I26
sVhave
p1956
I12
sVsentences
p1957
I1
sVneed
p1958
I4
sVorgans
p1959
I2
sVlinked
p1960
I8
sVcontents
p1961
I2
sVrelatively
p1962
I1
sVdocuments
p1963
I1
sVefficient
p1964
I1
sVactuators
p1965
I3
sVensuring
p1966
I1
sVstorage
p1967
I1
sVable
p1968
I1
sVideas
p1969
I1
sVmechanism
p1970
I1
sValso
p1971
I11
sVideal
p1972
I3
sVconcerns
p1973
I4
sVwhich
p1974
I6
sVforming
p1975
I1
sVtransmit
p1976
I1
sValgorithms
p1977
I1
sVeffectiveness
p1978
I3
sVpursues
p1979
I1
sVep
p1980
I1
sVplay
p1981
I2
sVadded
p1982
I2
sVmultiple
p1983
I16
sVnormal
p1984
I1
sVany
p1985
I5
sVcollaboration
p1986
I3
sVmeasures
p1987
I1
sVtechniques
p1988
I1
sVphilosophy
p1989
I1
sV77
p1990
I1
sVfirstly
p1991
I1
sV74
p1992
I1
sVexperiences
p1993
I1
sV72
p1994
I1
sVsignificant
p1995
I3
sVmeaning
p1996
I1
sVservices
p1997
I8
sVassessed
p1998
I2
sg403
I34
sVpages
p1999
I2
sVdemand
p2000
I1
sVparadigm
p2001
I1
sVepisode
p2002
I1
sVmobile
p2003
I3
sVflow
p2004
I6
sVtraditional
p2005
I2
sVreflecting
p2006
I4
sVmri
p2007
I1
sVdatabases
p2008
I1
sVchannels
p2009
I3
sVlaws
p2010
I3
sVemerging
p2011
I4
sVtext
p2012
I3
sVpage
p2013
I2
sVcolors
p2014
I1
sVspaces
p2015
I36
sVrelation
p2016
I7
sVparticipate
p2017
I1
sVhigh-level
p2018
I1
sVimagined
p2019
I1
sVfind
p2020
I1
sVfeedback
p2021
I2
sVaccess
p2022
I2
sVbased
p2023
I7
sVknowledge
p2024
I3
sg431
I42
sVexplain
p2025
I3
sVdistributed
p2026
I1
sVshould
p2027
I1
sVonly
p2028
I12
sVsequential
p2029
I1
sVenriched
p2030
I2
sVeruptions
p2031
I1
sVessence
p2032
I1
sVintegrate
p2033
I1
sg1119
I1
sVhe
p2034
I1
sVhypertext
p2035
I1
sVtriangle
p2036
I2
sVget
p2037
I2
sVexpress
p2038
I1
sVtrees
p2039
I1
sVwords
p2040
I2
sVrelational
p2041
I2
sVduring
p2042
I8
sg1005
I2
sVareas
p2043
I1
sV91
p2044
I1
sVgray
p2045
I1
sVprocesses
p2046
I6
sVresource
p2047
I2
sVsources
p2048
I1
sVapproach
p2049
I1
sVknowledge-based
p2050
I1
sVaspects
p2051
I1
sVstored
p2052
I1
sVarchitecture
p2053
I1
sVincluding
p2054
I2
sVmovement
p2055
I1
sVprecaution
p2056
I1
sVvision
p2057
I1
sVlocating
p2058
I2
sVknowing
p2059
I1
sVrequirement
p2060
I1
sVset
p2061
I4
sVreference
p2062
I1
sVphysically
p2063
I1
sVintelligence
p2064
I10
sVhumans
p2065
I8
sVdetection
p2066
I1
sVculture
p2067
I5
sVactively
p2068
I1
sVare
p2069
I34
sVclose
p2070
I1
sVincorporating
p2071
I1
sVconcern
p2072
I1
sVpractice
p2073
I1
sVdetect
p2074
I1
sVinteracting
p2075
I2
sVa3
p2076
I3
sVnature
p2077
I1
sVsites
p2078
I1
sVservice-oriented
p2079
I1
sg482
I2
sVclasses
p2080
I4
sVvarious
p2081
I16
sVclosed
p2082
I4
sVbetween
p2083
I23
sVdrawn
p2084
I2
sVremembering
p2085
I1
sVavailable
p2086
I2
sVoomd
p2087
I4
sVability
p2088
I5
sVextend
p2089
I1
sVbridges
p2090
I1
sVinterfaces
p2091
I1
sVattention
p2092
I1
sVpoints
p2093
I2
sVefficiency
p2094
I1
sVnavigation
p2095
I1
sVkey
p2096
I1
sVnext-generation
p2097
I1
sVanalyzed
p2098
I1
sVcarbon
p2099
I1
sVe-learning
p2100
I3
sVproblem
p2101
I1
sVimprove
p2102
I1
sVsuggested
p2103
I1
sVboth
p2104
I2
sVc
p2105
I2
sVmagnetic-resonance
p2106
I1
sVhyperlink
p2107
I4
sVmany
p2108
I2
sVregion
p2109
I1
sVaccording
p2110
I13
sVminds
p2111
I2
sVenabling
p2112
I1
sVpresent
p2113
I1
sVsketch
p2114
I3
sVlong-term
p2115
I1
sVattributes
p2116
I3
sVpre-defined
p2117
I1
sVadapted
p2118
I3
sVotherwise
p2119
I1
sVbehaviors
p2120
I14
sVci
p2121
I1
sVrelevant
p2122
I4
sVagents
p2123
I2
sVpoint
p2124
I1
sVreasons
p2125
I2
sVtracing
p2126
I1
sVcommunity
p2127
I4
sV61
p2128
I1
sV62
p2129
I1
sV64
p2130
I1
sVadaptation
p2131
I1
sV66
p2132
I1
sVexperiencing
p2133
I1
sVsafer
p2134
I1
sVx
p2135
I2
sVraise
p2136
I6
sVsecond
p2137
I1
sVbasis
p2138
I1
sVcreate
p2139
I3
sVlocally
p2140
I1
sVdue
p2141
I7
sVbeen
p2142
I8
sg737
I190
sVtrigger
p2143
I1
sVslns
p2144
I1
sVmaintenance
p2145
I1
sVbasic
p2146
I2
sVindicators
p2147
I3
sVwaste
p2148
I1
sVdefine
p2149
I1
sVadapting
p2150
I1
sVlife
p2151
I3
sVdescribe
p2152
I1
sVdiversity
p2153
I2
sVself-organized
p2154
I3
sVquestionable
p2155
I1
sV39
p2156
I1
sVcollaborators
p2157
I2
sVmodelling
p2158
I1
sVadaptable
p2159
I1
sVobserve
p2160
I1
sVsensed
p2161
I5
sVcp3sme
p2162
I13
sVprototype
p2163
I2
sVextract
p2164
I1
sVassigning
p2165
I3
sVthose
p2166
I2
sVinput
p2167
I1
sVapplied
p2168
I1
sVk-lines
p2169
I1
sVclassifications
p2170
I1
sVdisconnected
p2171
I1
sVguided
p2172
I1
sVthese
p2173
I4
sVsingle
p2174
I1
sVevaluated
p2175
I1
sVwill
p2176
I34
sVwhile
p2177
I3
sVbehavior
p2178
I3
sVleaning
p2179
I3
sVsituation
p2180
I2
sVbalance
p2181
I1
sVstudy
p2182
I4
sVsub-schema
p2183
I2
sVchanged
p2184
I6
sVencyclopedias
p2185
I1
sVconferences
p2186
I1
sVcharacteristics
p2187
I3
sVis
p2188
I26
sVtelephone
p2189
I1
sVsurface
p2190
I1
sVrespected
p2191
I1
sVasking
p2192
I2
sVin
p2193
I92
sVnon-material
p2194
I1
sVinteracts
p2195
I1
sVif
p2196
I8
sVresult
p2197
I2
sVcapture
p2198
I3
sVdifferent
p2199
I44
sVdevelop
p2200
I2
sVspecialization
p2201
I1
sVauthor
p2202
I3
sg582
I42
sVthings
p2203
I5
sVmake
p2204
I3
sVcross
p2205
I1
sVsame
p2206
I7
sVclearly
p2207
I2
sVanother
p2208
I2
sVcomplex
p2209
I16
sVunits
p2210
I1
sVevents
p2211
I5
sVhigher
p2212
I6
sVstatus
p2213
I3
sVmeets
p2214
I1
sVused
p2215
I3
sVhttp
p2216
I1
sVrealizing
p2217
I1
sVsocial
p2218
I1
sVeffect
p2219
I2
sVflows
p2220
I5
sVlevels
p2221
I3
sVuses
p2222
I2
sVuser
p2223
I3
sVstudent
p2224
I3
sVthoughts
p2225
I3
sVcycle
p2226
I1
sVimplements
p2227
I1
sVpolymorphism
p2228
I1
sVreflection
p2229
I1
sVminimize
p2230
I1
sVwhole
p2231
I4
sVhuman-centered
p2232
I1
sVmodeled
p2233
I2
sVwell
p2234
I4
sVanalysis
p2235
I3
sVnon
p2236
I1
sVthought
p2237
I1
sVpatterns
p2238
I3
sVmaterials
p2239
I5
sVsolve
p2240
I4
sVcomponents
p2241
I1
sVsets
p2242
I1
sVcoordinate
p2243
I2
sVmodel
p2244
I6
sVnearby
p2245
I2
sVsensing
p2246
I4
sVdimension
p2247
I2
sVmeet
p2248
I1
sVdistances
p2249
I1
sVfriendship
p2250
I1
sVabilities
p2251
I1
sVless
p2252
I2
sV42
p2253
I1
sVobserved
p2254
I2
sVnot
p2255
I12
sVdecentralized
p2256
I2
sVhuman
p2257
I4
sVworld
p2258
I5
sVcoordination
p2259
I1
sVprevious
p2260
I2
sVweb
p2261
I13
sVdesigners
p2262
I1
sVmonitored
p2263
I1
sVfamily
p2264
I1
sVreaders
p2265
I1
sVthinking
p2266
I1
sVregarded
p2267
I5
sVlarge-scale
p2268
I1
sVevidences
p2269
I1
sVsource
p2270
I1
sVpotential
p2271
I1
sVtransformed
p2272
I1
sVlocation
p2273
I1
sVtechnological
p2274
I1
sVrole
p2275
I1
sVhas
p2276
I7
sVreal
p2277
I4
sVexplained
p2278
I1
sVevaluation
p2279
I2
sVaround
p2280
I1
sVrules
p2281
I21
sVenable
p2282
I2
sVunlimited
p2283
I1
sVpossible
p2284
I1
sVcultural
p2285
I3
sVgrid
p2286
I1
sVknow
p2287
I6
sVbackground
p2288
I1
sVusing
p2289
I8
sVdepicts
p2290
I5
sVadvanced
p2291
I2
sVhelpful
p2292
I2
sVharmoniously
p2293
I1
sVnecessary
p2294
I4
sVlike
p2295
I4
sVsizes
p2296
I1
sV57
p2297
I1
sV51
p2298
I1
sVconsensus
p2299
I1
sVcollect
p2300
I2
sVdesigning
p2301
I1
sVindividuals
p2302
I16
sVoffices
p2303
I1
sVchannel
p2304
I2
sVbecome
p2305
I2
sVrich
p2306
I1
sVsoft
p2307
I1
sVfacets
p2308
I1
sVgrouping
p2309
I1
sVsatisfactory
p2310
I1
sVbecause
p2311
I10
sVoften
p2312
I1
sVpeople
p2313
I12
sVsome
p2314
I12
sVback
p2315
I2
sVcompetition
p2316
I1
sVinstantiating
p2317
I2
sVrecommendation
p2318
I1
sVimages
p2319
I19
sVextended
p2320
I2
sg789
I2
sVvsm
p2321
I1
sVfor
p2322
I23
sVmicro
p2323
I1
sVstudents
p2324
I5
sVmachine
p2325
I7
sVsemantically
p2326
I1
sg704
I1
sVlimitations
p2327
I1
sVbe
p2328
I60
sVwho
p2329
I4
sVreasonable
p2330
I1
sVepistemology
p2331
I1
sVprocessing
p2332
I3
sVcommunicate
p2333
I1
sVfed
p2334
I2
sVexpansion
p2335
I2
sVself-organization
p2336
I2
sVpressure
p2337
I2
sValthough
p2338
I1
sVoutput
p2339
I2
sVby
p2340
I35
sVtakes
p2341
I1
sVon
p2342
I21
sVlimitation
p2343
I2
sVstretched
p2344
I1
sVcarried
p2345
I1
sVextension
p2346
I3
sVextending
p2347
I1
sVof
p2348
I115
sVindustry
p2349
I1
sVintercultural
p2350
I1
sVsimulation
p2351
I2
sVcancelation
p2352
I2
sVa2
p2353
I3
sVensure
p2354
I3
sVgreatly
p2355
I2
sVneighbor
p2356
I1
sVact
p2357
I1
sVshared
p2358
I1
sVintroduced
p2359
I1
sVor
p2360
I21
sVautomatically
p2361
I2
sVpollution
p2362
I1
sVsoa
p2363
I2
sVorders
p2364
I2
sVcommunication
p2365
I2
sVinto
p2366
I3
sVwithin
p2367
I2
sVfunctional
p2368
I2
sVdown
p2369
I2
sVrendering
p2370
I1
sVappropriate
p2371
I1
sVecology
p2372
I1
sVrefined
p2373
I1
sVclustering
p2374
I1
sVspouse
p2375
I1
sVnetworking
p2376
I2
sVcompression
p2377
I1
sVelastic
p2378
I1
sVartifacts
p2379
I6
sVremoving
p2380
I2
sVsupport
p2381
I5
sVphrases
p2382
I1
sVquestion
p2383
I3
sVcomposing
p2384
I1
sVlong
p2385
I1
sVclass
p2386
I5
sVthirdly
p2387
I1
sVinfluencing
p2388
I1
sVlow
p2389
I1
sVway
p2390
I3
sVcultures
p2391
I1
sg746
I4
sVwas
p2392
I2
sVnaturally
p2393
I1
sVfunction
p2394
I3
sVmulti-disciplinary
p2395
I1
sVform
p2396
I6
sVbehaving
p2397
I4
sVdifferences
p2398
I2
sVpeers
p2399
I2
sVbut
p2400
I7
sVsearching
p2401
I1
sVlink
p2402
I35
sVe
p2403
I1
sVtechnologies
p2404
I1
sVpromote
p2405
I1
sVwith
p2406
I29
sVversatile
p2407
I1
sVlonger
p2408
I2
sVconstitute
p2409
I1
sVmade
p2410
I3
sVbuilds
p2411
I1
sVplaces
p2412
I1
sVwhether
p2413
I1
sVcells
p2414
I1
sVhis/her
p2415
I1
sVdevices
p2416
I2
sVcontinuously
p2417
I1
sVdistribution
p2418
I1
sVsimilar
p2419
I1
sVimplies
p2420
I2
sVexpect
p2421
I2
sVdetailed
p2422
I1
sVdefinitions
p2423
I1
sVcomputing
p2424
I4
sVdefined
p2425
I1
sVcertain
p2426
I2
sVmirror
p2427
I1
sVinfluence
p2428
I7
sVgenerating
p2429
I1
sVcovers
p2430
I1
sVan
p2431
I20
sVimagination
p2432
I1
sVas
p2433
I53
sVdiverse
p2434
I1
sVheld
p2435
I1
sVat
p2436
I8
sVcorresponding
p2437
I1
sVmodeling
p2438
I4
sVindirect
p2439
I2
sVstatuses
p2440
I1
sVphysical
p2441
I18
sVfunctions
p2442
I2
sV81
p2443
I1
sVdescriptions
p2444
I1
sV46
p2445
I1
sV47
p2446
I1
sVwhen
p2447
I10
sVevent
p2448
I4
sVapplication
p2449
I1
sVother
p2450
I10
sVcompares
p2451
I1
sVdetails
p2452
I2
sVimmunity
p2453
I2
sVnode
p2454
I7
sVdraw
p2455
I2
sV's
p2456
I3
sVusers
p2457
I5
sVmodels
p2458
I3
sVsymbol
p2459
I4
sVproblems
p2460
I3
sVincludes
p2461
I1
sVa1
p2462
I3
sVgenerated
p2463
I2
sVimportant
p2464
I5
sVfertilizer
p2465
I1
sVunnatural
p2466
I1
sVcooperate
p2467
I1
sVstructure
p2468
I1
sVindependently
p2469
I2
sVindividual
p2470
I5
sVlead
p2471
I7
sVzooming
p2472
I3
sVvehicles
p2473
I1
sVrule
p2474
I3
sVwrite
p2475
I1
sVtime
p2476
I18
sVrequires
p2477
I2
sVweb/internet
p2478
I6
sVonce
p2479
I2
ssg820
Vf0003
p2480
sg822
(dp2481
Vlimited
p2482
I1
sVemerging
p2483
I3
sVsemantic
p2484
I6
sVguided
p2485
I1
sVcoordinating
p2486
I1
sVfour
p2487
I1
sVnot
p2488
I1
sVspaces
p2489
I5
sVthrough
p2490
I4
sVmotions
p2491
I1
sVgo
p2492
I1
sVquery
p2493
I1
sVstill
p2494
I1
sVits
p2495
I1
sVissues
p2496
I2
sVmachine
p2497
I2
sVmulti-dimensional
p2498
I1
sVsymmetry
p2499
I1
sVsciences
p2500
I1
sVthinking
p2501
I1
sg431
I4
sg229
I42
sVenvironment
p2502
I4
sVto
p2503
I6
sVbush
p2504
I1
sVconcerns
p2505
I2
sg640
I1
sVhas
p2506
I1
sVrules
p2507
I1
sVrespective
p2508
I1
sVnew
p2509
I2
sVcommunities
p2510
I1
sVworld
p2511
I1
sVrealize
p2512
I2
sVadvanced
p2513
I1
sVgray
p2514
I1
sVevolution
p2515
I1
sVlike
p2516
I1
sVfacets
p2517
I1
sVphilosophical
p2518
I2
sVestablishing
p2519
I1
sVeach
p2520
I1
sVwhere
p2521
I1
sVhuman
p2522
I3
sVdisciplines
p2523
I2
sVclassifying
p2524
I1
sVintelligence
p2525
I8
sVhard
p2526
I1
sVsome
p2527
I2
sVpursuits
p2528
I1
sVcyber
p2529
I1
sVbreakthrough
p2530
I1
sVcyber-physical-socio
p2531
I2
sV89
p2532
I1
sVare
p2533
I7
sVrecommendation
p2534
I1
sVimages
p2535
I1
sVbeyond
p2536
I1
sVmachines
p2537
I1
sVhigh-performance
p2538
I1
sVprinciples
p2539
I2
sVwhat
p2540
I2
sVnetwork
p2541
I1
sVfor
p2542
I5
sVspace
p2543
I5
sVsince
p2544
I1
sVreasoning
p2545
I7
sVmemex
p2546
I2
sg482
I1
sVvarious
p2547
I3
sVrouting
p2548
I1
sVclosed
p2549
I2
sVdynamicity
p2550
I2
sVrelational
p2551
I1
sVconditions
p2552
I1
sVbe
p2553
I2
sVscientific
p2554
I2
sVnature
p2555
I1
sVpredicting
p2556
I1
sVmechanisms
p2557
I2
sVby
p2558
I3
sVeffect-aware
p2559
I1
sVobjects
p2560
I1
sVweb
p2561
I3
sg84
I1
sVinductive
p2562
I1
sVimplicit
p2563
I1
sVon
p2564
I1
sVhyperlink
p2565
I1
sVof
p2566
I13
sVstudy
p2567
I1
sVchanged
p2568
I1
sVmethodology
p2569
I2
sVpersonal
p2570
I1
sVbrowsing
p2571
I1
sVsuitable
p2572
I1
sVother
p2573
I1
sVemerge
p2574
I1
sVability
p2575
I1
sVfeatures
p2576
I1
sVclassification
p2577
I1
sVwithin
p2578
I2
sVlinking
p2579
I8
sVbeings
p2580
I2
sVbeen
p2581
I1
sVresearch
p2582
I2
sVmethods
p2583
I2
sVbehaving
p2584
I1
sVnetworking
p2585
I1
sVbasis
p2586
I1
sVsupport
p2587
I2
sVcomputing
p2588
I2
sVquestion
p2589
I1
sVrelations
p2590
I1
sg737
I19
sVlive
p2591
I2
sg343
I1
sVbasic
p2592
I3
sVpervasive
p2593
I1
sVintroducing
p2594
I1
sVdiversity
p2595
I1
sVanalogical
p2596
I1
sVself-organized
p2597
I2
sVforming
p2598
I1
sVexplanation
p2599
I2
sVbut
p2600
I1
sVcooperate
p2601
I1
sVlink
p2602
I1
sVcp3sme
p2603
I4
sVtechnologies
p2604
I1
sVgeneral
p2605
I1
sVwith
p2606
I5
sVintegrating
p2607
I1
sVthis
p2608
I1
sVwork
p2609
I2
sVengineering
p2610
I1
sVaims
p2611
I1
sVwill
p2612
I4
sVnear
p2613
I1
sVfuture
p2614
I2
sVmany
p2615
I1
sVfollowing
p2616
I1
sVnext-generation
p2617
I1
sVdistinguished
p2618
I2
sVinteractive
p2619
I1
sVand
p2620
I33
sVlinks
p2621
I1
sVexploring
p2622
I2
sVcharacteristics
p2623
I1
sVis
p2624
I4
sVit
p2625
I2
sVan
p2626
I1
sVloops
p2627
I2
sVas
p2628
I4
sVdiverse
p2629
I1
sVsocio
p2630
I2
sVat
p2631
I2
sVin
p2632
I6
sVextending
p2633
I1
sVdevelop
p2634
I1
sg582
I4
sVrealizing
p2635
I1
sVanswering
p2636
I1
sg169
I1
sVhow
p2637
I1
sVideal
p2638
I6
sVcomplex
p2639
I5
sVharmony
p2640
I1
sVpeer-to-peer
p2641
I1
sVintelligent
p2642
I1
sVapplications
p2643
I1
sVdevelopment
p2644
I2
sVevolve
p2645
I1
sVextended
p2646
I1
sV's
p2647
I3
sVcommunicating
p2648
I1
sVmodels
p2649
I1
sVturing
p2650
I2
sVphilosophy
p2651
I1
sVdifferent
p2652
I1
sVflows
p2653
I2
sVincludes
p2654
I1
sVlens
p2655
I1
sVsustainability
p2656
I1
sVlevels
p2657
I2
sVpreliminary
p2658
I1
sVimproving
p2659
I2
sVsuch
p2660
I4
sg403
I1
sVmodel
p2661
I2
sVinteracting
p2662
I1
sg350
I3
sVrealized
p2663
I2
sVmulti-disciplinary
p2664
I1
sVmethodologies
p2665
I1
sVlead
p2666
I1
sVtraditional
p2667
I1
sVcompete
p2668
I1
sVfundamental
p2669
I1
sVcontrolling
p2670
I2
sVthe
p2671
I25
sVsensing
p2672
I1
sVlaws
p2673
I1
ssg961
(dp2674
Vperspective
p2675
I1
sVlimited
p2676
I2
sVabilities
p2677
I1
sVsemantic
p2678
I1
sVresults
p2679
I1
sVproposes
p2680
I1
sVspaces
p2681
I5
sVthrough
p2682
I2
sVhuman
p2683
I1
sVgo
p2684
I2
sVits
p2685
I1
sVissues
p2686
I1
sVprevious
p2687
I2
sVmachine
p2688
I2
sVphysiological
p2689
I2
sg431
I2
sVexplain
p2690
I1
sg229
I26
sVenvironment
p2691
I2
sVto
p2692
I11
sVonly
p2693
I1
sVother
p2694
I1
sVpre-designed
p2695
I1
sVresources
p2696
I1
sVrules
p2697
I3
sVcyberphysical
p2698
I1
sVknow
p2699
I2
sVthey
p2700
I1
sVnot
p2701
I1
sV--
p2702
I1
sVgraph-based
p2703
I1
sVrealistic
p2704
I1
sVindividuals
p2705
I1
sVeach
p2706
I1
sVincluding
p2707
I1
sVconsciously
p2708
I1
sVrevolution
p2709
I1
sVmental
p2710
I1
sVintelligence
p2711
I5
sVhumans
p2712
I2
sVdiscover
p2713
I1
sVcyber
p2714
I3
sVideals
p2715
I1
sVsociety
p2716
I1
sVare
p2717
I3
sVloops
p2718
I1
sVexplores
p2719
I1
sVbeyond
p2720
I2
sVmachines
p2721
I4
sVscientific
p2722
I1
sVprinciples
p2723
I1
sVreviews
p2724
I1
sVfor
p2725
I2
sVspace
p2726
I9
sVvarious
p2727
I4
sVclosed
p2728
I1
sVcyber-physical-physiological-psychological-sociomental
p2729
I1
sVnew
p2730
I1
sg1005
I1
sVlimitations
p2731
I1
sVability
p2732
I1
sVextend
p2733
I1
sVmechanisms
p2734
I1
sVpaper
p2735
I1
sVreason
p2736
I1
sValthough
p2737
I1
sVon
p2738
I2
sVof
p2739
I5
sVintroduces
p2740
I1
sVso
p2741
I1
sVmethodology
p2742
I2
sVco-experiencing
p2743
I1
sVmulti-disciplinary
p2744
I2
sVcreate
p2745
I1
sVemerge
p2746
I2
sVlinking
p2747
I5
sVpsychological
p2748
I2
sVphilosophical
p2749
I1
sVcompete
p2750
I1
sVestablish
p2751
I1
sVselect
p2752
I1
sVlittle
p2753
I1
sVfrom
p2754
I1
sVinteract
p2755
I1
sVbeen
p2756
I1
sg737
I10
sVlive
p2757
I1
sg343
I1
sg746
I1
sVstructures
p2758
I1
sVform
p2759
I1
sVdefinition
p2760
I1
sVexplanation
p2761
I1
sVcooperate
p2762
I1
sVlink
p2763
I2
sVcp3sme
p2764
I3
sVan
p2765
I1
sVwith
p2766
I1
sVcyber-physical-socio
p2767
I1
sVthese
p2768
I2
sVwork
p2769
I1
sVthis
p2770
I1
sVaims
p2771
I1
sVwill
p2772
I3
sVwhile
p2773
I1
sVexploration
p2774
I1
sVcan
p2775
I1
sVlearn
p2776
I2
sVfollowing
p2777
I1
sVexpect
p2778
I1
sVand
p2779
I18
sVlinks
p2780
I3
sVcomputing
p2781
I2
sVprocess
p2782
I1
sVcharacteristics
p2783
I1
sVis
p2784
I1
sVmind
p2785
I1
sVit
p2786
I1
sVaccording
p2787
I1
sVimages
p2788
I1
sVdiverse
p2789
I1
sVsocio
p2790
I2
sVat
p2791
I1
sVhave
p2792
I1
sVin
p2793
I9
sVlifetime
p2794
I1
sVlinked
p2795
I1
sVsubconsciously
p2796
I1
sVconcept
p2797
I1
sg582
I2
sVideas
p2798
I1
sg169
I1
sVideal
p2799
I2
sVcomplex
p2800
I1
sVsolve
p2801
I1
sVphysical
p2802
I2
sVevolve
p2803
I1
sVused
p2804
I1
sVmultiple
p2805
I1
sVmodels
p2806
I2
sVproblems
p2807
I1
sVeffect
p2808
I2
sVincludes
p2809
I1
sVdata
p2810
I1
sg350
I1
sValgorithms
p2811
I1
sVfundamental
p2812
I1
sVthe
p2813
I13
sVlaws
p2814
I2
ssg1083
(dp2815
g2676
I3
sg2483
I3
sg2677
I1
sg2678
I7
sg2485
I1
sg2679
I1
sg2798
I1
sg2487
I1
sg2680
I1
sg2681
I10
sg2682
I6
sg2683
I4
sg2684
I3
sg2493
I1
sg2811
I1
sg2494
I1
sg2685
I2
sg2686
I3
sg2687
I2
sg169
I2
sg2498
I1
sg2577
I1
sg2637
I1
sg2689
I2
sg431
I6
sg2690
I1
sg229
I68
sg2691
I6
sg2692
I17
sg2693
I1
sg2800
I6
sg640
I1
sg2506
I1
sg2695
I1
sg2696
I1
sg2799
I8
sg2697
I4
sg2583
I2
sg2698
I1
sg2699
I2
sg2700
I1
sg2486
I1
sg2701
I2
sg2511
I1
sg2512
I2
sg2513
I1
sg2528
I1
sg2514
I1
sg2515
I1
sg2641
I1
sg2516
I1
sg2702
I1
sg2703
I1
sg2517
I1
sg2607
I1
sg2580
I2
sg2519
I1
sg2704
I1
sg2705
I1
sg2706
I2
sg2707
I1
sg2521
I1
sg2708
I1
sg2709
I1
sg2710
I1
sg2523
I2
sg2524
I1
sg2711
I13
sg2526
I1
sg2712
I2
sg2713
I1
sg2714
I4
sg2715
I1
sg2716
I1
sg2532
I1
sg2675
I1
sg2534
I1
sg2718
I3
sg2805
I1
sg2646
I1
sg2720
I3
sg2721
I5
sg2732
I2
sg2772
I7
sg2540
I2
sg2541
I1
sg2725
I7
sg2726
I14
sg2544
I1
sg2613
I1
sg2545
I7
sg2546
I2
sg482
I1
sg2727
I7
sg2548
I1
sg2728
I3
sg2550
I2
sg2729
I1
sg2730
I3
sg1005
I1
sg2552
I1
sg2731
I1
sg2553
I2
sg2722
I3
sg2733
I1
sg2555
I1
sg2559
I1
sg2556
I1
sg2734
I3
sg2735
I1
sg2736
I1
sg2560
I1
sg2561
I3
sg2737
I1
sg2585
I1
sg84
I1
sg2562
I1
sg2558
I3
sg2738
I3
sg2565
I1
sg2739
I18
sg2567
I1
sg2568
I1
sg2740
I1
sg2787
I1
sg2647
I3
sg2501
I1
sg2538
I1
sg2571
I1
sg2743
I1
sg2744
I3
sg2755
I1
sg2622
I2
sg2746
I3
sg2576
I1
sg2499
I1
sg2551
I1
sg2578
I2
sg2801
I1
sg2747
I13
sg2748
I2
sg2749
I3
sg2590
I1
sg2570
I1
sg2751
I1
sg2582
I2
sg2752
I1
sg2563
I1
sg2584
I1
sg2753
I1
sg2754
I1
sg2586
I1
sg403
I1
sg2745
I1
sg2587
I2
sg2589
I1
sg2504
I1
sg2756
I2
sg737
I29
sg2757
I3
sg343
I2
sg2592
I3
sg746
I1
sg2758
I1
sg2593
I1
sg2594
I1
sg2595
I1
sg2596
I1
sg2759
I1
sg2760
I1
sg2656
I1
sg2527
I2
sg2761
I3
sg2600
I1
sg2723
I3
sg2763
I3
sg2764
I7
sg2604
I1
sg2605
I1
sg2766
I6
sg2530
I1
sg2767
I3
sg2768
I2
sg2769
I3
sg2770
I2
sg2628
I4
sg2771
I2
sg2652
I1
sg2724
I1
sg2773
I1
sg2614
I2
sg2774
I1
sg2775
I1
sg2776
I2
sg2777
I2
sg2617
I1
sg2618
I2
sg2717
I10
sg2779
I51
sg2661
I2
sg2619
I1
sg2780
I4
sg2781
I4
sg2782
I1
sg2783
I2
sg2784
I5
sg2785
I1
sg2786
I3
sg2765
I2
sg2788
I2
sg2610
I1
sg2789
I2
sg2790
I4
sg2791
I3
sg2792
I1
sg2793
I15
sg2794
I1
sg2795
I1
sg2796
I1
sg2797
I1
sg2508
I1
sg2634
I1
sg2597
I2
sg582
I6
sg2635
I1
sg2636
I1
sg2778
I1
sg2688
I4
sg2500
I1
sg2742
I4
sg2694
I2
sg2640
I1
sg2598
I1
sg2750
I2
sg2802
I2
sg2642
I1
sg2643
I1
sg2644
I2
sg2803
I2
sg2804
I1
sg2719
I1
sg2648
I1
sg2806
I3
sg2650
I2
sg2651
I1
sg2807
I1
sg2808
I2
sg2653
I2
sg2809
I2
sg2655
I1
sg2633
I1
sg2657
I2
sg2658
I1
sg2659
I2
sg2660
I4
sg2762
I2
sg2810
I1
sg2505
I2
sg2662
I1
sg350
I4
sg2663
I2
sg2572
I1
sg2665
I1
sg2666
I1
sg2510
I1
sg2491
I1
sg2615
I1
sg2667
I1
sg2741
I1
sg2812
I2
sg2670
I2
sg2813
I38
sg2672
I1
sg2814
I3
ssba(icmyPackage
FWordDic
p2816
(dp2817
g3
(dp2818
Vlimited
p2819
I2
sVall
p2820
I2
sVconcept
p2821
I1
sVpartial
p2822
I1
sVconsider
p2823
I1
sVfacilities
p2824
I1
sVmild
p2825
I1
sVcomputation
p2826
I14
sVconsists
p2827
I1
sVwhose
p2828
I2
sVcertainly
p2829
I1
sVequivalence
p2830
I2
sVto
p2831
I42
sVunder
p2832
I2
sVrecoding
p2833
I1
sVvery
p2834
I3
sVevery
p2835
I1
sVt2
p2836
I3
sVsolution
p2837
I2
sVt1
p2838
I3
sg285
I4
sVsmall
p2839
I1
sVrate
p2840
I3
sVcost
p2841
I1
sVbelieves
p2842
I1
sVmachines
p2843
I5
sVbelief
p2844
I1
sVestablished
p2845
I1
sVconcisely
p2846
I1
sVnew
p2847
I2
sVincreasing
p2848
I3
sVmethod
p2849
I1
sVimprovable
p2850
I1
sVnever
p2851
I3
sVhere
p2852
I1
sVobjects
p2853
I1
sVlet
p2854
I1
sVobtained
p2855
I1
sVk
p2856
I4
sVsuggests
p2857
I1
sVaction
p2858
I5
sVstudies
p2859
I1
sVexamining
p2860
I1
sVmerely
p2861
I1
sVuse
p2862
I1
sVworking
p2863
I1
sV0
p2864
I1
sVtwo
p2865
I4
sVnext
p2866
I1
sVcall
p2867
I1
sVtherefore
p2868
I3
sVtaken
p2869
I1
sVuntil
p2870
I2
sVmore
p2871
I5
sVintroducing
p2872
I2
sV``
p2873
I1
sV1/2
p2874
I1
sVon
p2875
I11
sVparticular
p2876
I2
sVknown
p2877
I2
sVaccount
p2878
I2
sVf
p2879
I1
sVthis
p2880
I17
sVwork
p2881
I2
sVmodified
p2882
I1
sVtheories
p2883
I2
sVanywhere
p2884
I1
sVobvious
p2885
I1
sVcan
p2886
I8
sVfollowing
p2887
I1
sVmaking
p2888
I1
sVperformed
p2889
I3
sVgive
p2890
I4
sVstates
p2891
I6
sVeffectively
p2892
I1
sVnumbers
p2893
I3
sVconversely
p2894
I1
sVend
p2895
I3
sVrecursive
p2896
I4
sVrather
p2897
I2
sVget
p2898
I1
sVmachine
p2899
I28
sVanswer
p2900
I1
sVsimplicity
p2901
I1
sVmay
p2902
I6
sVturing
p2903
I14
sVafter
p2904
I1
sVsuch
p2905
I7
sVfk
p2906
I2
sVdata
p2907
I1
sVfm
p2908
I10
sg350
I47
sVcomputations
p2909
I1
sVf_
p2910
I1
sVq
p2911
I1
sVperhaps
p2912
I1
sVso
p2913
I5
sVorder
p2914
I6
sVrestriction
p2915
I2
sVinterpretation
p2916
I1
sVinterpreted
p2917
I2
sVsymbols
p2918
I2
sVcourse
p2919
I1
sVthrough
p2920
I1
sVexistence
p2921
I1
sVits
p2922
I4
sVdiagonalized
p2923
I1
sg169
I2
sg229
I73
sVbetter
p2924
I1
sVsystems
p2925
I3
sVmight
p2926
I1
sVeventually
p2927
I3
sVthem
p2928
I2
sVnot
p2929
I25
sVnow
p2930
I1
sVinversion
p2931
I1
sVl
p2932
I8
sVreasonable
p2933
I1
sVeach
p2934
I2
sVfound
p2935
I1
sVsquare
p2936
I1
sVweight
p2937
I2
sVrevised
p2938
I1
sVreduce
p2939
I1
sVidea
p2940
I5
sVour
p2941
I3
sVshannon
p2942
I1
sVout
p2943
I1
sVshown
p2944
I3
sg284
I1
sVdecision
p2945
I2
sVsince
p2946
I6
sVincrease
p2947
I2
sVreader
p2948
I1
sVprint
p2949
I2
sVshows
p2950
I1
sVpythagoras
p2951
I1
sVtheory
p2952
I7
sVgiven
p2953
I4
sVstandard
p2954
I1
sVcomplicated
p2955
I1
sg2135
I2
sVestimate
p2956
I1
sVdefinition
p2957
I1
sVg
p2958
I13
sVdetermining
p2959
I1
sVcould
p2960
I1
sVlength
p2961
I1
sVhopeless
p2962
I2
sVhence
p2963
I4
sVfirst
p2964
I2
sValready
p2965
I1
sVnumber
p2966
I7
sVone
p2967
I12
sVwill
p2968
I10
sVanother
p2969
I2
sVguess
p2970
I1
sVobserver
p2971
I1
sVordering
p2972
I1
sVleast
p2973
I1
sVfmk
p2974
I2
sVstatement
p2975
I1
sVscheme
p2976
I2
sVgives
p2977
I1
sVway
p2978
I4
sVthat
p2979
I18
sVrecursively
p2980
I1
sVthan
p2981
I6
sVlikely
p2982
I1
sVr
p2983
I33
sVwere
p2984
I2
sVare
p2985
I11
sVand
p2986
I25
sVdeciding
p2987
I1
sVgeneralization
p2988
I1
sVsay
p2989
I3
sVenumerative
p2990
I1
sVhave
p2991
I7
sVany
p2992
I13
sVinefficient
p2993
I1
sVbuilt
p2994
I1
sVefficient
p2995
I2
sVideas
p2996
I1
sVmechanism
p2997
I1
sVnote
p2998
I1
sValso
p2999
I3
sVinternal
p3000
I6
sVtake
p3001
I1
sVwhich
p3002
I18
sg395
I3
sVthough
p3003
I3
sVobject
p3004
I1
sVmost
p3005
I4
sVconnected
p3006
I1
sVextremely
p3007
I1
sVclass
p3008
I1
sVconsidered
p3009
I2
sVm
p3010
I31
sVnotion
p3011
I2
sVincomplete
p3012
I1
sVshow
p3013
I2
sVterminate
p3014
I3
sVpurely
p3015
I1
sVfind
p3016
I3
sVbased
p3017
I2
sVknowledge
p3018
I1
sg431
I51
sVshould
p3019
I8
sVonly
p3020
I3
sVgoing
p3021
I1
sVtape
p3022
I3
sVattained
p3023
I1
sVadequate
p3024
I1
sVdo
p3025
I5
sVmeans
p3026
I1
sVstop
p3027
I2
sVrecoded
p3028
I1
sVprocedures
p3029
I3
sVqs
p3030
I1
sV\u2264
p3031
I1
sVincluding
p3032
I1
sVfixed
p3033
I1
sVwhere
p3034
I1
sVexists
p3035
I3
sVimposing
p3036
I1
sVtesting
p3037
I1
sVwe
p3038
I9
sVplausible
p3039
I2
sVusefulness
p3040
I1
sVbest
p3041
I1
sVways
p3042
I1
sVenough
p3043
I3
sVdifficulties
p3044
I2
sVbetween
p3045
I1
sVprobably
p3046
I4
sVconditions
p3047
I2
sVcalculates
p3048
I1
sVmultiplied
p3049
I1
sVends
p3050
I1
sVwo
p3051
I2
sVhowever
p3052
I4
sVefficiency
p3053
I1
sVanswers
p3054
I1
sVcome
p3055
I4
sVessentially
p3056
I2
sVimproved
p3057
I1
sVmany
p3058
I1
sVequal
p3059
I1
sVetc
p3060
I1
sVs
p3061
I1
sVcomes
p3062
I2
sVotherwise
p3063
I1
sVpoint
p3064
I1
sVsimple
p3065
I3
sVdimensional
p3066
I3
sVsimply
p3067
I1
sVrespect
p3068
I1
sVcomplication
p3069
I1
sVdescribed
p3070
I1
sVbeen
p3071
I3
sg737
I52
sVmuch
p3072
I2
sVgeneral
p3073
I1
sVassigning
p3074
I2
sVthose
p3075
I2
sVapplied
p3076
I1
sVlook
p3077
I1
sVthese
p3078
I4
sVvalue
p3079
I1
sVn
p3080
I18
sVn't
p3081
I3
sVnear
p3082
I1
sVbehavior
p3083
I1
sVwell-defined
p3084
I2
sVprocedure
p3085
I6
sVthen
p3086
I3
sVis
p3087
I43
sVthus
p3088
I1
sVit
p3089
I26
sVitself
p3090
I1
sVproperties
p3091
I1
sVin
p3092
I24
sVif
p3093
I19
sVdifferent
p3094
I1
sVevading
p3095
I1
sg582
I47
sVenumeration
p3096
I1
sVover-all
p3097
I1
sVexhaustiveness
p3098
I1
sVfinite
p3099
I3
sVused
p3100
I1
sVundecidable
p3101
I1
sVinfinite
p3102
I1
sVtask
p3103
I2
sVundefined
p3104
I1
sVwell
p3105
I3
sVsolve
p3106
I1
sVthe
p3107
I74
sVspend
p3108
I1
sVunsolvable
p3109
I2
sVproposed
p3110
I1
sVless
p3111
I1
sVbeing
p3112
I2
sVspeed
p3113
I3
sVadding
p3114
I1
sVthinking
p3115
I1
sVregarded
p3116
I3
sVeasy
p3117
I3
sVtheorem
p3118
I1
sVhas
p3119
I5
sVsolvable
p3120
I1
sVaround
p3121
I1
sVpossible
p3122
I3
sVknow
p3123
I3
sVenumerable
p3124
I1
sVformal
p3125
I5
sVsum_
p3126
I2
sVnecessary
p3127
I4
sVsteps
p3128
I7
sVt
p3129
I4
sVsatisfactory
p3130
I1
sVbecause
p3131
I5
sVold
p3132
I1
sVmethods
p3133
I2
sVsome
p3134
I5
sVsearching
p3135
I1
sV's
p3136
I3
sVdiagonalizing
p3137
I1
sVhappens
p3138
I1
sVdescribing
p3139
I1
sVfor
p3140
I19
sVavoid
p3141
I6
sVper
p3142
I1
sVdoes
p3143
I13
sVbe
p3144
I22
sVsubstitutes
p3145
I2
sVproblems
p3146
I1
sVstep
p3147
I3
sVby
p3148
I15
sVsimpler
p3149
I2
sVintegers
p3150
I3
sVabout
p3151
I1
sVpredisposition
p3152
I1
sVgetting
p3153
I3
sVof
p3154
I52
sVcarries
p3155
I1
sVact
p3156
I1
sVor
p3157
I1
sVrevise
p3158
I1
sVstatements
p3159
I1
sVinto
p3160
I4
sVintellectual
p3161
I1
sVappropriate
p3162
I1
sVschemes
p3163
I2
sVinverting
p3164
I1
sVelementary
p3165
I1
sVreducing
p3166
I1
sVlog
p3167
I1
sVthere
p3168
I10
sVquestion
p3169
I1
sVfast
p3170
I2
sVstuck
p3171
I3
sVlow
p3172
I1
sVfraction
p3173
I1
sVfunction
p3174
I6
sVelsewhere
p3175
I1
sVform
p3176
I1
sVoffer
p3177
I2
sVbut
p3178
I4
sVtrying
p3179
I2
sVwith
p3180
I4
sVcount
p3181
I1
sVmade
p3182
I2
sVwhether
p3183
I1
sVwelldefined
p3184
I1
sVup
p3185
I3
sVproblem
p3186
I8
sVetc.
p3187
I1
sVconstant
p3188
I2
sVcomputing
p3189
I3
sVdefined
p3190
I3
sVcertain
p3191
I5
sVuniversal
p3192
I4
sVan
p3193
I8
sVas
p3194
I10
sVexist
p3195
I8
sVat
p3196
I4
sVagain
p3197
I1
sVfunctions
p3198
I3
sVno
p3199
I1
sVwhen
p3200
I1
sVother
p3201
I1
sVtest
p3202
I2
sVconclusion
p3203
I2
sVkinds
p3204
I1
sVcalculating
p3205
I2
sVsymbol
p3206
I1
sVfewest
p3207
I1
sVimportant
p3208
I1
sVbounded
p3209
I2
sVstructure
p3210
I2
sVhaving
p3211
I1
sVfact
p3212
I3
sVtime
p3213
I4
sVrequires
p3214
I1
sVoriginal
p3215
I2
sVonce
p3216
I1
ssg820
Vf0014
p3217
sg822
(dp3218
sg961
(dp3219
sg1083
(dp3220
sba(icmyPackage
FWordDic
p3221
(dp3222
g3
(dp3223
Vall
p3224
I3
sVconcept
p3225
I2
sVconsider
p3226
I1
sVchinese
p3227
I4
sVsearle
p3228
I1
sVgo
p3229
I1
sVreasoning
p3230
I1
sVcareful
p3231
I1
sVreferring
p3232
I1
sVeasiest
p3233
I1
sVto
p3234
I46
sVprogram
p3235
I3
sVhelps
p3236
I1
sVsorry
p3237
I2
sVmust
p3238
I1
sVapplied
p3239
I1
sVvery
p3240
I1
sVblanket
p3241
I2
sVaccount
p3242
I2
sVchoice
p3243
I1
sVrationality
p3244
I1
sVaffect
p3245
I1
sVtrouble
p3246
I1
sVentire
p3247
I4
sVdid
p3248
I1
sV'knows
p3249
I2
sVsays
p3250
I2
sVsecond
p3251
I1
sVdesign
p3252
I2
sVuncomfortable
p3253
I1
sVrigorous
p3254
I1
sVmachines
p3255
I8
sVeven
p3256
I2
sVn't
p3257
I15
sVwhat
p3258
I8
sVgiving
p3259
I1
sVexpressed
p3260
I1
sVattitudes
p3261
I1
sVabove
p3262
I1
sVstance
p3263
I1
sVunderstanding
p3264
I1
sVothers
p3265
I1
sVascribing
p3266
I2
sVsending
p3267
I1
sVexample
p3268
I3
sVopinion
p3269
I1
sVadopting
p3270
I1
sVuseful
p3271
I1
sVexplained
p3272
I1
sVpsychological
p3273
I1
sVaimed
p3274
I1
sVuse
p3275
I2
sVfrom
p3276
I3
sVwould
p3277
I5
sVtwo
p3278
I1
sVproperties
p3279
I1
sVfew
p3280
I1
sVtherefore
p3281
I1
sVthemselves
p3282
I2
sVtell
p3283
I1
sVmore
p3284
I4
sVknows
p3285
I3
sVapparent
p3286
I1
sVascribe
p3287
I1
sVparticular
p3288
I1
sVanalogous
p3289
I1
sVcircumstances
p3290
I1
sVme
p3291
I6
sVkeeping
p3292
I1
sVword
p3293
I1
sVroom
p3294
I6
sVthis
p3295
I3
sVscience
p3296
I1
sVtheories
p3297
I1
sVcan
p3298
I13
sVconcepts
p3299
I1
sVfollowing
p3300
I2
sVmaking
p3301
I2
sVmy
p3302
I4
sVself-conscious
p3303
I1
sVcontrol
p3304
I3
sVcompare
p3305
I1
sVfigure
p3306
I1
sVgive
p3307
I3
sVprocess
p3308
I1
sVsomething
p3309
I4
sVwant
p3310
I3
sVconfuses
p3311
I1
sVinformation
p3312
I2
sVgoal
p3313
I1
sVconversation
p3314
I2
sVprovide
p3315
I1
sg169
I2
sVhow
p3316
I6
sVhot
p3317
I5
sVintelligent
p3318
I3
sVmay
p3319
I2
sVproduce
p3320
I1
sVsuch
p3321
I1
sg350
I22
sVattempt
p3322
I1
sVhypotheses
p3323
I1
sVso
p3324
I5
sVdeposit
p3325
I1
sVallow
p3326
I2
sVpay
p3327
I1
sVdefinitions
p3328
I1
sVtalk
p3329
I1
sVextents
p3330
I1
sVletters
p3331
I1
sVcold
p3332
I5
sVits
p3333
I2
sVbunch
p3334
I1
sVmachine
p3335
I8
sVfit
p3336
I1
sg229
I48
sVbetter
p3337
I1
sVwindow
p3338
I1
sVmight
p3339
I1
sVeasier
p3340
I1
sVfool
p3341
I1
sVthen
p3342
I1
sVthem
p3343
I7
sVgood
p3344
I1
sVthey
p3345
I3
sVnot
p3346
I5
sVcomplain
p3347
I1
sVteller
p3348
I1
sVeasily
p3349
I1
sVradiant
p3350
I1
sV--
p3351
I5
sVpleasanter
p3352
I1
sVmental
p3353
I5
sVhard
p3354
I3
sVprogrammed
p3355
I1
sVidea
p3356
I1
sVour
p3357
I3
sVout
p3358
I3
sVshown
p3359
I1
sg284
I15
sVsince
p3360
I2
sVdaniel
p3361
I1
sVreceiving
p3362
I1
sVbelief
p3363
I2
sVreason
p3364
I2
sVput
p3365
I1
sV'wants
p3366
I1
sVwanted
p3367
I1
sVaxioms
p3368
I1
sVlanguage
p3369
I2
sVcomputers
p3370
I1
sVprogramming
p3371
I2
sVthing
p3372
I2
sVthink
p3373
I3
sVfirst
p3374
I1
sVfeel
p3375
I2
sVnumber
p3376
I2
sVone
p3377
I3
sVfloors
p3378
I1
sVlaterbe
p3379
I1
sVtemperature
p3380
I2
sVdennett
p3381
I1
sVthreatening
p3382
I1
sVsystem
p3383
I2
sVanyone
p3384
I1
sVtheir
p3385
I2
sV'understand
p3386
I1
sg343
I1
sVdraft
p3387
I1
sVtoo
p3388
I5
sVstatement
p3389
I1
sVstore
p3390
I1
sVthat
p3391
I15
sVpart
p3392
I1
sVgrandpa
p3393
I2
sVbelieve
p3394
I1
sVthan
p3395
I2
sVbother
p3396
I2
sVzero
p3397
I1
sVbed
p3398
I4
sVmatter
p3399
I1
sVfuture
p3400
I1
sVwere
p3401
I1
sVresult
p3402
I1
sVand
p3403
I24
sVsay
p3404
I3
sVhave
p3405
I8
sVsentences
p3406
I1
sVneed
p3407
I3
sVany
p3408
I3
sVdepending
p3409
I1
sValso
p3410
I2
sVintends
p3411
I2
sVconcerns
p3412
I1
sVtake
p3413
I1
sVwhich
p3414
I3
sVthough
p3415
I2
sVprogrammers
p3416
I1
sVwho
p3417
I1
sVmost
p3418
I1
sVwhy
p3419
I1
sVsynonym
p3420
I1
sVdog
p3421
I3
sVregards
p3422
I1
sVprinciple
p3423
I1
sVrelation
p3424
I1
sVfind
p3425
I1
sVslow
p3426
I1
sVknowledge
p3427
I1
sg431
I1
sVexplain
p3428
I2
sVenough
p3429
I2
sVshould
p3430
I2
sVonly
p3431
I2
sVbelieving
p3432
I1
sVhe
p3433
I2
sVdo
p3434
I12
sVuderstand
p3435
I1
sVwords
p3436
I2
sVsill
p3437
I1
sVhim
p3438
I1
sVprocesses
p3439
I1
sVmorning
p3440
I1
sVbad
p3441
I2
sVautomatic
p3442
I1
sVset
p3443
I1
sVdecides
p3444
I1
sVintelligence
p3445
I2
sVhumans
p3446
I4
sVsee
p3447
I1
sVcomputer
p3448
I3
sVare
p3449
I7
sVhumane
p3450
I1
sVbest
p3451
I2
sVsaid
p3452
I1
sVways
p3453
I1
sVartificial
p3454
I2
sg482
I1
sVprogress
p3455
I1
sVknowing
p3456
I1
sVwe
p3457
I23
sVterms
p3458
I3
sVcreating
p3459
I1
sVwo
p3460
I1
sVhowever
p3461
I2
sVclimate
p3462
I1
sVthermostatic
p3463
I1
sVvalve
p3464
I2
sVetc.
p3465
I1
sVconnection
p3466
I1
sVforgotten
p3467
I1
sVattributes
p3468
I1
sVwhole
p3469
I1
sVcomes
p3470
I1
sVreasons
p3471
I1
sVca
p3472
I3
sVcorresponds
p3473
I1
sVdescribed
p3474
I1
sVbilling
p3475
I1
sVcreate
p3476
I1
sVthree
p3477
I1
sg737
I49
sVsecret
p3478
I1
sVmuch
p3479
I1
sVjudging
p3480
I1
sVextreme
p3481
I1
sVduties
p3482
I1
sVdefine
p3483
I1
sVwants
p3484
I2
sVunderstand
p3485
I4
sVfellow
p3486
I1
sVpresent
p3487
I3
sVcase
p3488
I1
sVlook
p3489
I2
sVthese
p3490
I4
sVcash
p3491
I1
sVwill
p3492
I14
sVsuppose
p3493
I1
sVbehavior
p3494
I1
sVmany
p3495
I3
sValmost
p3496
I1
sVis
p3497
I19
sVit
p3498
I34
sVitself
p3499
I1
sVin
p3500
I19
sVinteracts
p3501
I1
sVif
p3502
I7
sVdifferent
p3503
I3
sg582
I6
sVthings
p3504
I4
sVmake
p3505
I1
sVsame
p3506
I1
sVfiguring
p3507
I1
sVparts
p3508
I1
sVdifficult
p3509
I3
sVused
p3510
I1
sVanthropomorphism
p3511
I2
sVdiffering
p3512
I1
sVuser
p3513
I1
sVthoughts
p3514
I1
sVtufts
p3515
I1
sVlower
p3516
I2
sVwhereby
p3517
I1
sVprograms
p3518
I5
sVi
p3519
I8
sVconfronted
p3520
I1
sVperson
p3521
I2
sVwithout
p3522
I1
sVqualities
p3523
I5
sVenglish
p3524
I1
sVthe
p3525
I44
sVresearchers
p3526
I1
sVproposed
p3527
I1
sVmoney
p3528
I2
sVactions
p3529
I1
sVstored
p3530
I1
sVhuman
p3531
I2
sVshorthand
p3532
I1
sVyet
p3533
I1
sVhad
p3534
I2
sVinterested
p3535
I1
sg640
I1
sVeasy
p3536
I1
sVhas
p3537
I2
sVgave
p3538
I1
sVradiator
p3539
I1
sVrules
p3540
I2
sVadvocate
p3541
I1
sVusefully
p3542
I1
sVknow
p3543
I5
sVusing
p3544
I2
sVdesigners
p3545
I1
sVlike
p3546
I3
sVarose
p3547
I1
sV'think
p3548
I5
sVinformative
p3549
I1
sVworks
p3550
I2
sVuniversity
p3551
I1
sVbecause
p3552
I11
sVoften
p3553
I1
sVdeal
p3554
I1
sVpeople
p3555
I3
sVanimals
p3556
I2
sVphenomena
p3557
I1
sVthermostats
p3558
I1
sVourselves
p3559
I3
sVfor
p3560
I7
sVphilosopher
p3561
I1
sVdoes
p3562
I3
sVself-consciousness
p3563
I1
sVbe
p3564
I12
sVcommunicate
p3565
I1
sVby
p3566
I4
sV'the
p3567
I1
sVon
p3568
I3
sVabout
p3569
I11
sV'it
p3570
I3
sV'is
p3571
I1
sVof
p3572
I17
sV'd
p3573
I1
sVobeys
p3574
I1
sVor
p3575
I4
sVstatements
p3576
I1
sVthermostat
p3577
I1
sVintellectual
p3578
I1
sV'thinks
p3579
I2
sVright
p3580
I2
sVheated
p3581
I1
sVyour
p3582
I6
sVthere
p3583
I3
sVlong
p3584
I1
sVstuck
p3585
I2
sVway
p3586
I1
sVan
p3587
I4
sVform
p3588
I2
sVsome
p3589
I3
sVregard
p3590
I1
sVbut
p3591
I6
sVheat
p3592
I2
sVtrying
p3593
I3
sVwith
p3594
I12
sVpartially
p3595
I1
sVmade
p3596
I1
sVwhether
p3597
I1
sVup
p3598
I3
sVplaced
p3599
I2
sV're
p3600
I1
sVemotional
p3601
I1
sVsimilar
p3602
I1
sVai
p3603
I2
sVfrighten
p3604
I1
sVdescribe
p3605
I1
sVam
p3606
I1
sVgeneral
p3607
I1
sVengineering
p3608
I1
sVat
p3609
I4
sVas
p3610
I6
sVphysical
p3611
I1
sV'll
p3612
I2
sVno
p3613
I4
sVwhen
p3614
I2
sVthinks
p3615
I1
sVother
p3616
I3
sVbranch
p3617
I1
sVyou
p3618
I2
sVreally
p3619
I1
sVascription
p3620
I1
sV's
p3621
I5
sVusers
p3622
I1
sVrobots
p3623
I1
sVimportant
p3624
I1
sVtime
p3625
I1
ssg820
Vf0015
p3626
sg822
(dp3627
Vable
p3628
I2
sVits
p3629
I1
sVtendency
p3630
I1
sVpayoff
p3631
I1
sVwhose
p3632
I1
sVbelieve
p3633
I1
sg431
I1
sg229
I10
sVshould
p3634
I2
sVto
p3635
I13
sVidiots
p3636
I1
sVprogram
p3637
I2
sVthose
p3638
I1
sVours
p3639
I1
sVmust
p3640
I1
sVeasier
p3641
I1
sVfool
p3642
I1
sVdo
p3643
I1
sVuderstand
p3644
I1
sVbastards
p3645
I1
sVthey
p3646
I3
sVnot
p3647
I2
sVdesigners
p3648
I4
sVteller
p3649
I1
sVeasily
p3650
I1
sVlike
p3651
I2
sVservant
p3652
I1
sVloses
p3653
I1
sV--
p3654
I3
sVeither
p3655
I1
sVautomatic
p3656
I1
sVpleasanter
p3657
I1
sVmental
p3658
I3
sVdeal
p3659
I3
sVphysically
p3660
I1
sVhumans
p3661
I1
sVcomputer
p3662
I1
sVare
p3663
I3
sVour
p3664
I1
sVhumane
p3665
I1
sVno-one
p3666
I1
sVourselves
p3667
I1
sVmachines
p3668
I4
sVwill
p3669
I3
sVpsychology
p3670
I1
sVexpert
p3671
I1
sVtwice
p3672
I1
sVfascist
p3673
I1
sVdoes
p3674
I1
sVprobably
p3675
I2
sg704
I1
sVbe
p3676
I5
sVwe
p3677
I6
sVterms
p3678
I1
sVnever
p3679
I1
sVhowever
p3680
I2
sVproperties
p3681
I1
sVabout
p3682
I1
sVof
p3683
I4
sVcomputers
p3684
I1
sVor
p3685
I2
sVcomes
p3686
I1
sVand
p3687
I3
sVown
p3688
I1
sVlove
p3689
I1
sVcreate
p3690
I1
sVthere
p3691
I1
sVonly
p3692
I1
sg737
I10
sVtheir
p3693
I3
sVmuch
p3694
I1
sVmaster
p3695
I1
sVtoo
p3696
I1
sVmore
p3697
I2
sVwants
p3698
I1
sVcontrolled
p3699
I1
sVthat
p3700
I7
sVapparent
p3701
I1
sVascribe
p3702
I1
sVunderstand
p3703
I1
sVparticular
p3704
I1
sVcareful
p3705
I1
sVwith
p3706
I5
sVeasiest
p3707
I1
sVpresent
p3708
I1
sVcircumstances
p3709
I1
sVup
p3710
I1
sVus
p3711
I1
sVn't
p3712
I2
sVwhile
p3713
I1
sVfuture
p3714
I1
sVcan
p3715
I1
sVtemper
p3716
I1
sVcontrol
p3717
I1
sVwant
p3718
I2
sVis
p3719
I3
sVit
p3720
I2
sVan
p3721
I2
sVas
p3722
I3
sVsomething
p3723
I1
sVhave
p3724
I3
sVin
p3725
I4
sVneed
p3726
I1
sVif
p3727
I2
sV'll
p3728
I3
sVrather
p3729
I1
sVconvenient
p3730
I1
sVmake
p3731
I1
sVwhen
p3732
I3
sVsame
p3733
I1
sVmachine
p3734
I4
sValso
p3735
I1
sVphysical
p3736
I1
sVascription
p3737
I1
sVusers
p3738
I1
sVprogrammers
p3739
I1
sVwho
p3740
I2
sVfalls
p3741
I1
sVuser
p3742
I1
sVend
p3743
I1
sVthoughts
p3744
I1
sg350
I4
sVunderstands
p3745
I1
sVprograms
p3746
I2
sVthink
p3747
I4
sg582
I1
sVqualities
p3748
I3
sVthe
p3749
I12
ssg961
(dp3750
sg1083
(dp3751
g3732
I3
sg3629
I1
sg3630
I1
sg3631
I1
sg3632
I1
sg3633
I1
sg431
I1
sg229
I10
sg3634
I2
sg3635
I13
sg3692
I1
sg3637
I2
sg3708
I1
sg3639
I1
sg3640
I1
sg3641
I1
sg3642
I1
sg3643
I1
sg3644
I1
sg3645
I1
sg3646
I3
sg3647
I2
sg3648
I4
sg3649
I1
sg3650
I1
sg3651
I2
sg3652
I1
sg3653
I1
sg3672
I1
sg3655
I1
sg3656
I1
sg3657
I1
sg3658
I3
sg3659
I3
sg3660
I1
sg3661
I1
sg3662
I1
sg3663
I3
sg3664
I1
sg3665
I1
sg3666
I1
sg3667
I1
sg3668
I4
sg3712
I2
sg3670
I1
sg3671
I1
sg3739
I1
sg3674
I1
sg3675
I2
sg704
I1
sg3676
I5
sg3677
I6
sg3678
I1
sg3679
I1
sg3680
I2
sg3681
I1
sg3682
I1
sg3683
I4
sg3684
I1
sg3685
I2
sg3686
I1
sg3717
I1
sg3688
I1
sg3689
I1
sg3690
I1
sg3691
I1
sg3636
I1
sg737
I10
sg3693
I3
sg3694
I1
sg3695
I1
sg3696
I1
sg3697
I2
sg3698
I1
sg3699
I1
sg3700
I7
sg3701
I1
sg3702
I1
sg3703
I1
sg3704
I1
sg3705
I1
sg3706
I5
sg3707
I1
sg3638
I1
sg3709
I1
sg3710
I1
sg3711
I1
sg3669
I3
sg3713
I1
sg3714
I1
sg3715
I1
sg3716
I1
sg3687
I3
sg3724
I3
sg3719
I3
sg3720
I2
sg3721
I2
sg3722
I3
sg3723
I1
sg3718
I2
sg3725
I4
sg3726
I1
sg3727
I2
sg3728
I3
sg3729
I1
sg3730
I1
sg3731
I1
sg3628
I2
sg3733
I1
sg3734
I4
sg3735
I1
sg3654
I3
sg3736
I1
sg3737
I1
sg3738
I1
sg3673
I1
sg3740
I2
sg3741
I1
sg3742
I1
sg3743
I1
sg3744
I1
sg350
I4
sg3745
I1
sg3746
I2
sg3747
I4
sg582
I1
sg3748
I3
sg3749
I12
ssba(icmyPackage
FWordDic
p3752
(dp3753
g3
(dp3754
Vall
p3755
I1
sVlack
p3756
I2
sVactivated
p3757
I1
sVresults
p3758
I1
sVexisting
p3759
I1
sVreasoning
p3760
I2
sVto
p3761
I26
sVprogram
p3762
I1
sVinclude
p3763
I2
sVfly
p3764
I7
sVexperimentally
p3765
I1
sVhour
p3766
I1
sVoriginally
p3767
I1
sVconcluded
p3768
I1
sVnon-feeble-minded
p3769
I1
sVfurther
p3770
I1
sVbacterial
p3771
I3
sVbacteria
p3772
I1
sVeven
p3773
I3
sVn't
p3774
I11
sVwhat
p3775
I3
sVcurrent
p3776
I1
sVnew
p3777
I4
sVbird
p3778
I11
sVtold
p3779
I1
sVspecialist
p3780
I1
sVfull
p3781
I3
sVinterns
p3782
I2
sVnever
p3783
I2
sVmodify
p3784
I1
sVobjects
p3785
I1
sVothers
p3786
I1
sVi.e
p3787
I1
sVstudy
p3788
I1
sVexperience
p3789
I1
sVignoring
p3790
I1
sg431
I3
sVusually
p3791
I1
sVopinion
p3792
I1
sVnarrow
p3793
I1
sVmakes
p3794
I1
sVrequiring
p3795
I1
sVuse
p3796
I1
sVfrom
p3797
I2
sVwould
p3798
I5
sVnegative
p3799
I1
sVtherefore
p3800
I3
sVscope
p3801
I1
sVmore
p3802
I1
sV``
p3803
I1
sVknows
p3804
I1
sVsuccessful
p3805
I1
sVinfection
p3806
I1
sVit
p3807
I20
sVantibiotics
p3808
I1
sVmust
p3809
I3
sVme
p3810
I4
sVkeeping
p3811
I1
sVpracticing
p3812
I2
sV0.5gt^
p3813
I1
sVthis
p3814
I5
sVcar
p3815
I3
sVride
p3816
I2
sVvalues
p3817
I3
sVcan
p3818
I5
sVlearn
p3819
I3
sVmy
p3820
I6
sVexample
p3821
I1
sVgive
p3822
I1
sVsense
p3823
I6
sVinformation
p3824
I1
sVprovide
p3825
I1
sVget
p3826
I1
sVprognosis
p3827
I1
sVimbedded
p3828
I1
sVintelligent
p3829
I1
sVintended
p3830
I2
sVmay
p3831
I2
sVadvice
p3832
I1
sVdifferent
p3833
I2
sVtries
p3834
I1
sg350
I31
sVrefuse
p3835
I4
sVmaybe
p3836
I1
sVrobot
p3837
I1
sVperhaps
p3838
I1
sVso
p3839
I1
sVequation
p3840
I1
sVpointed
p3841
I1
sVcourse
p3842
I1
sVmentioned
p3843
I4
sVbrittle
p3844
I1
sVits
p3845
I6
sVbefore
p3846
I1
sVsupplemented
p3847
I1
sVsusceptible
p3848
I1
sg229
I46
sVsymptoms
p3849
I1
sVoffers
p3850
I1
sVsystems
p3851
I1
sVmight
p3852
I4
sVphysicians
p3853
I2
sVthem
p3854
I2
sVgood
p3855
I1
sVdiseases
p3856
I3
sVmatches
p3857
I1
sVeffects
p3858
I5
sVthey
p3859
I2
sVhalf
p3860
I1
sVnot
p3861
I9
sVnow
p3862
I1
sVcage
p3863
I2
sValways
p3864
I1
sVout
p3865
I3
sVside
p3866
I2
sVdomain
p3867
I1
sVidea
p3868
I2
sVused
p3869
I3
sVour
p3870
I1
sVbeyond
p3871
I1
sVevent
p3872
I2
sVreally
p3873
I3
sVsince
p3874
I3
sVperforms
p3875
I1
sVmedicine
p3876
I2
sVmycin
p3877
I21
sVtreatments
p3878
I1
sVreason
p3879
I1
sVask
p3880
I1
sVperform
p3881
I2
sVcould
p3882
I2
sVconsequence
p3883
I1
sVflying
p3884
I1
sVvariables
p3885
I3
sVyourself
p3886
I1
sVanother
p3887
I1
sVtop
p3888
I6
sVleast
p3889
I1
sVtheir
p3890
I4
sg343
I2
sVconvention
p3891
I1
sVthat
p3892
I24
sVpart
p3893
I5
sVdoctors
p3894
I2
sVrepresenting
p3895
I1
sVthan
p3896
I2
sVrequire
p3897
I1
sVdatabase
p3898
I3
sVnevertheless
p3899
I1
sVpatients
p3900
I6
sVdetermined
p3901
I1
sVwere
p3902
I3
sVand
p3903
I24
sVillness
p3904
I1
sVturned
p3905
I1
sVsay
p3906
I1
sVmanner
p3907
I2
sVhave
p3908
I6
sVneed
p3909
I3
sVtells
p3910
I1
sVlatter
p3911
I2
sVable
p3912
I2
sValso
p3913
I1
sVtake
p3914
I1
sVwhich
p3915
I3
sg395
I1
sVunless
p3916
I2
sVprogrammers
p3917
I1
sVprice
p3918
I2
sVknew
p3919
I2
sVplan
p3920
I2
sVmedical
p3921
I2
sVsometimes
p3922
I1
sVinfections
p3923
I2
sVintelligently
p3924
I1
sVphysics
p3925
I5
sVfact
p3926
I5
sVplanning
p3927
I3
sVrelation
p3928
I1
sVminsky
p3929
I1
sVknowledge
p3930
I3
sVimplementation
p3931
I1
sVconvinced
p3932
I1
sVidiots
p3933
I1
sVpenguin
p3934
I2
sVhope
p3935
I1
sVmeant
p3936
I1
sVdo
p3937
I4
sVmeans
p3938
I2
sVcholera
p3939
I1
sVbad
p3940
I1
sVcommon
p3941
I6
sVfixed
p3942
I1
sVset
p3943
I1
sVintelligence
p3944
I2
sVoperates
p3945
I1
sVdepends
p3946
I1
sVcomputer
p3947
I2
sVare
p3948
I13
sVclose
p3949
I1
sVfails
p3950
I1
sVsaid
p3951
I1
sVpattern
p3952
I4
sVaway
p3953
I2
sVsites
p3954
I1
sVartificial
p3955
I2
sVenough
p3956
I1
sVvarious
p3957
I1
sVprogress
p3958
I1
sVwe
p3959
I3
sVability
p3960
I3
sVextend
p3961
I1
sVwo
p3962
I1
sVmarvin
p3963
I1
sVhowever
p3964
I2
sVreverse
p3965
I1
sVlimits
p3966
I1
sVmany
p3967
I2
sVdeduction
p3968
I2
sg512
I1
sVlogic
p3969
I2
sVasked
p3970
I2
sVgrounds
p3971
I4
sVrelevant
p3972
I2
sVconclude
p3973
I3
sVca
p3974
I2
sVbetter
p3975
I2
sVasks
p3976
I2
sg737
I47
sVtropical
p3977
I1
sVcertain
p3978
I1
sVwaste
p3979
I2
sVhardly
p3980
I1
sVpartly
p3981
I1
sVpresent
p3982
I1
sVphysician
p3983
I1
sVcontemplated
p3984
I1
sVwill
p3985
I5
sVsuppose
p3986
I4
sVmatch
p3987
I1
sVsituation
p3988
I2
sVproperty
p3989
I1
sVdiscoveries
p3990
I1
sVthen
p3991
I4
sVis
p3992
I22
sVusable
p3993
I1
sVexperts
p3994
I2
sVin
p3995
I16
sVif
p3996
I13
sVpar
p3997
I2
sVdevelop
p3998
I1
sVdoctor
p3999
I3
sg582
I4
sVpay
p4000
I4
sVsame
p4001
I2
sVany
p4002
I3
sVseveral
p4003
I1
sVevents
p4004
I1
sVdifficult
p4005
I2
sVextended
p4006
I1
sVhand
p4007
I2
sVaction
p4008
I1
sVnecessity
p4009
I1
sVmodes
p4010
I1
sVprograms
p4011
I2
sVi
p4012
I11
sVpossessed
p4013
I1
sV1974
p4014
I1
sVwithout
p4015
I3
sVthe
p4016
I55
sVtrue
p4017
I1
sVresearchers
p4018
I1
sVjust
p4019
I2
sVbeing
p4020
I2
sVactions
p4021
I3
sVhuman
p4022
I1
sVfacts
p4023
I3
sVadding
p4024
I1
sVdeath
p4025
I1
sVsmith
p4026
I1
sVexcept
p4027
I1
sVtreatment
p4028
I2
sVhas
p4029
I1
sVsmart
p4030
I1
sVbuild
p4031
I6
sVtests
p4032
I2
sVpossible
p4033
I2
sVknow
p4034
I6
sVjudge
p4035
I2
sVusing
p4036
I1
sVdesigners
p4037
I1
sVadvanced
p4038
I1
sVformal
p4039
I1
sVcontradict
p4040
I1
sVspecific
p4041
I3
sVmisled
p4042
I1
sVpopular
p4043
I1
sVoutput
p4044
I1
sVmathematical
p4045
I2
sVbecause
p4046
I7
sVsome
p4047
I3
sVdescribing
p4048
I1
sVfor
p4049
I7
sVdoes
p4050
I4
sVminimal
p4051
I1
sVlimitations
p4052
I3
sVbe
p4053
I13
sVpatient
p4054
I4
sVscientific
p4055
I2
sValthough
p4056
I2
sVontology
p4057
I3
sVby
p4058
I9
sVconstrains
p4059
I1
sVon
p4060
I11
sVabout
p4061
I8
sVok
p4062
I1
sVof
p4063
I26
sVideology
p4064
I1
sVcamels
p4065
I1
sVor
p4066
I5
sVown
p4067
I3
sVstatements
p4068
I3
sVcommunication
p4069
I1
sVtwo
p4070
I2
sVappropriate
p4071
I1
sVdetermine
p4072
I1
sVutility
p4073
I1
sVadditional
p4074
I1
sVtasting
p4075
I1
sVremoving
p4076
I1
sVthere
p4077
I2
sVway
p4078
I2
sVregard
p4079
I1
sVbut
p4080
I1
sVformalisms
p4081
I1
sVwith
p4082
I7
sVhe
p4083
I2
sVabsent
p4084
I1
sVhire
p4085
I2
sVwhether
p4086
I1
sVnonmonotonically
p4087
I1
sVus
p4088
I1
sVai
p4089
I1
sVrecognize
p4090
I1
sVan
p4091
I4
sV''
p4092
I1
sVas
p4093
I4
sVat
p4094
I2
sVcircumscription
p4095
I1
sVformalism
p4096
I1
sVhospitals
p4097
I1
sVagain
p4098
I1
sVno
p4099
I1
sVwhen
p4100
I5
sVfield
p4101
I1
sVother
p4102
I3
sVcompares
p4103
I2
sVyou
p4104
I16
sVnonmonotonic
p4105
I1
sV's
p4106
I7
sVusers
p4107
I1
sVstudents
p4108
I2
sVincludes
p4109
I1
sVscores
p4110
I2
sVlonger
p4111
I1
sVrule
p4112
I1
ssg820
Vf0016
p4113
sg822
(dp4114
sg961
(dp4115
Vlack
p4116
I1
sVactivated
p4117
I1
sVresults
p4118
I1
sVreasoning
p4119
I2
sVcertainly
p4120
I1
sVto
p4121
I23
sVprogram
p4122
I5
sVunpopular
p4123
I1
sVvery
p4124
I4
sVdecide
p4125
I1
sVtelling
p4126
I1
sVexperimentally
p4127
I1
sVtreating
p4128
I1
sVimpressive
p4129
I1
sV--
p4130
I2
sVlist
p4131
I1
sVlarge
p4132
I1
sVsmall
p4133
I1
sVidiots
p4134
I1
sVlikely
p4135
I1
sVnon-feeble-minded
p4136
I1
sVbacterial
p4137
I4
sVbacteria
p4138
I4
sVeven
p4139
I3
sVwill
p4140
I4
sVwhat
p4141
I2
sVorganisms
p4142
I1
sVcurrent
p4143
I1
sVscientists
p4144
I1
sVnew
p4145
I9
sg1005
I1
sVtold
p4146
I1
sVinterns
p4147
I1
sVnever
p4148
I1
sVmodify
p4149
I1
sVunderstanding
p4150
I1
sVoperating
p4151
I1
sVothers
p4152
I2
sVi.e
p4153
I1
sVdiagnoses
p4154
I2
sVexperience
p4155
I1
sVamount
p4156
I1
sVaction
p4157
I2
sVopinion
p4158
I1
sVsuitable
p4159
I1
sVmakes
p4160
I1
sVapply
p4161
I1
sVuse
p4162
I1
sVfrom
p4163
I1
sVwould
p4164
I5
sVprobabilities
p4165
I1
sVtwo
p4166
I3
sVtherefore
p4167
I1
sVrecommend
p4168
I1
sVscope
p4169
I1
sVtoday
p4170
I2
sVmore
p4171
I1
sV``
p4172
I3
sVsuccessful
p4173
I1
sVoutputs
p4174
I1
sVinfection
p4175
I2
sVantibiotics
p4176
I3
sVcontrolling
p4177
I1
sVknown
p4178
I1
sVkeeping
p4179
I1
sVpracticing
p4180
I1
sVthis
p4181
I13
sVoriginally
p4182
I1
sVtheories
p4183
I1
sVlegionnella
p4184
I1
sVvalues
p4185
I2
sVcan
p4186
I3
sVlearn
p4187
I1
sVspecialized
p4188
I1
sVexample
p4189
I2
sVstubborn
p4190
I1
sVprocess
p4191
I1
sVaccept
p4192
I1
sVsense
p4193
I12
sVinformation
p4194
I2
sVvaried
p4195
I1
sVdiscussion
p4196
I1
sVfar
p4197
I1
sVanswer
p4198
I1
sVsymposium
p4199
I1
sVfever
p4200
I1
sVintended
p4201
I2
sVmay
p4202
I2
sVafter
p4203
I2
sVtreatments
p4204
I1
sVcollection
p4205
I1
sVquestioning
p4206
I1
sVapplications
p4207
I1
sVtries
p4208
I1
sVblood
p4209
I1
sVsuch
p4210
I1
sVresponse
p4211
I1
sVtypes
p4212
I1
sg350
I20
sVdocumentation
p4213
I1
sg582
I3
sVso
p4214
I3
sVindeed
p4215
I1
sVover
p4216
I2
sVcourse
p4217
I1
sVpaper
p4218
I2
sVreplies
p4219
I1
sVbrittle
p4220
I1
sVits
p4221
I10
sVbefore
p4222
I1
sVhow
p4223
I1
sg229
I43
sVsymptoms
p4224
I2
sVproduction
p4225
I4
sVsystems
p4226
I2
sVweeks
p4227
I1
sVphysicians
p4228
I2
sVthem
p4229
I4
sVdiseases
p4230
I1
sVmatches
p4231
I1
sVthey
p4232
I2
sVnot
p4233
I7
sV1958
p4234
I2
sVmatched
p4235
I1
sVname
p4236
I1
sValways
p4237
I1
sVreasonably
p4238
I1
sVcapability
p4239
I1
sVeach
p4240
I1
sVdomain
p4241
I3
sVidea
p4242
I1
sVmeasure
p4243
I1
sVlaboratory
p4244
I1
sVbeyond
p4245
I1
sVout
p4246
I2
sVvibrio
p4247
I1
sVsince
p4248
I1
sVsocalled
p4249
I1
sVperforms
p4250
I1
sVlecture
p4251
I1
sVmycin
p4252
I28
sVstandard
p4253
I1
sVput
p4254
I2
sVperform
p4255
I1
sVe.g
p4256
I1
sVphrases
p4257
I1
sVdavis
p4258
I1
sVmajor
p4259
I1
sVvariables
p4260
I4
sVnumber
p4261
I1
sVone
p4262
I1
sVanother
p4263
I2
sVcheerfully
p4264
I1
sVgiven
p4265
I1
sVsystem
p4266
I3
sVleast
p4267
I1
sVtheir
p4268
I6
sVtoo
p4269
I1
sVhypothetical
p4270
I1
sVscheme
p4271
I1
sVshortliffe
p4272
I2
sVheadache
p4273
I1
sVway
p4274
I1
sVthat
p4275
I13
sVexactly
p4276
I1
sVpart
p4277
I6
sVdoctors
p4278
I3
sVrepresenting
p4279
I1
sVthan
p4280
I2
sVbegins
p4281
I1
sVrequire
p4282
I2
sVprograms
p4283
I3
sV1977
p4284
I1
sVpatients
p4285
I3
sVdetermined
p4286
I1
sVwere
p4287
I2
sVembody
p4288
I1
sVoutcome
p4289
I1
sVtreated
p4290
I1
sVusefulness
p4291
I1
sVand
p4292
I33
sVillness
p4293
I1
sVturned
p4294
I1
sVsay
p4295
I1
sVadvising
p4296
I1
sVhave
p4297
I5
sVsentences
p4298
I1
sVany
p4299
I2
sVsell
p4300
I1
sVbuilt
p4301
I1
sVstudying
p4302
I1
sVlatter
p4303
I1
sVideas
p4304
I1
sValso
p4305
I1
sVwhich
p4306
I2
sVperformance
p4307
I1
sVlectures
p4308
I1
sVprogrammers
p4309
I1
sVknew
p4310
I1
sVcassettes
p4311
I1
sVextending
p4312
I1
sVsaid
p4313
I1
sVnothing
p4314
I1
sVunderstands
p4315
I1
sVmedical
p4316
I1
sVsometimes
p4317
I2
sVinfections
p4318
I3
sVdisease
p4319
I1
sVfact
p4320
I1
sVcholerae
p4321
I1
sVknowledge
p4322
I5
sVlegionnaire
p4323
I1
sVtitle
p4324
I1
sg431
I4
sVexplain
p4325
I1
sVwritten
p4326
I2
sVentities
p4327
I2
sVonly
p4328
I3
sVpartially
p4329
I1
sVhope
p4330
I1
sVmeant
p4331
I1
sVdo
p4332
I2
sVhis
p4333
I1
sVmeans
p4334
I1
sVcholera
p4335
I1
sVnevertheless
p4336
I1
sVwords
p4337
I1
sVareas
p4338
I1
sVcommon
p4339
I12
sVwrote
p4340
I2
sVview
p4341
I1
sVset
p4342
I1
sVintelligence
p4343
I1
sVsex
p4344
I1
sVcomputer
p4345
I2
sVare
p4346
I10
sVclose
p4347
I1
sVbest
p4348
I1
sVsubject
p4349
I1
sVfails
p4350
I1
sVstill
p4351
I1
sVexpert
p4352
I4
sVpattern
p4353
I6
sVsites
p4354
I2
sVartificial
p4355
I1
sVbehind
p4356
I1
sVprogress
p4357
I1
sVknowing
p4358
I1
sVwe
p4359
I1
sVterms
p4360
I1
sVability
p4361
I3
sVextend
p4362
I1
sVhowever
p4363
I3
sVkey
p4364
I1
sVessentially
p4365
I1
sVmany
p4366
I3
sVuncertainty
p4367
I1
sVemycin
p4368
I1
sVbecame
p4369
I1
sVusable
p4370
I1
sVwhole
p4371
I1
sVasked
p4372
I2
sVamong
p4373
I1
sVpresumably
p4374
I2
sVrelevant
p4375
I1
sVprepared
p4376
I1
sVpoint
p4377
I1
sVreasons
p4378
I1
sVwhatever
p4379
I1
sVinnovations
p4380
I1
sVsimply
p4381
I1
sVassociated
p4382
I1
sVbetter
p4383
I1
sVdescribed
p4384
I1
sVasks
p4385
I2
sVbeen
p4386
I4
sg737
I55
sVoffers
p4387
I1
sVbasic
p4388
I1
sVhardly
p4389
I1
sVpartly
p4390
I2
sVmeningitis
p4391
I1
sVelse
p4392
I1
sVfinished
p4393
I1
sVunderstand
p4394
I2
sVsuspected
p4395
I2
sVan
p4396
I4
sVpresent
p4397
I1
sVphysician
p4398
I2
sVadvocating
p4399
I1
sVlook
p4400
I1
sVcontemplated
p4401
I1
sVas
p4402
I1
sVn't
p4403
I5
sVwhile
p4404
I1
sVsuppose
p4405
I1
sVsmart
p4406
I1
sVfreely
p4407
I1
sVdiscoveries
p4408
I1
sVmanner
p4409
I1
sVthen
p4410
I2
sVis
p4411
I24
sVit
p4412
I16
sVasking
p4413
I1
sVexperts
p4414
I2
sVin
p4415
I21
sVtrusted
p4416
I1
sVif
p4417
I4
sVdifferent
p4418
I1
sVdevelop
p4419
I1
sVdoctor
p4420
I1
sVperhaps
p4421
I1
sVsame
p4422
I1
sVparts
p4423
I1
sVunrecognized
p4424
I1
sVavoids
p4425
I1
sVseveral
p4426
I1
sVconsequence
p4427
I1
sVdifficult
p4428
I3
sVused
p4429
I1
sVhand
p4430
I1
sVusually
p4431
I1
sVuses
p4432
I1
sVuser
p4433
I2
sV1969
p4434
I1
sVnarrow
p4435
I1
sVdatabase
p4436
I3
sVi
p4437
I6
sV1976
p4438
I1
sVpossessed
p4439
I1
sVwell
p4440
I1
sVobject
p4441
I1
sVwithout
p4442
I1
sVenglish
p4443
I2
sVthe
p4444
I60
sVtrue
p4445
I1
sVresearchers
p4446
I2
sVabilities
p4447
I2
sVbeing
p4448
I1
sVdiarrhea
p4449
I1
sVbuchanan
p4450
I1
sVkill
p4451
I1
sVhuman
p4452
I1
sVfacts
p4453
I3
sVprevious
p4454
I1
sVdeath
p4455
I1
sVexcept
p4456
I1
sVrecommending
p4457
I1
sVtreatment
p4458
I1
sVhas
p4459
I7
sVexcited
p4460
I1
sVmatch
p4461
I2
sVtests
p4462
I4
sVrules
p4463
I1
sVpossible
p4464
I1
sVknow
p4465
I3
sVwanting
p4466
I1
sVusing
p4467
I2
sVdesigners
p4468
I1
sVdomains
p4469
I1
sVformal
p4470
I1
sVconducts
p4471
I1
sVspecific
p4472
I2
sVmisled
p4473
I1
sVpopular
p4474
I2
sVbecause
p4475
I3
sVoften
p4476
I1
sVsome
p4477
I4
sVdead
p4478
I1
sVcertain
p4479
I3
sVunderstood
p4480
I2
sVproductions
p4481
I1
sVexamples
p4482
I1
sVfacing
p4483
I1
sVfor
p4484
I8
sVdoes
p4485
I2
sVexpressing
p4486
I1
sVlimitations
p4487
I6
sVbe
p4488
I11
sVmeasures
p4489
I1
sVpatient
p4490
I4
sValthough
p4491
I1
sVontology
p4492
I4
sVby
p4493
I8
sVon
p4494
I5
sVabout
p4495
I9
sVok
p4496
I1
sVworking
p4497
I1
sVmost
p4498
I1
sVof
p4499
I38
sVideology
p4500
I1
sVrange
p4501
I1
sVdialog
p4502
I3
sVor
p4503
I4
sVown
p4504
I2
sVpresence
p4505
I1
sVinto
p4506
I1
sVappropriate
p4507
I1
sVmethods
p4508
I1
sVmicro-computers
p4509
I1
sVarea
p4510
I2
sVthere
p4511
I1
sVquestion
p4512
I2
sVlong
p4513
I1
sVlot
p4514
I1
sVwas
p4515
I1
sVrecommends
p4516
I1
sVelsewhere
p4517
I1
sVenough
p4518
I1
sVcriteria
p4519
I1
sVbut
p4520
I2
sVwith
p4521
I6
sVintestines
p4522
I1
sVhe
p4523
I1
sVabsent
p4524
I1
sVwhether
p4525
I4
sVup
p4526
I1
sVpar
p4527
I1
sVproblem
p4528
I1
sVcalled
p4529
I1
sVproved
p4530
I1
sVai
p4531
I3
sVrecognize
p4532
I1
sVdescribe
p4533
I1
sVgeneral
p4534
I1
sV''
p4535
I3
sVsingle
p4536
I1
sVat
p4537
I2
sVour
p4538
I1
sVformalism
p4539
I1
sVhospitals
p4540
I1
sV'll
p4541
I1
sVwhen
p4542
I5
sVfield
p4543
I1
sVother
p4544
I3
sVcompares
p4545
I1
sVreally
p4546
I2
sV's
p4547
I8
sVusers
p4548
I1
sVprovided
p4549
I1
sVstudents
p4550
I1
sVproblems
p4551
I1
sVincludes
p4552
I1
sVtetracycline
p4553
I1
sVimportant
p4554
I1
sVscores
p4555
I1
sVage
p4556
I1
sVrequired
p4557
I2
sVrule
p4558
I1
sVdiagnosis
p4559
I2
sVhaving
p4560
I1
ssg1083
(dp4561
g4519
I1
sg4321
I1
sg4116
I1
sg4117
I1
sg4118
I1
sg4388
I1
sg4119
I2
sg4120
I1
sg4322
I5
sg4323
I1
sg4324
I1
sg431
I4
sg4325
I1
sg4356
I1
sg4121
I23
sg4134
I1
sg4122
I5
sg4523
I1
sg4450
I1
sg4330
I1
sg4331
I1
sg4332
I2
sg4333
I1
sg4486
I1
sg4334
I1
sg4124
I4
sg4335
I1
sg4508
I1
sg4125
I1
sg4357
I1
sg4126
I1
sg4127
I1
sg4338
I1
sg4128
I1
sg4129
I1
sg4130
I2
sg4131
I1
sg4132
I1
sg4339
I12
sg4133
I1
sg4340
I2
sg4341
I1
sg4351
I1
sg4342
I1
sg4538
I1
sg4343
I1
sg4344
I1
sg4135
I1
sg4345
I2
sg4136
I1
sg4291
I1
sg4347
I1
sg4137
I4
sg4138
I4
sg4348
I1
sg4349
I1
sg4139
I3
sg4403
I5
sg4141
I2
sg4313
I1
sg4142
I1
sg4353
I6
sg4354
I2
sg4355
I1
sg4143
I1
sg4326
I2
sg4144
I1
sg4412
I16
sg4145
I9
sg1005
I1
sg4454
I1
sg4456
I1
sg4146
I1
sg4358
I1
sg4359
I1
sg4360
I1
sg4361
I3
sg4362
I1
sg4147
I1
sg4148
I1
sg4149
I1
sg4363
I3
sg4150
I1
sg4151
I1
sg4364
I1
sg4152
I2
sg4153
I1
sg4154
I2
sg4366
I3
sg4367
I1
sg4155
I1
sg4408
I1
sg4368
I1
sg4156
I1
sg4369
I1
sg4157
I2
sg4158
I1
sg4159
I1
sg4160
I1
sg4372
I2
sg4373
I1
sg4374
I2
sg4375
I1
sg4377
I1
sg4378
I1
sg4458
I1
sg4379
I1
sg4380
I1
sg4381
I1
sg4161
I1
sg4383
I1
sg4162
I1
sg4492
I4
sg4163
I1
sg4164
I5
sg4327
I2
sg4165
I1
sg4536
I1
sg4166
I3
sg4386
I4
sg737
I55
sg4469
I1
sg4387
I1
sg4167
I1
sg4168
I1
sg4169
I1
sg4389
I1
sg4170
I2
sg4171
I1
sg4543
I1
sg4172
I3
sg4390
I2
sg4391
I1
sg4173
I1
sg4174
I1
sg4365
I1
sg4175
I2
sg4392
I1
sg4176
I3
sg4177
I1
sg4178
I1
sg4395
I2
sg4534
I1
sg4397
I1
sg4123
I1
sg4179
I1
sg4459
I7
sg4180
I1
sg4400
I1
sg4401
I1
sg4181
I13
sg4399
I1
sg4182
I1
sg4542
I5
sg4402
I1
sg4489
I1
sg4183
I1
sg4140
I4
sg4184
I1
sg4404
I1
sg4185
I2
sg4186
I3
sg4187
I1
sg4188
I1
sg4189
I2
sg4409
I1
sg4190
I1
sg4410
I2
sg4191
I1
sg4411
I24
sg4415
I21
sg4370
I1
sg4192
I1
sg4546
I2
sg4414
I2
sg4193
I12
sg4472
I2
sg4431
I1
sg4416
I1
sg4417
I4
sg4194
I2
sg4418
I1
sg4421
I1
sg4419
I1
sg4195
I1
sg4420
I1
sg582
I3
sg4540
I1
sg4196
I1
sg4422
I1
sg4197
I1
sg4423
I1
sg4424
I1
sg4198
I1
sg4199
I1
sg4530
I1
sg4426
I1
sg4427
I1
sg4428
I3
sg4200
I1
sg4201
I2
sg4552
I1
sg4202
I2
sg4405
I1
sg4203
I2
sg4204
I1
sg4205
I1
sg4206
I1
sg4207
I1
sg4208
I1
sg4514
I1
sg4432
I1
sg4209
I1
sg4210
I1
sg4211
I1
sg4212
I1
sg4434
I1
sg350
I20
sg4435
I1
sg4283
I3
sg4284
I1
sg4371
I1
sg4439
I1
sg4213
I1
sg4440
I1
sg4255
I1
sg4442
I1
sg4214
I3
sg4485
I2
sg4443
I2
sg4444
I60
sg4446
I2
sg4553
I1
sg4447
I2
sg4337
I1
sg4445
I1
sg4215
I1
sg4216
I2
sg4217
I1
sg4218
I2
sg4451
I1
sg4452
I1
sg4219
I1
sg4453
I3
sg4220
I1
sg4221
I10
sg4222
I1
sg4455
I1
sg4223
I1
sg229
I43
sg4457
I1
sg4224
I2
sg4556
I1
sg4225
I4
sg4226
I2
sg4227
I1
sg4407
I1
sg4460
I1
sg4406
I1
sg4228
I2
sg4229
I4
sg4230
I1
sg4231
I1
sg4464
I1
sg4425
I1
sg4497
I1
sg4465
I3
sg4232
I2
sg4466
I1
sg4233
I7
sg4467
I2
sg4468
I1
sg4234
I2
sg4235
I1
sg4236
I1
sg4237
I1
sg4238
I1
sg4471
I1
sg4521
I6
sg4239
I1
sg4473
I1
sg4481
I1
sg4240
I1
sg4474
I2
sg4463
I1
sg4241
I3
sg4438
I1
sg4476
I1
sg4393
I1
sg4242
I1
sg4478
I1
sg4398
I2
sg4480
I2
sg4429
I1
sg4482
I1
sg4243
I1
sg4506
I1
sg4244
I1
sg4245
I1
sg4246
I2
sg4247
I1
sg4484
I8
sg4248
I1
sg4550
I1
sg4413
I1
sg4462
I4
sg4249
I1
sg4250
I1
sg4251
I1
sg4487
I6
sg4488
I11
sg4441
I1
sg4490
I4
sg4499
I38
sg4252
I28
sg4253
I1
sg4491
I1
sg4254
I2
sg4384
I1
sg4430
I1
sg4493
I8
sg4494
I5
sg4495
I9
sg4496
I1
sg4385
I2
sg4256
I1
sg4257
I1
sg4500
I1
sg4501
I1
sg4502
I3
sg4518
I1
sg4258
I1
sg4503
I4
sg4433
I2
sg4259
I1
sg4504
I2
sg4505
I1
sg4260
I4
sg4261
I1
sg4262
I1
sg4532
I1
sg4507
I1
sg4475
I3
sg4513
I1
sg4263
I2
sg4264
I1
sg4265
I1
sg4437
I6
sg4509
I1
sg4510
I2
sg4511
I1
sg4512
I2
sg4266
I3
sg4267
I1
sg4268
I6
sg4269
I1
sg4270
I1
sg4271
I1
sg4515
I1
sg4272
I2
sg4273
I1
sg4328
I3
sg4274
I1
sg4275
I13
sg4477
I4
sg4276
I1
sg4520
I2
sg4557
I2
sg4277
I6
sg4278
I3
sg4279
I1
sg4280
I2
sg4522
I1
sg4329
I1
sg4281
I1
sg4524
I1
sg4525
I4
sg4282
I2
sg4436
I3
sg4526
I1
sg4527
I1
sg4336
I1
sg4285
I3
sg4286
I1
sg4287
I2
sg4288
I1
sg4528
I1
sg4289
I1
sg4290
I1
sg4529
I1
sg4346
I10
sg4292
I33
sg4293
I1
sg4382
I1
sg4531
I3
sg4479
I3
sg4533
I1
sg4294
I1
sg4396
I4
sg4535
I3
sg4295
I1
sg4516
I1
sg4296
I1
sg4297
I5
sg4298
I1
sg4483
I1
sg4539
I1
sg4461
I2
sg4299
I2
sg4517
I1
sg4300
I1
sg4541
I1
sg4301
I1
sg4302
I1
sg4303
I1
sg4449
I1
sg4304
I1
sg4305
I1
sg4544
I3
sg4545
I1
sg4306
I2
sg4307
I1
sg4498
I1
sg4448
I1
sg4308
I1
sg4547
I8
sg4548
I1
sg4549
I1
sg4309
I1
sg4310
I1
sg4551
I1
sg4350
I1
sg4311
I1
sg4376
I1
sg4312
I1
sg4554
I1
sg4555
I1
sg4314
I1
sg4470
I1
sg4315
I1
sg4352
I4
sg4316
I1
sg4317
I2
sg4318
I3
sg4319
I1
sg4558
I1
sg4559
I2
sg4537
I2
sg4394
I2
sg4560
I1
sg4320
I1
ssba(icmyPackage
FWordDic
p4562
(dp4563
g3
(dp4564
Vsemantic
p4565
I1
sVswitched
p4566
I1
sVdollar
p4567
I1
sVresults
p4568
I2
sVfacilities
p4569
I2
sVquery
p4570
I1
sVto
p4571
I18
sVstatisticia
p4572
I1
sVmatlab
p4573
I1
sVinclude
p4574
I2
sVstraightforward
p4575
I1
sVexact
p4576
I1
sV--
p4577
I6
sVstandards
p4578
I2
sVlarge
p4579
I4
sVsmall
p4580
I1
sVbiological
p4581
I1
sVdisciplines
p4582
I1
sVobsolete
p4583
I1
sVlikely
p4584
I1
sVeven
p4585
I1
sVwhat
p4586
I2
sVaccess
p4587
I1
sVexperiment
p4588
I1
sVsuspect
p4589
I1
sVscientists
p4590
I7
sVnew
p4591
I2
sg1005
I4
sVpublic
p4592
I1
sVexplosion
p4593
I1
sVexchange
p4594
I1
sVhundreds
p4595
I1
sVgroups
p4596
I1
sVothers
p4597
I4
sVchange
p4598
I1
sVscaling-out
p4599
I1
sVamount
p4600
I1
sVsurvey
p4601
I1
sVpublished
p4602
I1
sVchanges
p4603
I1
sVuseful
p4604
I1
sVmerely
p4605
I1
sVtrained
p4606
I1
sVtools
p4607
I1
sVuse
p4608
I1
sVfrom
p4609
I3
sVwould
p4610
I1
sVtwo
p4611
I1
sVfew
p4612
I1
sVarchives
p4613
I2
sVsurvive
p4614
I1
sVthemselves
p4615
I2
sVtoday
p4616
I3
sVmore
p4617
I4
sVsharing
p4618
I3
sVbecomes
p4619
I1
sVeffort
p4620
I1
sVmust
p4621
I2
sVnone
p4622
I1
sVintegrating
p4623
I1
sVthis
p4624
I4
sVscience
p4625
I2
sVwork
p4626
I2
sVreproduce
p4627
I3
sVleapfrogs
p4628
I1
sVcan
p4629
I9
sVconcepts
p4630
I1
sVexample
p4631
I1
sVpetabytes
p4632
I1
sVproprietary
p4633
I1
sVprocess
p4634
I1
sVdocumenting
p4635
I1
sVsense
p4636
I1
sVneeds
p4637
I1
sVastronomers
p4638
I1
sVhow
p4639
I2
sVdescription
p4640
I1
sVmay
p4641
I1
sVlab
p4642
I1
sVproduce
p4643
I1
sVcoming
p4644
I1
sVdate
p4645
I1
sVsuch
p4646
I2
sVdata
p4647
I24
sVresponse
p4648
I1
sVa
p4649
I10
sVdeluge
p4650
I1
sVexplicit
p4651
I1
sVso
p4652
I10
sVexecuted
p4653
I1
sVover
p4654
I1
sVyears
p4655
I2
sVexperiments
p4656
I5
sVstatistical
p4657
I1
sVconverting
p4658
I1
sVrewarded
p4659
I1
sVits
p4660
I1
sVsubdisciplines
p4661
I1
sV20
p4662
I2
sVnotebooks
p4663
I1
sg229
I39
sVforms
p4664
I1
sVoffers
p4665
I1
sVsystems
p4666
I1
sVmight
p4667
I1
sVsomeone
p4668
I1
sVscaling
p4669
I2
sVrecords
p4670
I1
sVthey
p4671
I5
sVworkflows
p4672
I1
sVnot
p4673
I5
sVnow
p4674
I1
sVrealize
p4675
I1
sVeasily
p4676
I2
sVterm
p4677
I1
sVdocument
p4678
I1
sVfully
p4679
I1
sVeach
p4680
I1
sVtelescope
p4681
I1
sVgeneration
p4682
I3
sVexpect
p4683
I2
sVyear
p4684
I1
sVour
p4685
I1
sVbeyond
p4686
I1
sVextract
p4687
I1
sVout
p4688
I1
sVnetwork
p4689
I2
sg284
I2
sVpublish
p4690
I2
sVencourage
p4691
I1
sVwww.ivoa.net
p4692
I1
sVinternet
p4693
I3
sVref
p4694
I1
sVoccurs
p4695
I1
sVlinear
p4696
I1
sVdictionary
p4697
I1
sVtraining
p4698
I1
sVcreated
p4699
I1
sVcould
p4700
I2
sVcomputers
p4701
I1
sVkeep
p4702
I1
sVplace
p4703
I1
sVvariables
p4704
I1
sVone
p4705
I7
sVimprovements
p4706
I1
sVdone
p4707
I2
sVanother
p4708
I2
sVarray
p4709
I1
sVelectronic
p4710
I1
sVmillions
p4711
I1
sVlittle
p4712
I1
sVmanagement
p4713
I1
sVtentimes
p4714
I1
sVgrow
p4715
I1
sVtheir
p4716
I5
sVobservations
p4717
I1
sVtoo
p4718
I1
sVthat
p4719
I14
sVgigabytes
p4720
I1
sVpart
p4721
I1
sVwasted
p4722
I1
sVcopy
p4723
I1
sVsemantics
p4724
I1
sVobservatory
p4725
I1
sVcommodity
p4726
I1
sVcollaborations
p4727
I2
sVrequire
p4728
I1
sVrecording
p4729
I1
sV2020
p4730
I2
sVwere
p4731
I2
sVand
p4732
I33
sVarduous
p4733
I2
sVhave
p4734
I3
sVdistorted
p4735
I1
sVneed
p4736
I2
sValso
p4737
I1
sVtake
p4738
I1
sVwhich
p4739
I2
sVdeploy
p4740
I1
sVcollaboration
p4741
I1
sVwho
p4742
I1
sVreach
p4743
I1
sVmost
p4744
I1
sVinvolving
p4745
I1
sVmodel
p4746
I1
sVarchiving
p4747
I1
sVlater
p4748
I1
sVimplications
p4749
I1
sVtraditional
p4750
I1
sVrepeatable
p4751
I1
sVdatabases
p4752
I1
sVcurrent
p4753
I1
sVknowledge
p4754
I1
sg431
I4
sVshould
p4755
I1
sVbeing
p4756
I1
sVonly
p4757
I1
sVachieve
p4758
I1
sVdo
p4759
I1
sVpredict
p4760
I1
sVcheaper
p4761
I1
sVmade
p4762
I1
sVinternational
p4763
I2
sVprocedures
p4764
I2
sVareas
p4765
I1
sVprocesses
p4766
I1
sVyield
p4767
I1
sVteams
p4768
I1
sVscientist
p4769
I1
sVzones
p4770
I1
sVcomputer
p4771
I1
sVare
p4772
I13
sVtechniques
p4773
I1
sVreview
p4774
I1
sVwritten
p4775
I1
sVacross
p4776
I3
sVaffordable
p4777
I1
sVwe
p4778
I3
sVterms
p4779
I1
sVreproduced
p4780
I1
sVdata-base
p4781
I1
sVgroup
p4782
I2
sVboth
p4783
I3
sVlimits
p4784
I1
sVmany
p4785
I3
sVparts
p4786
I1
sVargue
p4787
I1
sVsynoptic
p4788
I1
sVexperimental
p4789
I1
sVinnovations
p4790
I1
sVexploit
p4791
I1
sVgenbankwill
p4792
I1
sVinstandard
p4793
I1
sVcollider
p4794
I1
sVbeen
p4795
I1
sg737
I33
sVmuch
p4796
I1
sVreplicate
p4797
I1
sVcombined
p4798
I1
sVcollected
p4799
I1
sVcontrolled
p4800
I2
sVdramatic
p4801
I1
sVsystematic
p4802
I1
sVleapfrogged
p4803
I1
sVcareful
p4804
I1
sVhandling
p4805
I1
sVexponential
p4806
I2
sVthese
p4807
I3
sV2011
p4808
I1
sVwill
p4809
I5
sVpace
p4810
I1
sVformatting
p4811
I1
sVdiscoveries
p4812
I1
sVprocedure
p4813
I1
sVis
p4814
I6
sVit
p4815
I3
sVin
p4816
I19
sVtechnology
p4817
I1
sVif
p4818
I1
sVdifferent
p4819
I1
sg582
I3
sVsame
p4820
I1
sVcomplex
p4821
I3
sVfiltered
p4822
I1
sVseveral
p4823
I2
sVdifficult
p4824
I2
sVused
p4825
I1
sVkept
p4826
I1
sVdata-mining
p4827
I1
sVwell
p4828
I1
sVroughly
p4829
I1
sVanalysis
p4830
I5
sVwithout
p4831
I1
sVsets
p4832
I2
sVthe
p4833
I26
sVinternet-connected
p4834
I1
sVenormously
p4835
I1
sVjust
p4836
I1
sVincreasingly
p4837
I4
sVstorage
p4838
I1
sVbandwidth
p4839
I1
sVquestions
p4840
I1
sVusing
p4841
I1
sVreviewer
p4842
I1
sVskill
p4843
I1
sVspeed
p4844
I1
sVprevious
p4845
I1
sVdiscipline
p4846
I1
sVother
p4847
I1
sVcombine
p4848
I1
sVplateau
p4849
I1
sVtechnological
p4850
I1
sVhas
p4851
I2
sVformat
p4852
I1
sVread
p4853
I1
sVbiologists
p4854
I1
sVearly
p4855
I1
sVknow
p4856
I1
sVworld
p4857
I2
sVformal
p4858
I1
sVcontinue
p4859
I1
sVsteps
p4860
I3
sValways
p4861
I1
sVtranslated
p4862
I1
sVbecome
p4863
I4
sVessential
p4864
I1
sVold
p4865
I1
sVoften
p4866
I1
sVsome
p4867
I3
sVunderstood
p4868
I1
sVtrends
p4869
I1
sVgrowth
p4870
I3
sVspecified
p4871
I1
sVdimensions
p4872
I1
sVfor
p4873
I6
sVmeasurements
p4874
I1
sVper
p4875
I1
sg704
I1
sVbe
p4876
I10
sVscientific
p4877
I3
sVreaching
p4878
I1
sVprocessing
p4879
I1
sVanalysed
p4880
I1
sVpaper
p4881
I2
sVcomputer-performance
p4882
I1
sVtenfold
p4883
I1
sValthough
p4884
I1
sVby
p4885
I8
sVhadron
p4886
I1
sVanalysing
p4887
I1
sVon
p4888
I2
sVabout
p4889
I1
sVcentral
p4890
I1
sVof
p4891
I15
sVchance
p4892
I1
sVor
p4893
I2
sVautomatically
p4894
I1
sVcomputational
p4895
I1
sVinstruments
p4896
I4
sVintegral
p4897
I1
sVchemists
p4898
I1
sVraises
p4899
I1
sVpeta-scale
p4900
I1
sVthere
p4901
I4
sVphysicists
p4902
I1
sVway
p4903
I2
sg746
I1
sVmedium
p4904
I1
sVform
p4905
I1
sVbecoming
p4906
I2
sVanalyse
p4907
I2
sVbut
p4908
I4
sValliance
p4909
I1
sVwith
p4910
I3
sVdatasets
p4911
I1
sVup
p4912
I1
sVrecord
p4913
I1
sV'isolated
p4914
I1
sVan
p4915
I3
sVas
p4916
I6
sVat
p4917
I1
sVlaboratory
p4918
I1
sVbillion-dollar
p4919
I1
sVwhen
p4920
I1
sVvirtual
p4921
I1
sVgraduate
p4922
I1
sVpoints
p4923
I1
sVrepeat
p4924
I1
sV's
p4925
I3
sVvocabulary
p4926
I2
sVstudents
p4927
I1
sVmeaning
p4928
I1
sVimportant
p4929
I2
sVastronomy
p4930
I3
sVbuilding
p4931
I1
sVcorrelated
p4932
I1
sVrequired
p4933
I1
sVdepartments
p4934
I1
sVvolumes
p4935
I1
sVtime
p4936
I3
sVrequires
p4937
I1
sVonce
p4938
I1
ssg820
Vf0027
p4939
sg822
(dp4940
sg961
(dp4941
Vand
p4942
I1
sVnotebooks
p4943
I1
sVmethods
p4944
I1
sVszalay
p4945
I1
sVis
p4946
I1
sVpaper
p4947
I1
sVare
p4948
I1
sVyear
p4949
I1
sVhuge
p4950
I1
sVfrom
p4951
I1
sVcientific
p4952
I1
sVjim
p4953
I1
sg737
I2
sVto
p4954
I1
sVonline
p4955
I1
sVdoubling
p4956
I1
sVevolving
p4957
I1
sVscientific
p4958
I1
sVhows
p4959
I1
sVanalyse
p4960
I1
sVevery
p4961
I1
sVdata
p4962
I1
sValexander
p4963
I1
sVgray
p4964
I1
sVof
p4965
I1
sVamount
p4966
I1
sVdatabases
p4967
I1
sVthe
p4968
I1
ssg1083
(dp4969
g4942
I1
sg4957
I1
sg4953
I1
sg4944
I1
sg4959
I1
sg4945
I1
sg4946
I1
sg4967
I1
sg4960
I1
sg4947
I1
sg4961
I1
sg4948
I1
sg4949
I1
sg4962
I1
sg4968
I1
sg4958
I1
sg4950
I1
sg4951
I1
sg4952
I1
sg4965
I1
sg4943
I1
sg737
I2
sg4954
I1
sg4966
I1
sg4964
I1
sg4955
I1
sg4956
I1
sg4963
I1
ssba(icmyPackage
FWordDic
p4970
(dp4971
g3
(dp4972
Vall
p4973
I5
sVcode
p4974
I1
sVmanaged
p4975
I1
sVlack
p4976
I1
sVfocus
p4977
I2
sVfarms
p4978
I1
sVnetcdf
p4979
I1
sVcontroversial
p4980
I1
sVquery
p4981
I3
sVdisk
p4982
I2
sVcenters
p4983
I4
sVrow
p4984
I1
sVdepend
p4985
I1
sVsend
p4986
I1
sVlanguages
p4987
I2
sVto
p4988
I57
sVprogram
p4989
I1
sVnodes
p4990
I2
sVworth
p4991
I1
sVresources
p4992
I1
sVcollaborate
p4993
I1
sVvery
p4994
I3
sVkeeping
p4995
I1
sVlevel
p4996
I1
sV--
p4997
I8
sVlist
p4998
I1
sVapplicable
p4999
I1
sVlarge
p5000
I7
sVscience
p5001
I4
sVsmall
p5002
I1
sVunifying
p5003
I1
sVslow
p5004
I1
sVslower
p5005
I2
sVcomputation
p5006
I1
sVdisciplines
p5007
I2
sVtrend
p5008
I1
sVtranslating
p5009
I1
sVlikely
p5010
I3
sVcost
p5011
I1
sVfurther
p5012
I1
sVeven
p5013
I2
sVn't
p5014
I2
sVhdf
p5015
I1
sVavailability
p5016
I1
sVaccess
p5017
I4
sVscientists
p5018
I5
sVnew
p5019
I6
sg1005
I2
sVmetadata
p5020
I7
sVevolving
p5021
I1
sVfull
p5022
I1
sVsimultaneously
p5023
I1
sVcommercial
p5024
I2
sVhere
p5025
I1
sVobjects
p5026
I2
sVfocused
p5027
I1
sVgroups
p5028
I1
sVmeet
p5029
I1
sVpath
p5030
I1
sVsearch
p5031
I1
sVmy
p5032
I2
sVallows
p5033
I2
sVinfrequently
p5034
I1
sVself-description
p5035
I1
sVpublished
p5036
I1
sVdomains
p5037
I1
sVstudies
p5038
I1
sVemerge
p5039
I1
sVextra
p5040
I1
sVmanage
p5041
I2
sVprefer
p5042
I1
sVanalyzing
p5043
I2
sVnames
p5044
I3
sVanomalies
p5045
I1
sVapply
p5046
I1
sVtools
p5047
I13
sVmanipulate
p5048
I1
sVconventional
p5049
I3
sVfrom
p5050
I7
sVtakes
p5051
I1
sVwould
p5052
I1
sVtwo
p5053
I3
sVnext
p5054
I2
sVscenarios
p5055
I1
sVprocess
p5056
I1
sVarchives
p5057
I1
sVvehicle
p5058
I1
sVthemselves
p5059
I1
sVhiding
p5060
I2
sVmore
p5061
I4
sVseparated
p5062
I1
sV``
p5063
I2
sVsharing
p5064
I1
sVsuccessful
p5065
I1
sVbecomes
p5066
I2
sVmismatch
p5067
I3
sVit
p5068
I11
sVeffort
p5069
I1
sVmust
p5070
I4
sVe.g.a
p5071
I1
sVportability
p5072
I1
sVintegrating
p5073
I1
sVthis
p5074
I12
sVthousands
p5075
I1
sVwork
p5076
I1
sVcan
p5077
I16
sVconcepts
p5078
I1
sVfollowing
p5079
I1
sVmaking
p5080
I3
sVroot
p5081
I1
sVgive
p5082
I1
sVfederate
p5083
I2
sVorganized
p5084
I1
sVpurposes
p5085
I1
sVtabular
p5086
I3
sVsomething
p5087
I1
sVmade
p5088
I2
sVnative
p5089
I1
sVhuge
p5090
I2
sVprocessors
p5091
I1
sVguru
p5092
I1
sVprovide
p5093
I5
sg169
I2
sVpetabyte-scale
p5094
I1
sVmap
p5095
I2
sVadministrator
p5096
I2
sVself-healing
p5097
I1
sVworkspaces
p5098
I1
sVtried
p5099
I2
sVinformation
p5100
I1
sVmay
p5101
I1
sVwatch
p5102
I1
sVuse
p5103
I3
sVcollection
p5104
I3
sVapplications
p5105
I7
sVimproving
p5106
I1
sVsuch
p5107
I3
sVminimizes
p5108
I1
sVdata
p5109
I79
sVparallel
p5110
I2
sVtypes
p5111
I5
sg350
I27
sVcorrelate
p5112
I1
sVonto
p5113
I1
sVspectra
p5114
I1
sVgeneric
p5115
I2
sVnascent
p5116
I1
sValgorithms
p5117
I7
sVdeposit
p5118
I1
sVallow
p5119
I3
sVoperate
p5120
I1
sVorder
p5121
I2
sVhelp
p5122
I1
sVindeed
p5123
I2
sVover
p5124
I2
sVmove
p5125
I2
sVundetected
p5126
I1
sVjpeg
p5127
I1
sVyears
p5128
I1
sVscientist
p5129
I2
sVincluding
p5130
I1
sVconverting
p5131
I3
sVstill
p5132
I1
sVits
p5133
I1
sVmachine
p5134
I1
sVstyle
p5135
I1
sVrapidly
p5136
I1
sVpersonal
p5137
I2
sVtemporal
p5138
I1
sg229
I72
sVwriting
p5139
I1
sVbetter
p5140
I1
sVsystems
p5141
I10
sVmydb
p5142
I1
sVeasier
p5143
I1
sVthen
p5144
I6
sVthem
p5145
I4
sVgood
p5146
I2
sVviews
p5147
I3
sVindexing
p5148
I2
sVeffects
p5149
I2
sVthey
p5150
I18
sVnot
p5151
I7
sVdocumented
p5152
I1
sVnow
p5153
I2
sVvisualize
p5154
I1
sVinstructions
p5155
I1
sVname
p5156
I1
sVproteins
p5157
I1
sVperturbing
p5158
I1
sVfilter-then-analyze
p5159
I1
sVevents
p5160
I1
sVeach
p5161
I3
sVprocedural
p5162
I1
sVfairly
p5163
I1
sVdoing
p5164
I2
sVcontiguous
p5165
I1
sVextended
p5166
I1
sVameliorate
p5167
I1
sVbillions
p5168
I1
sVcontainer
p5169
I1
sVmissed
p5170
I1
sg284
I1
sVspace
p5171
I1
sVintegrates
p5172
I1
sVsince
p5173
I4
sVincrease
p5174
I1
sg1205
I1
sVintegrated
p5175
I1
sVindependence
p5176
I4
sVstrategies
p5177
I1
sVmodel
p5178
I2
sVperforming
p5179
I1
sVworkflow
p5180
I1
sVgalaxies
p5181
I1
sVstandard
p5182
I2
sVextraordinary
p5183
I1
sVadvantages
p5184
I1
sVput
p5185
I1
sVbyte
p5186
I1
sVdefinition
p5187
I2
sVlanguage
p5188
I3
sVcould
p5189
I2
sVneeding
p5190
I2
sVprogramming
p5191
I5
sVplace
p5192
I2
sVbulk-copy
p5193
I1
sVconsequence
p5194
I1
sVfacilitate
p5195
I1
sVnumber
p5196
I1
sVone
p5197
I10
sVfits
p5198
I1
sVimprovements
p5199
I1
sVanother
p5200
I3
sVrepresentations
p5201
I1
sVquality
p5202
I1
sVinterchange
p5203
I1
sVlittle
p5204
I1
sVmanagement
p5205
I2
sVneeded
p5206
I1
sVsystem
p5207
I5
sVgrow
p5208
I1
sV1000-10,000
p5209
I1
sVtheir
p5210
I2
sg343
I3
sVnon-procedural
p5211
I3
sVstore
p5212
I2
sVschema
p5213
I1
sVoption
p5214
I1
sVthat
p5215
I18
sVtool
p5216
I1
sVserve
p5217
I1
sVpart
p5218
I3
sVtoo
p5219
I1
sVmanipulation
p5220
I2
sVcopy
p5221
I2
sVthan
p5222
I6
sVcolleagues
p5223
I1
sg746
I2
sVrequire
p5224
I2
sVprograms
p5225
I11
sVhaystacks
p5226
I1
sVclasses
p5227
I1
sVwere
p5228
I3
sVenables
p5229
I2
sVsteer
p5230
I1
sVinteractive
p5231
I1
sVand
p5232
I57
sV9-digit
p5233
I1
sVdynamically
p5234
I1
sVfew
p5235
I1
sVraw
p5236
I1
sVhave
p5237
I7
sVreplicated
p5238
I1
sVneed
p5239
I4
sVseem
p5240
I1
sVany
p5241
I2
sVnear-linear
p5242
I1
sVobject-oriented
p5243
I1
sVideas
p5244
I1
sVmechanism
p5245
I1
sVsciences
p5246
I1
sVemphasis
p5247
I1
sVfinding
p5248
I2
sVso
p5249
I12
sVadded
p5250
I1
sVcollaboration
p5251
I1
sVobject
p5252
I1
sVmost
p5253
I3
sVdetect
p5254
I1
sVextremely
p5255
I1
sVpages
p5256
I1
sVclear
p5257
I2
sVflop
p5258
I1
sVtraditional
p5259
I1
sVpoints
p5260
I1
sVworkspace
p5261
I1
sVdatabases
p5262
I4
sVend-user
p5263
I1
sVemerging
p5264
I1
sVproceeds
p5265
I1
sVtext
p5266
I2
sVcarefully
p5267
I1
sVsubtle
p5268
I2
sVfind
p5269
I2
sVdecade
p5270
I1
sVbelieve
p5271
I2
sg431
I17
sVbeing
p5272
I1
sVonly
p5273
I1
sVreorganizing
p5274
I1
sg1119
I1
sVadequate
p5275
I1
sVlocal
p5276
I3
sVachieve
p5277
I1
sVdo
p5278
I6
sVhandle
p5279
I2
sVget
p5280
I2
sVoverall
p5281
I1
sVjoint
p5282
I1
sVones
p5283
I1
sVlegitimate
p5284
I1
sVruns
p5285
I1
sVgenerally
p5286
I1
sVcommon
p5287
I2
sVqueries
p5288
I2
sVmovement
p5289
I1
sVautomatic
p5290
I1
sVview
p5291
I3
sVsearching
p5292
I1
sVtool-building
p5293
I1
sVsee
p5294
I3
sVcomputer
p5295
I2
sVare
p5296
I17
sVenhanced
p5297
I1
sVinformation-technology-professional
p5298
I1
sVtechniques
p5299
I2
sg582
I20
sVcapacity
p5300
I1
sVways
p5301
I2
sVartificial
p5302
I1
sg482
I2
sVarcane
p5303
I1
sVcorrectly
p5304
I1
sVbetween
p5305
I2
sVreading
p5306
I1
sVapproach
p5307
I1
sVpreserve
p5308
I1
sVwe
p5309
I7
sVterms
p5310
I1
sVopening
p5311
I1
sVloading
p5312
I1
sVanswers
p5313
I4
sVanalyzed
p5314
I1
sVgroup
p5315
I1
sVconfiguration
p5316
I1
sVembed
p5317
I1
sVboth
p5318
I1
sVprotect
p5319
I1
sVcubes
p5320
I1
sVmany
p5321
I6
sVagainst
p5322
I1
sVetc
p5323
I3
sVattributes
p5324
I4
sVextracting
p5325
I1
sVasked
p5326
I1
sVamong
p5327
I5
sVrelevant
p5328
I2
sVseparation
p5329
I2
sVsimple
p5330
I2
sVothers
p5331
I1
sVcommunity
p5332
I2
sVencapsulated
p5333
I1
sVmaximize
p5334
I1
sVtable
p5335
I2
sVexpensive
p5336
I1
sVforms
p5337
I1
sVaddition
p5338
I1
sVcreate
p5339
I2
sVthree
p5340
I1
sg737
I74
sVmuch
p5341
I4
sVcollected
p5342
I1
sVcontainers
p5343
I2
sVchoose
p5344
I2
sVwants
p5345
I1
sVrather
p5346
I4
sVconsume
p5347
I1
sVprecision
p5348
I1
sVunderstand
p5349
I4
sVdemand
p5350
I1
sVworked
p5351
I1
sVirrelevant
p5352
I2
sVextensive
p5353
I1
sVapplied
p5354
I1
sVsave
p5355
I1
sVthese
p5356
I12
sVmight
p5357
I2
sVsingle
p5358
I1
sVn
p5359
I1
sVwill
p5360
I16
sVpace
p5361
I2
sVwhile
p5362
I1
sVformats
p5363
I1
sVguide
p5364
I1
sVis
p5365
I20
sVdesigns
p5366
I1
sVexamined
p5367
I1
sVio
p5368
I2
sVin
p5369
I19
sVif
p5370
I4
sVdifferent
p5371
I4
sVperform
p5372
I1
sVthings
p5373
I1
sVmake
p5374
I2
sVformat
p5375
I1
sVsame
p5376
I1
sV6-digit
p5377
I1
sVvisualization/plotting
p5378
I1
sVcomplex
p5379
I2
sVseveral
p5380
I1
sVinfer
p5381
I1
sVdifficult
p5382
I1
sVevolve
p5383
I1
sVused
p5384
I1
sVdriven
p5385
I1
sVrunning
p5386
I1
sVmoving
p5387
I3
sVuser
p5388
I1
sVsuper-linear
p5389
I1
sVkept
p5390
I1
sVcenter
p5391
I2
sVdatabase
p5392
I14
sVi
p5393
I1
sVanalysis
p5394
I17
sVpatterns
p5395
I2
sVwithout
p5396
I3
sVsolve
p5397
I1
sVset-oriented
p5398
I1
sVsets
p5399
I1
sVthe
p5400
I75
sVjustify
p5401
I2
sVlearning
p5402
I2
sVroutinely
p5403
I1
sVjust
p5404
I1
sVless
p5405
I1
sVincreasingly
p5406
I3
sVwhen
p5407
I3
sVcommunities
p5408
I1
sVbandwidth
p5409
I2
sVquestions
p5410
I2
sVmultidimensional
p5411
I1
sVprevious
p5412
I2
sVtables
p5413
I1
sVpostal
p5414
I1
sValso
p5415
I3
sVcharacter
p5416
I1
sVcapabilities
p5417
I1
sVsource
p5418
I1
sg640
I1
sVeasy
p5419
I2
sVinput
p5420
I1
sVhaystack
p5421
I1
sVhas
p5422
I5
sVincreased
p5423
I1
sVdemands
p5424
I1
sVread
p5425
I2
sVadvances
p5426
I1
sVpossibly
p5427
I1
sVtraffic
p5428
I2
sVburden
p5429
I1
sVperformance
p5430
I4
sVusing
p5431
I4
sVexecution
p5432
I1
sVloss
p5433
I1
sVdisks
p5434
I3
sVserver
p5435
I1
sVcpu-density
p5436
I1
sVcontinue
p5437
I1
sVt
p5438
I4
sVbecome
p5439
I1
sVsecurity
p5440
I1
sVpage
p5441
I1
sVaimed
p5442
I1
sVbecause
p5443
I3
sVold
p5444
I2
sVoften
p5445
I1
sVdeal
p5446
I1
sVpeople
p5447
I2
sVphenomena
p5448
I1
sVback
p5449
I1
sVtrends
p5450
I1
sVdata-analysis
p5451
I1
sVloaded
p5452
I1
sVimages
p5453
I1
sVhappens
p5454
I1
sVand/or
p5455
I2
sVdescribing
p5456
I1
sVfor
p5457
I11
sVvisualization
p5458
I2
sVmeasurements
p5459
I1
sVintegration
p5460
I1
sVdoes
p5461
I1
sVeconomical
p5462
I1
sg704
I1
sVeither
p5463
I1
sVbe
p5464
I11
sVscientific
p5465
I6
sVprocessing
p5466
I1
sVcommunicate
p5467
I1
sVagreement
p5468
I1
sVself-describing
p5469
I1
sVbroken
p5470
I1
sVbenefit
p5471
I2
sVby
p5472
I15
sVsimpler
p5473
I1
sVon
p5474
I12
sVcentral
p5475
I2
sVworking
p5476
I1
sVpackage
p5477
I1
sVof
p5478
I25
sVmeaning
p5479
I1
sVessential
p5480
I1
sVgreatly
p5481
I1
sVefforts
p5482
I1
sVmaterializing
p5483
I1
sVbackup
p5484
I2
sVor
p5485
I7
sVautomatically
p5486
I1
sVequally
p5487
I1
sVcomputational
p5488
I1
sVinstruments
p5489
I1
sVinto
p5490
I2
sVintellectual
p5491
I1
sVappropriate
p5492
I1
sVextending
p5493
I1
sVrising
p5494
I1
sVreducing
p5495
I1
sVyour
p5496
I3
sVmethods
p5497
I1
sVclustering
p5498
I1
sVpeta-scale
p5499
I1
sVsupport
p5500
I3
sVthere
p5501
I3
sVapproximate
p5502
I1
sVwhy
p5503
I2
sVstart
p5504
I1
sVanalyze
p5505
I2
sVsynthesis
p5506
I2
sVfiles
p5507
I3
sVoffer
p5508
I1
sVsome
p5509
I2
sg749
I1
sVbut
p5510
I5
sVsophisticated
p5511
I2
sVlong-and-short
p5512
I1
sVneedles
p5513
I1
sVlink
p5514
I1
sVautomated
p5515
I1
sVimpedance
p5516
I2
sVwith
p5517
I15
sVlonger
p5518
I1
sVdatasets
p5519
I5
sVcompute
p5520
I1
sVarrays
p5521
I2
sVinside
p5522
I1
sVrecord
p5523
I1
sVexploration
p5524
I1
sVproblem
p5525
I1
sVdefine
p5526
I2
sVcalled
p5527
I2
sVbandwidth-density
p5528
I1
sVdefined
p5529
I1
sVreferenced
p5530
I1
sVan
p5531
I4
sV''
p5532
I3
sVas
p5533
I4
sVenable
p5534
I1
sVexpertise
p5535
I1
sVat
p5536
I6
sVfile
p5537
I6
sVour
p5538
I6
sVcorresponding
p5539
I2
sVarchive
p5540
I1
sVphysical
p5541
I1
sVfile/directory
p5542
I1
sVmutual
p5543
I2
sVcodes
p5544
I1
sVideally
p5545
I1
sVno
p5546
I3
sVstorage
p5547
I4
sVparadoxical
p5548
I1
sV40
p5549
I1
sVapplication
p5550
I2
sVother
p5551
I1
sg789
I1
sVspatial
p5552
I2
sVyou
p5553
I2
sV's
p5554
I3
sVusers
p5555
I1
sVseparate
p5556
I1
sVproblems
p5557
I3
sVgenerated
p5558
I1
sVimportant
p5559
I1
sVallowing
p5560
I2
sVsql
p5561
I1
sVhdf-like
p5562
I1
sVfaster
p5563
I1
sVrequired
p5564
I1
sVoriginal
p5565
I1
sVwrite
p5566
I1
sVparallelism
p5567
I3
sVvolumes
p5568
I4
sVtime
p5569
I4
sVn2
p5570
I1
sVn3
p5571
I1
sVrequires
p5572
I1
sVhaving
p5573
I1
sVonce
p5574
I2
ssg820
Vf0028
p5575
sg822
(dp5576
Vemerging
p5577
I1
sVcode
p5578
I1
sVcurate
p5579
I1
sVamong
p5580
I1
sVinstitutional
p5581
I1
sVsupported
p5582
I1
sVresults
p5583
I1
sVbandwidth
p5584
I1
sVnetcdf
p5585
I1
sVfile
p5586
I1
sVcenters
p5587
I4
sVissues
p5588
I1
sVprevious
p5589
I1
sVvisualization
p5590
I1
sVgroup
p5591
I2
sg431
I5
sVnotebooks
p5592
I1
sg229
I16
sVlanguages
p5593
I1
sVto
p5594
I19
sVadd
p5595
I1
sVgenbank
p5596
I1
sVsystems
p5597
I4
sVeasy
p5598
I3
sVextensive
p5599
I2
sVsmart
p5600
I1
sV...
p5601
I1
sVthem
p5602
I1
sVgood
p5603
I1
sVaround
p5604
I1
sVvery
p5605
I1
sVadvances
p5606
I1
sVquestions
p5607
I1
sVindexing
p5608
I2
sVfocus
p5609
I1
sVcommunity
p5610
I1
sVthey
p5611
I1
sVperformance
p5612
I1
sVnot
p5613
I1
sVworld
p5614
I1
sVnow
p5615
I1
sVsecondary
p5616
I1
sVlineage
p5617
I1
sVeasily
p5618
I2
sVprototypes
p5619
I1
sVlarge
p5620
I2
sVcollaborations
p5621
I1
sVeither
p5622
I1
sVunifying
p5623
I1
sVautomatic
p5624
I1
sVessential
p5625
I1
sVgenerations
p5626
I1
sVbecause
p5627
I2
sVnascent-databases
p5628
I1
sVtelescope
p5629
I1
sVdisciplines
p5630
I1
sVpeople
p5631
I2
sVtrend
p5632
I1
sVback
p5633
I1
sVlikely
p5634
I1
sVare
p5635
I4
sVstandards
p5636
I1
sVwhat
p5637
I1
sVvisualize
p5638
I1
sVdescribing
p5639
I1
sVboth
p5640
I1
sVfor
p5641
I3
sVpace
p5642
I1
sVmanaging
p5643
I2
sVanalyze
p5644
I1
sVcrucial
p5645
I1
sVaccess
p5646
I2
sg482
I1
sVscientists
p5647
I4
sVnew
p5648
I3
sg1005
I2
sVbabar
p5649
I1
sVmetadata
p5650
I5
sVbe
p5651
I4
sVwe
p5652
I1
sVinfrastructure
p5653
I1
sVterms
p5654
I1
sVscientific
p5655
I1
sVvirtues
p5656
I1
sVanswers
p5657
I1
sVstandard
p5658
I1
sVpeta-scale
p5659
I2
sVexplore
p5660
I3
sVfocused
p5661
I1
sVfederations
p5662
I1
sVothers
p5663
I1
sVask
p5664
I1
sVby
p5665
I2
sVon
p5666
I3
sVgreat
p5667
I1
sVcentral
p5668
I2
sVtechnical
p5669
I1
sVof
p5670
I7
sVlarger
p5671
I1
sVprogramming
p5672
I1
sVenabling
p5673
I1
sVnotebook
p5674
I1
sVconsequently
p5675
I1
sVor
p5676
I1
sVcollecting
p5677
I1
sVcomputational
p5678
I1
sVinstruments
p5679
I1
sVinto
p5680
I1
sVprivate
p5681
I1
sVone
p5682
I2
sVschemes
p5683
I1
sVanalyzing
p5684
I1
sVprimarily
p5685
I1
sVtools
p5686
I3
sVoften
p5687
I1
sVinterchange
p5688
I1
sVfed
p5689
I1
sVmanagement
p5690
I2
sVfrom
p5691
I1
sVexists
p5692
I1
sVneeded
p5693
I1
sVempowers
p5694
I1
sVthere
p5695
I1
sVsystem
p5696
I1
sg737
I16
sVtheir
p5697
I1
sg343
I1
sVarchives
p5698
I5
sVway
p5699
I1
sVvehicle
p5700
I1
sVcorpus
p5701
I1
sg746
I1
sVnon-procedural
p5702
I1
sVseparated
p5703
I1
sVexploring
p5704
I1
sVsharing
p5705
I1
sVthat
p5706
I7
sVbecomes
p5707
I1
sVthree
p5708
I1
sVserve
p5709
I1
sVbut
p5710
I1
sVdiscover
p5711
I1
sVunderstand
p5712
I3
sVconvergence
p5713
I1
sVbelieve
p5714
I1
sVwith
p5715
I3
sVkeeping
p5716
I1
sVdatasets
p5717
I2
sVthese
p5718
I3
sVscience
p5719
I7
sVdatabase
p5720
I1
sVthis
p5721
I2
sVus
p5722
I1
sVwill
p5723
I8
sVhdf
p5724
I1
sVremain
p5725
I1
sVcan
p5726
I2
sVnext-generation
p5727
I1
sVembed
p5728
I1
sVsynthesis
p5729
I1
sVand
p5730
I24
sVhave
p5731
I2
sVis
p5732
I7
sVit
p5733
I3
sVenable
p5734
I1
sVembrace
p5735
I1
sVworld-wide
p5736
I1
sVin
p5737
I2
sVneed
p5738
I2
sVarchive
p5739
I1
sVhuge
p5740
I1
sVdifferent
p5741
I1
sVdevelop
p5742
I1
sVgoal
p5743
I1
sg582
I4
sVmake
p5744
I3
sValgorithms
p5745
I2
sg169
I1
sVemphasis
p5746
I1
sVwhich
p5747
I1
sVco-exist
p5748
I1
sVresources
p5749
I1
sVset-oriented
p5750
I1
sV's
p5751
I1
sVio
p5752
I1
sVtrack
p5753
I1
sVobject
p5754
I1
sVcollection
p5755
I1
sVextending
p5756
I1
sVexplored
p5757
I1
sVmoving
p5758
I1
sVsql
p5759
I1
sVfits
p5760
I1
sVsuch
p5761
I1
sVcore
p5762
I1
sVdata
p5763
I23
sVtypes
p5764
I2
sVa
p5765
I3
sVinteractively
p5766
I1
sVprograms
p5767
I2
sVanalysis
p5768
I5
sVtraditional
p5769
I2
sVprovide
p5770
I1
sVso
p5771
I3
sVparallelism
p5772
I2
sVallow
p5773
I2
sVdatabases
p5774
I1
sVlink
p5775
I1
sVthe
p5776
I27
ssg961
(dp5777
sg1083
(dp5778
g5577
I1
sg5578
I1
sg5579
I1
sg5581
I1
sg5582
I1
sg5583
I1
sg5584
I1
sg5585
I1
sg5607
I1
sg5587
I4
sg5588
I1
sg5589
I1
sg5590
I1
sg5591
I2
sg431
I5
sg5592
I1
sg229
I16
sg5593
I1
sg5594
I19
sg5595
I1
sg5596
I1
sg5597
I4
sg5598
I3
sg5599
I2
sg5600
I1
sg5601
I1
sg5602
I1
sg5603
I1
sg5604
I1
sg5605
I1
sg5606
I1
sg5608
I2
sg5609
I1
sg5717
I2
sg5681
I1
sg5611
I1
sg5613
I1
sg5614
I1
sg5615
I1
sg5616
I1
sg5617
I1
sg5618
I2
sg5730
I24
sg5636
I1
sg5620
I2
sg5718
I3
sg5622
I1
sg5650
I5
sg5624
I1
sg5625
I1
sg5626
I1
sg5627
I2
sg5628
I1
sg5629
I1
sg5630
I1
sg5631
I2
sg5632
I1
sg5633
I1
sg5634
I1
sg5635
I4
sg5619
I1
sg5637
I1
sg5638
I1
sg5639
I1
sg5641
I3
sg5724
I1
sg5643
I2
sg5645
I1
sg5646
I2
sg482
I1
sg5647
I4
sg5648
I3
sg1005
I2
sg5649
I1
sg5623
I1
sg5651
I4
sg5652
I1
sg5653
I1
sg5654
I1
sg5655
I1
sg5736
I1
sg5656
I1
sg5657
I1
sg5658
I1
sg5660
I3
sg5661
I1
sg5662
I1
sg5663
I1
sg5664
I1
sg5665
I2
sg5640
I1
sg5667
I1
sg5668
I2
sg5669
I1
sg5670
I7
sg5671
I1
sg5672
I1
sg5771
I3
sg5673
I1
sg5757
I1
sg5748
I1
sg5675
I1
sg5676
I1
sg5580
I1
sg5678
I1
sg5726
I2
sg5679
I1
sg5680
I1
sg5610
I1
sg5682
I2
sg5683
I1
sg5684
I1
sg5685
I1
sg5686
I3
sg5687
I1
sg5688
I1
sg5689
I1
sg5690
I2
sg5691
I1
sg5692
I1
sg5659
I2
sg5763
I23
sg5695
I1
sg5696
I1
sg737
I16
sg5693
I1
sg343
I1
sg5698
I5
sg5699
I1
sg5700
I1
sg5701
I1
sg5644
I1
sg5702
I1
sg5703
I1
sg5704
I1
sg5705
I1
sg5666
I3
sg5707
I1
sg5709
I1
sg5710
I1
sg5711
I1
sg5712
I3
sg5713
I1
sg5714
I1
sg5715
I3
sg5716
I1
sg746
I1
sg5621
I1
sg5719
I7
sg5767
I2
sg5721
I2
sg5722
I1
sg5723
I8
sg5642
I1
sg5725
I1
sg5708
I1
sg5727
I1
sg5728
I1
sg5729
I1
sg5677
I1
sg5731
I2
sg5732
I7
sg5733
I3
sg5734
I1
sg5735
I1
sg5586
I1
sg5737
I2
sg5738
I2
sg5697
I1
sg5740
I1
sg5741
I1
sg5742
I1
sg5743
I1
sg582
I4
sg5744
I3
sg5706
I7
sg5739
I1
sg169
I1
sg5746
I1
sg5747
I1
sg5612
I1
sg5749
I1
sg5772
I2
sg5751
I1
sg5752
I1
sg5753
I1
sg5754
I1
sg5755
I1
sg5756
I1
sg5674
I1
sg5758
I1
sg5759
I1
sg5760
I1
sg5761
I1
sg5762
I1
sg5694
I1
sg5764
I2
sg5765
I3
sg5766
I1
sg5720
I1
sg5768
I5
sg5769
I2
sg5770
I1
sg5745
I2
sg5750
I1
sg5773
I2
sg5774
I1
sg5775
I1
sg5776
I27
ssba(icmyPackage
FWordDic
p5779
(dp5780
g3
(dp5781
Vneighbors
p5782
I6
sVall
p5783
I11
sVcode
p5784
I1
sVcaused
p5785
I1
sVbroaden
p5786
I1
sVoverlap
p5787
I4
sVquery
p5788
I1
sVcauses
p5789
I2
sVtechnique
p5790
I1
sVto
p5791
I18
sVslow-moving
p5792
I2
sVvery
p5793
I3
sVdifference
p5794
I1
sV--
p5795
I1
sVpositions
p5796
I1
sVlist
p5797
I1
sVlarge
p5798
I3
sVsmall
p5799
I2
sVsmaller
p5800
I1
sVhtm
p5801
I1
sVsecond
p5802
I1
sVspectral
p5803
I1
sVerrors
p5804
I3
sVnew
p5805
I1
sVfilled
p5806
I1
sVmovement
p5807
I1
sVexplosion
p5808
I2
sVresidual
p5809
I1
sVhere
p5810
I6
sVobjects
p5811
I10
sVothers
p5812
I1
sg84
I3
sVsearch
p5813
I1
sVhitormiss
p5814
I1
sVlarger
p5815
I3
sVallows
p5816
I1
sVsuggests
p5817
I2
sVmakes
p5818
I2
sVclassification
p5819
I8
sVvisible
p5820
I1
sV\u005cneq
p5821
I2
sVfrom
p5822
I2
sVwould
p5823
I2
sVfaint
p5824
I1
sVbundles
p5825
I1
sVtwo
p5826
I6
sVcomparing
p5827
I1
sVcall
p5828
I3
sVtherefore
p5829
I1
sVmore
p5830
I4
sVseparated
p5831
I1
sVapparent
p5832
I3
sVtrail
p5833
I1
sVflag
p5834
I1
sVtransient
p5835
I1
sVcases
p5836
I1
sVmust
p5837
I3
sVjoin
p5838
I2
sVthis
p5839
I7
sVwork
p5840
I1
sVcan
p5841
I9
sVexample
p5842
I1
sVfigure
p5843
I2
sVprocess
p5844
I1
sV0.5
p5845
I1
sVwant
p5846
I1
sVairplane
p5847
I1
sVvaried
p5848
I1
sVrather
p5849
I2
sVpositional
p5850
I1
sVcriterion
p5851
I1
sVcircular
p5852
I1
sVgalactic
p5853
I5
sVmay
p5854
I6
sVcatalog
p5855
I4
sVplane
p5856
I2
sVrecords
p5857
I2
sVmatch-head
p5858
I1
sVsuch
p5859
I2
sVtypes
p5860
I1
sVa
p5861
I23
sVshort
p5862
I1
sVcorrelate
p5863
I1
sVcrowded
p5864
I1
sVo1-run2
p5865
I4
sVgeneric
p5866
I1
sVso
p5867
I8
sVrepresentation
p5868
I2
sVtypical
p5869
I1
sVindeed
p5870
I2
sVyears
p5871
I2
sVlooks
p5872
I2
sVmotions
p5873
I2
sVits
p5874
I2
sVobservational
p5875
I1
sVastronomers
p5876
I1
sg229
I48
sVdetected
p5877
I1
sVcross-match
p5878
I5
sVmight
p5879
I3
sVthen
p5880
I5
sVgood
p5881
I2
sVmatches
p5882
I4
sVmention
p5883
I1
sVthey
p5884
I3
sVnot
p5885
I7
sVnor
p5886
I1
sVmatched
p5887
I1
sVdirac
p5888
I1
sVfully
p5889
I1
sVfalse-positives
p5890
I1
sVmerge
p5891
I1
sVmagnitude
p5892
I1
sVeach
p5893
I2
sVdisplacement
p5894
I1
sVyear
p5895
I1
sVspace
p5896
I1
sVsince
p5897
I2
sVpivoted
p5898
I2
sVcombinatorial
p5899
I2
sVmisses
p5900
I4
sVcause
p5901
I1
sVdiffer
p5902
I1
sVreason
p5903
I1
sVconvolutions
p5904
I1
sVpairs
p5905
I5
sVe.g
p5906
I1
sVinexpensive
p5907
I1
sVcosmic
p5908
I1
sVdays
p5909
I1
sVmotion
p5910
I1
sVfirst
p5911
I1
sVnumber
p5912
I2
sVone
p5913
I5
sVfootprint
p5914
I2
sVanother
p5915
I1
sVrepresentations
p5916
I1
sVradiate
p5917
I1
sVmiss
p5918
I2
sVgiven
p5919
I4
sVtheir
p5920
I5
sVneeded
p5921
I1
sg343
I4
sVobservations
p5922
I8
sVtoo
p5923
I1
sVthat
p5924
I11
sVoptical
p5925
I1
sVthan
p5926
I5
sVobjids
p5927
I1
sV11
p5928
I1
sVobserved
p5929
I4
sVkind
p5930
I1
sV16
p5931
I1
sVzero
p5932
I2
sVlimiting
p5933
I1
sVwere
p5934
I3
sVlong-narrow
p5935
I1
sVand
p5936
I21
sVhave
p5937
I4
sg169
I4
sVnull
p5938
I2
sVray
p5939
I1
sVephemeral
p5940
I4
sVwhich
p5941
I2
sVeven
p5942
I1
sVexperienced
p5943
I1
sVmultiple
p5944
I1
sVobject
p5945
I24
sVmost
p5946
I1
sVdetect
p5947
I1
sVbut
p5948
I3
sVpair
p5949
I2
sg403
I3
sVwhy
p5950
I1
sVaverage
p5951
I2
sVpoints
p5952
I1
sVtypically
p5953
I4
sVobjectid2
p5954
I1
sVbright
p5955
I1
sVradio
p5956
I1
sVthreshold
p5957
I3
sVconvolved
p5958
I1
sVfind
p5959
I3
sVrun1
p5960
I5
sVrun2
p5961
I9
sg431
I6
sVonly
p5962
I2
sVarcseconds
p5963
I1
sVhit
p5964
I3
sVdistance
p5965
I7
sVrelational
p5966
I1
sVpre-computes
p5967
I2
sVareas
p5968
I2
sVruns
p5969
I7
sVfields
p5970
I1
sVrms
p5971
I1
sVsensitivity
p5972
I1
sVmaximum
p5973
I1
sVdetection
p5974
I2
sVsee
p5975
I1
sVare
p5976
I15
sVtechniques
p5977
I5
sVsaid
p5978
I1
sVmissing
p5979
I1
sVxray
p5980
I1
sVbetween
p5981
I2
sVneither
p5982
I1
sVwe
p5983
I3
sVcreating
p5984
I1
sVtables
p5985
I1
sVinvisible
p5986
I1
sVcome
p5987
I1
sVpixels
p5988
I2
sVhits
p5989
I1
sVmany
p5990
I1
sVregion
p5991
I1
sVrefraction
p5992
I1
sVattributes
p5993
I1
sVpassing
p5994
I1
sVlongnarrow
p5995
I1
sVsimply
p5996
I1
sVtable
p5997
I7
sVconsidering
p5998
I1
sVcomplication
p5999
I1
sVdescribed
p6000
I5
sVcreate
p6001
I1
sVthree
p6002
I1
sVquickly
p6003
I1
sVmuch
p6004
I3
sVslowly
p6005
I2
sVthousand
p6006
I1
sVthose
p6007
I1
sVthese
p6008
I2
sVvalue
p6009
I1
sVwill
p6010
I2
sVerror
p6011
I2
sV30
p6012
I2
sVis
p6013
I20
sVit
p6014
I7
sVsurface
p6015
I1
sVin
p6016
I15
sVid
p6017
I1
sVif
p6018
I13
sVdifferent
p6019
I4
sg582
I5
sVmake
p6020
I1
sVsame
p6021
I1
sVseveral
p6022
I1
sVhigher
p6023
I1
sVsatellite
p6024
I1
sVstrips
p6025
I2
sVmoving
p6026
I4
sVvariance
p6027
I1
sVaggregate
p6028
I1
sVcenter
p6029
I2
sVband
p6030
I1
sVedge
p6031
I7
sVposition
p6032
I3
sVthe
p6033
I75
sVstores
p6034
I2
sVjust
p6035
I4
sVless
p6036
I2
sVassigned
p6037
I1
sVyet
p6038
I1
sVadding
p6039
I1
sVcandidate
p6040
I1
sVdensity
p6041
I2
sVsky
p6042
I1
sVinstrument
p6043
I2
sVeasy
p6044
I4
sVhas
p6045
I1
sVmatch
p6046
I7
sV...
p6047
I1
sVtests
p6048
I1
sVusing
p6049
I6
sVbit
p6050
I1
sVapart
p6051
I1
sVsizes
p6052
I1
sVfollows
p6053
I1
sVcollect
p6054
I1
sVstationary
p6055
I1
sVexceed
p6056
I1
sVbecause
p6057
I4
sVoften
p6058
I1
sVlibrary
p6059
I1
sVfor
p6060
I8
sVmeasurements
p6061
I1
sVper
p6062
I1
sVdoes
p6063
I1
sVmasked
p6064
I5
sVsdss
p6065
I6
sVo3
p6066
I2
sVo2
p6067
I3
sVo1
p6068
I10
sVbe
p6069
I13
sVrun
p6070
I3
sVstellar
p6071
I1
sVstep
p6072
I1
sVby
p6073
I8
sVsimpler
p6074
I1
sVon
p6075
I3
sVabout
p6076
I3
sVpair-table
p6077
I1
sVof
p6078
I13
sVmonths
p6079
I1
sVids
p6080
I1
sVor
p6081
I14
sVseeing
p6082
I1
sVown
p6083
I1
sVinstruments
p6084
I1
sVzones
p6085
I2
sVwithin
p6086
I6
sVvariable
p6087
I1
sVpivot
p6088
I1
sg737
I42
sVstatistics
p6089
I3
sVfew
p6090
I1
sVthere
p6091
I3
sVlow
p6092
I1
sg746
I5
sVwas
p6093
I4
sVopposed
p6094
I1
sVinter-object
p6095
I1
sVoverlapping
p6096
I1
sVsophisticated
p6097
I1
sVdelta
p6098
I1
sVwith
p6099
I7
sVcompute
p6100
I2
sVobjectid1-run2
p6101
I1
sVdovetails
p6102
I1
sVrecord
p6103
I2
sVbelow
p6104
I1
sVunusually
p6105
I1
sVdistribution
p6106
I1
sVminutes
p6107
I1
sVcalled
p6108
I1
sVcomputing
p6109
I1
sVmoved
p6110
I1
sVan
p6111
I6
sV''
p6112
I4
sVas
p6113
I5
sVat
p6114
I1
sVmoves
p6115
I1
sVconstructed
p6116
I1
sVcompared
p6117
I2
sV%
p6118
I5
sVno
p6119
I2
sVwhen
p6120
I3
sVfield
p6121
I1
sVother
p6122
I1
sg789
I2
sVmeteor
p6123
I1
sVspatial
p6124
I2
sVtest
p6125
I1
sV's
p6126
I3
sVbundle
p6127
I6
sVincluded
p6128
I1
sVnear-earth
p6129
I1
sVtricky
p6130
I1
sValgorithm
p6131
I2
sVhaving
p6132
I2
sVonce
p6133
I1
ssg820
Vf0029
p6134
sg822
(dp6135
Vrepresent
p6136
I1
sVall
p6137
I3
sVthreshold
p6138
I1
sVobservational
p6139
I1
sVfriends-of-friends
p6140
I1
sg229
I2
sVto
p6141
I4
sVcross-match
p6142
I2
sVsummarizing
p6143
I1
sVhidden
p6144
I1
sVmatch
p6145
I1
sVthen
p6146
I1
sVdissimilar
p6147
I1
sg482
I1
sVmatches
p6148
I1
sVpartitions
p6149
I1
sVclosure
p6150
I1
sVruns
p6151
I1
sV--
p6152
I4
sVt
p6153
I1
sVrelease
p6154
I1
sVdoing
p6155
I1
sVseries
p6156
I1
sVlibrary
p6157
I1
sVdetection
p6158
I1
sVdesign
p6159
I1
sVimplemented
p6160
I1
sVorganizing
p6161
I1
sVshown
p6162
I1
sVfor
p6163
I1
sVrecorded
p6164
I1
sVmisses
p6165
I2
sVmasked
p6166
I1
sVbetween
p6167
I1
sVsdss
p6168
I1
sVapproach
p6169
I1
sVeither
p6170
I1
sVbe
p6171
I2
sVnoise
p6172
I1
sVmissing
p6173
I1
sVhere
p6174
I1
sVdisappeared
p6175
I1
sVstep
p6176
I1
sVbundle
p6177
I1
sVfrom
p6178
I1
sg84
I2
sVby
p6179
I3
sVfaced
p6180
I1
sVboth
p6181
I1
sVhits
p6182
I1
sVof
p6183
I4
sVregion
p6184
I1
sVsurvey
p6185
I1
sVdomains
p6186
I1
sVmatchhead-match
p6187
I1
sVtransitive
p6188
I1
sVor
p6189
I6
sVfirst
p6190
I1
sVaddresses
p6191
I1
sVclassification
p6192
I1
sVappeared
p6193
I1
sVinto
p6194
I1
sVwithin
p6195
I1
sVapproximately
p6196
I1
sVtable
p6197
I3
sVmanipulate
p6198
I1
sVsurveys
p6199
I1
sVdescribed
p6200
I2
sg403
I2
sVbundles
p6201
I1
sVconstruct
p6202
I1
sg737
I8
sVoccupy
p6203
I1
sVcombined
p6204
I1
sVdealing
p6205
I1
sVpoint-source
p6206
I1
sVwas
p6207
I2
sVobservations
p6208
I3
sVthat
p6209
I2
sg749
I1
sVabout
p6210
I1
sVwith
p6211
I2
sVthis
p6212
I3
sVrecording
p6213
I1
sVcan
p6214
I3
sVevolved
p6215
I1
sVproblem
p6216
I2
sVschema
p6217
I1
sVsimilar
p6218
I1
sVand
p6219
I5
sVcorrupted
p6220
I1
sVfigure
p6221
I1
sVis
p6222
I3
sVin
p6223
I5
sVmoved
p6224
I1
sVan
p6225
I1
sVas
p6226
I1
sVat
p6227
I1
sVarise
p6228
I1
sVdisjoint
p6229
I1
sVinformation
p6230
I2
sVephemeral
p6231
I1
sVsame
p6232
I1
sVastronomers
p6233
I1
sVother
p6234
I1
sg789
I2
sVspatial
p6235
I2
sVresulting
p6236
I1
sVdifficult
p6237
I1
sVclassifying
p6238
I2
sVextended
p6239
I1
sVmultiple
p6240
I1
sVfootprints
p6241
I1
sVobject
p6242
I3
sVproblems
p6243
I1
sVmasks
p6244
I1
sVmost
p6245
I1
sVmeaning
p6246
I3
sVdata
p6247
I2
sg350
I6
sVobservation
p6248
I1
sVtransitive-closure
p6249
I1
sVedge
p6250
I1
sVthe
p6251
I14
ssg961
(dp6252
Vrepresent
p6253
I1
sVhelp
p6254
I1
sVephemeral
p6255
I1
sVastronomical
p6256
I1
sVobservational
p6257
I2
sVfriends-of-friends
p6258
I1
sVsky
p6259
I1
sg229
I4
sVto
p6260
I2
sVcross-match
p6261
I2
sVclusters
p6262
I2
sVmatch
p6263
I1
sVworse
p6264
I1
sVdigital
p6265
I1
sVhid
p6266
I1
sVclosure
p6267
I1
sVevolution
p6268
I1
sV--
p6269
I3
sVsummary
p6270
I1
sVflux
p6271
I1
sVdetections
p6272
I1
sVeach
p6273
I2
sVfound
p6274
I1
sVstationary
p6275
I1
sVdealing
p6276
I1
sVsome
p6277
I2
sVlibrary
p6278
I1
sVdesign
p6279
I2
sVare
p6280
I3
sVeven
p6281
I1
sVmeasurements
p6282
I1
sVrecorded
p6283
I1
sVcontinually
p6284
I1
sVmisses
p6285
I2
sVmasked
p6286
I1
sVbetween
p6287
I2
sVsloan
p6288
I1
sg1005
I1
sVconditions
p6289
I1
sVbe
p6290
I1
sVwe
p6291
I1
sVnoise
p6292
I1
sVmissing
p6293
I2
sVdisappeared
p6294
I1
sVstep
p6295
I1
sVobjects
p6296
I3
sVchange
p6297
I1
sVfaced
p6298
I1
sVboth
p6299
I1
sVhits
p6300
I1
sVof
p6301
I3
sVtimes
p6302
I2
sVsurvey
p6303
I3
sVtransitive
p6304
I1
sVor
p6305
I5
sVfirst
p6306
I1
sVseeing
p6307
I1
sVspatially
p6308
I1
sVclassification
p6309
I1
sVinto
p6310
I1
sVwithin
p6311
I1
sVnumber
p6312
I1
sVone
p6313
I1
sVsimply
p6314
I1
sVtable
p6315
I2
sVmanipulate
p6316
I1
sVsurveys
p6317
I2
sVstatistics
p6318
I1
sVfrom
p6319
I1
sVwould
p6320
I1
sVinstrument
p6321
I1
sVbundles
p6322
I1
sVconstruct
p6323
I1
sg737
I11
sVobservations
p6324
I4
sVtaken
p6325
I2
sVthemselves
p6326
I1
sVwas
p6327
I1
sVmore
p6328
I1
sVthat
p6329
I1
sVdifferences
p6330
I1
sVoverlapping
p6331
I1
sVpoint-source
p6332
I1
sVcases
p6333
I1
sVwith
p6334
I2
sVunfortunately
p6335
I1
sVthis
p6336
I2
sVrecording
p6337
I1
sVnear
p6338
I1
sVproblem
p6339
I1
sVand
p6340
I7
sVcorrupted
p6341
I1
sVis
p6342
I4
sVmoved
p6343
I1
sVan
p6344
I1
sVas
p6345
I1
sVsubstantial
p6346
I1
sVat
p6347
I2
sVhave
p6348
I1
sVin
p6349
I5
sVorganizes
p6350
I1
sVdifferent
p6351
I2
sVcompared
p6352
I1
sVideally
p6353
I1
sVwhen
p6354
I3
sVsame
p6355
I1
sVfield
p6356
I1
sVspatial
p6357
I1
sVseveral
p6358
I1
sVclassify
p6359
I1
sVdifficult
p6360
I1
sVfootprints
p6361
I1
sVobject
p6362
I6
sVbundle
p6363
I2
sVmost
p6364
I1
sVvariable
p6365
I1
sVsuch
p6366
I1
sg350
I6
sVobservation
p6367
I2
sVlight
p6368
I1
sVsometimes
p6369
I2
sVedge
p6370
I2
sVthe
p6371
I12
ssg1083
(dp6372
g6253
I2
sg6137
I3
sg6138
I1
sg6258
I2
sg6260
I6
sg6143
I1
sg6264
I1
sg6266
I1
sg6149
I1
sg6267
I2
sg6151
I1
sg6269
I7
sg6289
I1
sg6270
I1
sg6154
I1
sg6276
I2
sg6158
I1
sg6279
I3
sg6280
I3
sg6160
I1
sg6281
I1
sg6284
I1
sg482
I1
sg6287
I3
sg1005
I1
sg6169
I1
sg6291
I1
sg6293
I3
sg6174
I1
sg6296
I3
sg84
I2
sg6297
I1
sg6298
I2
sg6299
I2
sg6300
I2
sg6184
I1
sg6303
I4
sg6186
I1
sg6187
I1
sg6308
I1
sg6191
I1
sg6309
I2
sg6193
I1
sg6314
I1
sg6315
I5
sg6316
I2
sg6319
I2
sg6320
I1
sg6322
I2
sg737
I19
sg6204
I1
sg749
I1
sg6325
I2
sg6326
I1
sg6328
I1
sg6333
I1
sg6336
I5
sg6338
I1
sg6214
I3
sg6215
I1
sg6341
I2
sg6221
I1
sg6342
I7
sg6349
I10
sg6228
I1
sg6350
I1
sg6147
I1
sg6230
I2
sg6351
I2
sg6355
I2
sg6233
I1
sg6236
I1
sg6358
I1
sg6359
I1
sg6360
I2
sg6238
I2
sg6239
I1
sg6244
I1
sg6366
I1
sg6247
I2
sg350
I12
sg6368
I1
sg6249
I1
sg6370
I3
sg6371
I26
sg6254
I1
sg6255
I2
sg6256
I1
sg6257
I3
sg6259
I1
sg229
I6
sg6321
I1
sg6261
I4
sg6262
I2
sg6144
I1
sg6263
I2
sg6146
I1
sg6148
I1
sg6357
I3
sg6268
I1
sg6271
I1
sg6272
I1
sg6170
I1
sg6273
I2
sg6274
I1
sg6275
I1
sg6155
I1
sg6156
I1
sg6277
I2
sg6278
I2
sg6161
I1
sg6162
I1
sg6163
I1
sg6282
I1
sg6283
I2
sg6285
I4
sg6286
I2
sg6288
I1
sg6168
I1
sg6153
I1
sg6290
I3
sg6292
I2
sg6294
I2
sg6295
I2
sg6200
I2
sg6179
I3
sg6210
I1
sg6301
I7
sg6302
I2
sg6304
I2
sg6305
I11
sg6306
I2
sg6307
I1
sg6310
I2
sg6311
I2
sg6312
I1
sg6313
I1
sg6196
I1
sg6317
I3
sg6318
I1
sg6323
I2
sg6203
I1
sg6324
I7
sg6332
I2
sg6327
I3
sg6217
I1
sg6329
I3
sg6330
I1
sg6331
I1
sg6334
I4
sg6335
I1
sg6337
I2
sg6339
I3
sg6218
I1
sg6340
I12
sg6343
I2
sg6344
I2
sg6345
I2
sg6346
I1
sg6347
I3
sg6348
I1
sg6229
I1
sg6352
I1
sg6353
I1
sg6354
I3
sg6356
I1
sg6234
I1
sg789
I2
sg6265
I1
sg6240
I1
sg6361
I2
sg6362
I9
sg6243
I1
sg6363
I3
sg6364
I2
sg6246
I3
sg6365
I1
sg403
I2
sg6367
I3
sg6369
I2
ssba.