(lp0
S','
p1
aS'.'
p2
aS':'
p3
aS';'
p4
aS'?'
p5
aS'('
p6
aS')'
p7
aS'['
p8
aS']'
p9
aS'{'
p10
aS'}'
p11
aS'&'
p12
aS'!'
p13
aS'*'
p14
aS'@'
p15
aS'#'
p16
aS'$'
p17
aS'%'
p18
aS'-'
p19
aS'--'
p20
aS"'"
p21
aS'"'
p22
aS'\xe2\x80\x99'
p23
aS'\xe2\x80\x9d'
p24
aS'|'
p25
aS'\xe2\x80\xa6'
p26
aS'`'
p27
aS'``'
p28
aV\u222a
p29
aV\u2190
p30
aV\u2192
p31
a.