(icmyPackage
Paper
p0
(dp1
S'KeyW'
p2
(lp3
sS'author'
p4
S'Hai Zhuge'
p5
sS'auinfo'
p6
(lp7
S'Key Lab of Intelligent Information Processing, Chinese Academy of Sciences, Beijing, P.R.China'
p8
aS'Aston University, Birmingham, UK'
p9
asS'C_list'
p10
(lp11
(icmyPackage
Sec
p12
(dp13
S'Ctag'
p14
I1
sS'sclist'
p15
(lp16
(icmyPackage
SubSec
p17
(dp18
g14
I1
sS'SCtitle'
p19
NsS'p_num'
p20
I6
sS'plist'
p21
(lp22
(icmyPackage
Parag
p23
(dp24
g14
I1
sS'slist'
p25
(lp26
(icmyPackage
Sent
p27
(dp28
g14
I1
sS'Ptag'
p29
I0
sS'text'
p30
S'Semantics, knowledge and grids represent three streams of studying humans and cyberspace that humans create and interact.'
p31
sS'SCtag'
p32
I0
sS'Stag'
p33
I0
sS'PTree'
p34
(lp35
ccopy_reg
_reconstructor
p36
(cnltk.tree
Tree
p37
c__builtin__
list
p38
(lp39
g36
(g37
g38
(lp40
g36
(g37
g38
(lp41
g36
(g37
g38
(lp42
g36
(g37
g38
(lp43
VSemantics
p44
atp45
Rp46
(dp47
S'_label'
p48
VNNS
p49
sbatp50
Rp51
(dp52
g48
VNP
p53
sbag36
(g37
g38
(lp54
V,
p55
atp56
Rp57
(dp58
g48
g55
sbag36
(g37
g38
(lp59
g36
(g37
g38
(lp60
Vknowledge
p61
atp62
Rp63
(dp64
g48
VNN
p65
sbatp66
Rp67
(dp68
g48
VNP
p69
sbag36
(g37
g38
(lp70
Vand
p71
atp72
Rp73
(dp74
g48
VCC
p75
sbag36
(g37
g38
(lp76
g36
(g37
g38
(lp77
Vgrids
p78
atp79
Rp80
(dp81
g48
VNNS
p82
sbatp83
Rp84
(dp85
g48
VNP
p86
sbatp87
Rp88
(dp89
g48
VNP
p90
sbag36
(g37
g38
(lp91
g36
(g37
g38
(lp92
Vrepresent
p93
atp94
Rp95
(dp96
g48
VVBP
p97
sbag36
(g37
g38
(lp98
g36
(g37
g38
(lp99
g36
(g37
g38
(lp100
Vthree
p101
atp102
Rp103
(dp104
g48
VCD
p105
sbag36
(g37
g38
(lp106
Vstreams
p107
atp108
Rp109
(dp110
g48
VNNS
p111
sbatp112
Rp113
(dp114
g48
VNP
p115
sbag36
(g37
g38
(lp116
g36
(g37
g38
(lp117
Vof
p118
atp119
Rp120
(dp121
g48
VIN
p122
sbag36
(g37
g38
(lp123
g36
(g37
g38
(lp124
g36
(g37
g38
(lp125
Vstudying
p126
atp127
Rp128
(dp129
g48
VVBG
p130
sbag36
(g37
g38
(lp131
g36
(g37
g38
(lp132
Vhumans
p133
atp134
Rp135
(dp136
g48
VNNS
p137
sbag36
(g37
g38
(lp138
Vand
p139
atp140
Rp141
(dp142
g48
VCC
p143
sbag36
(g37
g38
(lp144
Vcyberspace
p145
atp146
Rp147
(dp148
g48
VNN
p149
sbatp150
Rp151
(dp152
g48
VNP
p153
sbag36
(g37
g38
(lp154
g36
(g37
g38
(lp155
Vthat
p156
atp157
Rp158
(dp159
g48
VIN
p160
sbag36
(g37
g38
(lp161
g36
(g37
g38
(lp162
g36
(g37
g38
(lp163
Vhumans
p164
atp165
Rp166
(dp167
g48
VNNS
p168
sbatp169
Rp170
(dp171
g48
VNP
p172
sbag36
(g37
g38
(lp173
g36
(g37
g38
(lp174
Vcreate
p175
atp176
Rp177
(dp178
g48
VVB
p179
sbag36
(g37
g38
(lp180
Vand
p181
atp182
Rp183
(dp184
g48
VCC
p185
sbag36
(g37
g38
(lp186
Vinteract
p187
atp188
Rp189
(dp190
g48
VVB
p191
sbatp192
Rp193
(dp194
g48
VVP
p195
sbatp196
Rp197
(dp198
g48
VS
p199
sbatp200
Rp201
(dp202
g48
VSBAR
p203
sbatp204
Rp205
(dp206
g48
VVP
p207
sbatp208
Rp209
(dp210
g48
g199
sbatp211
Rp212
(dp213
g48
VPP
p214
sbatp215
Rp216
(dp217
g48
VNP
p218
sbatp219
Rp220
(dp221
g48
VVP
p222
sbag36
(g37
g38
(lp223
V.
p224
atp225
Rp226
(dp227
g48
g224
sbatp228
Rp229
(dp230
g48
g199
sbatp231
Rp232
(dp233
g48
VROOT
p234
sbasba(icmyPackage
Sent
p235
(dp236
g14
I1
sg29
I0
sg30
S'Relevant research concerns all areas of computing, especially web semantics, artificial intelligence, and advanced computing infrastructures.'
p237
sg32
I0
sg33
I1
sg34
(lp238
g36
(g37
g38
(lp239
g36
(g37
g38
(lp240
g36
(g37
g38
(lp241
g36
(g37
g38
(lp242
VRelevant
p243
atp244
Rp245
(dp246
g48
VJJ
p247
sbag36
(g37
g38
(lp248
Vresearch
p249
atp250
Rp251
(dp252
g48
VNN
p253
sbatp254
Rp255
(dp256
g48
VNP
p257
sbag36
(g37
g38
(lp258
g36
(g37
g38
(lp259
Vconcerns
p260
atp261
Rp262
(dp263
g48
VVBZ
p264
sbag36
(g37
g38
(lp265
g36
(g37
g38
(lp266
g36
(g37
g38
(lp267
Vall
p268
atp269
Rp270
(dp271
g48
VDT
p272
sbag36
(g37
g38
(lp273
Vareas
p274
atp275
Rp276
(dp277
g48
VNNS
p278
sbatp279
Rp280
(dp281
g48
VNP
p282
sbag36
(g37
g38
(lp283
g36
(g37
g38
(lp284
Vof
p285
atp286
Rp287
(dp288
g48
VIN
p289
sbag36
(g37
g38
(lp290
g36
(g37
g38
(lp291
g36
(g37
g38
(lp292
Vcomputing
p293
atp294
Rp295
(dp296
g48
VNN
p297
sbatp298
Rp299
(dp300
g48
VNP
p301
sbag36
(g37
g38
(lp302
g55
atp303
Rp304
(dp305
g48
g55
sbag36
(g37
g38
(lp306
g36
(g37
g38
(lp307
Vespecially
p308
atp309
Rp310
(dp311
g48
VRB
p312
sbag36
(g37
g38
(lp313
Vweb
p314
atp315
Rp316
(dp317
g48
VNN
p318
sbag36
(g37
g38
(lp319
Vsemantics
p320
atp321
Rp322
(dp323
g48
VNNS
p324
sbatp325
Rp326
(dp327
g48
VNP
p328
sbag36
(g37
g38
(lp329
g55
atp330
Rp331
(dp332
g48
g55
sbag36
(g37
g38
(lp333
g36
(g37
g38
(lp334
Vartificial
p335
atp336
Rp337
(dp338
g48
VJJ
p339
sbag36
(g37
g38
(lp340
Vintelligence
p341
atp342
Rp343
(dp344
g48
VNN
p345
sbatp346
Rp347
(dp348
g48
VNP
p349
sbag36
(g37
g38
(lp350
g55
atp351
Rp352
(dp353
g48
g55
sbag36
(g37
g38
(lp354
Vand
p355
atp356
Rp357
(dp358
g48
VCC
p359
sbag36
(g37
g38
(lp360
g36
(g37
g38
(lp361
Vadvanced
p362
atp363
Rp364
(dp365
g48
VJJ
p366
sbag36
(g37
g38
(lp367
Vcomputing
p368
atp369
Rp370
(dp371
g48
VNN
p372
sbag36
(g37
g38
(lp373
Vinfrastructures
p374
atp375
Rp376
(dp377
g48
VNNS
p378
sbatp379
Rp380
(dp381
g48
VNP
p382
sbatp383
Rp384
(dp385
g48
VNP
p386
sbatp387
Rp388
(dp389
g48
VPP
p390
sbatp391
Rp392
(dp393
g48
VNP
p394
sbatp395
Rp396
(dp397
g48
VVP
p398
sbag36
(g37
g38
(lp399
g224
atp400
Rp401
(dp402
g48
g224
sbatp403
Rp404
(dp405
g48
g199
sbatp406
Rp407
(dp408
g48
VROOT
p409
sbasba(icmyPackage
Sent
p410
(dp411
g14
I1
sg29
I0
sg30
S'This special issue selected eight papers reporting relevant research and applications from the 9th International Conference on Semantics, Knowledge and Grids.'
p412
sg32
I0
sg33
I2
sg34
(lp413
g36
(g37
g38
(lp414
g36
(g37
g38
(lp415
g36
(g37
g38
(lp416
g36
(g37
g38
(lp417
VThis
p418
atp419
Rp420
(dp421
g48
VDT
p422
sbag36
(g37
g38
(lp423
Vspecial
p424
atp425
Rp426
(dp427
g48
VJJ
p428
sbag36
(g37
g38
(lp429
Vissue
p430
atp431
Rp432
(dp433
g48
VNN
p434
sbatp435
Rp436
(dp437
g48
VNP
p438
sbag36
(g37
g38
(lp439
g36
(g37
g38
(lp440
Vselected
p441
atp442
Rp443
(dp444
g48
VVBD
p445
sbag36
(g37
g38
(lp446
g36
(g37
g38
(lp447
g36
(g37
g38
(lp448
Veight
p449
atp450
Rp451
(dp452
g48
VCD
p453
sbag36
(g37
g38
(lp454
Vpapers
p455
atp456
Rp457
(dp458
g48
VNNS
p459
sbatp460
Rp461
(dp462
g48
VNP
p463
sbag36
(g37
g38
(lp464
g36
(g37
g38
(lp465
Vreporting
p466
atp467
Rp468
(dp469
g48
VVBG
p470
sbag36
(g37
g38
(lp471
g36
(g37
g38
(lp472
Vrelevant
p473
atp474
Rp475
(dp476
g48
VJJ
p477
sbag36
(g37
g38
(lp478
Vresearch
p479
atp480
Rp481
(dp482
g48
VNN
p483
sbag36
(g37
g38
(lp484
Vand
p485
atp486
Rp487
(dp488
g48
VCC
p489
sbag36
(g37
g38
(lp490
Vapplications
p491
atp492
Rp493
(dp494
g48
VNNS
p495
sbatp496
Rp497
(dp498
g48
VNP
p499
sbag36
(g37
g38
(lp500
g36
(g37
g38
(lp501
Vfrom
p502
atp503
Rp504
(dp505
g48
VIN
p506
sbag36
(g37
g38
(lp507
g36
(g37
g38
(lp508
g36
(g37
g38
(lp509
Vthe
p510
atp511
Rp512
(dp513
g48
VDT
p514
sbag36
(g37
g38
(lp515
V9th
p516
atp517
Rp518
(dp519
g48
VJJ
p520
sbag36
(g37
g38
(lp521
VInternational
p522
atp523
Rp524
(dp525
g48
VNNP
p526
sbag36
(g37
g38
(lp527
VConference
p528
atp529
Rp530
(dp531
g48
VNN
p532
sbatp533
Rp534
(dp535
g48
VNP
p536
sbag36
(g37
g38
(lp537
g36
(g37
g38
(lp538
Von
p539
atp540
Rp541
(dp542
g48
VIN
p543
sbag36
(g37
g38
(lp544
g36
(g37
g38
(lp545
VSemantics
p546
atp547
Rp548
(dp549
g48
VNNP
p550
sbag36
(g37
g38
(lp551
g55
atp552
Rp553
(dp554
g48
g55
sbag36
(g37
g38
(lp555
VKnowledge
p556
atp557
Rp558
(dp559
g48
VNNP
p560
sbag36
(g37
g38
(lp561
Vand
p562
atp563
Rp564
(dp565
g48
VCC
p566
sbag36
(g37
g38
(lp567
VGrids
p568
atp569
Rp570
(dp571
g48
VNNP
p572
sbatp573
Rp574
(dp575
g48
VNP
p576
sbatp577
Rp578
(dp579
g48
VPP
p580
sbatp581
Rp582
(dp583
g48
VNP
p584
sbatp585
Rp586
(dp587
g48
VPP
p588
sbatp589
Rp590
(dp591
g48
VVP
p592
sbatp593
Rp594
(dp595
g48
VNP
p596
sbatp597
Rp598
(dp599
g48
VVP
p600
sbag36
(g37
g38
(lp601
g224
atp602
Rp603
(dp604
g48
g224
sbatp605
Rp606
(dp607
g48
g199
sbatp608
Rp609
(dp610
g48
VROOT
p611
sbasbasS'sent_num'
p612
I3
sg29
I0
sg32
I0
sba(icmyPackage
Parag
p613
(dp614
g14
I1
sg25
(lp615
(icmyPackage
Sent
p616
(dp617
g14
I1
sg29
I1
sg30
S'Semantics is a fundamental issue of computing.'
p618
sg32
I0
sg33
I3
sg34
(lp619
g36
(g37
g38
(lp620
g36
(g37
g38
(lp621
g36
(g37
g38
(lp622
g36
(g37
g38
(lp623
VSemantics
p624
atp625
Rp626
(dp627
g48
VNNS
p628
sbatp629
Rp630
(dp631
g48
VNP
p632
sbag36
(g37
g38
(lp633
g36
(g37
g38
(lp634
Vis
p635
atp636
Rp637
(dp638
g48
VVBZ
p639
sbag36
(g37
g38
(lp640
g36
(g37
g38
(lp641
g36
(g37
g38
(lp642
Va
p643
atp644
Rp645
(dp646
g48
VDT
p647
sbag36
(g37
g38
(lp648
Vfundamental
p649
atp650
Rp651
(dp652
g48
VJJ
p653
sbag36
(g37
g38
(lp654
Vissue
p655
atp656
Rp657
(dp658
g48
VNN
p659
sbatp660
Rp661
(dp662
g48
VNP
p663
sbag36
(g37
g38
(lp664
g36
(g37
g38
(lp665
Vof
p666
atp667
Rp668
(dp669
g48
VIN
p670
sbag36
(g37
g38
(lp671
g36
(g37
g38
(lp672
Vcomputing
p673
atp674
Rp675
(dp676
g48
VVBG
p677
sbatp678
Rp679
(dp680
g48
VNP
p681
sbatp682
Rp683
(dp684
g48
VPP
p685
sbatp686
Rp687
(dp688
g48
VNP
p689
sbatp690
Rp691
(dp692
g48
VVP
p693
sbag36
(g37
g38
(lp694
g224
atp695
Rp696
(dp697
g48
g224
sbatp698
Rp699
(dp700
g48
g199
sbatp701
Rp702
(dp703
g48
VROOT
p704
sbasba(icmyPackage
Sent
p705
(dp706
g14
I1
sg29
I1
sg30
S'Various symbol systems have been developed to represent semantics.'
p707
sg32
I0
sg33
I4
sg34
(lp708
g36
(g37
g38
(lp709
g36
(g37
g38
(lp710
g36
(g37
g38
(lp711
g36
(g37
g38
(lp712
VVarious
p713
atp714
Rp715
(dp716
g48
VJJ
p717
sbag36
(g37
g38
(lp718
Vsymbol
p719
atp720
Rp721
(dp722
g48
VNN
p723
sbag36
(g37
g38
(lp724
Vsystems
p725
atp726
Rp727
(dp728
g48
VNNS
p729
sbatp730
Rp731
(dp732
g48
VNP
p733
sbag36
(g37
g38
(lp734
g36
(g37
g38
(lp735
Vhave
p736
atp737
Rp738
(dp739
g48
VVBP
p740
sbag36
(g37
g38
(lp741
g36
(g37
g38
(lp742
Vbeen
p743
atp744
Rp745
(dp746
g48
VVBN
p747
sbag36
(g37
g38
(lp748
g36
(g37
g38
(lp749
Vdeveloped
p750
atp751
Rp752
(dp753
g48
VVBN
p754
sbag36
(g37
g38
(lp755
g36
(g37
g38
(lp756
g36
(g37
g38
(lp757
Vto
p758
atp759
Rp760
(dp761
g48
VTO
p762
sbag36
(g37
g38
(lp763
g36
(g37
g38
(lp764
Vrepresent
p765
atp766
Rp767
(dp768
g48
VVB
p769
sbag36
(g37
g38
(lp770
g36
(g37
g38
(lp771
Vsemantics
p772
atp773
Rp774
(dp775
g48
VNNS
p776
sbatp777
Rp778
(dp779
g48
VNP
p780
sbatp781
Rp782
(dp783
g48
VVP
p784
sbatp785
Rp786
(dp787
g48
VVP
p788
sbatp789
Rp790
(dp791
g48
g199
sbatp792
Rp793
(dp794
g48
VVP
p795
sbatp796
Rp797
(dp798
g48
VVP
p799
sbatp800
Rp801
(dp802
g48
VVP
p803
sbag36
(g37
g38
(lp804
g224
atp805
Rp806
(dp807
g48
g224
sbatp808
Rp809
(dp810
g48
g199
sbatp811
Rp812
(dp813
g48
VROOT
p814
sbasba(icmyPackage
Sent
p815
(dp816
g14
I1
sg29
I1
sg30
S'An important idea is to distinguish social semantics from natural semantics like mathematics and to build social semantics through interaction processes [1].'
p817
sg32
I0
sg33
I5
sg34
(lp818
g36
(g37
g38
(lp819
g36
(g37
g38
(lp820
g36
(g37
g38
(lp821
g36
(g37
g38
(lp822
VAn
p823
atp824
Rp825
(dp826
g48
VDT
p827
sbag36
(g37
g38
(lp828
Vimportant
p829
atp830
Rp831
(dp832
g48
VJJ
p833
sbag36
(g37
g38
(lp834
Videa
p835
atp836
Rp837
(dp838
g48
VNN
p839
sbatp840
Rp841
(dp842
g48
VNP
p843
sbag36
(g37
g38
(lp844
g36
(g37
g38
(lp845
Vis
p846
atp847
Rp848
(dp849
g48
VVBZ
p850
sbag36
(g37
g38
(lp851
g36
(g37
g38
(lp852
g36
(g37
g38
(lp853
g36
(g37
g38
(lp854
Vto
p855
atp856
Rp857
(dp858
g48
VTO
p859
sbag36
(g37
g38
(lp860
g36
(g37
g38
(lp861
Vdistinguish
p862
atp863
Rp864
(dp865
g48
VVB
p866
sbag36
(g37
g38
(lp867
g36
(g37
g38
(lp868
Vsocial
p869
atp870
Rp871
(dp872
g48
VJJ
p873
sbag36
(g37
g38
(lp874
Vsemantics
p875
atp876
Rp877
(dp878
g48
VNNS
p879
sbatp880
Rp881
(dp882
g48
VNP
p883
sbag36
(g37
g38
(lp884
g36
(g37
g38
(lp885
Vfrom
p886
atp887
Rp888
(dp889
g48
VIN
p890
sbag36
(g37
g38
(lp891
g36
(g37
g38
(lp892
g36
(g37
g38
(lp893
Vnatural
p894
atp895
Rp896
(dp897
g48
VJJ
p898
sbag36
(g37
g38
(lp899
Vsemantics
p900
atp901
Rp902
(dp903
g48
VNNS
p904
sbatp905
Rp906
(dp907
g48
VNP
p908
sbag36
(g37
g38
(lp909
g36
(g37
g38
(lp910
Vlike
p911
atp912
Rp913
(dp914
g48
VIN
p915
sbag36
(g37
g38
(lp916
g36
(g37
g38
(lp917
Vmathematics
p918
atp919
Rp920
(dp921
g48
VNNS
p922
sbatp923
Rp924
(dp925
g48
VNP
p926
sbatp927
Rp928
(dp929
g48
VPP
p930
sbatp931
Rp932
(dp933
g48
VNP
p934
sbatp935
Rp936
(dp937
g48
VPP
p938
sbatp939
Rp940
(dp941
g48
VVP
p942
sbatp943
Rp944
(dp945
g48
VVP
p946
sbag36
(g37
g38
(lp947
Vand
p948
atp949
Rp950
(dp951
g48
VCC
p952
sbag36
(g37
g38
(lp953
g36
(g37
g38
(lp954
Vto
p955
atp956
Rp957
(dp958
g48
VTO
p959
sbag36
(g37
g38
(lp960
g36
(g37
g38
(lp961
Vbuild
p962
atp963
Rp964
(dp965
g48
VVB
p966
sbag36
(g37
g38
(lp967
g36
(g37
g38
(lp968
Vsocial
p969
atp970
Rp971
(dp972
g48
VJJ
p973
sbag36
(g37
g38
(lp974
Vsemantics
p975
atp976
Rp977
(dp978
g48
VNNS
p979
sbatp980
Rp981
(dp982
g48
VNP
p983
sbag36
(g37
g38
(lp984
g36
(g37
g38
(lp985
Vthrough
p986
atp987
Rp988
(dp989
g48
VIN
p990
sbag36
(g37
g38
(lp991
g36
(g37
g38
(lp992
g36
(g37
g38
(lp993
Vinteraction
p994
atp995
Rp996
(dp997
g48
VNN
p998
sbag36
(g37
g38
(lp999
Vprocesses
p1000
atp1001
Rp1002
(dp1003
g48
VNNS
p1004
sbatp1005
Rp1006
(dp1007
g48
VNP
p1008
sbag36
(g37
g38
(lp1009
g36
(g37
g38
(lp1010
V-LSB-
p1011
atp1012
Rp1013
(dp1014
g48
VVBG
p1015
sbag36
(g37
g38
(lp1016
g36
(g37
g38
(lp1017
g36
(g37
g38
(lp1018
V1
p1019
atp1020
Rp1021
(dp1022
g48
VCD
p1023
sbag36
(g37
g38
(lp1024
V-RSB-
p1025
atp1026
Rp1027
(dp1028
g48
VCD
p1029
sbatp1030
Rp1031
(dp1032
g48
VQP
p1033
sbatp1034
Rp1035
(dp1036
g48
VNP
p1037
sbatp1038
Rp1039
(dp1040
g48
VVP
p1041
sbatp1042
Rp1043
(dp1044
g48
VNP
p1045
sbatp1046
Rp1047
(dp1048
g48
VPP
p1049
sbatp1050
Rp1051
(dp1052
g48
VVP
p1053
sbatp1054
Rp1055
(dp1056
g48
VVP
p1057
sbatp1058
Rp1059
(dp1060
g48
VVP
p1061
sbatp1062
Rp1063
(dp1064
g48
g199
sbatp1065
Rp1066
(dp1067
g48
VVP
p1068
sbag36
(g37
g38
(lp1069
g224
atp1070
Rp1071
(dp1072
g48
g224
sbatp1073
Rp1074
(dp1075
g48
g199
sbatp1076
Rp1077
(dp1078
g48
VROOT
p1079
sbasba(icmyPackage
Sent
p1080
(dp1081
g14
I1
sg29
I1
sg30
S'An interactive system and its semantic image co-evolve to render interactive semantics.'
p1082
sg32
I0
sg33
I6
sg34
(lp1083
g36
(g37
g38
(lp1084
g36
(g37
g38
(lp1085
g36
(g37
g38
(lp1086
g36
(g37
g38
(lp1087
g36
(g37
g38
(lp1088
VAn
p1089
atp1090
Rp1091
(dp1092
g48
VDT
p1093
sbag36
(g37
g38
(lp1094
Vinteractive
p1095
atp1096
Rp1097
(dp1098
g48
VJJ
p1099
sbag36
(g37
g38
(lp1100
Vsystem
p1101
atp1102
Rp1103
(dp1104
g48
VNN
p1105
sbatp1106
Rp1107
(dp1108
g48
VNP
p1109
sbag36
(g37
g38
(lp1110
Vand
p1111
atp1112
Rp1113
(dp1114
g48
VCC
p1115
sbag36
(g37
g38
(lp1116
g36
(g37
g38
(lp1117
Vits
p1118
atp1119
Rp1120
(dp1121
g48
VPRP$
p1122
sbag36
(g37
g38
(lp1123
Vsemantic
p1124
atp1125
Rp1126
(dp1127
g48
VJJ
p1128
sbag36
(g37
g38
(lp1129
Vimage
p1130
atp1131
Rp1132
(dp1133
g48
VNN
p1134
sbatp1135
Rp1136
(dp1137
g48
VNP
p1138
sbatp1139
Rp1140
(dp1141
g48
VNP
p1142
sbag36
(g37
g38
(lp1143
g36
(g37
g38
(lp1144
Vco-evolve
p1145
atp1146
Rp1147
(dp1148
g48
VVBP
p1149
sbag36
(g37
g38
(lp1150
g36
(g37
g38
(lp1151
g36
(g37
g38
(lp1152
Vto
p1153
atp1154
Rp1155
(dp1156
g48
VTO
p1157
sbag36
(g37
g38
(lp1158
g36
(g37
g38
(lp1159
Vrender
p1160
atp1161
Rp1162
(dp1163
g48
VVB
p1164
sbag36
(g37
g38
(lp1165
g36
(g37
g38
(lp1166
Vinteractive
p1167
atp1168
Rp1169
(dp1170
g48
VJJ
p1171
sbag36
(g37
g38
(lp1172
Vsemantics
p1173
atp1174
Rp1175
(dp1176
g48
VNNS
p1177
sbatp1178
Rp1179
(dp1180
g48
VNP
p1181
sbatp1182
Rp1183
(dp1184
g48
VVP
p1185
sbatp1186
Rp1187
(dp1188
g48
VVP
p1189
sbatp1190
Rp1191
(dp1192
g48
g199
sbatp1193
Rp1194
(dp1195
g48
VVP
p1196
sbag36
(g37
g38
(lp1197
g224
atp1198
Rp1199
(dp1200
g48
g224
sbatp1201
Rp1202
(dp1203
g48
g199
sbatp1204
Rp1205
(dp1206
g48
VROOT
p1207
sbasba(icmyPackage
Sent
p1208
(dp1209
g14
I1
sg29
I1
sg30
S'The process of building and explaining semantic image can be based on an evolving structure incorporating multidimensional classification space and self-organized semantic link network [2].'
p1210
sg32
I0
sg33
I7
sg34
(lp1211
g36
(g37
g38
(lp1212
g36
(g37
g38
(lp1213
g36
(g37
g38
(lp1214
g36
(g37
g38
(lp1215
g36
(g37
g38
(lp1216
VThe
p1217
atp1218
Rp1219
(dp1220
g48
VDT
p1221
sbag36
(g37
g38
(lp1222
Vprocess
p1223
atp1224
Rp1225
(dp1226
g48
VNN
p1227
sbatp1228
Rp1229
(dp1230
g48
VNP
p1231
sbag36
(g37
g38
(lp1232
g36
(g37
g38
(lp1233
Vof
p1234
atp1235
Rp1236
(dp1237
g48
VIN
p1238
sbag36
(g37
g38
(lp1239
g36
(g37
g38
(lp1240
g36
(g37
g38
(lp1241
Vbuilding
p1242
atp1243
Rp1244
(dp1245
g48
VVBG
p1246
sbag36
(g37
g38
(lp1247
Vand
p1248
atp1249
Rp1250
(dp1251
g48
VCC
p1252
sbag36
(g37
g38
(lp1253
Vexplaining
p1254
atp1255
Rp1256
(dp1257
g48
VVBG
p1258
sbag36
(g37
g38
(lp1259
g36
(g37
g38
(lp1260
Vsemantic
p1261
atp1262
Rp1263
(dp1264
g48
VJJ
p1265
sbag36
(g37
g38
(lp1266
Vimage
p1267
atp1268
Rp1269
(dp1270
g48
VNN
p1271
sbatp1272
Rp1273
(dp1274
g48
VNP
p1275
sbatp1276
Rp1277
(dp1278
g48
VVP
p1279
sbatp1280
Rp1281
(dp1282
g48
g199
sbatp1283
Rp1284
(dp1285
g48
VPP
p1286
sbatp1287
Rp1288
(dp1289
g48
VNP
p1290
sbag36
(g37
g38
(lp1291
g36
(g37
g38
(lp1292
Vcan
p1293
atp1294
Rp1295
(dp1296
g48
VMD
p1297
sbag36
(g37
g38
(lp1298
g36
(g37
g38
(lp1299
Vbe
p1300
atp1301
Rp1302
(dp1303
g48
VVB
p1304
sbag36
(g37
g38
(lp1305
g36
(g37
g38
(lp1306
Vbased
p1307
atp1308
Rp1309
(dp1310
g48
VVBN
p1311
sbag36
(g37
g38
(lp1312
g36
(g37
g38
(lp1313
Von
p1314
atp1315
Rp1316
(dp1317
g48
VIN
p1318
sbag36
(g37
g38
(lp1319
g36
(g37
g38
(lp1320
g36
(g37
g38
(lp1321
Van
p1322
atp1323
Rp1324
(dp1325
g48
VDT
p1326
sbag36
(g37
g38
(lp1327
Vevolving
p1328
atp1329
Rp1330
(dp1331
g48
VJJ
p1332
sbag36
(g37
g38
(lp1333
Vstructure
p1334
atp1335
Rp1336
(dp1337
g48
VNN
p1338
sbatp1339
Rp1340
(dp1341
g48
VNP
p1342
sbag36
(g37
g38
(lp1343
g36
(g37
g38
(lp1344
Vincorporating
p1345
atp1346
Rp1347
(dp1348
g48
VVBG
p1349
sbag36
(g37
g38
(lp1350
g36
(g37
g38
(lp1351
g36
(g37
g38
(lp1352
Vmultidimensional
p1353
atp1354
Rp1355
(dp1356
g48
VJJ
p1357
sbag36
(g37
g38
(lp1358
Vclassification
p1359
atp1360
Rp1361
(dp1362
g48
VNN
p1363
sbag36
(g37
g38
(lp1364
Vspace
p1365
atp1366
Rp1367
(dp1368
g48
VNN
p1369
sbatp1370
Rp1371
(dp1372
g48
VNP
p1373
sbag36
(g37
g38
(lp1374
Vand
p1375
atp1376
Rp1377
(dp1378
g48
VCC
p1379
sbag36
(g37
g38
(lp1380
g36
(g37
g38
(lp1381
g36
(g37
g38
(lp1382
Vself-organized
p1383
atp1384
Rp1385
(dp1386
g48
VJJ
p1387
sbag36
(g37
g38
(lp1388
Vsemantic
p1389
atp1390
Rp1391
(dp1392
g48
VJJ
p1393
sbag36
(g37
g38
(lp1394
Vlink
p1395
atp1396
Rp1397
(dp1398
g48
VNN
p1399
sbag36
(g37
g38
(lp1400
Vnetwork
p1401
atp1402
Rp1403
(dp1404
g48
VNN
p1405
sbatp1406
Rp1407
(dp1408
g48
VNP
p1409
sbag36
(g37
g38
(lp1410
g36
(g37
g38
(lp1411
g36
(g37
g38
(lp1412
V-LSB-
p1413
atp1414
Rp1415
(dp1416
g48
VCD
p1417
sbag36
(g37
g38
(lp1418
V2
p1419
atp1420
Rp1421
(dp1422
g48
VCD
p1423
sbatp1424
Rp1425
(dp1426
g48
VQP
p1427
sbag36
(g37
g38
(lp1428
V-RSB-
p1429
atp1430
Rp1431
(dp1432
g48
VNNS
p1433
sbatp1434
Rp1435
(dp1436
g48
VNP
p1437
sbatp1438
Rp1439
(dp1440
g48
VNP
p1441
sbatp1442
Rp1443
(dp1444
g48
VNP
p1445
sbatp1446
Rp1447
(dp1448
g48
VVP
p1449
sbatp1450
Rp1451
(dp1452
g48
VNP
p1453
sbatp1454
Rp1455
(dp1456
g48
VPP
p1457
sbatp1458
Rp1459
(dp1460
g48
VVP
p1461
sbatp1462
Rp1463
(dp1464
g48
VVP
p1465
sbatp1466
Rp1467
(dp1468
g48
VVP
p1469
sbag36
(g37
g38
(lp1470
g224
atp1471
Rp1472
(dp1473
g48
g224
sbatp1474
Rp1475
(dp1476
g48
g199
sbatp1477
Rp1478
(dp1479
g48
VROOT
p1480
sbasbasg612
I5
sg29
I1
sg32
I0
sba(icmyPackage
Parag
p1481
(dp1482
g14
I1
sg25
(lp1483
(icmyPackage
Sent
p1484
(dp1485
g14
I1
sg29
I2
sg30
S'Knowledge is a fundamental issue of philosophy and artificial intelligence.'
p1486
sg32
I0
sg33
I8
sg34
(lp1487
g36
(g37
g38
(lp1488
g36
(g37
g38
(lp1489
g36
(g37
g38
(lp1490
g36
(g37
g38
(lp1491
VKnowledge
p1492
atp1493
Rp1494
(dp1495
g48
VNNP
p1496
sbatp1497
Rp1498
(dp1499
g48
VNP
p1500
sbag36
(g37
g38
(lp1501
g36
(g37
g38
(lp1502
Vis
p1503
atp1504
Rp1505
(dp1506
g48
VVBZ
p1507
sbag36
(g37
g38
(lp1508
g36
(g37
g38
(lp1509
g36
(g37
g38
(lp1510
g643
atp1511
Rp1512
(dp1513
g48
VDT
p1514
sbag36
(g37
g38
(lp1515
Vfundamental
p1516
atp1517
Rp1518
(dp1519
g48
VJJ
p1520
sbag36
(g37
g38
(lp1521
Vissue
p1522
atp1523
Rp1524
(dp1525
g48
VNN
p1526
sbatp1527
Rp1528
(dp1529
g48
VNP
p1530
sbag36
(g37
g38
(lp1531
g36
(g37
g38
(lp1532
Vof
p1533
atp1534
Rp1535
(dp1536
g48
VIN
p1537
sbag36
(g37
g38
(lp1538
g36
(g37
g38
(lp1539
Vphilosophy
p1540
atp1541
Rp1542
(dp1543
g48
VNN
p1544
sbag36
(g37
g38
(lp1545
Vand
p1546
atp1547
Rp1548
(dp1549
g48
VCC
p1550
sbag36
(g37
g38
(lp1551
Vartificial
p1552
atp1553
Rp1554
(dp1555
g48
VJJ
p1556
sbag36
(g37
g38
(lp1557
Vintelligence
p1558
atp1559
Rp1560
(dp1561
g48
VNN
p1562
sbatp1563
Rp1564
(dp1565
g48
VNP
p1566
sbatp1567
Rp1568
(dp1569
g48
VPP
p1570
sbatp1571
Rp1572
(dp1573
g48
VNP
p1574
sbatp1575
Rp1576
(dp1577
g48
VVP
p1578
sbag36
(g37
g38
(lp1579
g224
atp1580
Rp1581
(dp1582
g48
g224
sbatp1583
Rp1584
(dp1585
g48
g199
sbatp1586
Rp1587
(dp1588
g48
VROOT
p1589
sbasba(icmyPackage
Sent
p1590
(dp1591
g14
I1
sg29
I2
sg30
S'Human can map the representation of the external world into the representation in mind, and map the internal representation into the knowledge space through generalization.'
p1592
sg32
I0
sg33
I9
sg34
(lp1593
g36
(g37
g38
(lp1594
g36
(g37
g38
(lp1595
g36
(g37
g38
(lp1596
g36
(g37
g38
(lp1597
VHuman
p1598
atp1599
Rp1600
(dp1601
g48
VNNP
p1602
sbatp1603
Rp1604
(dp1605
g48
VNP
p1606
sbag36
(g37
g38
(lp1607
g36
(g37
g38
(lp1608
g36
(g37
g38
(lp1609
Vcan
p1610
atp1611
Rp1612
(dp1613
g48
VMD
p1614
sbag36
(g37
g38
(lp1615
g36
(g37
g38
(lp1616
Vmap
p1617
atp1618
Rp1619
(dp1620
g48
VVB
p1621
sbag36
(g37
g38
(lp1622
g36
(g37
g38
(lp1623
g36
(g37
g38
(lp1624
Vthe
p1625
atp1626
Rp1627
(dp1628
g48
VDT
p1629
sbag36
(g37
g38
(lp1630
Vrepresentation
p1631
atp1632
Rp1633
(dp1634
g48
VNN
p1635
sbatp1636
Rp1637
(dp1638
g48
VNP
p1639
sbag36
(g37
g38
(lp1640
g36
(g37
g38
(lp1641
Vof
p1642
atp1643
Rp1644
(dp1645
g48
VIN
p1646
sbag36
(g37
g38
(lp1647
g36
(g37
g38
(lp1648
Vthe
p1649
atp1650
Rp1651
(dp1652
g48
VDT
p1653
sbag36
(g37
g38
(lp1654
Vexternal
p1655
atp1656
Rp1657
(dp1658
g48
VJJ
p1659
sbag36
(g37
g38
(lp1660
Vworld
p1661
atp1662
Rp1663
(dp1664
g48
VNN
p1665
sbatp1666
Rp1667
(dp1668
g48
VNP
p1669
sbatp1670
Rp1671
(dp1672
g48
VPP
p1673
sbatp1674
Rp1675
(dp1676
g48
VNP
p1677
sbag36
(g37
g38
(lp1678
g36
(g37
g38
(lp1679
Vinto
p1680
atp1681
Rp1682
(dp1683
g48
VIN
p1684
sbag36
(g37
g38
(lp1685
g36
(g37
g38
(lp1686
g36
(g37
g38
(lp1687
Vthe
p1688
atp1689
Rp1690
(dp1691
g48
VDT
p1692
sbag36
(g37
g38
(lp1693
Vrepresentation
p1694
atp1695
Rp1696
(dp1697
g48
VNN
p1698
sbatp1699
Rp1700
(dp1701
g48
VNP
p1702
sbag36
(g37
g38
(lp1703
g36
(g37
g38
(lp1704
Vin
p1705
atp1706
Rp1707
(dp1708
g48
VIN
p1709
sbag36
(g37
g38
(lp1710
g36
(g37
g38
(lp1711
Vmind
p1712
atp1713
Rp1714
(dp1715
g48
VNN
p1716
sbatp1717
Rp1718
(dp1719
g48
VNP
p1720
sbatp1721
Rp1722
(dp1723
g48
VPP
p1724
sbatp1725
Rp1726
(dp1727
g48
VNP
p1728
sbatp1729
Rp1730
(dp1731
g48
VPP
p1732
sbatp1733
Rp1734
(dp1735
g48
VVP
p1736
sbatp1737
Rp1738
(dp1739
g48
VVP
p1740
sbag36
(g37
g38
(lp1741
g55
atp1742
Rp1743
(dp1744
g48
g55
sbag36
(g37
g38
(lp1745
Vand
p1746
atp1747
Rp1748
(dp1749
g48
VCC
p1750
sbag36
(g37
g38
(lp1751
g36
(g37
g38
(lp1752
Vmap
p1753
atp1754
Rp1755
(dp1756
g48
VVBP
p1757
sbag36
(g37
g38
(lp1758
g36
(g37
g38
(lp1759
Vthe
p1760
atp1761
Rp1762
(dp1763
g48
VDT
p1764
sbag36
(g37
g38
(lp1765
Vinternal
p1766
atp1767
Rp1768
(dp1769
g48
VJJ
p1770
sbag36
(g37
g38
(lp1771
Vrepresentation
p1772
atp1773
Rp1774
(dp1775
g48
VNN
p1776
sbatp1777
Rp1778
(dp1779
g48
VNP
p1780
sbag36
(g37
g38
(lp1781
g36
(g37
g38
(lp1782
Vinto
p1783
atp1784
Rp1785
(dp1786
g48
VIN
p1787
sbag36
(g37
g38
(lp1788
g36
(g37
g38
(lp1789
Vthe
p1790
atp1791
Rp1792
(dp1793
g48
VDT
p1794
sbag36
(g37
g38
(lp1795
Vknowledge
p1796
atp1797
Rp1798
(dp1799
g48
VNN
p1800
sbag36
(g37
g38
(lp1801
Vspace
p1802
atp1803
Rp1804
(dp1805
g48
VNN
p1806
sbatp1807
Rp1808
(dp1809
g48
VNP
p1810
sbatp1811
Rp1812
(dp1813
g48
VPP
p1814
sbag36
(g37
g38
(lp1815
g36
(g37
g38
(lp1816
Vthrough
p1817
atp1818
Rp1819
(dp1820
g48
VIN
p1821
sbag36
(g37
g38
(lp1822
g36
(g37
g38
(lp1823
Vgeneralization
p1824
atp1825
Rp1826
(dp1827
g48
VNN
p1828
sbatp1829
Rp1830
(dp1831
g48
VNP
p1832
sbatp1833
Rp1834
(dp1835
g48
VPP
p1836
sbatp1837
Rp1838
(dp1839
g48
VVP
p1840
sbatp1841
Rp1842
(dp1843
g48
VVP
p1844
sbag36
(g37
g38
(lp1845
g224
atp1846
Rp1847
(dp1848
g48
g224
sbatp1849
Rp1850
(dp1851
g48
g199
sbatp1852
Rp1853
(dp1854
g48
VROOT
p1855
sbasba(icmyPackage
Sent
p1856
(dp1857
g14
I1
sg29
I2
sg30
S'Computers are limited in ability to realize this mapping because of the fundamental differences in structure, function and social characteristics.'
p1858
sg32
I0
sg33
I10
sg34
(lp1859
g36
(g37
g38
(lp1860
g36
(g37
g38
(lp1861
g36
(g37
g38
(lp1862
g36
(g37
g38
(lp1863
VComputers
p1864
atp1865
Rp1866
(dp1867
g48
VNNS
p1868
sbatp1869
Rp1870
(dp1871
g48
VNP
p1872
sbag36
(g37
g38
(lp1873
g36
(g37
g38
(lp1874
Vare
p1875
atp1876
Rp1877
(dp1878
g48
VVBP
p1879
sbag36
(g37
g38
(lp1880
g36
(g37
g38
(lp1881
Vlimited
p1882
atp1883
Rp1884
(dp1885
g48
VVBN
p1886
sbag36
(g37
g38
(lp1887
g36
(g37
g38
(lp1888
Vin
p1889
atp1890
Rp1891
(dp1892
g48
VIN
p1893
sbag36
(g37
g38
(lp1894
g36
(g37
g38
(lp1895
Vability
p1896
atp1897
Rp1898
(dp1899
g48
VNN
p1900
sbatp1901
Rp1902
(dp1903
g48
VNP
p1904
sbatp1905
Rp1906
(dp1907
g48
VPP
p1908
sbag36
(g37
g38
(lp1909
g36
(g37
g38
(lp1910
g36
(g37
g38
(lp1911
Vto
p1912
atp1913
Rp1914
(dp1915
g48
VTO
p1916
sbag36
(g37
g38
(lp1917
g36
(g37
g38
(lp1918
Vrealize
p1919
atp1920
Rp1921
(dp1922
g48
VVB
p1923
sbag36
(g37
g38
(lp1924
g36
(g37
g38
(lp1925
g36
(g37
g38
(lp1926
Vthis
p1927
atp1928
Rp1929
(dp1930
g48
VDT
p1931
sbag36
(g37
g38
(lp1932
Vmapping
p1933
atp1934
Rp1935
(dp1936
g48
VNN
p1937
sbatp1938
Rp1939
(dp1940
g48
VNP
p1941
sbag36
(g37
g38
(lp1942
g36
(g37
g38
(lp1943
Vbecause
p1944
atp1945
Rp1946
(dp1947
g48
VRB
p1948
sbag36
(g37
g38
(lp1949
Vof
p1950
atp1951
Rp1952
(dp1953
g48
VIN
p1954
sbag36
(g37
g38
(lp1955
g36
(g37
g38
(lp1956
g36
(g37
g38
(lp1957
Vthe
p1958
atp1959
Rp1960
(dp1961
g48
VDT
p1962
sbag36
(g37
g38
(lp1963
Vfundamental
p1964
atp1965
Rp1966
(dp1967
g48
VJJ
p1968
sbag36
(g37
g38
(lp1969
Vdifferences
p1970
atp1971
Rp1972
(dp1973
g48
VNNS
p1974
sbatp1975
Rp1976
(dp1977
g48
VNP
p1978
sbag36
(g37
g38
(lp1979
g36
(g37
g38
(lp1980
Vin
p1981
atp1982
Rp1983
(dp1984
g48
VIN
p1985
sbag36
(g37
g38
(lp1986
g36
(g37
g38
(lp1987
Vstructure
p1988
atp1989
Rp1990
(dp1991
g48
VNN
p1992
sbag36
(g37
g38
(lp1993
g55
atp1994
Rp1995
(dp1996
g48
g55
sbag36
(g37
g38
(lp1997
Vfunction
p1998
atp1999
Rp2000
(dp2001
g48
VNN
p2002
sbag36
(g37
g38
(lp2003
Vand
p2004
atp2005
Rp2006
(dp2007
g48
VCC
p2008
sbag36
(g37
g38
(lp2009
Vsocial
p2010
atp2011
Rp2012
(dp2013
g48
VJJ
p2014
sbag36
(g37
g38
(lp2015
Vcharacteristics
p2016
atp2017
Rp2018
(dp2019
g48
VNNS
p2020
sbatp2021
Rp2022
(dp2023
g48
VNP
p2024
sbatp2025
Rp2026
(dp2027
g48
VPP
p2028
sbatp2029
Rp2030
(dp2031
g48
VNP
p2032
sbatp2033
Rp2034
(dp2035
g48
VPP
p2036
sbatp2037
Rp2038
(dp2039
g48
VNP
p2040
sbatp2041
Rp2042
(dp2043
g48
VVP
p2044
sbatp2045
Rp2046
(dp2047
g48
VVP
p2048
sbatp2049
Rp2050
(dp2051
g48
g199
sbatp2052
Rp2053
(dp2054
g48
VVP
p2055
sbatp2056
Rp2057
(dp2058
g48
VVP
p2059
sbag36
(g37
g38
(lp2060
g224
atp2061
Rp2062
(dp2063
g48
g224
sbatp2064
Rp2065
(dp2066
g48
g199
sbatp2067
Rp2068
(dp2069
g48
VROOT
p2070
sbasba(icmyPackage
Sent
p2071
(dp2072
g14
I1
sg29
I2
sg30
S'It is necessary to study an indirect mapping from the external representation into a cyber knowledge space by modelling human cognition [3].'
p2073
sg32
I0
sg33
I11
sg34
(lp2074
g36
(g37
g38
(lp2075
g36
(g37
g38
(lp2076
g36
(g37
g38
(lp2077
g36
(g37
g38
(lp2078
VIt
p2079
atp2080
Rp2081
(dp2082
g48
VPRP
p2083
sbatp2084
Rp2085
(dp2086
g48
VNP
p2087
sbag36
(g37
g38
(lp2088
g36
(g37
g38
(lp2089
Vis
p2090
atp2091
Rp2092
(dp2093
g48
VVBZ
p2094
sbag36
(g37
g38
(lp2095
g36
(g37
g38
(lp2096
Vnecessary
p2097
atp2098
Rp2099
(dp2100
g48
VJJ
p2101
sbag36
(g37
g38
(lp2102
g36
(g37
g38
(lp2103
g36
(g37
g38
(lp2104
Vto
p2105
atp2106
Rp2107
(dp2108
g48
VTO
p2109
sbag36
(g37
g38
(lp2110
g36
(g37
g38
(lp2111
Vstudy
p2112
atp2113
Rp2114
(dp2115
g48
VVB
p2116
sbag36
(g37
g38
(lp2117
g36
(g37
g38
(lp2118
Van
p2119
atp2120
Rp2121
(dp2122
g48
VDT
p2123
sbag36
(g37
g38
(lp2124
Vindirect
p2125
atp2126
Rp2127
(dp2128
g48
VJJ
p2129
sbag36
(g37
g38
(lp2130
Vmapping
p2131
atp2132
Rp2133
(dp2134
g48
VNN
p2135
sbatp2136
Rp2137
(dp2138
g48
VNP
p2139
sbag36
(g37
g38
(lp2140
g36
(g37
g38
(lp2141
Vfrom
p2142
atp2143
Rp2144
(dp2145
g48
VIN
p2146
sbag36
(g37
g38
(lp2147
g36
(g37
g38
(lp2148
g36
(g37
g38
(lp2149
Vthe
p2150
atp2151
Rp2152
(dp2153
g48
VDT
p2154
sbag36
(g37
g38
(lp2155
Vexternal
p2156
atp2157
Rp2158
(dp2159
g48
VJJ
p2160
sbag36
(g37
g38
(lp2161
Vrepresentation
p2162
atp2163
Rp2164
(dp2165
g48
VNN
p2166
sbatp2167
Rp2168
(dp2169
g48
VNP
p2170
sbag36
(g37
g38
(lp2171
g36
(g37
g38
(lp2172
Vinto
p2173
atp2174
Rp2175
(dp2176
g48
VIN
p2177
sbag36
(g37
g38
(lp2178
g36
(g37
g38
(lp2179
g643
atp2180
Rp2181
(dp2182
g48
VDT
p2183
sbag36
(g37
g38
(lp2184
Vcyber
p2185
atp2186
Rp2187
(dp2188
g48
VNN
p2189
sbag36
(g37
g38
(lp2190
Vknowledge
p2191
atp2192
Rp2193
(dp2194
g48
VNN
p2195
sbag36
(g37
g38
(lp2196
Vspace
p2197
atp2198
Rp2199
(dp2200
g48
VNN
p2201
sbatp2202
Rp2203
(dp2204
g48
VNP
p2205
sbatp2206
Rp2207
(dp2208
g48
VPP
p2209
sbatp2210
Rp2211
(dp2212
g48
VNP
p2213
sbatp2214
Rp2215
(dp2216
g48
VPP
p2217
sbag36
(g37
g38
(lp2218
g36
(g37
g38
(lp2219
Vby
p2220
atp2221
Rp2222
(dp2223
g48
VIN
p2224
sbag36
(g37
g38
(lp2225
g36
(g37
g38
(lp2226
g36
(g37
g38
(lp2227
Vmodelling
p2228
atp2229
Rp2230
(dp2231
g48
VVBG
p2232
sbag36
(g37
g38
(lp2233
g36
(g37
g38
(lp2234
g36
(g37
g38
(lp2235
Vhuman
p2236
atp2237
Rp2238
(dp2239
g48
VJJ
p2240
sbag36
(g37
g38
(lp2241
Vcognition
p2242
atp2243
Rp2244
(dp2245
g48
VNN
p2246
sbag36
(g37
g38
(lp2247
V-LSB-
p2248
atp2249
Rp2250
(dp2251
g48
VNNS
p2252
sbatp2253
Rp2254
(dp2255
g48
VNP
p2256
sbag36
(g37
g38
(lp2257
g36
(g37
g38
(lp2258
V3
p2259
atp2260
Rp2261
(dp2262
g48
VCD
p2263
sbag36
(g37
g38
(lp2264
V-RSB-
p2265
atp2266
Rp2267
(dp2268
g48
VJJ
p2269
sbatp2270
Rp2271
(dp2272
g48
VADJP
p2273
sbatp2274
Rp2275
(dp2276
g48
g199
sbatp2277
Rp2278
(dp2279
g48
VVP
p2280
sbatp2281
Rp2282
(dp2283
g48
g199
sbatp2284
Rp2285
(dp2286
g48
VPP
p2287
sbatp2288
Rp2289
(dp2290
g48
VVP
p2291
sbatp2292
Rp2293
(dp2294
g48
VVP
p2295
sbatp2296
Rp2297
(dp2298
g48
g199
sbatp2299
Rp2300
(dp2301
g48
VADJP
p2302
sbatp2303
Rp2304
(dp2305
g48
VVP
p2306
sbag36
(g37
g38
(lp2307
g224
atp2308
Rp2309
(dp2310
g48
g224
sbatp2311
Rp2312
(dp2313
g48
g199
sbatp2314
Rp2315
(dp2316
g48
VROOT
p2317
sbasbasg612
I4
sg29
I2
sg32
I0
sba(icmyPackage
Parag
p2318
(dp2319
g14
I1
sg25
(lp2320
(icmyPackage
Sent
p2321
(dp2322
g14
I1
sg29
I3
sg30
S'The cyber-infrastructure, along with its resources (including users and various connected devices), constitutes a vast artificial environment.'
p2323
sg32
I0
sg33
I12
sg34
(lp2324
g36
(g37
g38
(lp2325
g36
(g37
g38
(lp2326
g36
(g37
g38
(lp2327
g36
(g37
g38
(lp2328
VThe
p2329
atp2330
Rp2331
(dp2332
g48
VDT
p2333
sbag36
(g37
g38
(lp2334
Vcyber-infrastructure
p2335
atp2336
Rp2337
(dp2338
g48
VNN
p2339
sbatp2340
Rp2341
(dp2342
g48
VNP
p2343
sbag36
(g37
g38
(lp2344
g55
atp2345
Rp2346
(dp2347
g48
g55
sbag36
(g37
g38
(lp2348
g36
(g37
g38
(lp2349
Valong
p2350
atp2351
Rp2352
(dp2353
g48
VIN
p2354
sbag36
(g37
g38
(lp2355
g36
(g37
g38
(lp2356
Vwith
p2357
atp2358
Rp2359
(dp2360
g48
VIN
p2361
sbag36
(g37
g38
(lp2362
g36
(g37
g38
(lp2363
g36
(g37
g38
(lp2364
Vits
p2365
atp2366
Rp2367
(dp2368
g48
VPRP$
p2369
sbag36
(g37
g38
(lp2370
Vresources
p2371
atp2372
Rp2373
(dp2374
g48
VNNS
p2375
sbatp2376
Rp2377
(dp2378
g48
VNP
p2379
sbag36
(g37
g38
(lp2380
g36
(g37
g38
(lp2381
V-LRB-
p2382
atp2383
Rp2384
(dp2385
g48
V-LRB-
p2386
sbag36
(g37
g38
(lp2387
g36
(g37
g38
(lp2388
Vincluding
p2389
atp2390
Rp2391
(dp2392
g48
VVBG
p2393
sbag36
(g37
g38
(lp2394
g36
(g37
g38
(lp2395
g36
(g37
g38
(lp2396
Vusers
p2397
atp2398
Rp2399
(dp2400
g48
VNNS
p2401
sbatp2402
Rp2403
(dp2404
g48
VNP
p2405
sbag36
(g37
g38
(lp2406
Vand
p2407
atp2408
Rp2409
(dp2410
g48
VCC
p2411
sbag36
(g37
g38
(lp2412
g36
(g37
g38
(lp2413
Vvarious
p2414
atp2415
Rp2416
(dp2417
g48
VJJ
p2418
sbag36
(g37
g38
(lp2419
Vconnected
p2420
atp2421
Rp2422
(dp2423
g48
VJJ
p2424
sbag36
(g37
g38
(lp2425
Vdevices
p2426
atp2427
Rp2428
(dp2429
g48
VNNS
p2430
sbatp2431
Rp2432
(dp2433
g48
VNP
p2434
sbatp2435
Rp2436
(dp2437
g48
VNP
p2438
sbatp2439
Rp2440
(dp2441
g48
VPP
p2442
sbag36
(g37
g38
(lp2443
V-RRB-
p2444
atp2445
Rp2446
(dp2447
g48
V-RRB-
p2448
sbatp2449
Rp2450
(dp2451
g48
VPRN
p2452
sbatp2453
Rp2454
(dp2455
g48
VNP
p2456
sbatp2457
Rp2458
(dp2459
g48
VPP
p2460
sbatp2461
Rp2462
(dp2463
g48
VADVP
p2464
sbag36
(g37
g38
(lp2465
g55
atp2466
Rp2467
(dp2468
g48
g55
sbag36
(g37
g38
(lp2469
g36
(g37
g38
(lp2470
Vconstitutes
p2471
atp2472
Rp2473
(dp2474
g48
VVBZ
p2475
sbag36
(g37
g38
(lp2476
g36
(g37
g38
(lp2477
g643
atp2478
Rp2479
(dp2480
g48
VDT
p2481
sbag36
(g37
g38
(lp2482
Vvast
p2483
atp2484
Rp2485
(dp2486
g48
VJJ
p2487
sbag36
(g37
g38
(lp2488
Vartificial
p2489
atp2490
Rp2491
(dp2492
g48
VJJ
p2493
sbag36
(g37
g38
(lp2494
Venvironment
p2495
atp2496
Rp2497
(dp2498
g48
VNN
p2499
sbatp2500
Rp2501
(dp2502
g48
VNP
p2503
sbatp2504
Rp2505
(dp2506
g48
VVP
p2507
sbag36
(g37
g38
(lp2508
g224
atp2509
Rp2510
(dp2511
g48
g224
sbatp2512
Rp2513
(dp2514
g48
g199
sbatp2515
Rp2516
(dp2517
g48
VROOT
p2518
sbasba(icmyPackage
Sent
p2519
(dp2520
g14
I1
sg29
I3
sg30
S'Harmonious development of its cyber-infrastructure not only enables people to conveniently access, share and process big data but also ensures sustainable development of society [4].'
p2521
sg32
I0
sg33
I13
sg34
(lp2522
g36
(g37
g38
(lp2523
g36
(g37
g38
(lp2524
g36
(g37
g38
(lp2525
g36
(g37
g38
(lp2526
g36
(g37
g38
(lp2527
VHarmonious
p2528
atp2529
Rp2530
(dp2531
g48
VJJ
p2532
sbag36
(g37
g38
(lp2533
Vdevelopment
p2534
atp2535
Rp2536
(dp2537
g48
VNN
p2538
sbatp2539
Rp2540
(dp2541
g48
VNP
p2542
sbag36
(g37
g38
(lp2543
g36
(g37
g38
(lp2544
Vof
p2545
atp2546
Rp2547
(dp2548
g48
VIN
p2549
sbag36
(g37
g38
(lp2550
g36
(g37
g38
(lp2551
Vits
p2552
atp2553
Rp2554
(dp2555
g48
VPRP$
p2556
sbag36
(g37
g38
(lp2557
Vcyber-infrastructure
p2558
atp2559
Rp2560
(dp2561
g48
VNN
p2562
sbatp2563
Rp2564
(dp2565
g48
VNP
p2566
sbatp2567
Rp2568
(dp2569
g48
VPP
p2570
sbatp2571
Rp2572
(dp2573
g48
VNP
p2574
sbag36
(g37
g38
(lp2575
g36
(g37
g38
(lp2576
g36
(g37
g38
(lp2577
Vnot
p2578
atp2579
Rp2580
(dp2581
g48
VRB
p2582
sbag36
(g37
g38
(lp2583
Vonly
p2584
atp2585
Rp2586
(dp2587
g48
VJJ
p2588
sbatp2589
Rp2590
(dp2591
g48
VCONJP
p2592
sbag36
(g37
g38
(lp2593
g36
(g37
g38
(lp2594
Venables
p2595
atp2596
Rp2597
(dp2598
g48
VVBZ
p2599
sbag36
(g37
g38
(lp2600
g36
(g37
g38
(lp2601
g36
(g37
g38
(lp2602
Vpeople
p2603
atp2604
Rp2605
(dp2606
g48
VNNS
p2607
sbatp2608
Rp2609
(dp2610
g48
VNP
p2611
sbag36
(g37
g38
(lp2612
g36
(g37
g38
(lp2613
Vto
p2614
atp2615
Rp2616
(dp2617
g48
VTO
p2618
sbag36
(g37
g38
(lp2619
g36
(g37
g38
(lp2620
Vconveniently
p2621
atp2622
Rp2623
(dp2624
g48
VVB
p2625
sbag36
(g37
g38
(lp2626
g36
(g37
g38
(lp2627
Vaccess
p2628
atp2629
Rp2630
(dp2631
g48
VNN
p2632
sbag36
(g37
g38
(lp2633
g55
atp2634
Rp2635
(dp2636
g48
g55
sbag36
(g37
g38
(lp2637
Vshare
p2638
atp2639
Rp2640
(dp2641
g48
VNN
p2642
sbag36
(g37
g38
(lp2643
Vand
p2644
atp2645
Rp2646
(dp2647
g48
VCC
p2648
sbag36
(g37
g38
(lp2649
Vprocess
p2650
atp2651
Rp2652
(dp2653
g48
VNN
p2654
sbag36
(g37
g38
(lp2655
Vbig
p2656
atp2657
Rp2658
(dp2659
g48
VJJ
p2660
sbag36
(g37
g38
(lp2661
Vdata
p2662
atp2663
Rp2664
(dp2665
g48
VNNS
p2666
sbatp2667
Rp2668
(dp2669
g48
VNP
p2670
sbatp2671
Rp2672
(dp2673
g48
VVP
p2674
sbatp2675
Rp2676
(dp2677
g48
VVP
p2678
sbatp2679
Rp2680
(dp2681
g48
g199
sbatp2682
Rp2683
(dp2684
g48
VVP
p2685
sbag36
(g37
g38
(lp2686
Vbut
p2687
atp2688
Rp2689
(dp2690
g48
VCC
p2691
sbag36
(g37
g38
(lp2692
g36
(g37
g38
(lp2693
g36
(g37
g38
(lp2694
Valso
p2695
atp2696
Rp2697
(dp2698
g48
VRB
p2699
sbatp2700
Rp2701
(dp2702
g48
VADVP
p2703
sbag36
(g37
g38
(lp2704
Vensures
p2705
atp2706
Rp2707
(dp2708
g48
VVBZ
p2709
sbag36
(g37
g38
(lp2710
g36
(g37
g38
(lp2711
g36
(g37
g38
(lp2712
Vsustainable
p2713
atp2714
Rp2715
(dp2716
g48
VJJ
p2717
sbatp2718
Rp2719
(dp2720
g48
VADJP
p2721
sbag36
(g37
g38
(lp2722
Vdevelopment
p2723
atp2724
Rp2725
(dp2726
g48
VNN
p2727
sbatp2728
Rp2729
(dp2730
g48
VNP
p2731
sbag36
(g37
g38
(lp2732
g36
(g37
g38
(lp2733
Vof
p2734
atp2735
Rp2736
(dp2737
g48
VIN
p2738
sbag36
(g37
g38
(lp2739
g36
(g37
g38
(lp2740
Vsociety
p2741
atp2742
Rp2743
(dp2744
g48
VNN
p2745
sbatp2746
Rp2747
(dp2748
g48
VNP
p2749
sbatp2750
Rp2751
(dp2752
g48
VPP
p2753
sbag36
(g37
g38
(lp2754
g36
(g37
g38
(lp2755
g36
(g37
g38
(lp2756
V-LSB-
p2757
atp2758
Rp2759
(dp2760
g48
VVBG
p2761
sbag36
(g37
g38
(lp2762
g36
(g37
g38
(lp2763
V4
p2764
atp2765
Rp2766
(dp2767
g48
VCD
p2768
sbag36
(g37
g38
(lp2769
V-RSB-
p2770
atp2771
Rp2772
(dp2773
g48
VNNS
p2774
sbatp2775
Rp2776
(dp2777
g48
VNP
p2778
sbatp2779
Rp2780
(dp2781
g48
VVP
p2782
sbatp2783
Rp2784
(dp2785
g48
g199
sbatp2786
Rp2787
(dp2788
g48
VVP
p2789
sbatp2790
Rp2791
(dp2792
g48
VVP
p2793
sbag36
(g37
g38
(lp2794
g224
atp2795
Rp2796
(dp2797
g48
g224
sbatp2798
Rp2799
(dp2800
g48
g199
sbatp2801
Rp2802
(dp2803
g48
VROOT
p2804
sbasba(icmyPackage
Sent
p2805
(dp2806
g14
I1
sg29
I3
sg30
S'Research on grids refers to advanced computing infrastructures, including grid computing, cloud computing, Internet of things, and cyber-physical system.'
p2807
sg32
I0
sg33
I14
sg34
(lp2808
g36
(g37
g38
(lp2809
g36
(g37
g38
(lp2810
g36
(g37
g38
(lp2811
g36
(g37
g38
(lp2812
g36
(g37
g38
(lp2813
VResearch
p2814
atp2815
Rp2816
(dp2817
g48
VNNP
p2818
sbatp2819
Rp2820
(dp2821
g48
VNP
p2822
sbag36
(g37
g38
(lp2823
g36
(g37
g38
(lp2824
Von
p2825
atp2826
Rp2827
(dp2828
g48
VIN
p2829
sbag36
(g37
g38
(lp2830
g36
(g37
g38
(lp2831
Vgrids
p2832
atp2833
Rp2834
(dp2835
g48
VNNS
p2836
sbatp2837
Rp2838
(dp2839
g48
VNP
p2840
sbatp2841
Rp2842
(dp2843
g48
VPP
p2844
sbatp2845
Rp2846
(dp2847
g48
VNP
p2848
sbag36
(g37
g38
(lp2849
g36
(g37
g38
(lp2850
Vrefers
p2851
atp2852
Rp2853
(dp2854
g48
VVBZ
p2855
sbag36
(g37
g38
(lp2856
g36
(g37
g38
(lp2857
Vto
p2858
atp2859
Rp2860
(dp2861
g48
VTO
p2862
sbag36
(g37
g38
(lp2863
g36
(g37
g38
(lp2864
g36
(g37
g38
(lp2865
Vadvanced
p2866
atp2867
Rp2868
(dp2869
g48
VJJ
p2870
sbag36
(g37
g38
(lp2871
Vcomputing
p2872
atp2873
Rp2874
(dp2875
g48
VVBG
p2876
sbag36
(g37
g38
(lp2877
Vinfrastructures
p2878
atp2879
Rp2880
(dp2881
g48
VNNS
p2882
sbatp2883
Rp2884
(dp2885
g48
VNP
p2886
sbag36
(g37
g38
(lp2887
g55
atp2888
Rp2889
(dp2890
g48
g55
sbag36
(g37
g38
(lp2891
g36
(g37
g38
(lp2892
Vincluding
p2893
atp2894
Rp2895
(dp2896
g48
VVBG
p2897
sbag36
(g37
g38
(lp2898
g36
(g37
g38
(lp2899
g36
(g37
g38
(lp2900
Vgrid
p2901
atp2902
Rp2903
(dp2904
g48
VNN
p2905
sbag36
(g37
g38
(lp2906
Vcomputing
p2907
atp2908
Rp2909
(dp2910
g48
VNN
p2911
sbatp2912
Rp2913
(dp2914
g48
VNP
p2915
sbag36
(g37
g38
(lp2916
g55
atp2917
Rp2918
(dp2919
g48
g55
sbag36
(g37
g38
(lp2920
g36
(g37
g38
(lp2921
Vcloud
p2922
atp2923
Rp2924
(dp2925
g48
VNN
p2926
sbag36
(g37
g38
(lp2927
Vcomputing
p2928
atp2929
Rp2930
(dp2931
g48
VNN
p2932
sbatp2933
Rp2934
(dp2935
g48
VNP
p2936
sbag36
(g37
g38
(lp2937
g55
atp2938
Rp2939
(dp2940
g48
g55
sbag36
(g37
g38
(lp2941
g36
(g37
g38
(lp2942
g36
(g37
g38
(lp2943
VInternet
p2944
atp2945
Rp2946
(dp2947
g48
VNN
p2948
sbatp2949
Rp2950
(dp2951
g48
VNP
p2952
sbag36
(g37
g38
(lp2953
g36
(g37
g38
(lp2954
Vof
p2955
atp2956
Rp2957
(dp2958
g48
VIN
p2959
sbag36
(g37
g38
(lp2960
g36
(g37
g38
(lp2961
Vthings
p2962
atp2963
Rp2964
(dp2965
g48
VNNS
p2966
sbatp2967
Rp2968
(dp2969
g48
VNP
p2970
sbatp2971
Rp2972
(dp2973
g48
VPP
p2974
sbatp2975
Rp2976
(dp2977
g48
VNP
p2978
sbag36
(g37
g38
(lp2979
g55
atp2980
Rp2981
(dp2982
g48
g55
sbag36
(g37
g38
(lp2983
Vand
p2984
atp2985
Rp2986
(dp2987
g48
VCC
p2988
sbag36
(g37
g38
(lp2989
g36
(g37
g38
(lp2990
Vcyber-physical
p2991
atp2992
Rp2993
(dp2994
g48
VJJ
p2995
sbag36
(g37
g38
(lp2996
Vsystem
p2997
atp2998
Rp2999
(dp3000
g48
VNN
p3001
sbatp3002
Rp3003
(dp3004
g48
VNP
p3005
sbatp3006
Rp3007
(dp3008
g48
VNP
p3009
sbatp3010
Rp3011
(dp3012
g48
VPP
p3013
sbatp3014
Rp3015
(dp3016
g48
VNP
p3017
sbatp3018
Rp3019
(dp3020
g48
VPP
p3021
sbatp3022
Rp3023
(dp3024
g48
VVP
p3025
sbag36
(g37
g38
(lp3026
g224
atp3027
Rp3028
(dp3029
g48
g224
sbatp3030
Rp3031
(dp3032
g48
g199
sbatp3033
Rp3034
(dp3035
g48
VROOT
p3036
sbasbasg612
I3
sg29
I3
sg32
I0
sba(icmyPackage
Parag
p3037
(dp3038
g14
I1
sg25
(lp3039
(icmyPackage
Sent
p3040
(dp3041
g14
I1
sg29
I4
sg30
S'Many new challenges and technologies emerge in recent years, especially the big data generated by various devices.'
p3042
sg32
I0
sg33
I15
sg34
(lp3043
g36
(g37
g38
(lp3044
g36
(g37
g38
(lp3045
g36
(g37
g38
(lp3046
g36
(g37
g38
(lp3047
g36
(g37
g38
(lp3048
g36
(g37
g38
(lp3049
VMany
p3050
atp3051
Rp3052
(dp3053
g48
VJJ
p3054
sbag36
(g37
g38
(lp3055
Vnew
p3056
atp3057
Rp3058
(dp3059
g48
VJJ
p3060
sbag36
(g37
g38
(lp3061
Vchallenges
p3062
atp3063
Rp3064
(dp3065
g48
VNNS
p3066
sbatp3067
Rp3068
(dp3069
g48
VNP
p3070
sbag36
(g37
g38
(lp3071
Vand
p3072
atp3073
Rp3074
(dp3075
g48
VCC
p3076
sbag36
(g37
g38
(lp3077
g36
(g37
g38
(lp3078
Vtechnologies
p3079
atp3080
Rp3081
(dp3082
g48
VNNS
p3083
sbatp3084
Rp3085
(dp3086
g48
VNP
p3087
sbatp3088
Rp3089
(dp3090
g48
VNP
p3091
sbag36
(g37
g38
(lp3092
g36
(g37
g38
(lp3093
Vemerge
p3094
atp3095
Rp3096
(dp3097
g48
VVBP
p3098
sbag36
(g37
g38
(lp3099
g36
(g37
g38
(lp3100
Vin
p3101
atp3102
Rp3103
(dp3104
g48
VIN
p3105
sbag36
(g37
g38
(lp3106
g36
(g37
g38
(lp3107
Vrecent
p3108
atp3109
Rp3110
(dp3111
g48
VJJ
p3112
sbag36
(g37
g38
(lp3113
Vyears
p3114
atp3115
Rp3116
(dp3117
g48
VNNS
p3118
sbatp3119
Rp3120
(dp3121
g48
VNP
p3122
sbatp3123
Rp3124
(dp3125
g48
VPP
p3126
sbatp3127
Rp3128
(dp3129
g48
VVP
p3130
sbatp3131
Rp3132
(dp3133
g48
g199
sbag36
(g37
g38
(lp3134
g55
atp3135
Rp3136
(dp3137
g48
g55
sbag36
(g37
g38
(lp3138
g36
(g37
g38
(lp3139
Vespecially
p3140
atp3141
Rp3142
(dp3143
g48
VRB
p3144
sbag36
(g37
g38
(lp3145
Vthe
p3146
atp3147
Rp3148
(dp3149
g48
VDT
p3150
sbag36
(g37
g38
(lp3151
Vbig
p3152
atp3153
Rp3154
(dp3155
g48
VJJ
p3156
sbag36
(g37
g38
(lp3157
Vdata
p3158
atp3159
Rp3160
(dp3161
g48
VNNS
p3162
sbatp3163
Rp3164
(dp3165
g48
VNP
p3166
sbag36
(g37
g38
(lp3167
g36
(g37
g38
(lp3168
Vgenerated
p3169
atp3170
Rp3171
(dp3172
g48
VVBD
p3173
sbag36
(g37
g38
(lp3174
g36
(g37
g38
(lp3175
Vby
p3176
atp3177
Rp3178
(dp3179
g48
VIN
p3180
sbag36
(g37
g38
(lp3181
g36
(g37
g38
(lp3182
Vvarious
p3183
atp3184
Rp3185
(dp3186
g48
VJJ
p3187
sbag36
(g37
g38
(lp3188
Vdevices
p3189
atp3190
Rp3191
(dp3192
g48
VNNS
p3193
sbatp3194
Rp3195
(dp3196
g48
VNP
p3197
sbatp3198
Rp3199
(dp3200
g48
VPP
p3201
sbatp3202
Rp3203
(dp3204
g48
VVP
p3205
sbag36
(g37
g38
(lp3206
g224
atp3207
Rp3208
(dp3209
g48
g224
sbatp3210
Rp3211
(dp3212
g48
g199
sbatp3213
Rp3214
(dp3215
g48
VROOT
p3216
sbasba(icmyPackage
Sent
p3217
(dp3218
g14
I1
sg29
I4
sg30
S'Mapping big data into knowledge space is a challenge.'
p3219
sg32
I0
sg33
I16
sg34
(lp3220
g36
(g37
g38
(lp3221
g36
(g37
g38
(lp3222
g36
(g37
g38
(lp3223
g36
(g37
g38
(lp3224
g36
(g37
g38
(lp3225
VMapping
p3226
atp3227
Rp3228
(dp3229
g48
VVBG
p3230
sbag36
(g37
g38
(lp3231
g36
(g37
g38
(lp3232
Vbig
p3233
atp3234
Rp3235
(dp3236
g48
VJJ
p3237
sbag36
(g37
g38
(lp3238
Vdata
p3239
atp3240
Rp3241
(dp3242
g48
VNNS
p3243
sbatp3244
Rp3245
(dp3246
g48
VNP
p3247
sbag36
(g37
g38
(lp3248
g36
(g37
g38
(lp3249
Vinto
p3250
atp3251
Rp3252
(dp3253
g48
VIN
p3254
sbag36
(g37
g38
(lp3255
g36
(g37
g38
(lp3256
Vknowledge
p3257
atp3258
Rp3259
(dp3260
g48
VNN
p3261
sbag36
(g37
g38
(lp3262
Vspace
p3263
atp3264
Rp3265
(dp3266
g48
VNN
p3267
sbatp3268
Rp3269
(dp3270
g48
VNP
p3271
sbatp3272
Rp3273
(dp3274
g48
VPP
p3275
sbatp3276
Rp3277
(dp3278
g48
VVP
p3279
sbatp3280
Rp3281
(dp3282
g48
g199
sbag36
(g37
g38
(lp3283
g36
(g37
g38
(lp3284
Vis
p3285
atp3286
Rp3287
(dp3288
g48
VVBZ
p3289
sbag36
(g37
g38
(lp3290
g36
(g37
g38
(lp3291
g643
atp3292
Rp3293
(dp3294
g48
VDT
p3295
sbag36
(g37
g38
(lp3296
Vchallenge
p3297
atp3298
Rp3299
(dp3300
g48
VNN
p3301
sbatp3302
Rp3303
(dp3304
g48
VNP
p3305
sbatp3306
Rp3307
(dp3308
g48
VVP
p3309
sbag36
(g37
g38
(lp3310
g224
atp3311
Rp3312
(dp3313
g48
g224
sbatp3314
Rp3315
(dp3316
g48
g199
sbatp3317
Rp3318
(dp3319
g48
VROOT
p3320
sbasba(icmyPackage
Sent
p3321
(dp3322
g14
I1
sg29
I4
sg30
S'It is a challenge to develop an infrastructure to support not only big data management and analysis but also knowledge discovery, sharing and management.'
p3323
sg32
I0
sg33
I17
sg34
(lp3324
g36
(g37
g38
(lp3325
g36
(g37
g38
(lp3326
g36
(g37
g38
(lp3327
g36
(g37
g38
(lp3328
VIt
p3329
atp3330
Rp3331
(dp3332
g48
VPRP
p3333
sbatp3334
Rp3335
(dp3336
g48
VNP
p3337
sbag36
(g37
g38
(lp3338
g36
(g37
g38
(lp3339
Vis
p3340
atp3341
Rp3342
(dp3343
g48
VVBZ
p3344
sbag36
(g37
g38
(lp3345
g36
(g37
g38
(lp3346
g643
atp3347
Rp3348
(dp3349
g48
VDT
p3350
sbag36
(g37
g38
(lp3351
Vchallenge
p3352
atp3353
Rp3354
(dp3355
g48
VNN
p3356
sbag36
(g37
g38
(lp3357
g36
(g37
g38
(lp3358
g36
(g37
g38
(lp3359
Vto
p3360
atp3361
Rp3362
(dp3363
g48
VTO
p3364
sbag36
(g37
g38
(lp3365
g36
(g37
g38
(lp3366
Vdevelop
p3367
atp3368
Rp3369
(dp3370
g48
VVB
p3371
sbag36
(g37
g38
(lp3372
g36
(g37
g38
(lp3373
Van
p3374
atp3375
Rp3376
(dp3377
g48
VDT
p3378
sbag36
(g37
g38
(lp3379
Vinfrastructure
p3380
atp3381
Rp3382
(dp3383
g48
VNN
p3384
sbag36
(g37
g38
(lp3385
g36
(g37
g38
(lp3386
g36
(g37
g38
(lp3387
Vto
p3388
atp3389
Rp3390
(dp3391
g48
VTO
p3392
sbag36
(g37
g38
(lp3393
g36
(g37
g38
(lp3394
Vsupport
p3395
atp3396
Rp3397
(dp3398
g48
VVB
p3399
sbag36
(g37
g38
(lp3400
g36
(g37
g38
(lp3401
g36
(g37
g38
(lp3402
g36
(g37
g38
(lp3403
Vnot
p3404
atp3405
Rp3406
(dp3407
g48
VRB
p3408
sbag36
(g37
g38
(lp3409
Vonly
p3410
atp3411
Rp3412
(dp3413
g48
VRB
p3414
sbag36
(g37
g38
(lp3415
Vbig
p3416
atp3417
Rp3418
(dp3419
g48
VJJ
p3420
sbag36
(g37
g38
(lp3421
Vdata
p3422
atp3423
Rp3424
(dp3425
g48
VNN
p3426
sbag36
(g37
g38
(lp3427
Vmanagement
p3428
atp3429
Rp3430
(dp3431
g48
VNN
p3432
sbatp3433
Rp3434
(dp3435
g48
VNP
p3436
sbag36
(g37
g38
(lp3437
Vand
p3438
atp3439
Rp3440
(dp3441
g48
VCC
p3442
sbag36
(g37
g38
(lp3443
g36
(g37
g38
(lp3444
Vanalysis
p3445
atp3446
Rp3447
(dp3448
g48
VNN
p3449
sbatp3450
Rp3451
(dp3452
g48
VNP
p3453
sbatp3454
Rp3455
(dp3456
g48
VNP
p3457
sbag36
(g37
g38
(lp3458
g36
(g37
g38
(lp3459
Vbut
p3460
atp3461
Rp3462
(dp3463
g48
VCC
p3464
sbag36
(g37
g38
(lp3465
Valso
p3466
atp3467
Rp3468
(dp3469
g48
VRB
p3470
sbatp3471
Rp3472
(dp3473
g48
VCONJP
p3474
sbag36
(g37
g38
(lp3475
g36
(g37
g38
(lp3476
g36
(g37
g38
(lp3477
Vknowledge
p3478
atp3479
Rp3480
(dp3481
g48
VNN
p3482
sbag36
(g37
g38
(lp3483
Vdiscovery
p3484
atp3485
Rp3486
(dp3487
g48
VNN
p3488
sbatp3489
Rp3490
(dp3491
g48
VNP
p3492
sbag36
(g37
g38
(lp3493
g55
atp3494
Rp3495
(dp3496
g48
g55
sbag36
(g37
g38
(lp3497
g36
(g37
g38
(lp3498
Vsharing
p3499
atp3500
Rp3501
(dp3502
g48
VNN
p3503
sbatp3504
Rp3505
(dp3506
g48
VNP
p3507
sbag36
(g37
g38
(lp3508
Vand
p3509
atp3510
Rp3511
(dp3512
g48
VCC
p3513
sbag36
(g37
g38
(lp3514
g36
(g37
g38
(lp3515
Vmanagement
p3516
atp3517
Rp3518
(dp3519
g48
VNN
p3520
sbatp3521
Rp3522
(dp3523
g48
VNP
p3524
sbatp3525
Rp3526
(dp3527
g48
VNP
p3528
sbatp3529
Rp3530
(dp3531
g48
VNP
p3532
sbatp3533
Rp3534
(dp3535
g48
VVP
p3536
sbatp3537
Rp3538
(dp3539
g48
VVP
p3540
sbatp3541
Rp3542
(dp3543
g48
g199
sbatp3544
Rp3545
(dp3546
g48
VNP
p3547
sbatp3548
Rp3549
(dp3550
g48
VVP
p3551
sbatp3552
Rp3553
(dp3554
g48
VVP
p3555
sbatp3556
Rp3557
(dp3558
g48
g199
sbatp3559
Rp3560
(dp3561
g48
VNP
p3562
sbatp3563
Rp3564
(dp3565
g48
VVP
p3566
sbag36
(g37
g38
(lp3567
g224
atp3568
Rp3569
(dp3570
g48
g224
sbatp3571
Rp3572
(dp3573
g48
g199
sbatp3574
Rp3575
(dp3576
g48
VROOT
p3577
sbasbasg612
I3
sg29
I4
sg32
I0
sba(icmyPackage
Parag
p3578
(dp3579
g14
I1
sg25
(lp3580
(icmyPackage
Sent
p3581
(dp3582
g14
I1
sg29
I5
sg30
S'The International Conference on Semantics, Knowledge and Grids is a cross-area international forum on semantic computing, knowledge networking, and advanced computing architectures (including grid, cloud, Web X.0, CPS, Internet of things, social network and big data.).'
p3583
sg32
I0
sg33
I18
sg34
(lp3584
g36
(g37
g38
(lp3585
g36
(g37
g38
(lp3586
g36
(g37
g38
(lp3587
g36
(g37
g38
(lp3588
g36
(g37
g38
(lp3589
VThe
p3590
atp3591
Rp3592
(dp3593
g48
VDT
p3594
sbag36
(g37
g38
(lp3595
VInternational
p3596
atp3597
Rp3598
(dp3599
g48
VNNP
p3600
sbag36
(g37
g38
(lp3601
VConference
p3602
atp3603
Rp3604
(dp3605
g48
VNNP
p3606
sbatp3607
Rp3608
(dp3609
g48
VNP
p3610
sbag36
(g37
g38
(lp3611
g36
(g37
g38
(lp3612
Von
p3613
atp3614
Rp3615
(dp3616
g48
VIN
p3617
sbag36
(g37
g38
(lp3618
g36
(g37
g38
(lp3619
VSemantics
p3620
atp3621
Rp3622
(dp3623
g48
VNNP
p3624
sbag36
(g37
g38
(lp3625
g55
atp3626
Rp3627
(dp3628
g48
g55
sbag36
(g37
g38
(lp3629
VKnowledge
p3630
atp3631
Rp3632
(dp3633
g48
VNNP
p3634
sbag36
(g37
g38
(lp3635
Vand
p3636
atp3637
Rp3638
(dp3639
g48
VCC
p3640
sbag36
(g37
g38
(lp3641
VGrids
p3642
atp3643
Rp3644
(dp3645
g48
VNNP
p3646
sbatp3647
Rp3648
(dp3649
g48
VNP
p3650
sbatp3651
Rp3652
(dp3653
g48
VPP
p3654
sbatp3655
Rp3656
(dp3657
g48
VNP
p3658
sbag36
(g37
g38
(lp3659
g36
(g37
g38
(lp3660
Vis
p3661
atp3662
Rp3663
(dp3664
g48
VVBZ
p3665
sbag36
(g37
g38
(lp3666
g36
(g37
g38
(lp3667
g36
(g37
g38
(lp3668
g36
(g37
g38
(lp3669
g643
atp3670
Rp3671
(dp3672
g48
VDT
p3673
sbag36
(g37
g38
(lp3674
Vcross-area
p3675
atp3676
Rp3677
(dp3678
g48
VJJ
p3679
sbag36
(g37
g38
(lp3680
Vinternational
p3681
atp3682
Rp3683
(dp3684
g48
VJJ
p3685
sbag36
(g37
g38
(lp3686
Vforum
p3687
atp3688
Rp3689
(dp3690
g48
VNN
p3691
sbatp3692
Rp3693
(dp3694
g48
VNP
p3695
sbag36
(g37
g38
(lp3696
g36
(g37
g38
(lp3697
Von
p3698
atp3699
Rp3700
(dp3701
g48
VIN
p3702
sbag36
(g37
g38
(lp3703
g36
(g37
g38
(lp3704
Vsemantic
p3705
atp3706
Rp3707
(dp3708
g48
VJJ
p3709
sbag36
(g37
g38
(lp3710
Vcomputing
p3711
atp3712
Rp3713
(dp3714
g48
VNN
p3715
sbatp3716
Rp3717
(dp3718
g48
VNP
p3719
sbatp3720
Rp3721
(dp3722
g48
VPP
p3723
sbatp3724
Rp3725
(dp3726
g48
VNP
p3727
sbag36
(g37
g38
(lp3728
g55
atp3729
Rp3730
(dp3731
g48
g55
sbag36
(g37
g38
(lp3732
g36
(g37
g38
(lp3733
Vknowledge
p3734
atp3735
Rp3736
(dp3737
g48
VNN
p3738
sbag36
(g37
g38
(lp3739
Vnetworking
p3740
atp3741
Rp3742
(dp3743
g48
VNN
p3744
sbatp3745
Rp3746
(dp3747
g48
VNP
p3748
sbag36
(g37
g38
(lp3749
g55
atp3750
Rp3751
(dp3752
g48
g55
sbag36
(g37
g38
(lp3753
Vand
p3754
atp3755
Rp3756
(dp3757
g48
VCC
p3758
sbag36
(g37
g38
(lp3759
g36
(g37
g38
(lp3760
g36
(g37
g38
(lp3761
Vadvanced
p3762
atp3763
Rp3764
(dp3765
g48
VJJ
p3766
sbag36
(g37
g38
(lp3767
Vcomputing
p3768
atp3769
Rp3770
(dp3771
g48
VVBG
p3772
sbag36
(g37
g38
(lp3773
Varchitectures
p3774
atp3775
Rp3776
(dp3777
g48
VNNS
p3778
sbatp3779
Rp3780
(dp3781
g48
VNP
p3782
sbag36
(g37
g38
(lp3783
g36
(g37
g38
(lp3784
V-LRB-
p3785
atp3786
Rp3787
(dp3788
g48
V-LRB-
p3789
sbag36
(g37
g38
(lp3790
g36
(g37
g38
(lp3791
Vincluding
p3792
atp3793
Rp3794
(dp3795
g48
VVBG
p3796
sbag36
(g37
g38
(lp3797
g36
(g37
g38
(lp3798
g36
(g37
g38
(lp3799
Vgrid
p3800
atp3801
Rp3802
(dp3803
g48
VNN
p3804
sbatp3805
Rp3806
(dp3807
g48
VNP
p3808
sbag36
(g37
g38
(lp3809
g55
atp3810
Rp3811
(dp3812
g48
g55
sbag36
(g37
g38
(lp3813
g36
(g37
g38
(lp3814
Vcloud
p3815
atp3816
Rp3817
(dp3818
g48
VNN
p3819
sbatp3820
Rp3821
(dp3822
g48
VNP
p3823
sbag36
(g37
g38
(lp3824
g55
atp3825
Rp3826
(dp3827
g48
g55
sbag36
(g37
g38
(lp3828
g36
(g37
g38
(lp3829
VWeb
p3830
atp3831
Rp3832
(dp3833
g48
VNNP
p3834
sbag36
(g37
g38
(lp3835
VX.
p3836
atp3837
Rp3838
(dp3839
g48
VNNP
p3840
sbag36
(g37
g38
(lp3841
V0
p3842
atp3843
Rp3844
(dp3845
g48
VNNP
p3846
sbatp3847
Rp3848
(dp3849
g48
VNP
p3850
sbag36
(g37
g38
(lp3851
g55
atp3852
Rp3853
(dp3854
g48
g55
sbag36
(g37
g38
(lp3855
g36
(g37
g38
(lp3856
VCPS
p3857
atp3858
Rp3859
(dp3860
g48
VNNP
p3861
sbatp3862
Rp3863
(dp3864
g48
VNP
p3865
sbag36
(g37
g38
(lp3866
g55
atp3867
Rp3868
(dp3869
g48
g55
sbag36
(g37
g38
(lp3870
g36
(g37
g38
(lp3871
g36
(g37
g38
(lp3872
VInternet
p3873
atp3874
Rp3875
(dp3876
g48
VNN
p3877
sbatp3878
Rp3879
(dp3880
g48
VNP
p3881
sbag36
(g37
g38
(lp3882
g36
(g37
g38
(lp3883
Vof
p3884
atp3885
Rp3886
(dp3887
g48
VIN
p3888
sbag36
(g37
g38
(lp3889
g36
(g37
g38
(lp3890
g36
(g37
g38
(lp3891
Vthings
p3892
atp3893
Rp3894
(dp3895
g48
VNNS
p3896
sbatp3897
Rp3898
(dp3899
g48
VNP
p3900
sbag36
(g37
g38
(lp3901
g55
atp3902
Rp3903
(dp3904
g48
g55
sbag36
(g37
g38
(lp3905
g36
(g37
g38
(lp3906
Vsocial
p3907
atp3908
Rp3909
(dp3910
g48
VJJ
p3911
sbag36
(g37
g38
(lp3912
Vnetwork
p3913
atp3914
Rp3915
(dp3916
g48
VNN
p3917
sbatp3918
Rp3919
(dp3920
g48
VNP
p3921
sbag36
(g37
g38
(lp3922
Vand
p3923
atp3924
Rp3925
(dp3926
g48
VCC
p3927
sbag36
(g37
g38
(lp3928
g36
(g37
g38
(lp3929
Vbig
p3930
atp3931
Rp3932
(dp3933
g48
VJJ
p3934
sbag36
(g37
g38
(lp3935
Vdata
p3936
atp3937
Rp3938
(dp3939
g48
VNNS
p3940
sbatp3941
Rp3942
(dp3943
g48
VNP
p3944
sbatp3945
Rp3946
(dp3947
g48
VNP
p3948
sbatp3949
Rp3950
(dp3951
g48
VPP
p3952
sbatp3953
Rp3954
(dp3955
g48
VNP
p3956
sbatp3957
Rp3958
(dp3959
g48
VNP
p3960
sbag36
(g37
g38
(lp3961
g224
atp3962
Rp3963
(dp3964
g48
g224
sbatp3965
Rp3966
(dp3967
g48
VPP
p3968
sbag36
(g37
g38
(lp3969
V-RRB-
p3970
atp3971
Rp3972
(dp3973
g48
V-RRB-
p3974
sbatp3975
Rp3976
(dp3977
g48
VPRN
p3978
sbatp3979
Rp3980
(dp3981
g48
VNP
p3982
sbatp3983
Rp3984
(dp3985
g48
VNP
p3986
sbatp3987
Rp3988
(dp3989
g48
VVP
p3990
sbag36
(g37
g38
(lp3991
g224
atp3992
Rp3993
(dp3994
g48
g224
sbatp3995
Rp3996
(dp3997
g48
g199
sbatp3998
Rp3999
(dp4000
g48
VROOT
p4001
sbasba(icmyPackage
Sent
p4002
(dp4003
g14
I1
sg29
I5
sg30
S'Its mission is to promote cross-area research and accelerate the development of relevant areas.'
p4004
sg32
I0
sg33
I19
sg34
(lp4005
g36
(g37
g38
(lp4006
g36
(g37
g38
(lp4007
g36
(g37
g38
(lp4008
g36
(g37
g38
(lp4009
VIts
p4010
atp4011
Rp4012
(dp4013
g48
VPRP$
p4014
sbag36
(g37
g38
(lp4015
Vmission
p4016
atp4017
Rp4018
(dp4019
g48
VNN
p4020
sbatp4021
Rp4022
(dp4023
g48
VNP
p4024
sbag36
(g37
g38
(lp4025
g36
(g37
g38
(lp4026
Vis
p4027
atp4028
Rp4029
(dp4030
g48
VVBZ
p4031
sbag36
(g37
g38
(lp4032
g36
(g37
g38
(lp4033
g36
(g37
g38
(lp4034
Vto
p4035
atp4036
Rp4037
(dp4038
g48
VTO
p4039
sbag36
(g37
g38
(lp4040
g36
(g37
g38
(lp4041
g36
(g37
g38
(lp4042
Vpromote
p4043
atp4044
Rp4045
(dp4046
g48
VVB
p4047
sbag36
(g37
g38
(lp4048
g36
(g37
g38
(lp4049
Vcross-area
p4050
atp4051
Rp4052
(dp4053
g48
VJJ
p4054
sbag36
(g37
g38
(lp4055
Vresearch
p4056
atp4057
Rp4058
(dp4059
g48
VNN
p4060
sbatp4061
Rp4062
(dp4063
g48
VNP
p4064
sbatp4065
Rp4066
(dp4067
g48
VVP
p4068
sbag36
(g37
g38
(lp4069
Vand
p4070
atp4071
Rp4072
(dp4073
g48
VCC
p4074
sbag36
(g37
g38
(lp4075
g36
(g37
g38
(lp4076
Vaccelerate
p4077
atp4078
Rp4079
(dp4080
g48
VVB
p4081
sbag36
(g37
g38
(lp4082
g36
(g37
g38
(lp4083
g36
(g37
g38
(lp4084
Vthe
p4085
atp4086
Rp4087
(dp4088
g48
VDT
p4089
sbag36
(g37
g38
(lp4090
Vdevelopment
p4091
atp4092
Rp4093
(dp4094
g48
VNN
p4095
sbatp4096
Rp4097
(dp4098
g48
VNP
p4099
sbag36
(g37
g38
(lp4100
g36
(g37
g38
(lp4101
Vof
p4102
atp4103
Rp4104
(dp4105
g48
VIN
p4106
sbag36
(g37
g38
(lp4107
g36
(g37
g38
(lp4108
Vrelevant
p4109
atp4110
Rp4111
(dp4112
g48
VJJ
p4113
sbag36
(g37
g38
(lp4114
Vareas
p4115
atp4116
Rp4117
(dp4118
g48
VNNS
p4119
sbatp4120
Rp4121
(dp4122
g48
VNP
p4123
sbatp4124
Rp4125
(dp4126
g48
VPP
p4127
sbatp4128
Rp4129
(dp4130
g48
VNP
p4131
sbatp4132
Rp4133
(dp4134
g48
VVP
p4135
sbatp4136
Rp4137
(dp4138
g48
VVP
p4139
sbatp4140
Rp4141
(dp4142
g48
VVP
p4143
sbatp4144
Rp4145
(dp4146
g48
g199
sbatp4147
Rp4148
(dp4149
g48
VVP
p4150
sbag36
(g37
g38
(lp4151
g224
atp4152
Rp4153
(dp4154
g48
g224
sbatp4155
Rp4156
(dp4157
g48
g199
sbatp4158
Rp4159
(dp4160
g48
VROOT
p4161
sbasba(icmyPackage
Sent
p4162
(dp4163
g14
I1
sg29
I5
sg30
S"SKG has built its reputation through 10\xe2\x80\x89years' professional organization."
p4164
sg32
I0
sg33
I20
sg34
(lp4165
g36
(g37
g38
(lp4166
g36
(g37
g38
(lp4167
g36
(g37
g38
(lp4168
g36
(g37
g38
(lp4169
VSKG
p4170
atp4171
Rp4172
(dp4173
g48
VNNP
p4174
sbatp4175
Rp4176
(dp4177
g48
VNP
p4178
sbag36
(g37
g38
(lp4179
g36
(g37
g38
(lp4180
Vhas
p4181
atp4182
Rp4183
(dp4184
g48
VVBZ
p4185
sbag36
(g37
g38
(lp4186
g36
(g37
g38
(lp4187
Vbuilt
p4188
atp4189
Rp4190
(dp4191
g48
VVBN
p4192
sbag36
(g37
g38
(lp4193
g36
(g37
g38
(lp4194
Vits
p4195
atp4196
Rp4197
(dp4198
g48
VPRP$
p4199
sbag36
(g37
g38
(lp4200
Vreputation
p4201
atp4202
Rp4203
(dp4204
g48
VNN
p4205
sbatp4206
Rp4207
(dp4208
g48
VNP
p4209
sbag36
(g37
g38
(lp4210
g36
(g37
g38
(lp4211
Vthrough
p4212
atp4213
Rp4214
(dp4215
g48
VIN
p4216
sbag36
(g37
g38
(lp4217
g36
(g37
g38
(lp4218
g36
(g37
g38
(lp4219
V10
p4220
atp4221
Rp4222
(dp4223
g48
VCD
p4224
sbag36
(g37
g38
(lp4225
Vyears
p4226
atp4227
Rp4228
(dp4229
g48
VNNS
p4230
sbag36
(g37
g38
(lp4231
V'
p4232
atp4233
Rp4234
(dp4235
g48
VPOS
p4236
sbatp4237
Rp4238
(dp4239
g48
VNP
p4240
sbag36
(g37
g38
(lp4241
Vprofessional
p4242
atp4243
Rp4244
(dp4245
g48
VJJ
p4246
sbag36
(g37
g38
(lp4247
Vorganization
p4248
atp4249
Rp4250
(dp4251
g48
VNN
p4252
sbatp4253
Rp4254
(dp4255
g48
VNP
p4256
sbatp4257
Rp4258
(dp4259
g48
VPP
p4260
sbatp4261
Rp4262
(dp4263
g48
VVP
p4264
sbatp4265
Rp4266
(dp4267
g48
VVP
p4268
sbag36
(g37
g38
(lp4269
g224
atp4270
Rp4271
(dp4272
g48
g224
sbatp4273
Rp4274
(dp4275
g48
g199
sbatp4276
Rp4277
(dp4278
g48
VROOT
p4279
sbasba(icmyPackage
Sent
p4280
(dp4281
g14
I1
sg29
I5
sg30
S'The conference invites well-known experts in diverse areas to give keynotes every year.'
p4282
sg32
I0
sg33
I21
sg34
(lp4283
g36
(g37
g38
(lp4284
g36
(g37
g38
(lp4285
g36
(g37
g38
(lp4286
g36
(g37
g38
(lp4287
VThe
p4288
atp4289
Rp4290
(dp4291
g48
VDT
p4292
sbag36
(g37
g38
(lp4293
Vconference
p4294
atp4295
Rp4296
(dp4297
g48
VNN
p4298
sbatp4299
Rp4300
(dp4301
g48
VNP
p4302
sbag36
(g37
g38
(lp4303
g36
(g37
g38
(lp4304
Vinvites
p4305
atp4306
Rp4307
(dp4308
g48
VVBZ
p4309
sbag36
(g37
g38
(lp4310
g36
(g37
g38
(lp4311
Vwell-known
p4312
atp4313
Rp4314
(dp4315
g48
VJJ
p4316
sbag36
(g37
g38
(lp4317
Vexperts
p4318
atp4319
Rp4320
(dp4321
g48
VNNS
p4322
sbatp4323
Rp4324
(dp4325
g48
VNP
p4326
sbag36
(g37
g38
(lp4327
g36
(g37
g38
(lp4328
Vin
p4329
atp4330
Rp4331
(dp4332
g48
VIN
p4333
sbag36
(g37
g38
(lp4334
g36
(g37
g38
(lp4335
Vdiverse
p4336
atp4337
Rp4338
(dp4339
g48
VJJ
p4340
sbag36
(g37
g38
(lp4341
Vareas
p4342
atp4343
Rp4344
(dp4345
g48
VNNS
p4346
sbatp4347
Rp4348
(dp4349
g48
VNP
p4350
sbatp4351
Rp4352
(dp4353
g48
VPP
p4354
sbag36
(g37
g38
(lp4355
g36
(g37
g38
(lp4356
g36
(g37
g38
(lp4357
Vto
p4358
atp4359
Rp4360
(dp4361
g48
VTO
p4362
sbag36
(g37
g38
(lp4363
g36
(g37
g38
(lp4364
Vgive
p4365
atp4366
Rp4367
(dp4368
g48
VVB
p4369
sbag36
(g37
g38
(lp4370
g36
(g37
g38
(lp4371
Vkeynotes
p4372
atp4373
Rp4374
(dp4375
g48
VNNS
p4376
sbatp4377
Rp4378
(dp4379
g48
VNP
p4380
sbag36
(g37
g38
(lp4381
g36
(g37
g38
(lp4382
Vevery
p4383
atp4384
Rp4385
(dp4386
g48
VDT
p4387
sbag36
(g37
g38
(lp4388
Vyear
p4389
atp4390
Rp4391
(dp4392
g48
VNN
p4393
sbatp4394
Rp4395
(dp4396
g48
VNP
p4397
sbatp4398
Rp4399
(dp4400
g48
VVP
p4401
sbatp4402
Rp4403
(dp4404
g48
VVP
p4405
sbatp4406
Rp4407
(dp4408
g48
g199
sbatp4409
Rp4410
(dp4411
g48
VVP
p4412
sbag36
(g37
g38
(lp4413
g224
atp4414
Rp4415
(dp4416
g48
g224
sbatp4417
Rp4418
(dp4419
g48
g199
sbatp4420
Rp4421
(dp4422
g48
VROOT
p4423
sbasba(icmyPackage
Sent
p4424
(dp4425
g14
I1
sg29
I5
sg30
S'Submissions come from all over the world.'
p4426
sg32
I0
sg33
I22
sg34
(lp4427
g36
(g37
g38
(lp4428
g36
(g37
g38
(lp4429
g36
(g37
g38
(lp4430
g36
(g37
g38
(lp4431
VSubmissions
p4432
atp4433
Rp4434
(dp4435
g48
VNNS
p4436
sbatp4437
Rp4438
(dp4439
g48
VNP
p4440
sbag36
(g37
g38
(lp4441
g36
(g37
g38
(lp4442
Vcome
p4443
atp4444
Rp4445
(dp4446
g48
VVBP
p4447
sbag36
(g37
g38
(lp4448
g36
(g37
g38
(lp4449
Vfrom
p4450
atp4451
Rp4452
(dp4453
g48
VIN
p4454
sbag36
(g37
g38
(lp4455
g36
(g37
g38
(lp4456
g36
(g37
g38
(lp4457
Vall
p4458
atp4459
Rp4460
(dp4461
g48
VDT
p4462
sbatp4463
Rp4464
(dp4465
g48
VNP
p4466
sbag36
(g37
g38
(lp4467
g36
(g37
g38
(lp4468
Vover
p4469
atp4470
Rp4471
(dp4472
g48
VIN
p4473
sbag36
(g37
g38
(lp4474
g36
(g37
g38
(lp4475
Vthe
p4476
atp4477
Rp4478
(dp4479
g48
VDT
p4480
sbag36
(g37
g38
(lp4481
Vworld
p4482
atp4483
Rp4484
(dp4485
g48
VNN
p4486
sbatp4487
Rp4488
(dp4489
g48
VNP
p4490
sbatp4491
Rp4492
(dp4493
g48
VPP
p4494
sbatp4495
Rp4496
(dp4497
g48
VNP
p4498
sbatp4499
Rp4500
(dp4501
g48
VPP
p4502
sbatp4503
Rp4504
(dp4505
g48
VVP
p4506
sbag36
(g37
g38
(lp4507
g224
atp4508
Rp4509
(dp4510
g48
g224
sbatp4511
Rp4512
(dp4513
g48
g199
sbatp4514
Rp4515
(dp4516
g48
VROOT
p4517
sbasba(icmyPackage
Sent
p4518
(dp4519
g14
I1
sg29
I5
sg30
S'The conference proceedings is published by IEEE.'
p4520
sg32
I0
sg33
I23
sg34
(lp4521
g36
(g37
g38
(lp4522
g36
(g37
g38
(lp4523
g36
(g37
g38
(lp4524
g36
(g37
g38
(lp4525
VThe
p4526
atp4527
Rp4528
(dp4529
g48
VDT
p4530
sbag36
(g37
g38
(lp4531
Vconference
p4532
atp4533
Rp4534
(dp4535
g48
VNN
p4536
sbag36
(g37
g38
(lp4537
Vproceedings
p4538
atp4539
Rp4540
(dp4541
g48
VNNS
p4542
sbatp4543
Rp4544
(dp4545
g48
VNP
p4546
sbag36
(g37
g38
(lp4547
g36
(g37
g38
(lp4548
Vis
p4549
atp4550
Rp4551
(dp4552
g48
VVBZ
p4553
sbag36
(g37
g38
(lp4554
g36
(g37
g38
(lp4555
Vpublished
p4556
atp4557
Rp4558
(dp4559
g48
VVBN
p4560
sbag36
(g37
g38
(lp4561
g36
(g37
g38
(lp4562
Vby
p4563
atp4564
Rp4565
(dp4566
g48
VIN
p4567
sbag36
(g37
g38
(lp4568
g36
(g37
g38
(lp4569
VIEEE
p4570
atp4571
Rp4572
(dp4573
g48
VNNP
p4574
sbatp4575
Rp4576
(dp4577
g48
VNP
p4578
sbatp4579
Rp4580
(dp4581
g48
VPP
p4582
sbatp4583
Rp4584
(dp4585
g48
VVP
p4586
sbatp4587
Rp4588
(dp4589
g48
VVP
p4590
sbag36
(g37
g38
(lp4591
g224
atp4592
Rp4593
(dp4594
g48
g224
sbatp4595
Rp4596
(dp4597
g48
g199
sbatp4598
Rp4599
(dp4600
g48
VROOT
p4601
sbasbasg612
I6
sg29
I5
sg32
I0
sbasg32
I0
sbasS'sc_num'
p4602
I1
sS'Ctitle'
p4603
S'Introduction'
p4604
sg20
I6
sg21
(lp4605
g23
ag613
ag1481
ag2318
ag3037
ag3578
asba(icmyPackage
Sec
p4606
(dp4607
g14
I2
sg15
(lp4608
(icmyPackage
SubSec
p4609
(dp4610
g14
I2
sg19
Nsg20
I9
sg21
(lp4611
(icmyPackage
Parag
p4612
(dp4613
g14
I2
sg25
(lp4614
(icmyPackage
Sent
p4615
(dp4616
g14
I2
sg29
I6
sg30
S'This special issue consists of eight papers that discuss different aspects of the theme of the conference.'
p4617
sg32
I0
sg33
I24
sg34
(lp4618
g36
(g37
g38
(lp4619
g36
(g37
g38
(lp4620
g36
(g37
g38
(lp4621
g36
(g37
g38
(lp4622
VThis
p4623
atp4624
Rp4625
(dp4626
g48
VDT
p4627
sbag36
(g37
g38
(lp4628
Vspecial
p4629
atp4630
Rp4631
(dp4632
g48
VJJ
p4633
sbag36
(g37
g38
(lp4634
Vissue
p4635
atp4636
Rp4637
(dp4638
g48
VNN
p4639
sbatp4640
Rp4641
(dp4642
g48
VNP
p4643
sbag36
(g37
g38
(lp4644
g36
(g37
g38
(lp4645
Vconsists
p4646
atp4647
Rp4648
(dp4649
g48
VVBZ
p4650
sbag36
(g37
g38
(lp4651
g36
(g37
g38
(lp4652
Vof
p4653
atp4654
Rp4655
(dp4656
g48
VIN
p4657
sbag36
(g37
g38
(lp4658
g36
(g37
g38
(lp4659
g36
(g37
g38
(lp4660
Veight
p4661
atp4662
Rp4663
(dp4664
g48
VCD
p4665
sbag36
(g37
g38
(lp4666
Vpapers
p4667
atp4668
Rp4669
(dp4670
g48
VNNS
p4671
sbatp4672
Rp4673
(dp4674
g48
VNP
p4675
sbag36
(g37
g38
(lp4676
g36
(g37
g38
(lp4677
g36
(g37
g38
(lp4678
Vthat
p4679
atp4680
Rp4681
(dp4682
g48
VWDT
p4683
sbatp4684
Rp4685
(dp4686
g48
VWHNP
p4687
sbag36
(g37
g38
(lp4688
g36
(g37
g38
(lp4689
g36
(g37
g38
(lp4690
Vdiscuss
p4691
atp4692
Rp4693
(dp4694
g48
VVB
p4695
sbag36
(g37
g38
(lp4696
g36
(g37
g38
(lp4697
g36
(g37
g38
(lp4698
Vdifferent
p4699
atp4700
Rp4701
(dp4702
g48
VJJ
p4703
sbag36
(g37
g38
(lp4704
Vaspects
p4705
atp4706
Rp4707
(dp4708
g48
VNNS
p4709
sbatp4710
Rp4711
(dp4712
g48
VNP
p4713
sbag36
(g37
g38
(lp4714
g36
(g37
g38
(lp4715
Vof
p4716
atp4717
Rp4718
(dp4719
g48
VIN
p4720
sbag36
(g37
g38
(lp4721
g36
(g37
g38
(lp4722
g36
(g37
g38
(lp4723
Vthe
p4724
atp4725
Rp4726
(dp4727
g48
VDT
p4728
sbag36
(g37
g38
(lp4729
Vtheme
p4730
atp4731
Rp4732
(dp4733
g48
VNN
p4734
sbatp4735
Rp4736
(dp4737
g48
VNP
p4738
sbag36
(g37
g38
(lp4739
g36
(g37
g38
(lp4740
Vof
p4741
atp4742
Rp4743
(dp4744
g48
VIN
p4745
sbag36
(g37
g38
(lp4746
g36
(g37
g38
(lp4747
Vthe
p4748
atp4749
Rp4750
(dp4751
g48
VDT
p4752
sbag36
(g37
g38
(lp4753
Vconference
p4754
atp4755
Rp4756
(dp4757
g48
VNN
p4758
sbatp4759
Rp4760
(dp4761
g48
VNP
p4762
sbatp4763
Rp4764
(dp4765
g48
VPP
p4766
sbatp4767
Rp4768
(dp4769
g48
VNP
p4770
sbatp4771
Rp4772
(dp4773
g48
VPP
p4774
sbatp4775
Rp4776
(dp4777
g48
VNP
p4778
sbatp4779
Rp4780
(dp4781
g48
VVP
p4782
sbatp4783
Rp4784
(dp4785
g48
g199
sbatp4786
Rp4787
(dp4788
g48
VSBAR
p4789
sbatp4790
Rp4791
(dp4792
g48
VNP
p4793
sbatp4794
Rp4795
(dp4796
g48
VPP
p4797
sbatp4798
Rp4799
(dp4800
g48
VVP
p4801
sbag36
(g37
g38
(lp4802
g224
atp4803
Rp4804
(dp4805
g48
g224
sbatp4806
Rp4807
(dp4808
g48
g199
sbatp4809
Rp4810
(dp4811
g48
VROOT
p4812
sbasbasg612
I1
sg29
I6
sg32
I0
sba(icmyPackage
Parag
p4813
(dp4814
g14
I2
sg25
(lp4815
(icmyPackage
Sent
p4816
(dp4817
g14
I2
sg29
I7
sg30
S'The first paper is at the application level of the theme.'
p4818
sg32
I0
sg33
I25
sg34
(lp4819
g36
(g37
g38
(lp4820
g36
(g37
g38
(lp4821
g36
(g37
g38
(lp4822
g36
(g37
g38
(lp4823
VThe
p4824
atp4825
Rp4826
(dp4827
g48
VDT
p4828
sbag36
(g37
g38
(lp4829
Vfirst
p4830
atp4831
Rp4832
(dp4833
g48
VJJ
p4834
sbag36
(g37
g38
(lp4835
Vpaper
p4836
atp4837
Rp4838
(dp4839
g48
VNN
p4840
sbatp4841
Rp4842
(dp4843
g48
VNP
p4844
sbag36
(g37
g38
(lp4845
g36
(g37
g38
(lp4846
Vis
p4847
atp4848
Rp4849
(dp4850
g48
VVBZ
p4851
sbag36
(g37
g38
(lp4852
g36
(g37
g38
(lp4853
Vat
p4854
atp4855
Rp4856
(dp4857
g48
VIN
p4858
sbag36
(g37
g38
(lp4859
g36
(g37
g38
(lp4860
g36
(g37
g38
(lp4861
Vthe
p4862
atp4863
Rp4864
(dp4865
g48
VDT
p4866
sbag36
(g37
g38
(lp4867
Vapplication
p4868
atp4869
Rp4870
(dp4871
g48
VNN
p4872
sbag36
(g37
g38
(lp4873
Vlevel
p4874
atp4875
Rp4876
(dp4877
g48
VNN
p4878
sbatp4879
Rp4880
(dp4881
g48
VNP
p4882
sbag36
(g37
g38
(lp4883
g36
(g37
g38
(lp4884
Vof
p4885
atp4886
Rp4887
(dp4888
g48
VIN
p4889
sbag36
(g37
g38
(lp4890
g36
(g37
g38
(lp4891
Vthe
p4892
atp4893
Rp4894
(dp4895
g48
VDT
p4896
sbag36
(g37
g38
(lp4897
Vtheme
p4898
atp4899
Rp4900
(dp4901
g48
VNN
p4902
sbatp4903
Rp4904
(dp4905
g48
VNP
p4906
sbatp4907
Rp4908
(dp4909
g48
VPP
p4910
sbatp4911
Rp4912
(dp4913
g48
VNP
p4914
sbatp4915
Rp4916
(dp4917
g48
VPP
p4918
sbatp4919
Rp4920
(dp4921
g48
VVP
p4922
sbag36
(g37
g38
(lp4923
g224
atp4924
Rp4925
(dp4926
g48
g224
sbatp4927
Rp4928
(dp4929
g48
g199
sbatp4930
Rp4931
(dp4932
g48
VROOT
p4933
sbasba(icmyPackage
Sent
p4934
(dp4935
g14
I2
sg29
I7
sg30
S'It surveys recommendation techniques based on offline data processing, with emphasis on new techniques and evaluation measurements, benchmark data sets and available open source tools.'
p4936
sg32
I0
sg33
I26
sg34
(lp4937
g36
(g37
g38
(lp4938
g36
(g37
g38
(lp4939
g36
(g37
g38
(lp4940
g36
(g37
g38
(lp4941
VIt
p4942
atp4943
Rp4944
(dp4945
g48
VPRP
p4946
sbatp4947
Rp4948
(dp4949
g48
VNP
p4950
sbag36
(g37
g38
(lp4951
g36
(g37
g38
(lp4952
Vsurveys
p4953
atp4954
Rp4955
(dp4956
g48
VVBZ
p4957
sbag36
(g37
g38
(lp4958
g36
(g37
g38
(lp4959
Vrecommendation
p4960
atp4961
Rp4962
(dp4963
g48
VNN
p4964
sbag36
(g37
g38
(lp4965
Vtechniques
p4966
atp4967
Rp4968
(dp4969
g48
VNNS
p4970
sbatp4971
Rp4972
(dp4973
g48
VNP
p4974
sbag36
(g37
g38
(lp4975
g36
(g37
g38
(lp4976
Vbased
p4977
atp4978
Rp4979
(dp4980
g48
VVBN
p4981
sbag36
(g37
g38
(lp4982
g36
(g37
g38
(lp4983
Von
p4984
atp4985
Rp4986
(dp4987
g48
VIN
p4988
sbag36
(g37
g38
(lp4989
g36
(g37
g38
(lp4990
g36
(g37
g38
(lp4991
Voffline
p4992
atp4993
Rp4994
(dp4995
g48
VJJ
p4996
sbag36
(g37
g38
(lp4997
Vdata
p4998
atp4999
Rp5000
(dp5001
g48
VNNS
p5002
sbatp5003
Rp5004
(dp5005
g48
VNP
p5006
sbag36
(g37
g38
(lp5007
g36
(g37
g38
(lp5008
Vprocessing
p5009
atp5010
Rp5011
(dp5012
g48
VVBG
p5013
sbag36
(g37
g38
(lp5014
g55
atp5015
Rp5016
(dp5017
g48
g55
sbag36
(g37
g38
(lp5018
g36
(g37
g38
(lp5019
Vwith
p5020
atp5021
Rp5022
(dp5023
g48
VIN
p5024
sbag36
(g37
g38
(lp5025
g36
(g37
g38
(lp5026
Vemphasis
p5027
atp5028
Rp5029
(dp5030
g48
VNN
p5031
sbatp5032
Rp5033
(dp5034
g48
VNP
p5035
sbatp5036
Rp5037
(dp5038
g48
VPP
p5039
sbag36
(g37
g38
(lp5040
g36
(g37
g38
(lp5041
Von
p5042
atp5043
Rp5044
(dp5045
g48
VIN
p5046
sbag36
(g37
g38
(lp5047
g36
(g37
g38
(lp5048
g36
(g37
g38
(lp5049
Vnew
p5050
atp5051
Rp5052
(dp5053
g48
VJJ
p5054
sbag36
(g37
g38
(lp5055
Vtechniques
p5056
atp5057
Rp5058
(dp5059
g48
VNNS
p5060
sbag36
(g37
g38
(lp5061
Vand
p5062
atp5063
Rp5064
(dp5065
g48
VCC
p5066
sbag36
(g37
g38
(lp5067
Vevaluation
p5068
atp5069
Rp5070
(dp5071
g48
VNN
p5072
sbag36
(g37
g38
(lp5073
Vmeasurements
p5074
atp5075
Rp5076
(dp5077
g48
VNNS
p5078
sbatp5079
Rp5080
(dp5081
g48
VNP
p5082
sbag36
(g37
g38
(lp5083
g55
atp5084
Rp5085
(dp5086
g48
g55
sbag36
(g37
g38
(lp5087
g36
(g37
g38
(lp5088
Vbenchmark
p5089
atp5090
Rp5091
(dp5092
g48
VJJ
p5093
sbag36
(g37
g38
(lp5094
Vdata
p5095
atp5096
Rp5097
(dp5098
g48
VNN
p5099
sbag36
(g37
g38
(lp5100
Vsets
p5101
atp5102
Rp5103
(dp5104
g48
VNNS
p5105
sbatp5106
Rp5107
(dp5108
g48
VNP
p5109
sbag36
(g37
g38
(lp5110
Vand
p5111
atp5112
Rp5113
(dp5114
g48
VCC
p5115
sbag36
(g37
g38
(lp5116
g36
(g37
g38
(lp5117
g36
(g37
g38
(lp5118
Vavailable
p5119
atp5120
Rp5121
(dp5122
g48
VJJ
p5123
sbag36
(g37
g38
(lp5124
Vopen
p5125
atp5126
Rp5127
(dp5128
g48
VJJ
p5129
sbatp5130
Rp5131
(dp5132
g48
VADJP
p5133
sbag36
(g37
g38
(lp5134
Vsource
p5135
atp5136
Rp5137
(dp5138
g48
VNN
p5139
sbag36
(g37
g38
(lp5140
Vtools
p5141
atp5142
Rp5143
(dp5144
g48
VNNS
p5145
sbatp5146
Rp5147
(dp5148
g48
VNP
p5149
sbatp5150
Rp5151
(dp5152
g48
VNP
p5153
sbatp5154
Rp5155
(dp5156
g48
VPP
p5157
sbatp5158
Rp5159
(dp5160
g48
VVP
p5161
sbatp5162
Rp5163
(dp5164
g48
VNP
p5165
sbatp5166
Rp5167
(dp5168
g48
VPP
p5169
sbatp5170
Rp5171
(dp5172
g48
VPP
p5173
sbatp5174
Rp5175
(dp5176
g48
VVP
p5177
sbag36
(g37
g38
(lp5178
g224
atp5179
Rp5180
(dp5181
g48
g224
sbatp5182
Rp5183
(dp5184
g48
g199
sbatp5185
Rp5186
(dp5187
g48
VROOT
p5188
sbasba(icmyPackage
Sent
p5189
(dp5190
g14
I2
sg29
I7
sg30
S'Some challenges for future research are outlined [5].'
p5191
sg32
I0
sg33
I27
sg34
(lp5192
g36
(g37
g38
(lp5193
g36
(g37
g38
(lp5194
g36
(g37
g38
(lp5195
g36
(g37
g38
(lp5196
g36
(g37
g38
(lp5197
VSome
p5198
atp5199
Rp5200
(dp5201
g48
VDT
p5202
sbag36
(g37
g38
(lp5203
Vchallenges
p5204
atp5205
Rp5206
(dp5207
g48
VNNS
p5208
sbatp5209
Rp5210
(dp5211
g48
VNP
p5212
sbag36
(g37
g38
(lp5213
g36
(g37
g38
(lp5214
Vfor
p5215
atp5216
Rp5217
(dp5218
g48
VIN
p5219
sbag36
(g37
g38
(lp5220
g36
(g37
g38
(lp5221
Vfuture
p5222
atp5223
Rp5224
(dp5225
g48
VJJ
p5226
sbag36
(g37
g38
(lp5227
Vresearch
p5228
atp5229
Rp5230
(dp5231
g48
VNN
p5232
sbatp5233
Rp5234
(dp5235
g48
VNP
p5236
sbatp5237
Rp5238
(dp5239
g48
VPP
p5240
sbatp5241
Rp5242
(dp5243
g48
VNP
p5244
sbag36
(g37
g38
(lp5245
g36
(g37
g38
(lp5246
Vare
p5247
atp5248
Rp5249
(dp5250
g48
VVBP
p5251
sbag36
(g37
g38
(lp5252
g36
(g37
g38
(lp5253
Voutlined
p5254
atp5255
Rp5256
(dp5257
g48
VVBN
p5258
sbag36
(g37
g38
(lp5259
g36
(g37
g38
(lp5260
g36
(g37
g38
(lp5261
V-LSB-
p5262
atp5263
Rp5264
(dp5265
g48
VCD
p5266
sbag36
(g37
g38
(lp5267
V5
p5268
atp5269
Rp5270
(dp5271
g48
VCD
p5272
sbatp5273
Rp5274
(dp5275
g48
VQP
p5276
sbag36
(g37
g38
(lp5277
V-RSB-
p5278
atp5279
Rp5280
(dp5281
g48
VNNS
p5282
sbatp5283
Rp5284
(dp5285
g48
VNP
p5286
sbatp5287
Rp5288
(dp5289
g48
VVP
p5290
sbatp5291
Rp5292
(dp5293
g48
VVP
p5294
sbag36
(g37
g38
(lp5295
g224
atp5296
Rp5297
(dp5298
g48
g224
sbatp5299
Rp5300
(dp5301
g48
g199
sbatp5302
Rp5303
(dp5304
g48
VROOT
p5305
sbasbasg612
I3
sg29
I7
sg32
I0
sba(icmyPackage
Parag
p5306
(dp5307
g14
I2
sg25
(lp5308
(icmyPackage
Sent
p5309
(dp5310
g14
I2
sg29
I8
sg30
S'The second paper introduces an approach to deploy service-based applications in the cloud [6], which is regarded as a heterogeneous ecosystem and a new economic model.'
p5311
sg32
I0
sg33
I28
sg34
(lp5312
g36
(g37
g38
(lp5313
g36
(g37
g38
(lp5314
g36
(g37
g38
(lp5315
g36
(g37
g38
(lp5316
VThe
p5317
atp5318
Rp5319
(dp5320
g48
VDT
p5321
sbag36
(g37
g38
(lp5322
Vsecond
p5323
atp5324
Rp5325
(dp5326
g48
VJJ
p5327
sbag36
(g37
g38
(lp5328
Vpaper
p5329
atp5330
Rp5331
(dp5332
g48
VNN
p5333
sbatp5334
Rp5335
(dp5336
g48
VNP
p5337
sbag36
(g37
g38
(lp5338
g36
(g37
g38
(lp5339
Vintroduces
p5340
atp5341
Rp5342
(dp5343
g48
VVBZ
p5344
sbag36
(g37
g38
(lp5345
g36
(g37
g38
(lp5346
Van
p5347
atp5348
Rp5349
(dp5350
g48
VDT
p5351
sbag36
(g37
g38
(lp5352
Vapproach
p5353
atp5354
Rp5355
(dp5356
g48
VNN
p5357
sbag36
(g37
g38
(lp5358
g36
(g37
g38
(lp5359
g36
(g37
g38
(lp5360
Vto
p5361
atp5362
Rp5363
(dp5364
g48
VTO
p5365
sbag36
(g37
g38
(lp5366
g36
(g37
g38
(lp5367
Vdeploy
p5368
atp5369
Rp5370
(dp5371
g48
VVB
p5372
sbag36
(g37
g38
(lp5373
g36
(g37
g38
(lp5374
Vservice-based
p5375
atp5376
Rp5377
(dp5378
g48
VJJ
p5379
sbag36
(g37
g38
(lp5380
Vapplications
p5381
atp5382
Rp5383
(dp5384
g48
VNNS
p5385
sbatp5386
Rp5387
(dp5388
g48
VNP
p5389
sbag36
(g37
g38
(lp5390
g36
(g37
g38
(lp5391
Vin
p5392
atp5393
Rp5394
(dp5395
g48
VIN
p5396
sbag36
(g37
g38
(lp5397
g36
(g37
g38
(lp5398
Vthe
p5399
atp5400
Rp5401
(dp5402
g48
VDT
p5403
sbag36
(g37
g38
(lp5404
Vcloud
p5405
atp5406
Rp5407
(dp5408
g48
VNN
p5409
sbag36
(g37
g38
(lp5410
V-LSB-
p5411
atp5412
Rp5413
(dp5414
g48
VNN
p5415
sbatp5416
Rp5417
(dp5418
g48
VNP
p5419
sbatp5420
Rp5421
(dp5422
g48
VPP
p5423
sbag36
(g37
g38
(lp5424
g36
(g37
g38
(lp5425
g36
(g37
g38
(lp5426
V6
p5427
atp5428
Rp5429
(dp5430
g48
VCD
p5431
sbag36
(g37
g38
(lp5432
V-RSB-
p5433
atp5434
Rp5435
(dp5436
g48
VNNS
p5437
sbatp5438
Rp5439
(dp5440
g48
VNP
p5441
sbag36
(g37
g38
(lp5442
g55
atp5443
Rp5444
(dp5445
g48
g55
sbag36
(g37
g38
(lp5446
g36
(g37
g38
(lp5447
g36
(g37
g38
(lp5448
Vwhich
p5449
atp5450
Rp5451
(dp5452
g48
VWDT
p5453
sbatp5454
Rp5455
(dp5456
g48
VWHNP
p5457
sbag36
(g37
g38
(lp5458
g36
(g37
g38
(lp5459
g36
(g37
g38
(lp5460
Vis
p5461
atp5462
Rp5463
(dp5464
g48
VVBZ
p5465
sbag36
(g37
g38
(lp5466
g36
(g37
g38
(lp5467
Vregarded
p5468
atp5469
Rp5470
(dp5471
g48
VVBN
p5472
sbag36
(g37
g38
(lp5473
g36
(g37
g38
(lp5474
Vas
p5475
atp5476
Rp5477
(dp5478
g48
VIN
p5479
sbag36
(g37
g38
(lp5480
g36
(g37
g38
(lp5481
g36
(g37
g38
(lp5482
g643
atp5483
Rp5484
(dp5485
g48
VDT
p5486
sbag36
(g37
g38
(lp5487
Vheterogeneous
p5488
atp5489
Rp5490
(dp5491
g48
VJJ
p5492
sbag36
(g37
g38
(lp5493
Vecosystem
p5494
atp5495
Rp5496
(dp5497
g48
VNN
p5498
sbatp5499
Rp5500
(dp5501
g48
VNP
p5502
sbag36
(g37
g38
(lp5503
Vand
p5504
atp5505
Rp5506
(dp5507
g48
VCC
p5508
sbag36
(g37
g38
(lp5509
g36
(g37
g38
(lp5510
g643
atp5511
Rp5512
(dp5513
g48
VDT
p5514
sbag36
(g37
g38
(lp5515
Vnew
p5516
atp5517
Rp5518
(dp5519
g48
VJJ
p5520
sbag36
(g37
g38
(lp5521
Veconomic
p5522
atp5523
Rp5524
(dp5525
g48
VJJ
p5526
sbag36
(g37
g38
(lp5527
Vmodel
p5528
atp5529
Rp5530
(dp5531
g48
VNN
p5532
sbatp5533
Rp5534
(dp5535
g48
VNP
p5536
sbatp5537
Rp5538
(dp5539
g48
VNP
p5540
sbatp5541
Rp5542
(dp5543
g48
VPP
p5544
sbatp5545
Rp5546
(dp5547
g48
VVP
p5548
sbatp5549
Rp5550
(dp5551
g48
VVP
p5552
sbatp5553
Rp5554
(dp5555
g48
g199
sbatp5556
Rp5557
(dp5558
g48
VSBAR
p5559
sbatp5560
Rp5561
(dp5562
g48
VNP
p5563
sbatp5564
Rp5565
(dp5566
g48
VVP
p5567
sbatp5568
Rp5569
(dp5570
g48
VVP
p5571
sbatp5572
Rp5573
(dp5574
g48
g199
sbatp5575
Rp5576
(dp5577
g48
VNP
p5578
sbatp5579
Rp5580
(dp5581
g48
VVP
p5582
sbag36
(g37
g38
(lp5583
g224
atp5584
Rp5585
(dp5586
g48
g224
sbatp5587
Rp5588
(dp5589
g48
g199
sbatp5590
Rp5591
(dp5592
g48
VROOT
p5593
sbasba(icmyPackage
Sent
p5594
(dp5595
g14
I2
sg29
I8
sg30
S'Techniques on service-based application deployment in Cloud platforms are introduced.'
p5596
sg32
I0
sg33
I29
sg34
(lp5597
g36
(g37
g38
(lp5598
g36
(g37
g38
(lp5599
g36
(g37
g38
(lp5600
g36
(g37
g38
(lp5601
g36
(g37
g38
(lp5602
VTechniques
p5603
atp5604
Rp5605
(dp5606
g48
VNNS
p5607
sbatp5608
Rp5609
(dp5610
g48
VNP
p5611
sbag36
(g37
g38
(lp5612
g36
(g37
g38
(lp5613
Von
p5614
atp5615
Rp5616
(dp5617
g48
VIN
p5618
sbag36
(g37
g38
(lp5619
g36
(g37
g38
(lp5620
g36
(g37
g38
(lp5621
Vservice-based
p5622
atp5623
Rp5624
(dp5625
g48
VJJ
p5626
sbag36
(g37
g38
(lp5627
Vapplication
p5628
atp5629
Rp5630
(dp5631
g48
VNN
p5632
sbag36
(g37
g38
(lp5633
Vdeployment
p5634
atp5635
Rp5636
(dp5637
g48
VNN
p5638
sbatp5639
Rp5640
(dp5641
g48
VNP
p5642
sbag36
(g37
g38
(lp5643
g36
(g37
g38
(lp5644
Vin
p5645
atp5646
Rp5647
(dp5648
g48
VIN
p5649
sbag36
(g37
g38
(lp5650
g36
(g37
g38
(lp5651
VCloud
p5652
atp5653
Rp5654
(dp5655
g48
VNNP
p5656
sbag36
(g37
g38
(lp5657
Vplatforms
p5658
atp5659
Rp5660
(dp5661
g48
VNNS
p5662
sbatp5663
Rp5664
(dp5665
g48
VNP
p5666
sbatp5667
Rp5668
(dp5669
g48
VPP
p5670
sbatp5671
Rp5672
(dp5673
g48
VNP
p5674
sbatp5675
Rp5676
(dp5677
g48
VPP
p5678
sbatp5679
Rp5680
(dp5681
g48
VNP
p5682
sbag36
(g37
g38
(lp5683
g36
(g37
g38
(lp5684
Vare
p5685
atp5686
Rp5687
(dp5688
g48
VVBP
p5689
sbag36
(g37
g38
(lp5690
g36
(g37
g38
(lp5691
Vintroduced
p5692
atp5693
Rp5694
(dp5695
g48
VVBN
p5696
sbatp5697
Rp5698
(dp5699
g48
VVP
p5700
sbatp5701
Rp5702
(dp5703
g48
VVP
p5704
sbag36
(g37
g38
(lp5705
g224
atp5706
Rp5707
(dp5708
g48
g224
sbatp5709
Rp5710
(dp5711
g48
g199
sbatp5712
Rp5713
(dp5714
g48
VROOT
p5715
sbasbasg612
I2
sg29
I8
sg32
I0
sba(icmyPackage
Parag
p5716
(dp5717
g14
I2
sg25
(lp5718
(icmyPackage
Sent
p5719
(dp5720
g14
I2
sg29
I9
sg30
S'The third paper introduces an approach to predict bus routes or the arrival time of buses in developing countries by integrating sensing ability and social networks to understand and measure the influence between social events and vehicle velocity [7].'
p5721
sg32
I0
sg33
I30
sg34
(lp5722
g36
(g37
g38
(lp5723
g36
(g37
g38
(lp5724
g36
(g37
g38
(lp5725
g36
(g37
g38
(lp5726
VThe
p5727
atp5728
Rp5729
(dp5730
g48
VDT
p5731
sbag36
(g37
g38
(lp5732
Vthird
p5733
atp5734
Rp5735
(dp5736
g48
VJJ
p5737
sbag36
(g37
g38
(lp5738
Vpaper
p5739
atp5740
Rp5741
(dp5742
g48
VNN
p5743
sbatp5744
Rp5745
(dp5746
g48
VNP
p5747
sbag36
(g37
g38
(lp5748
g36
(g37
g38
(lp5749
Vintroduces
p5750
atp5751
Rp5752
(dp5753
g48
VVBZ
p5754
sbag36
(g37
g38
(lp5755
g36
(g37
g38
(lp5756
Van
p5757
atp5758
Rp5759
(dp5760
g48
VDT
p5761
sbag36
(g37
g38
(lp5762
Vapproach
p5763
atp5764
Rp5765
(dp5766
g48
VNN
p5767
sbag36
(g37
g38
(lp5768
g36
(g37
g38
(lp5769
g36
(g37
g38
(lp5770
Vto
p5771
atp5772
Rp5773
(dp5774
g48
VTO
p5775
sbag36
(g37
g38
(lp5776
g36
(g37
g38
(lp5777
Vpredict
p5778
atp5779
Rp5780
(dp5781
g48
VVB
p5782
sbag36
(g37
g38
(lp5783
g36
(g37
g38
(lp5784
g36
(g37
g38
(lp5785
Vbus
p5786
atp5787
Rp5788
(dp5789
g48
VNN
p5790
sbag36
(g37
g38
(lp5791
Vroutes
p5792
atp5793
Rp5794
(dp5795
g48
VNNS
p5796
sbatp5797
Rp5798
(dp5799
g48
VNP
p5800
sbag36
(g37
g38
(lp5801
Vor
p5802
atp5803
Rp5804
(dp5805
g48
VCC
p5806
sbag36
(g37
g38
(lp5807
g36
(g37
g38
(lp5808
g36
(g37
g38
(lp5809
Vthe
p5810
atp5811
Rp5812
(dp5813
g48
VDT
p5814
sbag36
(g37
g38
(lp5815
Varrival
p5816
atp5817
Rp5818
(dp5819
g48
VNN
p5820
sbag36
(g37
g38
(lp5821
Vtime
p5822
atp5823
Rp5824
(dp5825
g48
VNN
p5826
sbatp5827
Rp5828
(dp5829
g48
VNP
p5830
sbag36
(g37
g38
(lp5831
g36
(g37
g38
(lp5832
Vof
p5833
atp5834
Rp5835
(dp5836
g48
VIN
p5837
sbag36
(g37
g38
(lp5838
g36
(g37
g38
(lp5839
Vbuses
p5840
atp5841
Rp5842
(dp5843
g48
VNNS
p5844
sbatp5845
Rp5846
(dp5847
g48
VNP
p5848
sbatp5849
Rp5850
(dp5851
g48
VPP
p5852
sbatp5853
Rp5854
(dp5855
g48
VNP
p5856
sbatp5857
Rp5858
(dp5859
g48
VNP
p5860
sbag36
(g37
g38
(lp5861
g36
(g37
g38
(lp5862
Vin
p5863
atp5864
Rp5865
(dp5866
g48
VIN
p5867
sbag36
(g37
g38
(lp5868
g36
(g37
g38
(lp5869
g36
(g37
g38
(lp5870
Vdeveloping
p5871
atp5872
Rp5873
(dp5874
g48
VVBG
p5875
sbag36
(g37
g38
(lp5876
g36
(g37
g38
(lp5877
Vcountries
p5878
atp5879
Rp5880
(dp5881
g48
VNNS
p5882
sbatp5883
Rp5884
(dp5885
g48
VNP
p5886
sbag36
(g37
g38
(lp5887
g36
(g37
g38
(lp5888
Vby
p5889
atp5890
Rp5891
(dp5892
g48
VIN
p5893
sbag36
(g37
g38
(lp5894
g36
(g37
g38
(lp5895
g36
(g37
g38
(lp5896
Vintegrating
p5897
atp5898
Rp5899
(dp5900
g48
VVBG
p5901
sbag36
(g37
g38
(lp5902
g36
(g37
g38
(lp5903
g36
(g37
g38
(lp5904
Vsensing
p5905
atp5906
Rp5907
(dp5908
g48
VVBG
p5909
sbag36
(g37
g38
(lp5910
g36
(g37
g38
(lp5911
Vability
p5912
atp5913
Rp5914
(dp5915
g48
VNN
p5916
sbag36
(g37
g38
(lp5917
Vand
p5918
atp5919
Rp5920
(dp5921
g48
VCC
p5922
sbag36
(g37
g38
(lp5923
Vsocial
p5924
atp5925
Rp5926
(dp5927
g48
VJJ
p5928
sbag36
(g37
g38
(lp5929
Vnetworks
p5930
atp5931
Rp5932
(dp5933
g48
VNNS
p5934
sbatp5935
Rp5936
(dp5937
g48
VNP
p5938
sbag36
(g37
g38
(lp5939
g36
(g37
g38
(lp5940
g36
(g37
g38
(lp5941
Vto
p5942
atp5943
Rp5944
(dp5945
g48
VTO
p5946
sbag36
(g37
g38
(lp5947
g36
(g37
g38
(lp5948
Vunderstand
p5949
atp5950
Rp5951
(dp5952
g48
VVB
p5953
sbag36
(g37
g38
(lp5954
Vand
p5955
atp5956
Rp5957
(dp5958
g48
VCC
p5959
sbag36
(g37
g38
(lp5960
Vmeasure
p5961
atp5962
Rp5963
(dp5964
g48
VVB
p5965
sbag36
(g37
g38
(lp5966
g36
(g37
g38
(lp5967
g36
(g37
g38
(lp5968
Vthe
p5969
atp5970
Rp5971
(dp5972
g48
VDT
p5973
sbag36
(g37
g38
(lp5974
Vinfluence
p5975
atp5976
Rp5977
(dp5978
g48
VNN
p5979
sbatp5980
Rp5981
(dp5982
g48
VNP
p5983
sbag36
(g37
g38
(lp5984
g36
(g37
g38
(lp5985
Vbetween
p5986
atp5987
Rp5988
(dp5989
g48
VIN
p5990
sbag36
(g37
g38
(lp5991
g36
(g37
g38
(lp5992
g36
(g37
g38
(lp5993
Vsocial
p5994
atp5995
Rp5996
(dp5997
g48
VJJ
p5998
sbag36
(g37
g38
(lp5999
Vevents
p6000
atp6001
Rp6002
(dp6003
g48
VNNS
p6004
sbatp6005
Rp6006
(dp6007
g48
VNP
p6008
sbag36
(g37
g38
(lp6009
Vand
p6010
atp6011
Rp6012
(dp6013
g48
VCC
p6014
sbag36
(g37
g38
(lp6015
g36
(g37
g38
(lp6016
Vvehicle
p6017
atp6018
Rp6019
(dp6020
g48
VNN
p6021
sbag36
(g37
g38
(lp6022
Vvelocity
p6023
atp6024
Rp6025
(dp6026
g48
VNN
p6027
sbag36
(g37
g38
(lp6028
V-LSB-
p6029
atp6030
Rp6031
(dp6032
g48
VNNP
p6033
sbag36
(g37
g38
(lp6034
V7
p6035
atp6036
Rp6037
(dp6038
g48
VCD
p6039
sbag36
(g37
g38
(lp6040
V-RSB-
p6041
atp6042
Rp6043
(dp6044
g48
VNNP
p6045
sbatp6046
Rp6047
(dp6048
g48
VNP
p6049
sbatp6050
Rp6051
(dp6052
g48
VNP
p6053
sbatp6054
Rp6055
(dp6056
g48
VPP
p6057
sbatp6058
Rp6059
(dp6060
g48
VNP
p6061
sbatp6062
Rp6063
(dp6064
g48
VVP
p6065
sbatp6066
Rp6067
(dp6068
g48
VVP
p6069
sbatp6070
Rp6071
(dp6072
g48
g199
sbatp6073
Rp6074
(dp6075
g48
VVP
p6076
sbatp6077
Rp6078
(dp6079
g48
g199
sbatp6080
Rp6081
(dp6082
g48
VVP
p6083
sbatp6084
Rp6085
(dp6086
g48
g199
sbatp6087
Rp6088
(dp6089
g48
VPP
p6090
sbatp6091
Rp6092
(dp6093
g48
VVP
p6094
sbatp6095
Rp6096
(dp6097
g48
g199
sbatp6098
Rp6099
(dp6100
g48
VPP
p6101
sbatp6102
Rp6103
(dp6104
g48
VVP
p6105
sbatp6106
Rp6107
(dp6108
g48
VVP
p6109
sbatp6110
Rp6111
(dp6112
g48
g199
sbatp6113
Rp6114
(dp6115
g48
VNP
p6116
sbatp6117
Rp6118
(dp6119
g48
VVP
p6120
sbag36
(g37
g38
(lp6121
g224
atp6122
Rp6123
(dp6124
g48
g224
sbatp6125
Rp6126
(dp6127
g48
g199
sbatp6128
Rp6129
(dp6130
g48
VROOT
p6131
sbasbasg612
I1
sg29
I9
sg32
I0
sba(icmyPackage
Parag
p6132
(dp6133
g14
I2
sg25
(lp6134
(icmyPackage
Sent
p6135
(dp6136
g14
I2
sg29
I10
sg30
S'Different from previous ranking approaches, the fourth paper introduces an approach to measure information quantity in text with reading aim [8].'
p6137
sg32
I0
sg33
I31
sg34
(lp6138
g36
(g37
g38
(lp6139
g36
(g37
g38
(lp6140
g36
(g37
g38
(lp6141
g36
(g37
g38
(lp6142
g36
(g37
g38
(lp6143
VDifferent
p6144
atp6145
Rp6146
(dp6147
g48
VVBG
p6148
sbag36
(g37
g38
(lp6149
g36
(g37
g38
(lp6150
Vfrom
p6151
atp6152
Rp6153
(dp6154
g48
VIN
p6155
sbag36
(g37
g38
(lp6156
g36
(g37
g38
(lp6157
Vprevious
p6158
atp6159
Rp6160
(dp6161
g48
VJJ
p6162
sbag36
(g37
g38
(lp6163
Vranking
p6164
atp6165
Rp6166
(dp6167
g48
VJJ
p6168
sbag36
(g37
g38
(lp6169
Vapproaches
p6170
atp6171
Rp6172
(dp6173
g48
VNNS
p6174
sbatp6175
Rp6176
(dp6177
g48
VNP
p6178
sbatp6179
Rp6180
(dp6181
g48
VPP
p6182
sbatp6183
Rp6184
(dp6185
g48
VVP
p6186
sbatp6187
Rp6188
(dp6189
g48
g199
sbag36
(g37
g38
(lp6190
g55
atp6191
Rp6192
(dp6193
g48
g55
sbag36
(g37
g38
(lp6194
g36
(g37
g38
(lp6195
Vthe
p6196
atp6197
Rp6198
(dp6199
g48
VDT
p6200
sbag36
(g37
g38
(lp6201
Vfourth
p6202
atp6203
Rp6204
(dp6205
g48
VJJ
p6206
sbag36
(g37
g38
(lp6207
Vpaper
p6208
atp6209
Rp6210
(dp6211
g48
VNN
p6212
sbatp6213
Rp6214
(dp6215
g48
VNP
p6216
sbag36
(g37
g38
(lp6217
g36
(g37
g38
(lp6218
Vintroduces
p6219
atp6220
Rp6221
(dp6222
g48
VVBZ
p6223
sbag36
(g37
g38
(lp6224
g36
(g37
g38
(lp6225
Van
p6226
atp6227
Rp6228
(dp6229
g48
VDT
p6230
sbag36
(g37
g38
(lp6231
Vapproach
p6232
atp6233
Rp6234
(dp6235
g48
VNN
p6236
sbag36
(g37
g38
(lp6237
g36
(g37
g38
(lp6238
g36
(g37
g38
(lp6239
Vto
p6240
atp6241
Rp6242
(dp6243
g48
VTO
p6244
sbag36
(g37
g38
(lp6245
g36
(g37
g38
(lp6246
Vmeasure
p6247
atp6248
Rp6249
(dp6250
g48
VVB
p6251
sbag36
(g37
g38
(lp6252
g36
(g37
g38
(lp6253
g36
(g37
g38
(lp6254
Vinformation
p6255
atp6256
Rp6257
(dp6258
g48
VNN
p6259
sbag36
(g37
g38
(lp6260
Vquantity
p6261
atp6262
Rp6263
(dp6264
g48
VNN
p6265
sbatp6266
Rp6267
(dp6268
g48
VNP
p6269
sbag36
(g37
g38
(lp6270
g36
(g37
g38
(lp6271
Vin
p6272
atp6273
Rp6274
(dp6275
g48
VIN
p6276
sbag36
(g37
g38
(lp6277
g36
(g37
g38
(lp6278
Vtext
p6279
atp6280
Rp6281
(dp6282
g48
VNN
p6283
sbatp6284
Rp6285
(dp6286
g48
VNP
p6287
sbatp6288
Rp6289
(dp6290
g48
VPP
p6291
sbatp6292
Rp6293
(dp6294
g48
VNP
p6295
sbag36
(g37
g38
(lp6296
g36
(g37
g38
(lp6297
Vwith
p6298
atp6299
Rp6300
(dp6301
g48
VIN
p6302
sbag36
(g37
g38
(lp6303
g36
(g37
g38
(lp6304
g36
(g37
g38
(lp6305
Vreading
p6306
atp6307
Rp6308
(dp6309
g48
VVBG
p6310
sbag36
(g37
g38
(lp6311
g36
(g37
g38
(lp6312
g36
(g37
g38
(lp6313
Vaim
p6314
atp6315
Rp6316
(dp6317
g48
VNN
p6318
sbatp6319
Rp6320
(dp6321
g48
VNP
p6322
sbag36
(g37
g38
(lp6323
g36
(g37
g38
(lp6324
V-LSB-
p6325
atp6326
Rp6327
(dp6328
g48
VVBG
p6329
sbag36
(g37
g38
(lp6330
g36
(g37
g38
(lp6331
g36
(g37
g38
(lp6332
V8
p6333
atp6334
Rp6335
(dp6336
g48
VCD
p6337
sbag36
(g37
g38
(lp6338
V-RSB-
p6339
atp6340
Rp6341
(dp6342
g48
VCD
p6343
sbatp6344
Rp6345
(dp6346
g48
VQP
p6347
sbatp6348
Rp6349
(dp6350
g48
VNP
p6351
sbatp6352
Rp6353
(dp6354
g48
VVP
p6355
sbatp6356
Rp6357
(dp6358
g48
VNP
p6359
sbatp6360
Rp6361
(dp6362
g48
VVP
p6363
sbatp6364
Rp6365
(dp6366
g48
g199
sbatp6367
Rp6368
(dp6369
g48
VPP
p6370
sbatp6371
Rp6372
(dp6373
g48
VVP
p6374
sbatp6375
Rp6376
(dp6377
g48
VVP
p6378
sbatp6379
Rp6380
(dp6381
g48
g199
sbatp6382
Rp6383
(dp6384
g48
VNP
p6385
sbatp6386
Rp6387
(dp6388
g48
VVP
p6389
sbag36
(g37
g38
(lp6390
g224
atp6391
Rp6392
(dp6393
g48
g224
sbatp6394
Rp6395
(dp6396
g48
g199
sbatp6397
Rp6398
(dp6399
g48
VROOT
p6400
sbasba(icmyPackage
Sent
p6401
(dp6402
g14
I2
sg29
I10
sg30
S'It can be used to select appropriate texts for recommendation and summarization.'
p6403
sg32
I0
sg33
I32
sg34
(lp6404
g36
(g37
g38
(lp6405
g36
(g37
g38
(lp6406
g36
(g37
g38
(lp6407
g36
(g37
g38
(lp6408
VIt
p6409
atp6410
Rp6411
(dp6412
g48
VPRP
p6413
sbatp6414
Rp6415
(dp6416
g48
VNP
p6417
sbag36
(g37
g38
(lp6418
g36
(g37
g38
(lp6419
Vcan
p6420
atp6421
Rp6422
(dp6423
g48
VMD
p6424
sbag36
(g37
g38
(lp6425
g36
(g37
g38
(lp6426
Vbe
p6427
atp6428
Rp6429
(dp6430
g48
VVB
p6431
sbag36
(g37
g38
(lp6432
g36
(g37
g38
(lp6433
Vused
p6434
atp6435
Rp6436
(dp6437
g48
VVBN
p6438
sbag36
(g37
g38
(lp6439
g36
(g37
g38
(lp6440
g36
(g37
g38
(lp6441
Vto
p6442
atp6443
Rp6444
(dp6445
g48
VTO
p6446
sbag36
(g37
g38
(lp6447
g36
(g37
g38
(lp6448
Vselect
p6449
atp6450
Rp6451
(dp6452
g48
VVB
p6453
sbag36
(g37
g38
(lp6454
g36
(g37
g38
(lp6455
Vappropriate
p6456
atp6457
Rp6458
(dp6459
g48
VJJ
p6460
sbag36
(g37
g38
(lp6461
Vtexts
p6462
atp6463
Rp6464
(dp6465
g48
VNNS
p6466
sbatp6467
Rp6468
(dp6469
g48
VNP
p6470
sbag36
(g37
g38
(lp6471
g36
(g37
g38
(lp6472
Vfor
p6473
atp6474
Rp6475
(dp6476
g48
VIN
p6477
sbag36
(g37
g38
(lp6478
g36
(g37
g38
(lp6479
Vrecommendation
p6480
atp6481
Rp6482
(dp6483
g48
VNN
p6484
sbag36
(g37
g38
(lp6485
Vand
p6486
atp6487
Rp6488
(dp6489
g48
VCC
p6490
sbag36
(g37
g38
(lp6491
Vsummarization
p6492
atp6493
Rp6494
(dp6495
g48
VNN
p6496
sbatp6497
Rp6498
(dp6499
g48
VNP
p6500
sbatp6501
Rp6502
(dp6503
g48
VPP
p6504
sbatp6505
Rp6506
(dp6507
g48
VVP
p6508
sbatp6509
Rp6510
(dp6511
g48
VVP
p6512
sbatp6513
Rp6514
(dp6515
g48
g199
sbatp6516
Rp6517
(dp6518
g48
VVP
p6519
sbatp6520
Rp6521
(dp6522
g48
VVP
p6523
sbatp6524
Rp6525
(dp6526
g48
VVP
p6527
sbag36
(g37
g38
(lp6528
g224
atp6529
Rp6530
(dp6531
g48
g224
sbatp6532
Rp6533
(dp6534
g48
g199
sbatp6535
Rp6536
(dp6537
g48
VROOT
p6538
sbasbasg612
I2
sg29
I10
sg32
I0
sba(icmyPackage
Parag
p6539
(dp6540
g14
I2
sg25
(lp6541
(icmyPackage
Sent
p6542
(dp6543
g14
I2
sg29
I11
sg30
S'The fifth paper introduces an approach to discover online hot events through association link network [9], which is a special type of semantic link network.'
p6544
sg32
I0
sg33
I33
sg34
(lp6545
g36
(g37
g38
(lp6546
g36
(g37
g38
(lp6547
g36
(g37
g38
(lp6548
g36
(g37
g38
(lp6549
VThe
p6550
atp6551
Rp6552
(dp6553
g48
VDT
p6554
sbag36
(g37
g38
(lp6555
Vfifth
p6556
atp6557
Rp6558
(dp6559
g48
VJJ
p6560
sbag36
(g37
g38
(lp6561
Vpaper
p6562
atp6563
Rp6564
(dp6565
g48
VNN
p6566
sbatp6567
Rp6568
(dp6569
g48
VNP
p6570
sbag36
(g37
g38
(lp6571
g36
(g37
g38
(lp6572
Vintroduces
p6573
atp6574
Rp6575
(dp6576
g48
VVBZ
p6577
sbag36
(g37
g38
(lp6578
g36
(g37
g38
(lp6579
Van
p6580
atp6581
Rp6582
(dp6583
g48
VDT
p6584
sbag36
(g37
g38
(lp6585
Vapproach
p6586
atp6587
Rp6588
(dp6589
g48
VNN
p6590
sbag36
(g37
g38
(lp6591
g36
(g37
g38
(lp6592
g36
(g37
g38
(lp6593
Vto
p6594
atp6595
Rp6596
(dp6597
g48
VTO
p6598
sbag36
(g37
g38
(lp6599
g36
(g37
g38
(lp6600
Vdiscover
p6601
atp6602
Rp6603
(dp6604
g48
VVB
p6605
sbag36
(g37
g38
(lp6606
g36
(g37
g38
(lp6607
Vonline
p6608
atp6609
Rp6610
(dp6611
g48
VJJ
p6612
sbag36
(g37
g38
(lp6613
Vhot
p6614
atp6615
Rp6616
(dp6617
g48
VJJ
p6618
sbag36
(g37
g38
(lp6619
Vevents
p6620
atp6621
Rp6622
(dp6623
g48
VNNS
p6624
sbatp6625
Rp6626
(dp6627
g48
VNP
p6628
sbag36
(g37
g38
(lp6629
g36
(g37
g38
(lp6630
Vthrough
p6631
atp6632
Rp6633
(dp6634
g48
VIN
p6635
sbag36
(g37
g38
(lp6636
g36
(g37
g38
(lp6637
Vassociation
p6638
atp6639
Rp6640
(dp6641
g48
VNN
p6642
sbag36
(g37
g38
(lp6643
Vlink
p6644
atp6645
Rp6646
(dp6647
g48
VNN
p6648
sbag36
(g37
g38
(lp6649
Vnetwork
p6650
atp6651
Rp6652
(dp6653
g48
VNN
p6654
sbag36
(g37
g38
(lp6655
V-LSB-
p6656
atp6657
Rp6658
(dp6659
g48
VNNS
p6660
sbatp6661
Rp6662
(dp6663
g48
VNP
p6664
sbatp6665
Rp6666
(dp6667
g48
VPP
p6668
sbag36
(g37
g38
(lp6669
g36
(g37
g38
(lp6670
g36
(g37
g38
(lp6671
V9
p6672
atp6673
Rp6674
(dp6675
g48
VCD
p6676
sbag36
(g37
g38
(lp6677
V-RSB-
p6678
atp6679
Rp6680
(dp6681
g48
VNNS
p6682
sbatp6683
Rp6684
(dp6685
g48
VNP
p6686
sbag36
(g37
g38
(lp6687
g55
atp6688
Rp6689
(dp6690
g48
g55
sbag36
(g37
g38
(lp6691
g36
(g37
g38
(lp6692
g36
(g37
g38
(lp6693
Vwhich
p6694
atp6695
Rp6696
(dp6697
g48
VWDT
p6698
sbatp6699
Rp6700
(dp6701
g48
VWHNP
p6702
sbag36
(g37
g38
(lp6703
g36
(g37
g38
(lp6704
g36
(g37
g38
(lp6705
Vis
p6706
atp6707
Rp6708
(dp6709
g48
VVBZ
p6710
sbag36
(g37
g38
(lp6711
g36
(g37
g38
(lp6712
g36
(g37
g38
(lp6713
g643
atp6714
Rp6715
(dp6716
g48
VDT
p6717
sbag36
(g37
g38
(lp6718
Vspecial
p6719
atp6720
Rp6721
(dp6722
g48
VJJ
p6723
sbag36
(g37
g38
(lp6724
Vtype
p6725
atp6726
Rp6727
(dp6728
g48
VNN
p6729
sbatp6730
Rp6731
(dp6732
g48
VNP
p6733
sbag36
(g37
g38
(lp6734
g36
(g37
g38
(lp6735
Vof
p6736
atp6737
Rp6738
(dp6739
g48
VIN
p6740
sbag36
(g37
g38
(lp6741
g36
(g37
g38
(lp6742
Vsemantic
p6743
atp6744
Rp6745
(dp6746
g48
VJJ
p6747
sbag36
(g37
g38
(lp6748
Vlink
p6749
atp6750
Rp6751
(dp6752
g48
VNN
p6753
sbag36
(g37
g38
(lp6754
Vnetwork
p6755
atp6756
Rp6757
(dp6758
g48
VNN
p6759
sbatp6760
Rp6761
(dp6762
g48
VNP
p6763
sbatp6764
Rp6765
(dp6766
g48
VPP
p6767
sbatp6768
Rp6769
(dp6770
g48
VNP
p6771
sbatp6772
Rp6773
(dp6774
g48
VVP
p6775
sbatp6776
Rp6777
(dp6778
g48
g199
sbatp6779
Rp6780
(dp6781
g48
VSBAR
p6782
sbatp6783
Rp6784
(dp6785
g48
VNP
p6786
sbatp6787
Rp6788
(dp6789
g48
VVP
p6790
sbatp6791
Rp6792
(dp6793
g48
VVP
p6794
sbatp6795
Rp6796
(dp6797
g48
g199
sbatp6798
Rp6799
(dp6800
g48
VNP
p6801
sbatp6802
Rp6803
(dp6804
g48
VVP
p6805
sbag36
(g37
g38
(lp6806
g224
atp6807
Rp6808
(dp6809
g48
g224
sbatp6810
Rp6811
(dp6812
g48
g199
sbatp6813
Rp6814
(dp6815
g48
VROOT
p6816
sbasba(icmyPackage
Sent
p6817
(dp6818
g14
I2
sg29
I11
sg30
S'This approach consists of three stages:'
p6819
sg32
I0
sg33
I34
sg34
(lp6820
g36
(g37
g38
(lp6821
g36
(g37
g38
(lp6822
g36
(g37
g38
(lp6823
g36
(g37
g38
(lp6824
VThis
p6825
atp6826
Rp6827
(dp6828
g48
VDT
p6829
sbag36
(g37
g38
(lp6830
Vapproach
p6831
atp6832
Rp6833
(dp6834
g48
VNN
p6835
sbatp6836
Rp6837
(dp6838
g48
VNP
p6839
sbag36
(g37
g38
(lp6840
g36
(g37
g38
(lp6841
Vconsists
p6842
atp6843
Rp6844
(dp6845
g48
VVBZ
p6846
sbag36
(g37
g38
(lp6847
g36
(g37
g38
(lp6848
Vof
p6849
atp6850
Rp6851
(dp6852
g48
VIN
p6853
sbag36
(g37
g38
(lp6854
g36
(g37
g38
(lp6855
Vthree
p6856
atp6857
Rp6858
(dp6859
g48
VCD
p6860
sbag36
(g37
g38
(lp6861
Vstages
p6862
atp6863
Rp6864
(dp6865
g48
VNNS
p6866
sbatp6867
Rp6868
(dp6869
g48
VNP
p6870
sbatp6871
Rp6872
(dp6873
g48
VPP
p6874
sbatp6875
Rp6876
(dp6877
g48
VVP
p6878
sbag36
(g37
g38
(lp6879
V:
p6880
atp6881
Rp6882
(dp6883
g48
g6880
sbatp6884
Rp6885
(dp6886
g48
g199
sbatp6887
Rp6888
(dp6889
g48
VROOT
p6890
sbasba(icmyPackage
Sent
p6891
(dp6892
g14
I2
sg29
I11
sg30
S'extract significant features to represent the content of each document from the online document stream, classify the online document stream into topically related events considering event evolution, and create an event detection algorithm based on the association link network.'
p6893
sg32
I0
sg33
I35
sg34
(lp6894
g36
(g37
g38
(lp6895
g36
(g37
g38
(lp6896
g36
(g37
g38
(lp6897
g36
(g37
g38
(lp6898
g36
(g37
g38
(lp6899
Vextract
p6900
atp6901
Rp6902
(dp6903
g48
VVB
p6904
sbag36
(g37
g38
(lp6905
g36
(g37
g38
(lp6906
Vsignificant
p6907
atp6908
Rp6909
(dp6910
g48
VJJ
p6911
sbag36
(g37
g38
(lp6912
Vfeatures
p6913
atp6914
Rp6915
(dp6916
g48
VNNS
p6917
sbatp6918
Rp6919
(dp6920
g48
VNP
p6921
sbag36
(g37
g38
(lp6922
g36
(g37
g38
(lp6923
g36
(g37
g38
(lp6924
Vto
p6925
atp6926
Rp6927
(dp6928
g48
VTO
p6929
sbag36
(g37
g38
(lp6930
g36
(g37
g38
(lp6931
Vrepresent
p6932
atp6933
Rp6934
(dp6935
g48
VVB
p6936
sbag36
(g37
g38
(lp6937
g36
(g37
g38
(lp6938
g36
(g37
g38
(lp6939
Vthe
p6940
atp6941
Rp6942
(dp6943
g48
VDT
p6944
sbag36
(g37
g38
(lp6945
Vcontent
p6946
atp6947
Rp6948
(dp6949
g48
VNN
p6950
sbatp6951
Rp6952
(dp6953
g48
VNP
p6954
sbag36
(g37
g38
(lp6955
g36
(g37
g38
(lp6956
Vof
p6957
atp6958
Rp6959
(dp6960
g48
VIN
p6961
sbag36
(g37
g38
(lp6962
g36
(g37
g38
(lp6963
Veach
p6964
atp6965
Rp6966
(dp6967
g48
VDT
p6968
sbag36
(g37
g38
(lp6969
Vdocument
p6970
atp6971
Rp6972
(dp6973
g48
VNN
p6974
sbatp6975
Rp6976
(dp6977
g48
VNP
p6978
sbatp6979
Rp6980
(dp6981
g48
VPP
p6982
sbatp6983
Rp6984
(dp6985
g48
VNP
p6986
sbag36
(g37
g38
(lp6987
g36
(g37
g38
(lp6988
Vfrom
p6989
atp6990
Rp6991
(dp6992
g48
VIN
p6993
sbag36
(g37
g38
(lp6994
g36
(g37
g38
(lp6995
Vthe
p6996
atp6997
Rp6998
(dp6999
g48
VDT
p7000
sbag36
(g37
g38
(lp7001
Vonline
p7002
atp7003
Rp7004
(dp7005
g48
VJJ
p7006
sbag36
(g37
g38
(lp7007
Vdocument
p7008
atp7009
Rp7010
(dp7011
g48
VNN
p7012
sbag36
(g37
g38
(lp7013
Vstream
p7014
atp7015
Rp7016
(dp7017
g48
VNN
p7018
sbatp7019
Rp7020
(dp7021
g48
VNP
p7022
sbatp7023
Rp7024
(dp7025
g48
VPP
p7026
sbatp7027
Rp7028
(dp7029
g48
VVP
p7030
sbatp7031
Rp7032
(dp7033
g48
VVP
p7034
sbatp7035
Rp7036
(dp7037
g48
g199
sbatp7038
Rp7039
(dp7040
g48
VVP
p7041
sbag36
(g37
g38
(lp7042
g55
atp7043
Rp7044
(dp7045
g48
g55
sbag36
(g37
g38
(lp7046
g36
(g37
g38
(lp7047
Vclassify
p7048
atp7049
Rp7050
(dp7051
g48
VVB
p7052
sbag36
(g37
g38
(lp7053
g36
(g37
g38
(lp7054
Vthe
p7055
atp7056
Rp7057
(dp7058
g48
VDT
p7059
sbag36
(g37
g38
(lp7060
Vonline
p7061
atp7062
Rp7063
(dp7064
g48
VJJ
p7065
sbag36
(g37
g38
(lp7066
Vdocument
p7067
atp7068
Rp7069
(dp7070
g48
VNN
p7071
sbag36
(g37
g38
(lp7072
Vstream
p7073
atp7074
Rp7075
(dp7076
g48
VNN
p7077
sbatp7078
Rp7079
(dp7080
g48
VNP
p7081
sbag36
(g37
g38
(lp7082
g36
(g37
g38
(lp7083
Vinto
p7084
atp7085
Rp7086
(dp7087
g48
VIN
p7088
sbag36
(g37
g38
(lp7089
g36
(g37
g38
(lp7090
g36
(g37
g38
(lp7091
g36
(g37
g38
(lp7092
Vtopically
p7093
atp7094
Rp7095
(dp7096
g48
VRB
p7097
sbag36
(g37
g38
(lp7098
Vrelated
p7099
atp7100
Rp7101
(dp7102
g48
VVBN
p7103
sbatp7104
Rp7105
(dp7106
g48
VADJP
p7107
sbag36
(g37
g38
(lp7108
Vevents
p7109
atp7110
Rp7111
(dp7112
g48
VNNS
p7113
sbatp7114
Rp7115
(dp7116
g48
VNP
p7117
sbag36
(g37
g38
(lp7118
g36
(g37
g38
(lp7119
Vconsidering
p7120
atp7121
Rp7122
(dp7123
g48
VVBG
p7124
sbag36
(g37
g38
(lp7125
g36
(g37
g38
(lp7126
Vevent
p7127
atp7128
Rp7129
(dp7130
g48
VNN
p7131
sbag36
(g37
g38
(lp7132
Vevolution
p7133
atp7134
Rp7135
(dp7136
g48
VNN
p7137
sbatp7138
Rp7139
(dp7140
g48
VNP
p7141
sbatp7142
Rp7143
(dp7144
g48
VVP
p7145
sbatp7146
Rp7147
(dp7148
g48
VNP
p7149
sbatp7150
Rp7151
(dp7152
g48
VPP
p7153
sbatp7154
Rp7155
(dp7156
g48
VVP
p7157
sbag36
(g37
g38
(lp7158
g55
atp7159
Rp7160
(dp7161
g48
g55
sbag36
(g37
g38
(lp7162
Vand
p7163
atp7164
Rp7165
(dp7166
g48
VCC
p7167
sbag36
(g37
g38
(lp7168
g36
(g37
g38
(lp7169
Vcreate
p7170
atp7171
Rp7172
(dp7173
g48
VVB
p7174
sbag36
(g37
g38
(lp7175
g36
(g37
g38
(lp7176
Van
p7177
atp7178
Rp7179
(dp7180
g48
VDT
p7181
sbag36
(g37
g38
(lp7182
Vevent
p7183
atp7184
Rp7185
(dp7186
g48
VNN
p7187
sbag36
(g37
g38
(lp7188
Vdetection
p7189
atp7190
Rp7191
(dp7192
g48
VNN
p7193
sbag36
(g37
g38
(lp7194
Valgorithm
p7195
atp7196
Rp7197
(dp7198
g48
VNN
p7199
sbatp7200
Rp7201
(dp7202
g48
VNP
p7203
sbag36
(g37
g38
(lp7204
g36
(g37
g38
(lp7205
Vbased
p7206
atp7207
Rp7208
(dp7209
g48
VVBN
p7210
sbag36
(g37
g38
(lp7211
g36
(g37
g38
(lp7212
Von
p7213
atp7214
Rp7215
(dp7216
g48
VIN
p7217
sbag36
(g37
g38
(lp7218
g36
(g37
g38
(lp7219
Vthe
p7220
atp7221
Rp7222
(dp7223
g48
VDT
p7224
sbag36
(g37
g38
(lp7225
Vassociation
p7226
atp7227
Rp7228
(dp7229
g48
VNN
p7230
sbag36
(g37
g38
(lp7231
Vlink
p7232
atp7233
Rp7234
(dp7235
g48
VNN
p7236
sbag36
(g37
g38
(lp7237
Vnetwork
p7238
atp7239
Rp7240
(dp7241
g48
VNN
p7242
sbatp7243
Rp7244
(dp7245
g48
VNP
p7246
sbatp7247
Rp7248
(dp7249
g48
VPP
p7250
sbatp7251
Rp7252
(dp7253
g48
VPP
p7254
sbatp7255
Rp7256
(dp7257
g48
VVP
p7258
sbatp7259
Rp7260
(dp7261
g48
VVP
p7262
sbag36
(g37
g38
(lp7263
g224
atp7264
Rp7265
(dp7266
g48
g224
sbatp7267
Rp7268
(dp7269
g48
g199
sbatp7270
Rp7271
(dp7272
g48
VROOT
p7273
sbasbasg612
I3
sg29
I11
sg32
I0
sba(icmyPackage
Parag
p7274
(dp7275
g14
I2
sg25
(lp7276
(icmyPackage
Sent
p7277
(dp7278
g14
I2
sg29
I12
sg30
S'The sixth paper introduces an approach to discover topic clusters in documents with geographical location [10].'
p7279
sg32
I0
sg33
I36
sg34
(lp7280
g36
(g37
g38
(lp7281
g36
(g37
g38
(lp7282
g36
(g37
g38
(lp7283
g36
(g37
g38
(lp7284
VThe
p7285
atp7286
Rp7287
(dp7288
g48
VDT
p7289
sbag36
(g37
g38
(lp7290
Vsixth
p7291
atp7292
Rp7293
(dp7294
g48
VJJ
p7295
sbag36
(g37
g38
(lp7296
Vpaper
p7297
atp7298
Rp7299
(dp7300
g48
VNN
p7301
sbatp7302
Rp7303
(dp7304
g48
VNP
p7305
sbag36
(g37
g38
(lp7306
g36
(g37
g38
(lp7307
Vintroduces
p7308
atp7309
Rp7310
(dp7311
g48
VVBZ
p7312
sbag36
(g37
g38
(lp7313
g36
(g37
g38
(lp7314
Van
p7315
atp7316
Rp7317
(dp7318
g48
VDT
p7319
sbag36
(g37
g38
(lp7320
Vapproach
p7321
atp7322
Rp7323
(dp7324
g48
VNN
p7325
sbag36
(g37
g38
(lp7326
g36
(g37
g38
(lp7327
g36
(g37
g38
(lp7328
Vto
p7329
atp7330
Rp7331
(dp7332
g48
VTO
p7333
sbag36
(g37
g38
(lp7334
g36
(g37
g38
(lp7335
Vdiscover
p7336
atp7337
Rp7338
(dp7339
g48
VVB
p7340
sbag36
(g37
g38
(lp7341
g36
(g37
g38
(lp7342
Vtopic
p7343
atp7344
Rp7345
(dp7346
g48
VNN
p7347
sbag36
(g37
g38
(lp7348
Vclusters
p7349
atp7350
Rp7351
(dp7352
g48
VNNS
p7353
sbatp7354
Rp7355
(dp7356
g48
VNP
p7357
sbag36
(g37
g38
(lp7358
g36
(g37
g38
(lp7359
Vin
p7360
atp7361
Rp7362
(dp7363
g48
VIN
p7364
sbag36
(g37
g38
(lp7365
g36
(g37
g38
(lp7366
g36
(g37
g38
(lp7367
g36
(g37
g38
(lp7368
Vdocuments
p7369
atp7370
Rp7371
(dp7372
g48
VNNS
p7373
sbatp7374
Rp7375
(dp7376
g48
VNP
p7377
sbag36
(g37
g38
(lp7378
g36
(g37
g38
(lp7379
Vwith
p7380
atp7381
Rp7382
(dp7383
g48
VIN
p7384
sbag36
(g37
g38
(lp7385
g36
(g37
g38
(lp7386
Vgeographical
p7387
atp7388
Rp7389
(dp7390
g48
VJJ
p7391
sbag36
(g37
g38
(lp7392
Vlocation
p7393
atp7394
Rp7395
(dp7396
g48
VNN
p7397
sbatp7398
Rp7399
(dp7400
g48
VNP
p7401
sbatp7402
Rp7403
(dp7404
g48
VPP
p7405
sbatp7406
Rp7407
(dp7408
g48
VNP
p7409
sbag36
(g37
g38
(lp7410
g36
(g37
g38
(lp7411
V-LSB-
p7412
atp7413
Rp7414
(dp7415
g48
VVBG
p7416
sbag36
(g37
g38
(lp7417
g36
(g37
g38
(lp7418
V10
p7419
atp7420
Rp7421
(dp7422
g48
VCD
p7423
sbag36
(g37
g38
(lp7424
V-RSB-
p7425
atp7426
Rp7427
(dp7428
g48
VNNS
p7429
sbatp7430
Rp7431
(dp7432
g48
VNP
p7433
sbatp7434
Rp7435
(dp7436
g48
VVP
p7437
sbatp7438
Rp7439
(dp7440
g48
g199
sbatp7441
Rp7442
(dp7443
g48
VPP
p7444
sbatp7445
Rp7446
(dp7447
g48
VVP
p7448
sbatp7449
Rp7450
(dp7451
g48
VVP
p7452
sbatp7453
Rp7454
(dp7455
g48
g199
sbatp7456
Rp7457
(dp7458
g48
VNP
p7459
sbatp7460
Rp7461
(dp7462
g48
VVP
p7463
sbag36
(g37
g38
(lp7464
g224
atp7465
Rp7466
(dp7467
g48
g224
sbatp7468
Rp7469
(dp7470
g48
g199
sbatp7471
Rp7472
(dp7473
g48
VROOT
p7474
sbasba(icmyPackage
Sent
p7475
(dp7476
g14
I2
sg29
I12
sg30
S'This work is significant as more and more textual documents with geographical locations are published on the Web with the popularity of smartphones with GPS and location-based services like routing, planning, querying, finding and discovering spatial objects are becoming popular.'
p7477
sg32
I0
sg33
I37
sg34
(lp7478
g36
(g37
g38
(lp7479
g36
(g37
g38
(lp7480
g36
(g37
g38
(lp7481
g36
(g37
g38
(lp7482
VThis
p7483
atp7484
Rp7485
(dp7486
g48
VDT
p7487
sbag36
(g37
g38
(lp7488
Vwork
p7489
atp7490
Rp7491
(dp7492
g48
VNN
p7493
sbatp7494
Rp7495
(dp7496
g48
VNP
p7497
sbag36
(g37
g38
(lp7498
g36
(g37
g38
(lp7499
Vis
p7500
atp7501
Rp7502
(dp7503
g48
VVBZ
p7504
sbag36
(g37
g38
(lp7505
g36
(g37
g38
(lp7506
Vsignificant
p7507
atp7508
Rp7509
(dp7510
g48
VJJ
p7511
sbatp7512
Rp7513
(dp7514
g48
VADJP
p7515
sbag36
(g37
g38
(lp7516
g36
(g37
g38
(lp7517
Vas
p7518
atp7519
Rp7520
(dp7521
g48
VIN
p7522
sbag36
(g37
g38
(lp7523
g36
(g37
g38
(lp7524
g36
(g37
g38
(lp7525
g36
(g37
g38
(lp7526
g36
(g37
g38
(lp7527
g36
(g37
g38
(lp7528
g36
(g37
g38
(lp7529
Vmore
p7530
atp7531
Rp7532
(dp7533
g48
VJJR
p7534
sbatp7535
Rp7536
(dp7537
g48
VADJP
p7538
sbag36
(g37
g38
(lp7539
Vand
p7540
atp7541
Rp7542
(dp7543
g48
VCC
p7544
sbag36
(g37
g38
(lp7545
g36
(g37
g38
(lp7546
Vmore
p7547
atp7548
Rp7549
(dp7550
g48
VRBR
p7551
sbag36
(g37
g38
(lp7552
Vtextual
p7553
atp7554
Rp7555
(dp7556
g48
VJJ
p7557
sbatp7558
Rp7559
(dp7560
g48
VADJP
p7561
sbatp7562
Rp7563
(dp7564
g48
VADJP
p7565
sbag36
(g37
g38
(lp7566
Vdocuments
p7567
atp7568
Rp7569
(dp7570
g48
VNNS
p7571
sbatp7572
Rp7573
(dp7574
g48
VNP
p7575
sbag36
(g37
g38
(lp7576
g36
(g37
g38
(lp7577
Vwith
p7578
atp7579
Rp7580
(dp7581
g48
VIN
p7582
sbag36
(g37
g38
(lp7583
g36
(g37
g38
(lp7584
Vgeographical
p7585
atp7586
Rp7587
(dp7588
g48
VJJ
p7589
sbag36
(g37
g38
(lp7590
Vlocations
p7591
atp7592
Rp7593
(dp7594
g48
VNNS
p7595
sbatp7596
Rp7597
(dp7598
g48
VNP
p7599
sbatp7600
Rp7601
(dp7602
g48
VPP
p7603
sbatp7604
Rp7605
(dp7606
g48
VNP
p7607
sbag36
(g37
g38
(lp7608
g36
(g37
g38
(lp7609
Vare
p7610
atp7611
Rp7612
(dp7613
g48
VVBP
p7614
sbag36
(g37
g38
(lp7615
g36
(g37
g38
(lp7616
Vpublished
p7617
atp7618
Rp7619
(dp7620
g48
VVBN
p7621
sbag36
(g37
g38
(lp7622
g36
(g37
g38
(lp7623
Von
p7624
atp7625
Rp7626
(dp7627
g48
VIN
p7628
sbag36
(g37
g38
(lp7629
g36
(g37
g38
(lp7630
Vthe
p7631
atp7632
Rp7633
(dp7634
g48
VDT
p7635
sbag36
(g37
g38
(lp7636
VWeb
p7637
atp7638
Rp7639
(dp7640
g48
VNNP
p7641
sbatp7642
Rp7643
(dp7644
g48
VNP
p7645
sbatp7646
Rp7647
(dp7648
g48
VPP
p7649
sbag36
(g37
g38
(lp7650
g36
(g37
g38
(lp7651
Vwith
p7652
atp7653
Rp7654
(dp7655
g48
VIN
p7656
sbag36
(g37
g38
(lp7657
g36
(g37
g38
(lp7658
g36
(g37
g38
(lp7659
Vthe
p7660
atp7661
Rp7662
(dp7663
g48
VDT
p7664
sbag36
(g37
g38
(lp7665
Vpopularity
p7666
atp7667
Rp7668
(dp7669
g48
VNN
p7670
sbatp7671
Rp7672
(dp7673
g48
VNP
p7674
sbag36
(g37
g38
(lp7675
g36
(g37
g38
(lp7676
Vof
p7677
atp7678
Rp7679
(dp7680
g48
VIN
p7681
sbag36
(g37
g38
(lp7682
g36
(g37
g38
(lp7683
g36
(g37
g38
(lp7684
Vsmartphones
p7685
atp7686
Rp7687
(dp7688
g48
VNNS
p7689
sbatp7690
Rp7691
(dp7692
g48
VNP
p7693
sbag36
(g37
g38
(lp7694
g36
(g37
g38
(lp7695
Vwith
p7696
atp7697
Rp7698
(dp7699
g48
VIN
p7700
sbag36
(g37
g38
(lp7701
g36
(g37
g38
(lp7702
VGPS
p7703
atp7704
Rp7705
(dp7706
g48
VNNP
p7707
sbatp7708
Rp7709
(dp7710
g48
VNP
p7711
sbatp7712
Rp7713
(dp7714
g48
VPP
p7715
sbatp7716
Rp7717
(dp7718
g48
VNP
p7719
sbatp7720
Rp7721
(dp7722
g48
VPP
p7723
sbatp7724
Rp7725
(dp7726
g48
VNP
p7727
sbatp7728
Rp7729
(dp7730
g48
VPP
p7731
sbatp7732
Rp7733
(dp7734
g48
VVP
p7735
sbatp7736
Rp7737
(dp7738
g48
VVP
p7739
sbatp7740
Rp7741
(dp7742
g48
g199
sbag36
(g37
g38
(lp7743
Vand
p7744
atp7745
Rp7746
(dp7747
g48
VCC
p7748
sbag36
(g37
g38
(lp7749
g36
(g37
g38
(lp7750
g36
(g37
g38
(lp7751
g36
(g37
g38
(lp7752
Vlocation-based
p7753
atp7754
Rp7755
(dp7756
g48
VJJ
p7757
sbag36
(g37
g38
(lp7758
Vservices
p7759
atp7760
Rp7761
(dp7762
g48
VNNS
p7763
sbatp7764
Rp7765
(dp7766
g48
VNP
p7767
sbag36
(g37
g38
(lp7768
g36
(g37
g38
(lp7769
Vlike
p7770
atp7771
Rp7772
(dp7773
g48
VIN
p7774
sbag36
(g37
g38
(lp7775
g36
(g37
g38
(lp7776
g36
(g37
g38
(lp7777
g36
(g37
g38
(lp7778
Vrouting
p7779
atp7780
Rp7781
(dp7782
g48
VVBG
p7783
sbatp7784
Rp7785
(dp7786
g48
VVP
p7787
sbag36
(g37
g38
(lp7788
g55
atp7789
Rp7790
(dp7791
g48
g55
sbag36
(g37
g38
(lp7792
g36
(g37
g38
(lp7793
Vplanning
p7794
atp7795
Rp7796
(dp7797
g48
VVBG
p7798
sbatp7799
Rp7800
(dp7801
g48
VVP
p7802
sbag36
(g37
g38
(lp7803
g55
atp7804
Rp7805
(dp7806
g48
g55
sbag36
(g37
g38
(lp7807
g36
(g37
g38
(lp7808
Vquerying
p7809
atp7810
Rp7811
(dp7812
g48
VVBG
p7813
sbatp7814
Rp7815
(dp7816
g48
VVP
p7817
sbag36
(g37
g38
(lp7818
g55
atp7819
Rp7820
(dp7821
g48
g55
sbag36
(g37
g38
(lp7822
g36
(g37
g38
(lp7823
Vfinding
p7824
atp7825
Rp7826
(dp7827
g48
VVBG
p7828
sbatp7829
Rp7830
(dp7831
g48
VVP
p7832
sbag36
(g37
g38
(lp7833
Vand
p7834
atp7835
Rp7836
(dp7837
g48
VCC
p7838
sbag36
(g37
g38
(lp7839
g36
(g37
g38
(lp7840
Vdiscovering
p7841
atp7842
Rp7843
(dp7844
g48
VVBG
p7845
sbag36
(g37
g38
(lp7846
g36
(g37
g38
(lp7847
Vspatial
p7848
atp7849
Rp7850
(dp7851
g48
VJJ
p7852
sbag36
(g37
g38
(lp7853
Vobjects
p7854
atp7855
Rp7856
(dp7857
g48
VNNS
p7858
sbatp7859
Rp7860
(dp7861
g48
VNP
p7862
sbatp7863
Rp7864
(dp7865
g48
VVP
p7866
sbatp7867
Rp7868
(dp7869
g48
VVP
p7870
sbatp7871
Rp7872
(dp7873
g48
g199
sbatp7874
Rp7875
(dp7876
g48
VPP
p7877
sbatp7878
Rp7879
(dp7880
g48
VNP
p7881
sbag36
(g37
g38
(lp7882
g36
(g37
g38
(lp7883
Vare
p7884
atp7885
Rp7886
(dp7887
g48
VVBP
p7888
sbag36
(g37
g38
(lp7889
g36
(g37
g38
(lp7890
Vbecoming
p7891
atp7892
Rp7893
(dp7894
g48
VVBG
p7895
sbag36
(g37
g38
(lp7896
g36
(g37
g38
(lp7897
Vpopular
p7898
atp7899
Rp7900
(dp7901
g48
VJJ
p7902
sbatp7903
Rp7904
(dp7905
g48
VADJP
p7906
sbatp7907
Rp7908
(dp7909
g48
VVP
p7910
sbatp7911
Rp7912
(dp7913
g48
VVP
p7914
sbatp7915
Rp7916
(dp7917
g48
g199
sbatp7918
Rp7919
(dp7920
g48
g199
sbatp7921
Rp7922
(dp7923
g48
VSBAR
p7924
sbatp7925
Rp7926
(dp7927
g48
VVP
p7928
sbag36
(g37
g38
(lp7929
g224
atp7930
Rp7931
(dp7932
g48
g224
sbatp7933
Rp7934
(dp7935
g48
g199
sbatp7936
Rp7937
(dp7938
g48
VROOT
p7939
sbasba(icmyPackage
Sent
p7940
(dp7941
g14
I2
sg29
I12
sg30
S'The combination of the probabilistic topic model with clustering algorithms could be an effective way to discover meaningful clusters in different facets and levels of documents with textual and geographical information.'
p7942
sg32
I0
sg33
I38
sg34
(lp7943
g36
(g37
g38
(lp7944
g36
(g37
g38
(lp7945
g36
(g37
g38
(lp7946
g36
(g37
g38
(lp7947
g36
(g37
g38
(lp7948
VThe
p7949
atp7950
Rp7951
(dp7952
g48
VDT
p7953
sbag36
(g37
g38
(lp7954
Vcombination
p7955
atp7956
Rp7957
(dp7958
g48
VNN
p7959
sbatp7960
Rp7961
(dp7962
g48
VNP
p7963
sbag36
(g37
g38
(lp7964
g36
(g37
g38
(lp7965
Vof
p7966
atp7967
Rp7968
(dp7969
g48
VIN
p7970
sbag36
(g37
g38
(lp7971
g36
(g37
g38
(lp7972
g36
(g37
g38
(lp7973
Vthe
p7974
atp7975
Rp7976
(dp7977
g48
VDT
p7978
sbag36
(g37
g38
(lp7979
Vprobabilistic
p7980
atp7981
Rp7982
(dp7983
g48
VJJ
p7984
sbag36
(g37
g38
(lp7985
Vtopic
p7986
atp7987
Rp7988
(dp7989
g48
VNN
p7990
sbag36
(g37
g38
(lp7991
Vmodel
p7992
atp7993
Rp7994
(dp7995
g48
VNN
p7996
sbatp7997
Rp7998
(dp7999
g48
VNP
p8000
sbag36
(g37
g38
(lp8001
g36
(g37
g38
(lp8002
Vwith
p8003
atp8004
Rp8005
(dp8006
g48
VIN
p8007
sbag36
(g37
g38
(lp8008
g36
(g37
g38
(lp8009
Vclustering
p8010
atp8011
Rp8012
(dp8013
g48
VVBG
p8014
sbag36
(g37
g38
(lp8015
Valgorithms
p8016
atp8017
Rp8018
(dp8019
g48
VNNS
p8020
sbatp8021
Rp8022
(dp8023
g48
VNP
p8024
sbatp8025
Rp8026
(dp8027
g48
VPP
p8028
sbatp8029
Rp8030
(dp8031
g48
VNP
p8032
sbatp8033
Rp8034
(dp8035
g48
VPP
p8036
sbatp8037
Rp8038
(dp8039
g48
VNP
p8040
sbag36
(g37
g38
(lp8041
g36
(g37
g38
(lp8042
Vcould
p8043
atp8044
Rp8045
(dp8046
g48
VMD
p8047
sbag36
(g37
g38
(lp8048
g36
(g37
g38
(lp8049
Vbe
p8050
atp8051
Rp8052
(dp8053
g48
VVB
p8054
sbag36
(g37
g38
(lp8055
g36
(g37
g38
(lp8056
Van
p8057
atp8058
Rp8059
(dp8060
g48
VDT
p8061
sbag36
(g37
g38
(lp8062
Veffective
p8063
atp8064
Rp8065
(dp8066
g48
VJJ
p8067
sbag36
(g37
g38
(lp8068
Vway
p8069
atp8070
Rp8071
(dp8072
g48
VNN
p8073
sbag36
(g37
g38
(lp8074
g36
(g37
g38
(lp8075
g36
(g37
g38
(lp8076
Vto
p8077
atp8078
Rp8079
(dp8080
g48
VTO
p8081
sbag36
(g37
g38
(lp8082
g36
(g37
g38
(lp8083
Vdiscover
p8084
atp8085
Rp8086
(dp8087
g48
VVB
p8088
sbag36
(g37
g38
(lp8089
g36
(g37
g38
(lp8090
Vmeaningful
p8091
atp8092
Rp8093
(dp8094
g48
VJJ
p8095
sbag36
(g37
g38
(lp8096
Vclusters
p8097
atp8098
Rp8099
(dp8100
g48
VNNS
p8101
sbatp8102
Rp8103
(dp8104
g48
VNP
p8105
sbag36
(g37
g38
(lp8106
g36
(g37
g38
(lp8107
Vin
p8108
atp8109
Rp8110
(dp8111
g48
VIN
p8112
sbag36
(g37
g38
(lp8113
g36
(g37
g38
(lp8114
g36
(g37
g38
(lp8115
Vdifferent
p8116
atp8117
Rp8118
(dp8119
g48
VJJ
p8120
sbag36
(g37
g38
(lp8121
Vfacets
p8122
atp8123
Rp8124
(dp8125
g48
VNNS
p8126
sbag36
(g37
g38
(lp8127
Vand
p8128
atp8129
Rp8130
(dp8131
g48
VCC
p8132
sbag36
(g37
g38
(lp8133
Vlevels
p8134
atp8135
Rp8136
(dp8137
g48
VNNS
p8138
sbatp8139
Rp8140
(dp8141
g48
VNP
p8142
sbag36
(g37
g38
(lp8143
g36
(g37
g38
(lp8144
Vof
p8145
atp8146
Rp8147
(dp8148
g48
VIN
p8149
sbag36
(g37
g38
(lp8150
g36
(g37
g38
(lp8151
g36
(g37
g38
(lp8152
Vdocuments
p8153
atp8154
Rp8155
(dp8156
g48
VNNS
p8157
sbatp8158
Rp8159
(dp8160
g48
VNP
p8161
sbag36
(g37
g38
(lp8162
g36
(g37
g38
(lp8163
Vwith
p8164
atp8165
Rp8166
(dp8167
g48
VIN
p8168
sbag36
(g37
g38
(lp8169
g36
(g37
g38
(lp8170
g36
(g37
g38
(lp8171
Vtextual
p8172
atp8173
Rp8174
(dp8175
g48
VJJ
p8176
sbag36
(g37
g38
(lp8177
Vand
p8178
atp8179
Rp8180
(dp8181
g48
VCC
p8182
sbag36
(g37
g38
(lp8183
Vgeographical
p8184
atp8185
Rp8186
(dp8187
g48
VJJ
p8188
sbatp8189
Rp8190
(dp8191
g48
VADJP
p8192
sbag36
(g37
g38
(lp8193
Vinformation
p8194
atp8195
Rp8196
(dp8197
g48
VNN
p8198
sbatp8199
Rp8200
(dp8201
g48
VNP
p8202
sbatp8203
Rp8204
(dp8205
g48
VPP
p8206
sbatp8207
Rp8208
(dp8209
g48
VNP
p8210
sbatp8211
Rp8212
(dp8213
g48
VPP
p8214
sbatp8215
Rp8216
(dp8217
g48
VNP
p8218
sbatp8219
Rp8220
(dp8221
g48
VPP
p8222
sbatp8223
Rp8224
(dp8225
g48
VVP
p8226
sbatp8227
Rp8228
(dp8229
g48
VVP
p8230
sbatp8231
Rp8232
(dp8233
g48
g199
sbatp8234
Rp8235
(dp8236
g48
VNP
p8237
sbatp8238
Rp8239
(dp8240
g48
VVP
p8241
sbatp8242
Rp8243
(dp8244
g48
VVP
p8245
sbag36
(g37
g38
(lp8246
g224
atp8247
Rp8248
(dp8249
g48
g224
sbatp8250
Rp8251
(dp8252
g48
g199
sbatp8253
Rp8254
(dp8255
g48
VROOT
p8256
sbasbasg612
I3
sg29
I12
sg32
I0
sba(icmyPackage
Parag
p8257
(dp8258
g14
I2
sg25
(lp8259
(icmyPackage
Sent
p8260
(dp8261
g14
I2
sg29
I13
sg30
S'The seventh paper tries to break the limitations of the conventional graph kernels to realize a semantic link network.'
p8262
sg32
I0
sg33
I39
sg34
(lp8263
g36
(g37
g38
(lp8264
g36
(g37
g38
(lp8265
g36
(g37
g38
(lp8266
g36
(g37
g38
(lp8267
VThe
p8268
atp8269
Rp8270
(dp8271
g48
VDT
p8272
sbag36
(g37
g38
(lp8273
Vseventh
p8274
atp8275
Rp8276
(dp8277
g48
VJJ
p8278
sbag36
(g37
g38
(lp8279
Vpaper
p8280
atp8281
Rp8282
(dp8283
g48
VNN
p8284
sbatp8285
Rp8286
(dp8287
g48
VNP
p8288
sbag36
(g37
g38
(lp8289
g36
(g37
g38
(lp8290
Vtries
p8291
atp8292
Rp8293
(dp8294
g48
VVBZ
p8295
sbag36
(g37
g38
(lp8296
g36
(g37
g38
(lp8297
g36
(g37
g38
(lp8298
Vto
p8299
atp8300
Rp8301
(dp8302
g48
VTO
p8303
sbag36
(g37
g38
(lp8304
g36
(g37
g38
(lp8305
Vbreak
p8306
atp8307
Rp8308
(dp8309
g48
VVB
p8310
sbag36
(g37
g38
(lp8311
g36
(g37
g38
(lp8312
g36
(g37
g38
(lp8313
Vthe
p8314
atp8315
Rp8316
(dp8317
g48
VDT
p8318
sbag36
(g37
g38
(lp8319
Vlimitations
p8320
atp8321
Rp8322
(dp8323
g48
VNNS
p8324
sbatp8325
Rp8326
(dp8327
g48
VNP
p8328
sbag36
(g37
g38
(lp8329
g36
(g37
g38
(lp8330
Vof
p8331
atp8332
Rp8333
(dp8334
g48
VIN
p8335
sbag36
(g37
g38
(lp8336
g36
(g37
g38
(lp8337
Vthe
p8338
atp8339
Rp8340
(dp8341
g48
VDT
p8342
sbag36
(g37
g38
(lp8343
Vconventional
p8344
atp8345
Rp8346
(dp8347
g48
VJJ
p8348
sbag36
(g37
g38
(lp8349
Vgraph
p8350
atp8351
Rp8352
(dp8353
g48
VNN
p8354
sbag36
(g37
g38
(lp8355
Vkernels
p8356
atp8357
Rp8358
(dp8359
g48
VNNS
p8360
sbatp8361
Rp8362
(dp8363
g48
VNP
p8364
sbatp8365
Rp8366
(dp8367
g48
VPP
p8368
sbatp8369
Rp8370
(dp8371
g48
VNP
p8372
sbag36
(g37
g38
(lp8373
g36
(g37
g38
(lp8374
g36
(g37
g38
(lp8375
Vto
p8376
atp8377
Rp8378
(dp8379
g48
VTO
p8380
sbag36
(g37
g38
(lp8381
g36
(g37
g38
(lp8382
Vrealize
p8383
atp8384
Rp8385
(dp8386
g48
VVB
p8387
sbag36
(g37
g38
(lp8388
g36
(g37
g38
(lp8389
g643
atp8390
Rp8391
(dp8392
g48
VDT
p8393
sbag36
(g37
g38
(lp8394
Vsemantic
p8395
atp8396
Rp8397
(dp8398
g48
VJJ
p8399
sbag36
(g37
g38
(lp8400
Vlink
p8401
atp8402
Rp8403
(dp8404
g48
VNN
p8405
sbag36
(g37
g38
(lp8406
Vnetwork
p8407
atp8408
Rp8409
(dp8410
g48
VNN
p8411
sbatp8412
Rp8413
(dp8414
g48
VNP
p8415
sbatp8416
Rp8417
(dp8418
g48
VVP
p8419
sbatp8420
Rp8421
(dp8422
g48
VVP
p8423
sbatp8424
Rp8425
(dp8426
g48
g199
sbatp8427
Rp8428
(dp8429
g48
VVP
p8430
sbatp8431
Rp8432
(dp8433
g48
VVP
p8434
sbatp8435
Rp8436
(dp8437
g48
g199
sbatp8438
Rp8439
(dp8440
g48
VVP
p8441
sbag36
(g37
g38
(lp8442
g224
atp8443
Rp8444
(dp8445
g48
g224
sbatp8446
Rp8447
(dp8448
g48
g199
sbatp8449
Rp8450
(dp8451
g48
VROOT
p8452
sbasba(icmyPackage
Sent
p8453
(dp8454
g14
I2
sg29
I13
sg30
S'The effectiveness and efficiency are evaluated by the document classification on public corpora.'
p8455
sg32
I0
sg33
I40
sg34
(lp8456
g36
(g37
g38
(lp8457
g36
(g37
g38
(lp8458
g36
(g37
g38
(lp8459
g36
(g37
g38
(lp8460
VThe
p8461
atp8462
Rp8463
(dp8464
g48
VDT
p8465
sbag36
(g37
g38
(lp8466
Veffectiveness
p8467
atp8468
Rp8469
(dp8470
g48
VNN
p8471
sbag36
(g37
g38
(lp8472
Vand
p8473
atp8474
Rp8475
(dp8476
g48
VCC
p8477
sbag36
(g37
g38
(lp8478
Vefficiency
p8479
atp8480
Rp8481
(dp8482
g48
VNN
p8483
sbatp8484
Rp8485
(dp8486
g48
VNP
p8487
sbag36
(g37
g38
(lp8488
g36
(g37
g38
(lp8489
Vare
p8490
atp8491
Rp8492
(dp8493
g48
VVBP
p8494
sbag36
(g37
g38
(lp8495
g36
(g37
g38
(lp8496
Vevaluated
p8497
atp8498
Rp8499
(dp8500
g48
VVBN
p8501
sbag36
(g37
g38
(lp8502
g36
(g37
g38
(lp8503
Vby
p8504
atp8505
Rp8506
(dp8507
g48
VIN
p8508
sbag36
(g37
g38
(lp8509
g36
(g37
g38
(lp8510
g36
(g37
g38
(lp8511
Vthe
p8512
atp8513
Rp8514
(dp8515
g48
VDT
p8516
sbag36
(g37
g38
(lp8517
Vdocument
p8518
atp8519
Rp8520
(dp8521
g48
VNN
p8522
sbag36
(g37
g38
(lp8523
Vclassification
p8524
atp8525
Rp8526
(dp8527
g48
VNN
p8528
sbatp8529
Rp8530
(dp8531
g48
VNP
p8532
sbag36
(g37
g38
(lp8533
g36
(g37
g38
(lp8534
Von
p8535
atp8536
Rp8537
(dp8538
g48
VIN
p8539
sbag36
(g37
g38
(lp8540
g36
(g37
g38
(lp8541
Vpublic
p8542
atp8543
Rp8544
(dp8545
g48
VJJ
p8546
sbag36
(g37
g38
(lp8547
Vcorpora
p8548
atp8549
Rp8550
(dp8551
g48
VNN
p8552
sbatp8553
Rp8554
(dp8555
g48
VNP
p8556
sbatp8557
Rp8558
(dp8559
g48
VPP
p8560
sbatp8561
Rp8562
(dp8563
g48
VNP
p8564
sbatp8565
Rp8566
(dp8567
g48
VPP
p8568
sbatp8569
Rp8570
(dp8571
g48
VVP
p8572
sbatp8573
Rp8574
(dp8575
g48
VVP
p8576
sbag36
(g37
g38
(lp8577
g224
atp8578
Rp8579
(dp8580
g48
g224
sbatp8581
Rp8582
(dp8583
g48
g199
sbatp8584
Rp8585
(dp8586
g48
VROOT
p8587
sbasba(icmyPackage
Sent
p8588
(dp8589
g14
I2
sg29
I13
sg30
S'Empirical results demonstrate that the proposed method can achieve better performance than the traditional topic model-based approaches [11].'
p8590
sg32
I0
sg33
I41
sg34
(lp8591
g36
(g37
g38
(lp8592
g36
(g37
g38
(lp8593
g36
(g37
g38
(lp8594
g36
(g37
g38
(lp8595
VEmpirical
p8596
atp8597
Rp8598
(dp8599
g48
VJJ
p8600
sbag36
(g37
g38
(lp8601
Vresults
p8602
atp8603
Rp8604
(dp8605
g48
VNNS
p8606
sbatp8607
Rp8608
(dp8609
g48
VNP
p8610
sbag36
(g37
g38
(lp8611
g36
(g37
g38
(lp8612
Vdemonstrate
p8613
atp8614
Rp8615
(dp8616
g48
VVBP
p8617
sbag36
(g37
g38
(lp8618
g36
(g37
g38
(lp8619
Vthat
p8620
atp8621
Rp8622
(dp8623
g48
VIN
p8624
sbag36
(g37
g38
(lp8625
g36
(g37
g38
(lp8626
g36
(g37
g38
(lp8627
Vthe
p8628
atp8629
Rp8630
(dp8631
g48
VDT
p8632
sbag36
(g37
g38
(lp8633
Vproposed
p8634
atp8635
Rp8636
(dp8637
g48
VVBN
p8638
sbag36
(g37
g38
(lp8639
Vmethod
p8640
atp8641
Rp8642
(dp8643
g48
VNN
p8644
sbatp8645
Rp8646
(dp8647
g48
VNP
p8648
sbag36
(g37
g38
(lp8649
g36
(g37
g38
(lp8650
Vcan
p8651
atp8652
Rp8653
(dp8654
g48
VMD
p8655
sbag36
(g37
g38
(lp8656
g36
(g37
g38
(lp8657
Vachieve
p8658
atp8659
Rp8660
(dp8661
g48
VVB
p8662
sbag36
(g37
g38
(lp8663
g36
(g37
g38
(lp8664
Vbetter
p8665
atp8666
Rp8667
(dp8668
g48
VJJR
p8669
sbag36
(g37
g38
(lp8670
Vperformance
p8671
atp8672
Rp8673
(dp8674
g48
VNN
p8675
sbatp8676
Rp8677
(dp8678
g48
VNP
p8679
sbag36
(g37
g38
(lp8680
g36
(g37
g38
(lp8681
Vthan
p8682
atp8683
Rp8684
(dp8685
g48
VIN
p8686
sbag36
(g37
g38
(lp8687
g36
(g37
g38
(lp8688
g36
(g37
g38
(lp8689
Vthe
p8690
atp8691
Rp8692
(dp8693
g48
VDT
p8694
sbag36
(g37
g38
(lp8695
Vtraditional
p8696
atp8697
Rp8698
(dp8699
g48
VJJ
p8700
sbag36
(g37
g38
(lp8701
Vtopic
p8702
atp8703
Rp8704
(dp8705
g48
VNN
p8706
sbatp8707
Rp8708
(dp8709
g48
VNP
p8710
sbag36
(g37
g38
(lp8711
g36
(g37
g38
(lp8712
g36
(g37
g38
(lp8713
g36
(g37
g38
(lp8714
Vmodel-based
p8715
atp8716
Rp8717
(dp8718
g48
VJJ
p8719
sbag36
(g37
g38
(lp8720
Vapproaches
p8721
atp8722
Rp8723
(dp8724
g48
VNNS
p8725
sbatp8726
Rp8727
(dp8728
g48
VNP
p8729
sbag36
(g37
g38
(lp8730
g36
(g37
g38
(lp8731
V-LSB-
p8732
atp8733
Rp8734
(dp8735
g48
VVBZ
p8736
sbag36
(g37
g38
(lp8737
g36
(g37
g38
(lp8738
V11
p8739
atp8740
Rp8741
(dp8742
g48
VCD
p8743
sbag36
(g37
g38
(lp8744
V-RSB-
p8745
atp8746
Rp8747
(dp8748
g48
VNNS
p8749
sbatp8750
Rp8751
(dp8752
g48
VNP
p8753
sbatp8754
Rp8755
(dp8756
g48
VVP
p8757
sbatp8758
Rp8759
(dp8760
g48
g199
sbatp8761
Rp8762
(dp8763
g48
VSBAR
p8764
sbatp8765
Rp8766
(dp8767
g48
VNP
p8768
sbatp8769
Rp8770
(dp8771
g48
VPP
p8772
sbatp8773
Rp8774
(dp8775
g48
VVP
p8776
sbatp8777
Rp8778
(dp8779
g48
VVP
p8780
sbatp8781
Rp8782
(dp8783
g48
g199
sbatp8784
Rp8785
(dp8786
g48
VSBAR
p8787
sbatp8788
Rp8789
(dp8790
g48
VVP
p8791
sbag36
(g37
g38
(lp8792
g224
atp8793
Rp8794
(dp8795
g48
g224
sbatp8796
Rp8797
(dp8798
g48
g199
sbatp8799
Rp8800
(dp8801
g48
VROOT
p8802
sbasbasg612
I3
sg29
I13
sg32
I0
sba(icmyPackage
Parag
p8803
(dp8804
g14
I2
sg25
(lp8805
(icmyPackage
Sent
p8806
(dp8807
g14
I2
sg29
I14
sg30
S'The eighth paper reviews the field of semantic web services, compares web ontology language for services, web service modelling ontology and semantic annotations for the web services description language from the views of the service requester, provider and the broker.'
p8808
sg32
I0
sg33
I42
sg34
(lp8809
g36
(g37
g38
(lp8810
g36
(g37
g38
(lp8811
g36
(g37
g38
(lp8812
g36
(g37
g38
(lp8813
g36
(g37
g38
(lp8814
VThe
p8815
atp8816
Rp8817
(dp8818
g48
VDT
p8819
sbag36
(g37
g38
(lp8820
Veighth
p8821
atp8822
Rp8823
(dp8824
g48
VJJ
p8825
sbag36
(g37
g38
(lp8826
Vpaper
p8827
atp8828
Rp8829
(dp8830
g48
VNN
p8831
sbatp8832
Rp8833
(dp8834
g48
VNP
p8835
sbag36
(g37
g38
(lp8836
g36
(g37
g38
(lp8837
Vreviews
p8838
atp8839
Rp8840
(dp8841
g48
VVBZ
p8842
sbag36
(g37
g38
(lp8843
g36
(g37
g38
(lp8844
g36
(g37
g38
(lp8845
Vthe
p8846
atp8847
Rp8848
(dp8849
g48
VDT
p8850
sbag36
(g37
g38
(lp8851
Vfield
p8852
atp8853
Rp8854
(dp8855
g48
VNN
p8856
sbatp8857
Rp8858
(dp8859
g48
VNP
p8860
sbag36
(g37
g38
(lp8861
g36
(g37
g38
(lp8862
Vof
p8863
atp8864
Rp8865
(dp8866
g48
VIN
p8867
sbag36
(g37
g38
(lp8868
g36
(g37
g38
(lp8869
Vsemantic
p8870
atp8871
Rp8872
(dp8873
g48
VJJ
p8874
sbag36
(g37
g38
(lp8875
Vweb
p8876
atp8877
Rp8878
(dp8879
g48
VNN
p8880
sbag36
(g37
g38
(lp8881
Vservices
p8882
atp8883
Rp8884
(dp8885
g48
VNNS
p8886
sbatp8887
Rp8888
(dp8889
g48
VNP
p8890
sbatp8891
Rp8892
(dp8893
g48
VPP
p8894
sbatp8895
Rp8896
(dp8897
g48
VNP
p8898
sbatp8899
Rp8900
(dp8901
g48
VVP
p8902
sbatp8903
Rp8904
(dp8905
g48
g199
sbag36
(g37
g38
(lp8906
g55
atp8907
Rp8908
(dp8909
g48
g55
sbag36
(g37
g38
(lp8910
g36
(g37
g38
(lp8911
Vcompares
p8912
atp8913
Rp8914
(dp8915
g48
VVBZ
p8916
sbag36
(g37
g38
(lp8917
g36
(g37
g38
(lp8918
g36
(g37
g38
(lp8919
Vweb
p8920
atp8921
Rp8922
(dp8923
g48
VNN
p8924
sbag36
(g37
g38
(lp8925
Vontology
p8926
atp8927
Rp8928
(dp8929
g48
VNN
p8930
sbag36
(g37
g38
(lp8931
Vlanguage
p8932
atp8933
Rp8934
(dp8935
g48
VNN
p8936
sbatp8937
Rp8938
(dp8939
g48
VNP
p8940
sbag36
(g37
g38
(lp8941
g36
(g37
g38
(lp8942
Vfor
p8943
atp8944
Rp8945
(dp8946
g48
VIN
p8947
sbag36
(g37
g38
(lp8948
g36
(g37
g38
(lp8949
g36
(g37
g38
(lp8950
Vservices
p8951
atp8952
Rp8953
(dp8954
g48
VNNS
p8955
sbatp8956
Rp8957
(dp8958
g48
VNP
p8959
sbag36
(g37
g38
(lp8960
g55
atp8961
Rp8962
(dp8963
g48
g55
sbag36
(g37
g38
(lp8964
g36
(g37
g38
(lp8965
g36
(g37
g38
(lp8966
Vweb
p8967
atp8968
Rp8969
(dp8970
g48
VNN
p8971
sbag36
(g37
g38
(lp8972
Vservice
p8973
atp8974
Rp8975
(dp8976
g48
VNN
p8977
sbatp8978
Rp8979
(dp8980
g48
VNP
p8981
sbag36
(g37
g38
(lp8982
g36
(g37
g38
(lp8983
Vmodelling
p8984
atp8985
Rp8986
(dp8987
g48
VVBG
p8988
sbag36
(g37
g38
(lp8989
g36
(g37
g38
(lp8990
g36
(g37
g38
(lp8991
g36
(g37
g38
(lp8992
Vontology
p8993
atp8994
Rp8995
(dp8996
g48
VJJ
p8997
sbag36
(g37
g38
(lp8998
Vand
p8999
atp9000
Rp9001
(dp9002
g48
VCC
p9003
sbag36
(g37
g38
(lp9004
Vsemantic
p9005
atp9006
Rp9007
(dp9008
g48
VJJ
p9009
sbatp9010
Rp9011
(dp9012
g48
VADJP
p9013
sbag36
(g37
g38
(lp9014
Vannotations
p9015
atp9016
Rp9017
(dp9018
g48
VNNS
p9019
sbatp9020
Rp9021
(dp9022
g48
VNP
p9023
sbag36
(g37
g38
(lp9024
g36
(g37
g38
(lp9025
Vfor
p9026
atp9027
Rp9028
(dp9029
g48
VIN
p9030
sbag36
(g37
g38
(lp9031
g36
(g37
g38
(lp9032
g36
(g37
g38
(lp9033
Vthe
p9034
atp9035
Rp9036
(dp9037
g48
VDT
p9038
sbag36
(g37
g38
(lp9039
Vweb
p9040
atp9041
Rp9042
(dp9043
g48
VNN
p9044
sbag36
(g37
g38
(lp9045
Vservices
p9046
atp9047
Rp9048
(dp9049
g48
VNNS
p9050
sbag36
(g37
g38
(lp9051
Vdescription
p9052
atp9053
Rp9054
(dp9055
g48
VNN
p9056
sbag36
(g37
g38
(lp9057
Vlanguage
p9058
atp9059
Rp9060
(dp9061
g48
VNN
p9062
sbatp9063
Rp9064
(dp9065
g48
VNP
p9066
sbag36
(g37
g38
(lp9067
g36
(g37
g38
(lp9068
Vfrom
p9069
atp9070
Rp9071
(dp9072
g48
VIN
p9073
sbag36
(g37
g38
(lp9074
g36
(g37
g38
(lp9075
g36
(g37
g38
(lp9076
Vthe
p9077
atp9078
Rp9079
(dp9080
g48
VDT
p9081
sbag36
(g37
g38
(lp9082
Vviews
p9083
atp9084
Rp9085
(dp9086
g48
VNNS
p9087
sbatp9088
Rp9089
(dp9090
g48
VNP
p9091
sbag36
(g37
g38
(lp9092
g36
(g37
g38
(lp9093
Vof
p9094
atp9095
Rp9096
(dp9097
g48
VIN
p9098
sbag36
(g37
g38
(lp9099
g36
(g37
g38
(lp9100
Vthe
p9101
atp9102
Rp9103
(dp9104
g48
VDT
p9105
sbag36
(g37
g38
(lp9106
Vservice
p9107
atp9108
Rp9109
(dp9110
g48
VNN
p9111
sbatp9112
Rp9113
(dp9114
g48
VNP
p9115
sbatp9116
Rp9117
(dp9118
g48
VPP
p9119
sbatp9120
Rp9121
(dp9122
g48
VNP
p9123
sbatp9124
Rp9125
(dp9126
g48
VPP
p9127
sbatp9128
Rp9129
(dp9130
g48
VNP
p9131
sbatp9132
Rp9133
(dp9134
g48
VPP
p9135
sbatp9136
Rp9137
(dp9138
g48
VNP
p9139
sbatp9140
Rp9141
(dp9142
g48
VVP
p9143
sbatp9144
Rp9145
(dp9146
g48
VNP
p9147
sbatp9148
Rp9149
(dp9150
g48
VNP
p9151
sbatp9152
Rp9153
(dp9154
g48
VPP
p9155
sbatp9156
Rp9157
(dp9158
g48
VNP
p9159
sbatp9160
Rp9161
(dp9162
g48
VVP
p9163
sbag36
(g37
g38
(lp9164
g36
(g37
g38
(lp9165
g36
(g37
g38
(lp9166
Vrequester
p9167
atp9168
Rp9169
(dp9170
g48
VNN
p9171
sbatp9172
Rp9173
(dp9174
g48
VNP
p9175
sbag36
(g37
g38
(lp9176
g55
atp9177
Rp9178
(dp9179
g48
g55
sbag36
(g37
g38
(lp9180
g36
(g37
g38
(lp9181
g36
(g37
g38
(lp9182
Vprovider
p9183
atp9184
Rp9185
(dp9186
g48
VNN
p9187
sbatp9188
Rp9189
(dp9190
g48
VNP
p9191
sbag36
(g37
g38
(lp9192
Vand
p9193
atp9194
Rp9195
(dp9196
g48
VCC
p9197
sbag36
(g37
g38
(lp9198
g36
(g37
g38
(lp9199
Vthe
p9200
atp9201
Rp9202
(dp9203
g48
VDT
p9204
sbag36
(g37
g38
(lp9205
Vbroker
p9206
atp9207
Rp9208
(dp9209
g48
VNN
p9210
sbatp9211
Rp9212
(dp9213
g48
VNP
p9214
sbatp9215
Rp9216
(dp9217
g48
VNP
p9218
sbatp9219
Rp9220
(dp9221
g48
VNP
p9222
sbag36
(g37
g38
(lp9223
g224
atp9224
Rp9225
(dp9226
g48
g224
sbatp9227
Rp9228
(dp9229
g48
VSINV
p9230
sbatp9231
Rp9232
(dp9233
g48
VROOT
p9234
sbasba(icmyPackage
Sent
p9235
(dp9236
g14
I2
sg29
I14
sg30
S'The comparison helps users to better understand the strengths and limitations of these approaches to formalizing semantic web services and to choose the most suitable solution for an application [12].'
p9237
sg32
I0
sg33
I43
sg34
(lp9238
g36
(g37
g38
(lp9239
g36
(g37
g38
(lp9240
g36
(g37
g38
(lp9241
g36
(g37
g38
(lp9242
VThe
p9243
atp9244
Rp9245
(dp9246
g48
VDT
p9247
sbag36
(g37
g38
(lp9248
Vcomparison
p9249
atp9250
Rp9251
(dp9252
g48
VNN
p9253
sbatp9254
Rp9255
(dp9256
g48
VNP
p9257
sbag36
(g37
g38
(lp9258
g36
(g37
g38
(lp9259
Vhelps
p9260
atp9261
Rp9262
(dp9263
g48
VVBZ
p9264
sbag36
(g37
g38
(lp9265
g36
(g37
g38
(lp9266
g36
(g37
g38
(lp9267
Vusers
p9268
atp9269
Rp9270
(dp9271
g48
VNNS
p9272
sbatp9273
Rp9274
(dp9275
g48
VNP
p9276
sbag36
(g37
g38
(lp9277
g36
(g37
g38
(lp9278
g36
(g37
g38
(lp9279
Vto
p9280
atp9281
Rp9282
(dp9283
g48
VTO
p9284
sbag36
(g37
g38
(lp9285
g36
(g37
g38
(lp9286
Vbetter
p9287
atp9288
Rp9289
(dp9290
g48
VRBR
p9291
sbatp9292
Rp9293
(dp9294
g48
VADVP
p9295
sbag36
(g37
g38
(lp9296
g36
(g37
g38
(lp9297
Vunderstand
p9298
atp9299
Rp9300
(dp9301
g48
VVB
p9302
sbag36
(g37
g38
(lp9303
g36
(g37
g38
(lp9304
g36
(g37
g38
(lp9305
Vthe
p9306
atp9307
Rp9308
(dp9309
g48
VDT
p9310
sbag36
(g37
g38
(lp9311
Vstrengths
p9312
atp9313
Rp9314
(dp9315
g48
VNNS
p9316
sbag36
(g37
g38
(lp9317
Vand
p9318
atp9319
Rp9320
(dp9321
g48
VCC
p9322
sbag36
(g37
g38
(lp9323
Vlimitations
p9324
atp9325
Rp9326
(dp9327
g48
VNNS
p9328
sbatp9329
Rp9330
(dp9331
g48
VNP
p9332
sbag36
(g37
g38
(lp9333
g36
(g37
g38
(lp9334
Vof
p9335
atp9336
Rp9337
(dp9338
g48
VIN
p9339
sbag36
(g37
g38
(lp9340
g36
(g37
g38
(lp9341
Vthese
p9342
atp9343
Rp9344
(dp9345
g48
VDT
p9346
sbag36
(g37
g38
(lp9347
Vapproaches
p9348
atp9349
Rp9350
(dp9351
g48
VNNS
p9352
sbatp9353
Rp9354
(dp9355
g48
VNP
p9356
sbatp9357
Rp9358
(dp9359
g48
VPP
p9360
sbatp9361
Rp9362
(dp9363
g48
VNP
p9364
sbag36
(g37
g38
(lp9365
g36
(g37
g38
(lp9366
Vto
p9367
atp9368
Rp9369
(dp9370
g48
VTO
p9371
sbag36
(g37
g38
(lp9372
g36
(g37
g38
(lp9373
g36
(g37
g38
(lp9374
Vformalizing
p9375
atp9376
Rp9377
(dp9378
g48
VVBG
p9379
sbag36
(g37
g38
(lp9380
g36
(g37
g38
(lp9381
Vsemantic
p9382
atp9383
Rp9384
(dp9385
g48
VJJ
p9386
sbag36
(g37
g38
(lp9387
Vweb
p9388
atp9389
Rp9390
(dp9391
g48
VNN
p9392
sbag36
(g37
g38
(lp9393
Vservices
p9394
atp9395
Rp9396
(dp9397
g48
VNNS
p9398
sbatp9399
Rp9400
(dp9401
g48
VNP
p9402
sbatp9403
Rp9404
(dp9405
g48
VVP
p9406
sbatp9407
Rp9408
(dp9409
g48
g199
sbatp9410
Rp9411
(dp9412
g48
VPP
p9413
sbatp9414
Rp9415
(dp9416
g48
VVP
p9417
sbatp9418
Rp9419
(dp9420
g48
VVP
p9421
sbag36
(g37
g38
(lp9422
Vand
p9423
atp9424
Rp9425
(dp9426
g48
VCC
p9427
sbag36
(g37
g38
(lp9428
g36
(g37
g38
(lp9429
Vto
p9430
atp9431
Rp9432
(dp9433
g48
VTO
p9434
sbag36
(g37
g38
(lp9435
g36
(g37
g38
(lp9436
Vchoose
p9437
atp9438
Rp9439
(dp9440
g48
VVB
p9441
sbag36
(g37
g38
(lp9442
g36
(g37
g38
(lp9443
Vthe
p9444
atp9445
Rp9446
(dp9447
g48
VDT
p9448
sbag36
(g37
g38
(lp9449
g36
(g37
g38
(lp9450
Vmost
p9451
atp9452
Rp9453
(dp9454
g48
VRBS
p9455
sbag36
(g37
g38
(lp9456
Vsuitable
p9457
atp9458
Rp9459
(dp9460
g48
VJJ
p9461
sbatp9462
Rp9463
(dp9464
g48
VADJP
p9465
sbag36
(g37
g38
(lp9466
Vsolution
p9467
atp9468
Rp9469
(dp9470
g48
VNN
p9471
sbatp9472
Rp9473
(dp9474
g48
VNP
p9475
sbag36
(g37
g38
(lp9476
g36
(g37
g38
(lp9477
Vfor
p9478
atp9479
Rp9480
(dp9481
g48
VIN
p9482
sbag36
(g37
g38
(lp9483
g36
(g37
g38
(lp9484
g36
(g37
g38
(lp9485
Van
p9486
atp9487
Rp9488
(dp9489
g48
VDT
p9490
sbag36
(g37
g38
(lp9491
Vapplication
p9492
atp9493
Rp9494
(dp9495
g48
VNN
p9496
sbatp9497
Rp9498
(dp9499
g48
VNP
p9500
sbag36
(g37
g38
(lp9501
g36
(g37
g38
(lp9502
V-LSB-
p9503
atp9504
Rp9505
(dp9506
g48
VVBG
p9507
sbag36
(g37
g38
(lp9508
g36
(g37
g38
(lp9509
V12
p9510
atp9511
Rp9512
(dp9513
g48
VCD
p9514
sbag36
(g37
g38
(lp9515
V-RSB-
p9516
atp9517
Rp9518
(dp9519
g48
VNNS
p9520
sbatp9521
Rp9522
(dp9523
g48
VNP
p9524
sbatp9525
Rp9526
(dp9527
g48
VVP
p9528
sbatp9529
Rp9530
(dp9531
g48
VNP
p9532
sbatp9533
Rp9534
(dp9535
g48
VPP
p9536
sbatp9537
Rp9538
(dp9539
g48
VVP
p9540
sbatp9541
Rp9542
(dp9543
g48
VVP
p9544
sbatp9545
Rp9546
(dp9547
g48
VVP
p9548
sbatp9549
Rp9550
(dp9551
g48
g199
sbatp9552
Rp9553
(dp9554
g48
VVP
p9555
sbag36
(g37
g38
(lp9556
g224
atp9557
Rp9558
(dp9559
g48
g224
sbatp9560
Rp9561
(dp9562
g48
g199
sbatp9563
Rp9564
(dp9565
g48
VROOT
p9566
sbasbasg612
I2
sg29
I14
sg32
I0
sbasg32
I0
sbasg4602
I1
sg4603
S'Papers in this Issue'
p9567
sg20
I9
sg21
(lp9568
g4612
ag4813
ag5306
ag5716
ag6132
ag6539
ag7274
ag8257
ag8803
asba(icmyPackage
Sec
p9569
(dp9570
g14
I3
sg15
(lp9571
(icmyPackage
SubSec
p9572
(dp9573
g14
I3
sg19
Nsg20
I1
sg21
(lp9574
(icmyPackage
Parag
p9575
(dp9576
g14
I3
sg25
(lp9577
(icmyPackage
Sent
p9578
(dp9579
g14
I3
sg29
I15
sg30
S'The future world will be built on an advanced cyber-infrastructure, which consists of various networks that pervade the nature, society and virtual worlds [4].'
p9580
sg32
I0
sg33
I44
sg34
(lp9581
g36
(g37
g38
(lp9582
g36
(g37
g38
(lp9583
g36
(g37
g38
(lp9584
g36
(g37
g38
(lp9585
VThe
p9586
atp9587
Rp9588
(dp9589
g48
VDT
p9590
sbag36
(g37
g38
(lp9591
Vfuture
p9592
atp9593
Rp9594
(dp9595
g48
VJJ
p9596
sbag36
(g37
g38
(lp9597
Vworld
p9598
atp9599
Rp9600
(dp9601
g48
VNN
p9602
sbatp9603
Rp9604
(dp9605
g48
VNP
p9606
sbag36
(g37
g38
(lp9607
g36
(g37
g38
(lp9608
Vwill
p9609
atp9610
Rp9611
(dp9612
g48
VMD
p9613
sbag36
(g37
g38
(lp9614
g36
(g37
g38
(lp9615
Vbe
p9616
atp9617
Rp9618
(dp9619
g48
VVB
p9620
sbag36
(g37
g38
(lp9621
g36
(g37
g38
(lp9622
Vbuilt
p9623
atp9624
Rp9625
(dp9626
g48
VVBN
p9627
sbag36
(g37
g38
(lp9628
g36
(g37
g38
(lp9629
Von
p9630
atp9631
Rp9632
(dp9633
g48
VIN
p9634
sbag36
(g37
g38
(lp9635
g36
(g37
g38
(lp9636
g36
(g37
g38
(lp9637
Van
p9638
atp9639
Rp9640
(dp9641
g48
VDT
p9642
sbag36
(g37
g38
(lp9643
Vadvanced
p9644
atp9645
Rp9646
(dp9647
g48
VJJ
p9648
sbag36
(g37
g38
(lp9649
Vcyber-infrastructure
p9650
atp9651
Rp9652
(dp9653
g48
VNN
p9654
sbatp9655
Rp9656
(dp9657
g48
VNP
p9658
sbag36
(g37
g38
(lp9659
g55
atp9660
Rp9661
(dp9662
g48
g55
sbag36
(g37
g38
(lp9663
g36
(g37
g38
(lp9664
g36
(g37
g38
(lp9665
Vwhich
p9666
atp9667
Rp9668
(dp9669
g48
VWDT
p9670
sbatp9671
Rp9672
(dp9673
g48
VWHNP
p9674
sbag36
(g37
g38
(lp9675
g36
(g37
g38
(lp9676
g36
(g37
g38
(lp9677
Vconsists
p9678
atp9679
Rp9680
(dp9681
g48
VVBZ
p9682
sbag36
(g37
g38
(lp9683
g36
(g37
g38
(lp9684
Vof
p9685
atp9686
Rp9687
(dp9688
g48
VIN
p9689
sbag36
(g37
g38
(lp9690
g36
(g37
g38
(lp9691
g36
(g37
g38
(lp9692
Vvarious
p9693
atp9694
Rp9695
(dp9696
g48
VJJ
p9697
sbag36
(g37
g38
(lp9698
Vnetworks
p9699
atp9700
Rp9701
(dp9702
g48
VNNS
p9703
sbatp9704
Rp9705
(dp9706
g48
VNP
p9707
sbag36
(g37
g38
(lp9708
g36
(g37
g38
(lp9709
g36
(g37
g38
(lp9710
Vthat
p9711
atp9712
Rp9713
(dp9714
g48
VWDT
p9715
sbatp9716
Rp9717
(dp9718
g48
VWHNP
p9719
sbag36
(g37
g38
(lp9720
g36
(g37
g38
(lp9721
g36
(g37
g38
(lp9722
Vpervade
p9723
atp9724
Rp9725
(dp9726
g48
VVBP
p9727
sbag36
(g37
g38
(lp9728
g36
(g37
g38
(lp9729
g36
(g37
g38
(lp9730
Vthe
p9731
atp9732
Rp9733
(dp9734
g48
VDT
p9735
sbag36
(g37
g38
(lp9736
Vnature
p9737
atp9738
Rp9739
(dp9740
g48
VNN
p9741
sbag36
(g37
g38
(lp9742
g55
atp9743
Rp9744
(dp9745
g48
g55
sbag36
(g37
g38
(lp9746
Vsociety
p9747
atp9748
Rp9749
(dp9750
g48
VNN
p9751
sbag36
(g37
g38
(lp9752
Vand
p9753
atp9754
Rp9755
(dp9756
g48
VCC
p9757
sbag36
(g37
g38
(lp9758
Vvirtual
p9759
atp9760
Rp9761
(dp9762
g48
VJJ
p9763
sbag36
(g37
g38
(lp9764
Vworlds
p9765
atp9766
Rp9767
(dp9768
g48
VNNS
p9769
sbag36
(g37
g38
(lp9770
V-LSB-
p9771
atp9772
Rp9773
(dp9774
g48
VNN
p9775
sbatp9776
Rp9777
(dp9778
g48
VNP
p9779
sbag36
(g37
g38
(lp9780
g36
(g37
g38
(lp9781
g2764
atp9782
Rp9783
(dp9784
g48
VCD
p9785
sbag36
(g37
g38
(lp9786
V-RSB-
p9787
atp9788
Rp9789
(dp9790
g48
VJJ
p9791
sbatp9792
Rp9793
(dp9794
g48
VADJP
p9795
sbatp9796
Rp9797
(dp9798
g48
g199
sbatp9799
Rp9800
(dp9801
g48
VVP
p9802
sbatp9803
Rp9804
(dp9805
g48
g199
sbatp9806
Rp9807
(dp9808
g48
VSBAR
p9809
sbatp9810
Rp9811
(dp9812
g48
VNP
p9813
sbatp9814
Rp9815
(dp9816
g48
VPP
p9817
sbatp9818
Rp9819
(dp9820
g48
VVP
p9821
sbatp9822
Rp9823
(dp9824
g48
g199
sbatp9825
Rp9826
(dp9827
g48
VSBAR
p9828
sbatp9829
Rp9830
(dp9831
g48
VNP
p9832
sbatp9833
Rp9834
(dp9835
g48
VPP
p9836
sbatp9837
Rp9838
(dp9839
g48
VVP
p9840
sbatp9841
Rp9842
(dp9843
g48
VVP
p9844
sbatp9845
Rp9846
(dp9847
g48
VVP
p9848
sbag36
(g37
g38
(lp9849
g224
atp9850
Rp9851
(dp9852
g48
g224
sbatp9853
Rp9854
(dp9855
g48
g199
sbatp9856
Rp9857
(dp9858
g48
VROOT
p9859
sbasba(icmyPackage
Sent
p9860
(dp9861
g14
I3
sg29
I15
sg30
S'The cyberspace will be able to sense human behaviours and provide appropriate services for humans.'
p9862
sg32
I0
sg33
I45
sg34
(lp9863
g36
(g37
g38
(lp9864
g36
(g37
g38
(lp9865
g36
(g37
g38
(lp9866
g36
(g37
g38
(lp9867
VThe
p9868
atp9869
Rp9870
(dp9871
g48
VDT
p9872
sbag36
(g37
g38
(lp9873
Vcyberspace
p9874
atp9875
Rp9876
(dp9877
g48
VNN
p9878
sbatp9879
Rp9880
(dp9881
g48
VNP
p9882
sbag36
(g37
g38
(lp9883
g36
(g37
g38
(lp9884
Vwill
p9885
atp9886
Rp9887
(dp9888
g48
VMD
p9889
sbag36
(g37
g38
(lp9890
g36
(g37
g38
(lp9891
Vbe
p9892
atp9893
Rp9894
(dp9895
g48
VVB
p9896
sbag36
(g37
g38
(lp9897
g36
(g37
g38
(lp9898
Vable
p9899
atp9900
Rp9901
(dp9902
g48
VJJ
p9903
sbag36
(g37
g38
(lp9904
g36
(g37
g38
(lp9905
g36
(g37
g38
(lp9906
Vto
p9907
atp9908
Rp9909
(dp9910
g48
VTO
p9911
sbag36
(g37
g38
(lp9912
g36
(g37
g38
(lp9913
g36
(g37
g38
(lp9914
Vsense
p9915
atp9916
Rp9917
(dp9918
g48
VVB
p9919
sbag36
(g37
g38
(lp9920
g36
(g37
g38
(lp9921
Vhuman
p9922
atp9923
Rp9924
(dp9925
g48
VJJ
p9926
sbag36
(g37
g38
(lp9927
Vbehaviours
p9928
atp9929
Rp9930
(dp9931
g48
VNNS
p9932
sbatp9933
Rp9934
(dp9935
g48
VNP
p9936
sbatp9937
Rp9938
(dp9939
g48
VVP
p9940
sbag36
(g37
g38
(lp9941
Vand
p9942
atp9943
Rp9944
(dp9945
g48
VCC
p9946
sbag36
(g37
g38
(lp9947
g36
(g37
g38
(lp9948
Vprovide
p9949
atp9950
Rp9951
(dp9952
g48
VVB
p9953
sbag36
(g37
g38
(lp9954
g36
(g37
g38
(lp9955
Vappropriate
p9956
atp9957
Rp9958
(dp9959
g48
VJJ
p9960
sbag36
(g37
g38
(lp9961
Vservices
p9962
atp9963
Rp9964
(dp9965
g48
VNNS
p9966
sbatp9967
Rp9968
(dp9969
g48
VNP
p9970
sbag36
(g37
g38
(lp9971
g36
(g37
g38
(lp9972
Vfor
p9973
atp9974
Rp9975
(dp9976
g48
VIN
p9977
sbag36
(g37
g38
(lp9978
g36
(g37
g38
(lp9979
Vhumans
p9980
atp9981
Rp9982
(dp9983
g48
VNNS
p9984
sbatp9985
Rp9986
(dp9987
g48
VNP
p9988
sbatp9989
Rp9990
(dp9991
g48
VPP
p9992
sbatp9993
Rp9994
(dp9995
g48
VVP
p9996
sbatp9997
Rp9998
(dp9999
g48
VVP
p10000
sbatp10001
Rp10002
(dp10003
g48
VVP
p10004
sbatp10005
Rp10006
(dp10007
g48
g199
sbatp10008
Rp10009
(dp10010
g48
VADJP
p10011
sbatp10012
Rp10013
(dp10014
g48
VVP
p10015
sbatp10016
Rp10017
(dp10018
g48
VVP
p10019
sbag36
(g37
g38
(lp10020
g224
atp10021
Rp10022
(dp10023
g48
g224
sbatp10024
Rp10025
(dp10026
g48
g199
sbatp10027
Rp10028
(dp10029
g48
VROOT
p10030
sbasba(icmyPackage
Sent
p10031
(dp10032
g14
I3
sg29
I15
sg30
S'Discovering the rules that are suitable for cyberspace, social space and physical space is a challenge.'
p10033
sg32
I0
sg33
I46
sg34
(lp10034
g36
(g37
g38
(lp10035
g36
(g37
g38
(lp10036
g36
(g37
g38
(lp10037
g36
(g37
g38
(lp10038
g36
(g37
g38
(lp10039
VDiscovering
p10040
atp10041
Rp10042
(dp10043
g48
VVBG
p10044
sbag36
(g37
g38
(lp10045
g36
(g37
g38
(lp10046
g36
(g37
g38
(lp10047
Vthe
p10048
atp10049
Rp10050
(dp10051
g48
VDT
p10052
sbag36
(g37
g38
(lp10053
Vrules
p10054
atp10055
Rp10056
(dp10057
g48
VNNS
p10058
sbatp10059
Rp10060
(dp10061
g48
VNP
p10062
sbag36
(g37
g38
(lp10063
g36
(g37
g38
(lp10064
g36
(g37
g38
(lp10065
Vthat
p10066
atp10067
Rp10068
(dp10069
g48
VWDT
p10070
sbatp10071
Rp10072
(dp10073
g48
VWHNP
p10074
sbag36
(g37
g38
(lp10075
g36
(g37
g38
(lp10076
g36
(g37
g38
(lp10077
Vare
p10078
atp10079
Rp10080
(dp10081
g48
VVBP
p10082
sbag36
(g37
g38
(lp10083
g36
(g37
g38
(lp10084
Vsuitable
p10085
atp10086
Rp10087
(dp10088
g48
VJJ
p10089
sbag36
(g37
g38
(lp10090
g36
(g37
g38
(lp10091
Vfor
p10092
atp10093
Rp10094
(dp10095
g48
VIN
p10096
sbag36
(g37
g38
(lp10097
g36
(g37
g38
(lp10098
Vcyberspace
p10099
atp10100
Rp10101
(dp10102
g48
VNN
p10103
sbatp10104
Rp10105
(dp10106
g48
VNP
p10107
sbatp10108
Rp10109
(dp10110
g48
VPP
p10111
sbatp10112
Rp10113
(dp10114
g48
VADJP
p10115
sbatp10116
Rp10117
(dp10118
g48
VVP
p10119
sbatp10120
Rp10121
(dp10122
g48
g199
sbatp10123
Rp10124
(dp10125
g48
VSBAR
p10126
sbatp10127
Rp10128
(dp10129
g48
VNP
p10130
sbatp10131
Rp10132
(dp10133
g48
VVP
p10134
sbatp10135
Rp10136
(dp10137
g48
g199
sbag36
(g37
g38
(lp10138
g55
atp10139
Rp10140
(dp10141
g48
g55
sbag36
(g37
g38
(lp10142
g36
(g37
g38
(lp10143
g36
(g37
g38
(lp10144
Vsocial
p10145
atp10146
Rp10147
(dp10148
g48
VJJ
p10149
sbag36
(g37
g38
(lp10150
Vspace
p10151
atp10152
Rp10153
(dp10154
g48
VNN
p10155
sbatp10156
Rp10157
(dp10158
g48
VNP
p10159
sbag36
(g37
g38
(lp10160
Vand
p10161
atp10162
Rp10163
(dp10164
g48
VCC
p10165
sbag36
(g37
g38
(lp10166
g36
(g37
g38
(lp10167
Vphysical
p10168
atp10169
Rp10170
(dp10171
g48
VJJ
p10172
sbag36
(g37
g38
(lp10173
Vspace
p10174
atp10175
Rp10176
(dp10177
g48
VNN
p10178
sbatp10179
Rp10180
(dp10181
g48
VNP
p10182
sbatp10183
Rp10184
(dp10185
g48
VNP
p10186
sbag36
(g37
g38
(lp10187
g36
(g37
g38
(lp10188
Vis
p10189
atp10190
Rp10191
(dp10192
g48
VVBZ
p10193
sbag36
(g37
g38
(lp10194
g36
(g37
g38
(lp10195
g643
atp10196
Rp10197
(dp10198
g48
VDT
p10199
sbag36
(g37
g38
(lp10200
Vchallenge
p10201
atp10202
Rp10203
(dp10204
g48
VNN
p10205
sbatp10206
Rp10207
(dp10208
g48
VNP
p10209
sbatp10210
Rp10211
(dp10212
g48
VVP
p10213
sbag36
(g37
g38
(lp10214
g224
atp10215
Rp10216
(dp10217
g48
g224
sbatp10218
Rp10219
(dp10220
g48
g199
sbatp10221
Rp10222
(dp10223
g48
VROOT
p10224
sbasba(icmyPackage
Sent
p10225
(dp10226
g14
I3
sg29
I15
sg30
S'Collaborative research on semantics, knowledge and grids is an important way to realize a cyber-physical society where human can work and live with machines harmoniously.'
p10227
sg32
I0
sg33
I47
sg34
(lp10228
g36
(g37
g38
(lp10229
g36
(g37
g38
(lp10230
g36
(g37
g38
(lp10231
g36
(g37
g38
(lp10232
g36
(g37
g38
(lp10233
VCollaborative
p10234
atp10235
Rp10236
(dp10237
g48
VJJ
p10238
sbag36
(g37
g38
(lp10239
Vresearch
p10240
atp10241
Rp10242
(dp10243
g48
VNN
p10244
sbatp10245
Rp10246
(dp10247
g48
VNP
p10248
sbag36
(g37
g38
(lp10249
g36
(g37
g38
(lp10250
Von
p10251
atp10252
Rp10253
(dp10254
g48
VIN
p10255
sbag36
(g37
g38
(lp10256
g36
(g37
g38
(lp10257
Vsemantics
p10258
atp10259
Rp10260
(dp10261
g48
VNNS
p10262
sbag36
(g37
g38
(lp10263
g55
atp10264
Rp10265
(dp10266
g48
g55
sbag36
(g37
g38
(lp10267
Vknowledge
p10268
atp10269
Rp10270
(dp10271
g48
VNN
p10272
sbag36
(g37
g38
(lp10273
Vand
p10274
atp10275
Rp10276
(dp10277
g48
VCC
p10278
sbag36
(g37
g38
(lp10279
Vgrids
p10280
atp10281
Rp10282
(dp10283
g48
VNNS
p10284
sbatp10285
Rp10286
(dp10287
g48
VNP
p10288
sbatp10289
Rp10290
(dp10291
g48
VPP
p10292
sbatp10293
Rp10294
(dp10295
g48
VNP
p10296
sbag36
(g37
g38
(lp10297
g36
(g37
g38
(lp10298
Vis
p10299
atp10300
Rp10301
(dp10302
g48
VVBZ
p10303
sbag36
(g37
g38
(lp10304
g36
(g37
g38
(lp10305
Van
p10306
atp10307
Rp10308
(dp10309
g48
VDT
p10310
sbag36
(g37
g38
(lp10311
Vimportant
p10312
atp10313
Rp10314
(dp10315
g48
VJJ
p10316
sbag36
(g37
g38
(lp10317
Vway
p10318
atp10319
Rp10320
(dp10321
g48
VNN
p10322
sbag36
(g37
g38
(lp10323
g36
(g37
g38
(lp10324
g36
(g37
g38
(lp10325
Vto
p10326
atp10327
Rp10328
(dp10329
g48
VTO
p10330
sbag36
(g37
g38
(lp10331
g36
(g37
g38
(lp10332
Vrealize
p10333
atp10334
Rp10335
(dp10336
g48
VVB
p10337
sbag36
(g37
g38
(lp10338
g36
(g37
g38
(lp10339
g643
atp10340
Rp10341
(dp10342
g48
VDT
p10343
sbag36
(g37
g38
(lp10344
Vcyber-physical
p10345
atp10346
Rp10347
(dp10348
g48
VJJ
p10349
sbag36
(g37
g38
(lp10350
Vsociety
p10351
atp10352
Rp10353
(dp10354
g48
VNN
p10355
sbatp10356
Rp10357
(dp10358
g48
VNP
p10359
sbag36
(g37
g38
(lp10360
g36
(g37
g38
(lp10361
g36
(g37
g38
(lp10362
Vwhere
p10363
atp10364
Rp10365
(dp10366
g48
VWRB
p10367
sbatp10368
Rp10369
(dp10370
g48
VWHADVP
p10371
sbag36
(g37
g38
(lp10372
g36
(g37
g38
(lp10373
g36
(g37
g38
(lp10374
Vhuman
p10375
atp10376
Rp10377
(dp10378
g48
VJJ
p10379
sbatp10380
Rp10381
(dp10382
g48
VNP
p10383
sbag36
(g37
g38
(lp10384
g36
(g37
g38
(lp10385
Vcan
p10386
atp10387
Rp10388
(dp10389
g48
VMD
p10390
sbag36
(g37
g38
(lp10391
g36
(g37
g38
(lp10392
Vwork
p10393
atp10394
Rp10395
(dp10396
g48
VVB
p10397
sbag36
(g37
g38
(lp10398
Vand
p10399
atp10400
Rp10401
(dp10402
g48
VCC
p10403
sbag36
(g37
g38
(lp10404
Vlive
p10405
atp10406
Rp10407
(dp10408
g48
VVB
p10409
sbag36
(g37
g38
(lp10410
g36
(g37
g38
(lp10411
Vwith
p10412
atp10413
Rp10414
(dp10415
g48
VIN
p10416
sbag36
(g37
g38
(lp10417
g36
(g37
g38
(lp10418
Vmachines
p10419
atp10420
Rp10421
(dp10422
g48
VNNS
p10423
sbatp10424
Rp10425
(dp10426
g48
VNP
p10427
sbatp10428
Rp10429
(dp10430
g48
VPP
p10431
sbag36
(g37
g38
(lp10432
g36
(g37
g38
(lp10433
Vharmoniously
p10434
atp10435
Rp10436
(dp10437
g48
VRB
p10438
sbatp10439
Rp10440
(dp10441
g48
VADVP
p10442
sbatp10443
Rp10444
(dp10445
g48
VVP
p10446
sbatp10447
Rp10448
(dp10449
g48
VVP
p10450
sbatp10451
Rp10452
(dp10453
g48
g199
sbatp10454
Rp10455
(dp10456
g48
VSBAR
p10457
sbatp10458
Rp10459
(dp10460
g48
VVP
p10461
sbatp10462
Rp10463
(dp10464
g48
VVP
p10465
sbatp10466
Rp10467
(dp10468
g48
g199
sbatp10469
Rp10470
(dp10471
g48
VNP
p10472
sbatp10473
Rp10474
(dp10475
g48
VVP
p10476
sbag36
(g37
g38
(lp10477
g224
atp10478
Rp10479
(dp10480
g48
g224
sbatp10481
Rp10482
(dp10483
g48
g199
sbatp10484
Rp10485
(dp10486
g48
VROOT
p10487
sbasbasg612
I4
sg29
I15
sg32
I0
sbasg32
I0
sbasg4602
I1
sg4603
S'Summary'
p10488
sg20
I1
sg21
(lp10489
g9575
asbasS'Ftitle'
p10490
S'Semantics, knowledge and grids'
p10491
sS's_num'
p10492
I48
sS'S_list'
p10493
(lp10494
g27
ag235
ag410
ag616
ag705
ag815
ag1080
ag1208
ag1484
ag1590
ag1856
ag2071
ag2321
ag2519
ag2805
ag3040
ag3217
ag3321
ag3581
ag4002
ag4162
ag4280
ag4424
ag4518
ag4615
ag4816
ag4934
ag5189
ag5309
ag5594
ag5719
ag6135
ag6401
ag6542
ag6817
ag6891
ag7277
ag7475
ag7940
ag8260
ag8453
ag8588
ag8806
ag9235
ag9578
ag9860
ag10031
ag10225
asS'P_list'
p10495
(lp10496
g23
ag613
ag1481
ag2318
ag3037
ag3578
ag4612
ag4813
ag5306
ag5716
ag6132
ag6539
ag7274
ag8257
ag8803
ag9575
asS'Ftag'
p10497
S'f0004'
p10498
sS'c_num'
p10499
I3
sg20
I16
sS'Abstract'
p10500
(lp10501
sS'Refer'
p10502
(lp10503
(icmyPackage
Refer
p10504
(dp10505
g30
S'[1] Zhuge H. Interactive semantics. Arti\xef\xac\x81cial Intelligence 2010; 174:190\xe2\x80\x93204.'
p10506
sS'Rtag'
p10507
I1
sba(icmyPackage
Refer
p10508
(dp10509
g30
S'[2] Zhuge H. Semantic linking through spaces for cyber-physical-socio intelligence: a methodology. Arti\xef\xac\x81cial Intelligence2011; 175:988\xe2\x80\x931019.'
p10510
sg10507
I2
sba(icmyPackage
Refer
p10511
(dp10512
g30
S'[3] Zhuge H. Dimensionality on summarization, arXiv:1507.00209 [cs.CL], July 2, 2015.'
p10513
sg10507
I3
sba(icmyPackage
Refer
p10514
(dp10515
g30
S'[4] Zhuge H. The Knowledge grid: toward cyber-physical society, (1st edn), 2012 (2ndedition). World Scienti\xef\xac\x81cPublishingCo.: Singapore, 2004.'
p10516
sg10507
I4
sba(icmyPackage
Refer
p10517
(dp10518
g30
S'[5] Ren Y, et al. A survey of recommendation techniques based on off-line data processing. Concurrency and Computation:Practice and Experience 2015; 27(15):3915 \xe2\x80\x933942.'
p10519
sg10507
I5
sba(icmyPackage
Refer
p10520
(dp10521
g30
S'[6] Yangui S, Tata S. The SPD approach to deploy service-based applications in the cloud. Concurrency and Computation:Practice and Experience 2015; 27(15):3943 \xe2\x80\x933960.'
p10522
sg10507
I6
sba(icmyPackage
Refer
p10523
(dp10524
g30
S'[7] Li u J, Li J, Cui X, Niu X , Sun X. Social sensing enhanced time estimation for bus service. Co nc urr enc y andComputat ion : Pract ice and Experien ce 20 15 ; 27(15):3961\xe2\x80\x933981.'
p10525
sg10507
I7
sba(icmyPackage
Refer
p10526
(dp10527
g30
S'[8] Chen J, Zhuge H. Aimed information quantity in text. Concurrency and Computation: Practice and Experience2015; 27(15):3982\xe2\x80\x934000.'
p10528
sg10507
I8
sba(icmyPackage
Refer
p10529
(dp10530
g30
S'[9] Liu Y, Luo X, Xuan J. Online hot event discovery based on association link network. Concurrency and Computation:Practice and Experience 2015; 27(15):4001\xe2\x80\x934014.'
p10531
sg10507
I9
sba(icmyPackage
Refer
p10532
(dp10533
g30
S'[10] Zhang L, Sun X, Zhuge H. Topic discovery of clusters from documents with geographical location. Concurrency andComputation: Practice and Experience 2015; 27(15):4015\xe2\x80\x934038.'
p10534
sg10507
I10
sba(icmyPackage
Refer
p10535
(dp10536
g30
S'[11] Peng L, Zhang Z, Huang Q, Huang Z, Zhuge H. Designing a novel linear-time graph kernel for semantic linknetwork. Concurrency and Computation: Practice and Experience 2015; 27(15):4039\xe2\x80\x934052.'
p10537
sg10507
I11
sba(icmyPackage
Refer
p10538
(dp10539
g30
S'[12] Wang HH, Gibbins N, Payne T, Patelli A, Wang Y. A survey of semantic web services formalisms. Concurrency andComputation: Practice and Experience 2015; 27(15):4039\xe2\x80\x934052.'
p10540
sg10507
I12
sbasb.