(icmyPackage
Paper
p0
(dp1
S'KeyW'
p2
(lp3
sS'author'
p4
S'Hai Zhuge'
p5
sS'auinfo'
p6
(lp7
S'Chinese Academy of Sciences, No.6 South Science Road, 100080 Beijing, China'
p8
aS'Email: zhuge@ict.ac.cn; www.knowledgegrid.net/~h.zhug'
p9
asS'C_list'
p10
(lp11
(icmyPackage
Sec
p12
(dp13
S'Ctag'
p14
I1
sS'sclist'
p15
(lp16
(icmyPackage
SubSec
p17
(dp18
g14
I1
sS'SCtitle'
p19
NsS'p_num'
p20
I6
sS'plist'
p21
(lp22
(icmyPackage
Parag
p23
(dp24
g14
I1
sS'slist'
p25
(lp26
(icmyPackage
Sent
p27
(dp28
g14
I1
sS'Ptag'
p29
I0
sS'text'
p30
S'Semantic Link Network (SLN) is a self-organized semantic model consisting of three key components:'
p31
sS'SCtag'
p32
I0
sS'Stag'
p33
I0
sS'PTree'
p34
(lp35
ccopy_reg
_reconstructor
p36
(cnltk.tree
Tree
p37
c__builtin__
list
p38
(lp39
g36
(g37
g38
(lp40
g36
(g37
g38
(lp41
g36
(g37
g38
(lp42
g36
(g37
g38
(lp43
VSemantic
p44
atp45
Rp46
(dp47
S'_label'
p48
VNNP
p49
sbag36
(g37
g38
(lp50
VLink
p51
atp52
Rp53
(dp54
g48
VNNP
p55
sbag36
(g37
g38
(lp56
VNetwork
p57
atp58
Rp59
(dp60
g48
VNNP
p61
sbatp62
Rp63
(dp64
g48
VNP
p65
sbag36
(g37
g38
(lp66
g36
(g37
g38
(lp67
V-LRB-
p68
atp69
Rp70
(dp71
g48
V-LRB-
p72
sbag36
(g37
g38
(lp73
g36
(g37
g38
(lp74
VSLN
p75
atp76
Rp77
(dp78
g48
VNNP
p79
sbatp80
Rp81
(dp82
g48
VNP
p83
sbag36
(g37
g38
(lp84
V-RRB-
p85
atp86
Rp87
(dp88
g48
V-RRB-
p89
sbatp90
Rp91
(dp92
g48
VPRN
p93
sbatp94
Rp95
(dp96
g48
VNP
p97
sbag36
(g37
g38
(lp98
g36
(g37
g38
(lp99
Vis
p100
atp101
Rp102
(dp103
g48
VVBZ
p104
sbag36
(g37
g38
(lp105
g36
(g37
g38
(lp106
g36
(g37
g38
(lp107
Va
p108
atp109
Rp110
(dp111
g48
VDT
p112
sbag36
(g37
g38
(lp113
Vself-organized
p114
atp115
Rp116
(dp117
g48
VJJ
p118
sbag36
(g37
g38
(lp119
Vsemantic
p120
atp121
Rp122
(dp123
g48
VJJ
p124
sbag36
(g37
g38
(lp125
Vmodel
p126
atp127
Rp128
(dp129
g48
VNN
p130
sbatp131
Rp132
(dp133
g48
VNP
p134
sbag36
(g37
g38
(lp135
g36
(g37
g38
(lp136
Vconsisting
p137
atp138
Rp139
(dp140
g48
VVBG
p141
sbag36
(g37
g38
(lp142
g36
(g37
g38
(lp143
Vof
p144
atp145
Rp146
(dp147
g48
VIN
p148
sbag36
(g37
g38
(lp149
g36
(g37
g38
(lp150
Vthree
p151
atp152
Rp153
(dp154
g48
VCD
p155
sbag36
(g37
g38
(lp156
Vkey
p157
atp158
Rp159
(dp160
g48
VJJ
p161
sbag36
(g37
g38
(lp162
Vcomponents
p163
atp164
Rp165
(dp166
g48
VNNS
p167
sbatp168
Rp169
(dp170
g48
VNP
p171
sbatp172
Rp173
(dp174
g48
VPP
p175
sbatp176
Rp177
(dp178
g48
VVP
p179
sbatp180
Rp181
(dp182
g48
VNP
p183
sbatp184
Rp185
(dp186
g48
VVP
p187
sbag36
(g37
g38
(lp188
V:
p189
atp190
Rp191
(dp192
g48
g189
sbatp193
Rp194
(dp195
g48
VS
p196
sbatp197
Rp198
(dp199
g48
VROOT
p200
sbasba(icmyPackage
Sent
p201
(dp202
g14
I1
sg29
I0
sg30
S'semantic nodes, se- mantic links and reasoning rules.'
p203
sg32
I0
sg33
I1
sg34
(lp204
g36
(g37
g38
(lp205
g36
(g37
g38
(lp206
g36
(g37
g38
(lp207
g36
(g37
g38
(lp208
g36
(g37
g38
(lp209
Vsemantic
p210
atp211
Rp212
(dp213
g48
VJJ
p214
sbag36
(g37
g38
(lp215
Vnodes
p216
atp217
Rp218
(dp219
g48
VNNS
p220
sbatp221
Rp222
(dp223
g48
VNP
p224
sbag36
(g37
g38
(lp225
V,
p226
atp227
Rp228
(dp229
g48
g226
sbag36
(g37
g38
(lp230
g36
(g37
g38
(lp231
Vse
p232
atp233
Rp234
(dp235
g48
VNNP
p236
sbatp237
Rp238
(dp239
g48
VNP
p240
sbatp241
Rp242
(dp243
g48
VNP
p244
sbag36
(g37
g38
(lp245
V-
p246
atp247
Rp248
(dp249
g48
g189
sbag36
(g37
g38
(lp250
g36
(g37
g38
(lp251
g36
(g37
g38
(lp252
Vmantic
p253
atp254
Rp255
(dp256
g48
VJJ
p257
sbag36
(g37
g38
(lp258
Vlinks
p259
atp260
Rp261
(dp262
g48
VNNS
p263
sbatp264
Rp265
(dp266
g48
VNP
p267
sbag36
(g37
g38
(lp268
Vand
p269
atp270
Rp271
(dp272
g48
VCC
p273
sbag36
(g37
g38
(lp274
g36
(g37
g38
(lp275
Vreasoning
p276
atp277
Rp278
(dp279
g48
VNN
p280
sbag36
(g37
g38
(lp281
Vrules
p282
atp283
Rp284
(dp285
g48
VNNS
p286
sbatp287
Rp288
(dp289
g48
VNP
p290
sbatp291
Rp292
(dp293
g48
VNP
p294
sbag36
(g37
g38
(lp295
V.
p296
atp297
Rp298
(dp299
g48
g296
sbatp300
Rp301
(dp302
g48
VNP
p303
sbatp304
Rp305
(dp306
g48
VROOT
p307
sbasba(icmyPackage
Sent
p308
(dp309
g14
I1
sg29
I0
sg30
S'Semantic nodes can be resources of any type, class of resources, or even a semantic link network.'
p310
sg32
I0
sg33
I2
sg34
(lp311
g36
(g37
g38
(lp312
g36
(g37
g38
(lp313
g36
(g37
g38
(lp314
g36
(g37
g38
(lp315
VSemantic
p316
atp317
Rp318
(dp319
g48
VJJ
p320
sbag36
(g37
g38
(lp321
Vnodes
p322
atp323
Rp324
(dp325
g48
VNNS
p326
sbatp327
Rp328
(dp329
g48
VNP
p330
sbag36
(g37
g38
(lp331
g36
(g37
g38
(lp332
Vcan
p333
atp334
Rp335
(dp336
g48
VMD
p337
sbag36
(g37
g38
(lp338
g36
(g37
g38
(lp339
Vbe
p340
atp341
Rp342
(dp343
g48
VVB
p344
sbag36
(g37
g38
(lp345
g36
(g37
g38
(lp346
g36
(g37
g38
(lp347
g36
(g37
g38
(lp348
Vresources
p349
atp350
Rp351
(dp352
g48
VNNS
p353
sbatp354
Rp355
(dp356
g48
VNP
p357
sbag36
(g37
g38
(lp358
g36
(g37
g38
(lp359
Vof
p360
atp361
Rp362
(dp363
g48
VIN
p364
sbag36
(g37
g38
(lp365
g36
(g37
g38
(lp366
Vany
p367
atp368
Rp369
(dp370
g48
VDT
p371
sbag36
(g37
g38
(lp372
Vtype
p373
atp374
Rp375
(dp376
g48
VNN
p377
sbatp378
Rp379
(dp380
g48
VNP
p381
sbatp382
Rp383
(dp384
g48
VPP
p385
sbatp386
Rp387
(dp388
g48
VNP
p389
sbag36
(g37
g38
(lp390
g226
atp391
Rp392
(dp393
g48
g226
sbag36
(g37
g38
(lp394
g36
(g37
g38
(lp395
g36
(g37
g38
(lp396
Vclass
p397
atp398
Rp399
(dp400
g48
VNN
p401
sbatp402
Rp403
(dp404
g48
VNP
p405
sbag36
(g37
g38
(lp406
g36
(g37
g38
(lp407
Vof
p408
atp409
Rp410
(dp411
g48
VIN
p412
sbag36
(g37
g38
(lp413
g36
(g37
g38
(lp414
Vresources
p415
atp416
Rp417
(dp418
g48
VNNS
p419
sbatp420
Rp421
(dp422
g48
VNP
p423
sbatp424
Rp425
(dp426
g48
VPP
p427
sbatp428
Rp429
(dp430
g48
VNP
p431
sbag36
(g37
g38
(lp432
g226
atp433
Rp434
(dp435
g48
g226
sbag36
(g37
g38
(lp436
Vor
p437
atp438
Rp439
(dp440
g48
VCC
p441
sbag36
(g37
g38
(lp442
g36
(g37
g38
(lp443
Veven
p444
atp445
Rp446
(dp447
g48
VRB
p448
sbag36
(g37
g38
(lp449
g108
atp450
Rp451
(dp452
g48
VDT
p453
sbag36
(g37
g38
(lp454
Vsemantic
p455
atp456
Rp457
(dp458
g48
VJJ
p459
sbag36
(g37
g38
(lp460
Vlink
p461
atp462
Rp463
(dp464
g48
VNN
p465
sbag36
(g37
g38
(lp466
Vnetwork
p467
atp468
Rp469
(dp470
g48
VNN
p471
sbatp472
Rp473
(dp474
g48
VNP
p475
sbatp476
Rp477
(dp478
g48
VNP
p479
sbatp480
Rp481
(dp482
g48
VVP
p483
sbatp484
Rp485
(dp486
g48
VVP
p487
sbag36
(g37
g38
(lp488
g296
atp489
Rp490
(dp491
g48
g296
sbatp492
Rp493
(dp494
g48
g196
sbatp495
Rp496
(dp497
g48
VROOT
p498
sbasba(icmyPackage
Sent
p499
(dp500
g14
I1
sg29
I0
sg30
S'Se- mantic links reflect relations between nodes.'
p501
sg32
I0
sg33
I3
sg34
(lp502
g36
(g37
g38
(lp503
g36
(g37
g38
(lp504
g36
(g37
g38
(lp505
g36
(g37
g38
(lp506
VSe
p507
atp508
Rp509
(dp510
g48
VNNP
p511
sbatp512
Rp513
(dp514
g48
VNP
p515
sbag36
(g37
g38
(lp516
g246
atp517
Rp518
(dp519
g48
g189
sbag36
(g37
g38
(lp520
g36
(g37
g38
(lp521
g36
(g37
g38
(lp522
Vmantic
p523
atp524
Rp525
(dp526
g48
VJJ
p527
sbag36
(g37
g38
(lp528
Vlinks
p529
atp530
Rp531
(dp532
g48
VNNS
p533
sbatp534
Rp535
(dp536
g48
VNP
p537
sbag36
(g37
g38
(lp538
g36
(g37
g38
(lp539
Vreflect
p540
atp541
Rp542
(dp543
g48
VVBP
p544
sbag36
(g37
g38
(lp545
g36
(g37
g38
(lp546
g36
(g37
g38
(lp547
Vrelations
p548
atp549
Rp550
(dp551
g48
VNNS
p552
sbatp553
Rp554
(dp555
g48
VNP
p556
sbag36
(g37
g38
(lp557
g36
(g37
g38
(lp558
Vbetween
p559
atp560
Rp561
(dp562
g48
VIN
p563
sbag36
(g37
g38
(lp564
g36
(g37
g38
(lp565
Vnodes
p566
atp567
Rp568
(dp569
g48
VNNS
p570
sbatp571
Rp572
(dp573
g48
VNP
p574
sbatp575
Rp576
(dp577
g48
VPP
p578
sbatp579
Rp580
(dp581
g48
VNP
p582
sbatp583
Rp584
(dp585
g48
VVP
p586
sbatp587
Rp588
(dp589
g48
g196
sbag36
(g37
g38
(lp590
g296
atp591
Rp592
(dp593
g48
g296
sbatp594
Rp595
(dp596
g48
VFRAG
p597
sbatp598
Rp599
(dp600
g48
VROOT
p601
sbasba(icmyPackage
Sent
p602
(dp603
g14
I1
sg29
I0
sg30
S'They can be created by tools like creating hyperlink or by some automatic discovery ap- proaches.'
p604
sg32
I0
sg33
I4
sg34
(lp605
g36
(g37
g38
(lp606
g36
(g37
g38
(lp607
g36
(g37
g38
(lp608
g36
(g37
g38
(lp609
VThey
p610
atp611
Rp612
(dp613
g48
VPRP
p614
sbatp615
Rp616
(dp617
g48
VNP
p618
sbag36
(g37
g38
(lp619
g36
(g37
g38
(lp620
Vcan
p621
atp622
Rp623
(dp624
g48
VMD
p625
sbag36
(g37
g38
(lp626
g36
(g37
g38
(lp627
Vbe
p628
atp629
Rp630
(dp631
g48
VVB
p632
sbag36
(g37
g38
(lp633
g36
(g37
g38
(lp634
Vcreated
p635
atp636
Rp637
(dp638
g48
VVBN
p639
sbag36
(g37
g38
(lp640
g36
(g37
g38
(lp641
Vby
p642
atp643
Rp644
(dp645
g48
VIN
p646
sbag36
(g37
g38
(lp647
g36
(g37
g38
(lp648
Vtools
p649
atp650
Rp651
(dp652
g48
VNNS
p653
sbatp654
Rp655
(dp656
g48
VNP
p657
sbatp658
Rp659
(dp660
g48
VPP
p661
sbag36
(g37
g38
(lp662
g36
(g37
g38
(lp663
Vlike
p664
atp665
Rp666
(dp667
g48
VIN
p668
sbag36
(g37
g38
(lp669
g36
(g37
g38
(lp670
g36
(g37
g38
(lp671
Vcreating
p672
atp673
Rp674
(dp675
g48
VVBG
p676
sbag36
(g37
g38
(lp677
g36
(g37
g38
(lp678
g36
(g37
g38
(lp679
g36
(g37
g38
(lp680
Vhyperlink
p681
atp682
Rp683
(dp684
g48
VRB
p685
sbatp686
Rp687
(dp688
g48
VADVP
p689
sbag36
(g37
g38
(lp690
Vor
p691
atp692
Rp693
(dp694
g48
VCC
p695
sbag36
(g37
g38
(lp696
g36
(g37
g38
(lp697
Vby
p698
atp699
Rp700
(dp701
g48
VIN
p702
sbag36
(g37
g38
(lp703
g36
(g37
g38
(lp704
Vsome
p705
atp706
Rp707
(dp708
g48
VDT
p709
sbag36
(g37
g38
(lp710
Vautomatic
p711
atp712
Rp713
(dp714
g48
VJJ
p715
sbag36
(g37
g38
(lp716
Vdiscovery
p717
atp718
Rp719
(dp720
g48
VNN
p721
sbag36
(g37
g38
(lp722
Vap
p723
atp724
Rp725
(dp726
g48
VNN
p727
sbatp728
Rp729
(dp730
g48
VNP
p731
sbag36
(g37
g38
(lp732
g246
atp733
Rp734
(dp735
g48
g189
sbatp736
Rp737
(dp738
g48
VPP
p739
sbatp740
Rp741
(dp742
g48
VUCP
p743
sbag36
(g37
g38
(lp744
Vproaches
p745
atp746
Rp747
(dp748
g48
VNNS
p749
sbatp750
Rp751
(dp752
g48
VNP
p753
sbatp754
Rp755
(dp756
g48
VVP
p757
sbatp758
Rp759
(dp760
g48
g196
sbatp761
Rp762
(dp763
g48
VPP
p764
sbatp765
Rp766
(dp767
g48
VVP
p768
sbatp769
Rp770
(dp771
g48
VVP
p772
sbatp773
Rp774
(dp775
g48
VVP
p776
sbag36
(g37
g38
(lp777
g296
atp778
Rp779
(dp780
g48
g296
sbatp781
Rp782
(dp783
g48
g196
sbatp784
Rp785
(dp786
g48
VROOT
p787
sbasba(icmyPackage
Sent
p788
(dp789
g14
I1
sg29
I0
sg30
S'Reasoning rules are for deriving new semantic links from existing semantic links.'
p790
sg32
I0
sg33
I5
sg34
(lp791
g36
(g37
g38
(lp792
g36
(g37
g38
(lp793
g36
(g37
g38
(lp794
g36
(g37
g38
(lp795
VReasoning
p796
atp797
Rp798
(dp799
g48
VNN
p800
sbag36
(g37
g38
(lp801
Vrules
p802
atp803
Rp804
(dp805
g48
VNNS
p806
sbatp807
Rp808
(dp809
g48
VNP
p810
sbag36
(g37
g38
(lp811
g36
(g37
g38
(lp812
Vare
p813
atp814
Rp815
(dp816
g48
VVBP
p817
sbag36
(g37
g38
(lp818
g36
(g37
g38
(lp819
Vfor
p820
atp821
Rp822
(dp823
g48
VIN
p824
sbag36
(g37
g38
(lp825
g36
(g37
g38
(lp826
g36
(g37
g38
(lp827
Vderiving
p828
atp829
Rp830
(dp831
g48
VVBG
p832
sbag36
(g37
g38
(lp833
g36
(g37
g38
(lp834
Vnew
p835
atp836
Rp837
(dp838
g48
VJJ
p839
sbag36
(g37
g38
(lp840
Vsemantic
p841
atp842
Rp843
(dp844
g48
VJJ
p845
sbag36
(g37
g38
(lp846
Vlinks
p847
atp848
Rp849
(dp850
g48
VNNS
p851
sbatp852
Rp853
(dp854
g48
VNP
p855
sbag36
(g37
g38
(lp856
g36
(g37
g38
(lp857
Vfrom
p858
atp859
Rp860
(dp861
g48
VIN
p862
sbag36
(g37
g38
(lp863
g36
(g37
g38
(lp864
Vexisting
p865
atp866
Rp867
(dp868
g48
VVBG
p869
sbag36
(g37
g38
(lp870
Vsemantic
p871
atp872
Rp873
(dp874
g48
VJJ
p875
sbag36
(g37
g38
(lp876
Vlinks
p877
atp878
Rp879
(dp880
g48
VNNS
p881
sbatp882
Rp883
(dp884
g48
VNP
p885
sbatp886
Rp887
(dp888
g48
VPP
p889
sbatp890
Rp891
(dp892
g48
VVP
p893
sbatp894
Rp895
(dp896
g48
g196
sbatp897
Rp898
(dp899
g48
VPP
p900
sbatp901
Rp902
(dp903
g48
VVP
p904
sbag36
(g37
g38
(lp905
g296
atp906
Rp907
(dp908
g48
g296
sbatp909
Rp910
(dp911
g48
g196
sbatp912
Rp913
(dp914
g48
VROOT
p915
sbasba(icmyPackage
Sent
p916
(dp917
g14
I1
sg29
I0
sg30
S'The semantics of an SLN is defined by a primitive semantic space consisting of a class hierarchy and rules.'
p918
sg32
I0
sg33
I6
sg34
(lp919
g36
(g37
g38
(lp920
g36
(g37
g38
(lp921
g36
(g37
g38
(lp922
g36
(g37
g38
(lp923
g36
(g37
g38
(lp924
VThe
p925
atp926
Rp927
(dp928
g48
VDT
p929
sbag36
(g37
g38
(lp930
Vsemantics
p931
atp932
Rp933
(dp934
g48
VNNS
p935
sbatp936
Rp937
(dp938
g48
VNP
p939
sbag36
(g37
g38
(lp940
g36
(g37
g38
(lp941
Vof
p942
atp943
Rp944
(dp945
g48
VIN
p946
sbag36
(g37
g38
(lp947
g36
(g37
g38
(lp948
Van
p949
atp950
Rp951
(dp952
g48
VDT
p953
sbag36
(g37
g38
(lp954
VSLN
p955
atp956
Rp957
(dp958
g48
VNNP
p959
sbatp960
Rp961
(dp962
g48
VNP
p963
sbatp964
Rp965
(dp966
g48
VPP
p967
sbatp968
Rp969
(dp970
g48
VNP
p971
sbag36
(g37
g38
(lp972
g36
(g37
g38
(lp973
Vis
p974
atp975
Rp976
(dp977
g48
VVBZ
p978
sbag36
(g37
g38
(lp979
g36
(g37
g38
(lp980
Vdefined
p981
atp982
Rp983
(dp984
g48
VVBN
p985
sbag36
(g37
g38
(lp986
g36
(g37
g38
(lp987
Vby
p988
atp989
Rp990
(dp991
g48
VIN
p992
sbag36
(g37
g38
(lp993
g36
(g37
g38
(lp994
g36
(g37
g38
(lp995
g108
atp996
Rp997
(dp998
g48
VDT
p999
sbag36
(g37
g38
(lp1000
Vprimitive
p1001
atp1002
Rp1003
(dp1004
g48
VJJ
p1005
sbag36
(g37
g38
(lp1006
Vsemantic
p1007
atp1008
Rp1009
(dp1010
g48
VJJ
p1011
sbag36
(g37
g38
(lp1012
Vspace
p1013
atp1014
Rp1015
(dp1016
g48
VNN
p1017
sbatp1018
Rp1019
(dp1020
g48
VNP
p1021
sbag36
(g37
g38
(lp1022
g36
(g37
g38
(lp1023
Vconsisting
p1024
atp1025
Rp1026
(dp1027
g48
VVBG
p1028
sbag36
(g37
g38
(lp1029
g36
(g37
g38
(lp1030
Vof
p1031
atp1032
Rp1033
(dp1034
g48
VIN
p1035
sbag36
(g37
g38
(lp1036
g36
(g37
g38
(lp1037
g36
(g37
g38
(lp1038
g108
atp1039
Rp1040
(dp1041
g48
VDT
p1042
sbag36
(g37
g38
(lp1043
Vclass
p1044
atp1045
Rp1046
(dp1047
g48
VNN
p1048
sbag36
(g37
g38
(lp1049
Vhierarchy
p1050
atp1051
Rp1052
(dp1053
g48
VNN
p1054
sbatp1055
Rp1056
(dp1057
g48
VNP
p1058
sbag36
(g37
g38
(lp1059
Vand
p1060
atp1061
Rp1062
(dp1063
g48
VCC
p1064
sbag36
(g37
g38
(lp1065
g36
(g37
g38
(lp1066
Vrules
p1067
atp1068
Rp1069
(dp1070
g48
VNNS
p1071
sbatp1072
Rp1073
(dp1074
g48
VNP
p1075
sbatp1076
Rp1077
(dp1078
g48
VNP
p1079
sbatp1080
Rp1081
(dp1082
g48
VPP
p1083
sbatp1084
Rp1085
(dp1086
g48
VVP
p1087
sbatp1088
Rp1089
(dp1090
g48
VNP
p1091
sbatp1092
Rp1093
(dp1094
g48
VPP
p1095
sbatp1096
Rp1097
(dp1098
g48
VVP
p1099
sbatp1100
Rp1101
(dp1102
g48
VVP
p1103
sbag36
(g37
g38
(lp1104
g296
atp1105
Rp1106
(dp1107
g48
g296
sbatp1108
Rp1109
(dp1110
g48
g196
sbatp1111
Rp1112
(dp1113
g48
VROOT
p1114
sbasbasS'sent_num'
p1115
I7
sg29
I0
sg32
I0
sba(icmyPackage
Parag
p1116
(dp1117
g14
I1
sg25
(lp1118
(icmyPackage
Sent
p1119
(dp1120
g14
I1
sg29
I1
sg30
S'SLN not only describes relations among objective existences but also records the formation process of a semantically linked world.'
p1121
sg32
I0
sg33
I7
sg34
(lp1122
g36
(g37
g38
(lp1123
g36
(g37
g38
(lp1124
g36
(g37
g38
(lp1125
g36
(g37
g38
(lp1126
VSLN
p1127
atp1128
Rp1129
(dp1130
g48
VNNP
p1131
sbatp1132
Rp1133
(dp1134
g48
VNP
p1135
sbag36
(g37
g38
(lp1136
g36
(g37
g38
(lp1137
g36
(g37
g38
(lp1138
Vnot
p1139
atp1140
Rp1141
(dp1142
g48
VRB
p1143
sbag36
(g37
g38
(lp1144
Vonly
p1145
atp1146
Rp1147
(dp1148
g48
VJJ
p1149
sbatp1150
Rp1151
(dp1152
g48
VCONJP
p1153
sbag36
(g37
g38
(lp1154
g36
(g37
g38
(lp1155
Vdescribes
p1156
atp1157
Rp1158
(dp1159
g48
VVBZ
p1160
sbag36
(g37
g38
(lp1161
g36
(g37
g38
(lp1162
Vrelations
p1163
atp1164
Rp1165
(dp1166
g48
VNNS
p1167
sbatp1168
Rp1169
(dp1170
g48
VNP
p1171
sbag36
(g37
g38
(lp1172
g36
(g37
g38
(lp1173
Vamong
p1174
atp1175
Rp1176
(dp1177
g48
VIN
p1178
sbag36
(g37
g38
(lp1179
g36
(g37
g38
(lp1180
Vobjective
p1181
atp1182
Rp1183
(dp1184
g48
VJJ
p1185
sbag36
(g37
g38
(lp1186
Vexistences
p1187
atp1188
Rp1189
(dp1190
g48
VNNS
p1191
sbatp1192
Rp1193
(dp1194
g48
VNP
p1195
sbatp1196
Rp1197
(dp1198
g48
VPP
p1199
sbatp1200
Rp1201
(dp1202
g48
VVP
p1203
sbag36
(g37
g38
(lp1204
Vbut
p1205
atp1206
Rp1207
(dp1208
g48
VCC
p1209
sbag36
(g37
g38
(lp1210
g36
(g37
g38
(lp1211
g36
(g37
g38
(lp1212
Valso
p1213
atp1214
Rp1215
(dp1216
g48
VRB
p1217
sbatp1218
Rp1219
(dp1220
g48
VADVP
p1221
sbag36
(g37
g38
(lp1222
Vrecords
p1223
atp1224
Rp1225
(dp1226
g48
VVBZ
p1227
sbag36
(g37
g38
(lp1228
g36
(g37
g38
(lp1229
g36
(g37
g38
(lp1230
Vthe
p1231
atp1232
Rp1233
(dp1234
g48
VDT
p1235
sbag36
(g37
g38
(lp1236
Vformation
p1237
atp1238
Rp1239
(dp1240
g48
VNN
p1241
sbag36
(g37
g38
(lp1242
Vprocess
p1243
atp1244
Rp1245
(dp1246
g48
VNN
p1247
sbatp1248
Rp1249
(dp1250
g48
VNP
p1251
sbag36
(g37
g38
(lp1252
g36
(g37
g38
(lp1253
Vof
p1254
atp1255
Rp1256
(dp1257
g48
VIN
p1258
sbag36
(g37
g38
(lp1259
g36
(g37
g38
(lp1260
g108
atp1261
Rp1262
(dp1263
g48
VDT
p1264
sbag36
(g37
g38
(lp1265
g36
(g37
g38
(lp1266
Vsemantically
p1267
atp1268
Rp1269
(dp1270
g48
VRB
p1271
sbag36
(g37
g38
(lp1272
Vlinked
p1273
atp1274
Rp1275
(dp1276
g48
VVBN
p1277
sbatp1278
Rp1279
(dp1280
g48
VADJP
p1281
sbag36
(g37
g38
(lp1282
Vworld
p1283
atp1284
Rp1285
(dp1286
g48
VNN
p1287
sbatp1288
Rp1289
(dp1290
g48
VNP
p1291
sbatp1292
Rp1293
(dp1294
g48
VPP
p1295
sbatp1296
Rp1297
(dp1298
g48
VNP
p1299
sbatp1300
Rp1301
(dp1302
g48
VVP
p1303
sbatp1304
Rp1305
(dp1306
g48
VVP
p1307
sbag36
(g37
g38
(lp1308
g296
atp1309
Rp1310
(dp1311
g48
g296
sbatp1312
Rp1313
(dp1314
g48
g196
sbatp1315
Rp1316
(dp1317
g48
VROOT
p1318
sbasba(icmyPackage
Sent
p1319
(dp1320
g14
I1
sg29
I1
sg30
S'It does not intend to represent human knowledge.'
p1321
sg32
I0
sg33
I8
sg34
(lp1322
g36
(g37
g38
(lp1323
g36
(g37
g38
(lp1324
g36
(g37
g38
(lp1325
g36
(g37
g38
(lp1326
VIt
p1327
atp1328
Rp1329
(dp1330
g48
VPRP
p1331
sbatp1332
Rp1333
(dp1334
g48
VNP
p1335
sbag36
(g37
g38
(lp1336
g36
(g37
g38
(lp1337
Vdoes
p1338
atp1339
Rp1340
(dp1341
g48
VVBZ
p1342
sbag36
(g37
g38
(lp1343
Vnot
p1344
atp1345
Rp1346
(dp1347
g48
VRB
p1348
sbag36
(g37
g38
(lp1349
g36
(g37
g38
(lp1350
Vintend
p1351
atp1352
Rp1353
(dp1354
g48
VVB
p1355
sbag36
(g37
g38
(lp1356
g36
(g37
g38
(lp1357
g36
(g37
g38
(lp1358
Vto
p1359
atp1360
Rp1361
(dp1362
g48
VTO
p1363
sbag36
(g37
g38
(lp1364
g36
(g37
g38
(lp1365
Vrepresent
p1366
atp1367
Rp1368
(dp1369
g48
VVB
p1370
sbag36
(g37
g38
(lp1371
g36
(g37
g38
(lp1372
Vhuman
p1373
atp1374
Rp1375
(dp1376
g48
VJJ
p1377
sbag36
(g37
g38
(lp1378
Vknowledge
p1379
atp1380
Rp1381
(dp1382
g48
VNN
p1383
sbatp1384
Rp1385
(dp1386
g48
VNP
p1387
sbatp1388
Rp1389
(dp1390
g48
VVP
p1391
sbatp1392
Rp1393
(dp1394
g48
VVP
p1395
sbatp1396
Rp1397
(dp1398
g48
g196
sbatp1399
Rp1400
(dp1401
g48
VVP
p1402
sbatp1403
Rp1404
(dp1405
g48
VVP
p1406
sbag36
(g37
g38
(lp1407
g296
atp1408
Rp1409
(dp1410
g48
g296
sbatp1411
Rp1412
(dp1413
g48
g196
sbatp1414
Rp1415
(dp1416
g48
VROOT
p1417
sbasba(icmyPackage
Sent
p1418
(dp1419
g14
I1
sg29
I1
sg30
S'It pursues semantic richness rather than correctness.'
p1420
sg32
I0
sg33
I9
sg34
(lp1421
g36
(g37
g38
(lp1422
g36
(g37
g38
(lp1423
g36
(g37
g38
(lp1424
g36
(g37
g38
(lp1425
VIt
p1426
atp1427
Rp1428
(dp1429
g48
VPRP
p1430
sbatp1431
Rp1432
(dp1433
g48
VNP
p1434
sbag36
(g37
g38
(lp1435
g36
(g37
g38
(lp1436
Vpursues
p1437
atp1438
Rp1439
(dp1440
g48
VVBZ
p1441
sbag36
(g37
g38
(lp1442
g36
(g37
g38
(lp1443
g36
(g37
g38
(lp1444
Vsemantic
p1445
atp1446
Rp1447
(dp1448
g48
VJJ
p1449
sbag36
(g37
g38
(lp1450
Vrichness
p1451
atp1452
Rp1453
(dp1454
g48
VNN
p1455
sbatp1456
Rp1457
(dp1458
g48
VNP
p1459
sbag36
(g37
g38
(lp1460
g36
(g37
g38
(lp1461
Vrather
p1462
atp1463
Rp1464
(dp1465
g48
VRB
p1466
sbag36
(g37
g38
(lp1467
Vthan
p1468
atp1469
Rp1470
(dp1471
g48
VIN
p1472
sbatp1473
Rp1474
(dp1475
g48
VCONJP
p1476
sbag36
(g37
g38
(lp1477
g36
(g37
g38
(lp1478
Vcorrectness
p1479
atp1480
Rp1481
(dp1482
g48
VNNS
p1483
sbatp1484
Rp1485
(dp1486
g48
VNP
p1487
sbatp1488
Rp1489
(dp1490
g48
VNP
p1491
sbatp1492
Rp1493
(dp1494
g48
VVP
p1495
sbag36
(g37
g38
(lp1496
g296
atp1497
Rp1498
(dp1499
g48
g296
sbatp1500
Rp1501
(dp1502
g48
g196
sbatp1503
Rp1504
(dp1505
g48
VROOT
p1506
sbasba(icmyPackage
Sent
p1507
(dp1508
g14
I1
sg29
I1
sg30
S'Due to the semantic richness of semantic nodes, automatic discovery of semantic links is feasible, especially, when relevant metadata of resources is available.'
p1509
sg32
I0
sg33
I10
sg34
(lp1510
g36
(g37
g38
(lp1511
g36
(g37
g38
(lp1512
g36
(g37
g38
(lp1513
g36
(g37
g38
(lp1514
VDue
p1515
atp1516
Rp1517
(dp1518
g48
VJJ
p1519
sbag36
(g37
g38
(lp1520
Vto
p1521
atp1522
Rp1523
(dp1524
g48
VTO
p1525
sbag36
(g37
g38
(lp1526
g36
(g37
g38
(lp1527
g36
(g37
g38
(lp1528
Vthe
p1529
atp1530
Rp1531
(dp1532
g48
VDT
p1533
sbag36
(g37
g38
(lp1534
Vsemantic
p1535
atp1536
Rp1537
(dp1538
g48
VJJ
p1539
sbag36
(g37
g38
(lp1540
Vrichness
p1541
atp1542
Rp1543
(dp1544
g48
VNN
p1545
sbatp1546
Rp1547
(dp1548
g48
VNP
p1549
sbag36
(g37
g38
(lp1550
g36
(g37
g38
(lp1551
Vof
p1552
atp1553
Rp1554
(dp1555
g48
VIN
p1556
sbag36
(g37
g38
(lp1557
g36
(g37
g38
(lp1558
Vsemantic
p1559
atp1560
Rp1561
(dp1562
g48
VJJ
p1563
sbag36
(g37
g38
(lp1564
Vnodes
p1565
atp1566
Rp1567
(dp1568
g48
VNNS
p1569
sbatp1570
Rp1571
(dp1572
g48
VNP
p1573
sbatp1574
Rp1575
(dp1576
g48
VPP
p1577
sbatp1578
Rp1579
(dp1580
g48
VNP
p1581
sbatp1582
Rp1583
(dp1584
g48
VPP
p1585
sbag36
(g37
g38
(lp1586
g226
atp1587
Rp1588
(dp1589
g48
g226
sbag36
(g37
g38
(lp1590
g36
(g37
g38
(lp1591
g36
(g37
g38
(lp1592
Vautomatic
p1593
atp1594
Rp1595
(dp1596
g48
VJJ
p1597
sbag36
(g37
g38
(lp1598
Vdiscovery
p1599
atp1600
Rp1601
(dp1602
g48
VNN
p1603
sbatp1604
Rp1605
(dp1606
g48
VNP
p1607
sbag36
(g37
g38
(lp1608
g36
(g37
g38
(lp1609
Vof
p1610
atp1611
Rp1612
(dp1613
g48
VIN
p1614
sbag36
(g37
g38
(lp1615
g36
(g37
g38
(lp1616
Vsemantic
p1617
atp1618
Rp1619
(dp1620
g48
VJJ
p1621
sbag36
(g37
g38
(lp1622
Vlinks
p1623
atp1624
Rp1625
(dp1626
g48
VNNS
p1627
sbatp1628
Rp1629
(dp1630
g48
VNP
p1631
sbatp1632
Rp1633
(dp1634
g48
VPP
p1635
sbatp1636
Rp1637
(dp1638
g48
VNP
p1639
sbag36
(g37
g38
(lp1640
g36
(g37
g38
(lp1641
Vis
p1642
atp1643
Rp1644
(dp1645
g48
VVBZ
p1646
sbag36
(g37
g38
(lp1647
g36
(g37
g38
(lp1648
Vfeasible
p1649
atp1650
Rp1651
(dp1652
g48
VJJ
p1653
sbatp1654
Rp1655
(dp1656
g48
VADJP
p1657
sbag36
(g37
g38
(lp1658
g226
atp1659
Rp1660
(dp1661
g48
g226
sbag36
(g37
g38
(lp1662
g36
(g37
g38
(lp1663
Vespecially
p1664
atp1665
Rp1666
(dp1667
g48
VRB
p1668
sbatp1669
Rp1670
(dp1671
g48
VADVP
p1672
sbag36
(g37
g38
(lp1673
g226
atp1674
Rp1675
(dp1676
g48
g226
sbag36
(g37
g38
(lp1677
g36
(g37
g38
(lp1678
g36
(g37
g38
(lp1679
Vwhen
p1680
atp1681
Rp1682
(dp1683
g48
VWRB
p1684
sbatp1685
Rp1686
(dp1687
g48
VWHADVP
p1688
sbag36
(g37
g38
(lp1689
g36
(g37
g38
(lp1690
g36
(g37
g38
(lp1691
g36
(g37
g38
(lp1692
Vrelevant
p1693
atp1694
Rp1695
(dp1696
g48
VJJ
p1697
sbag36
(g37
g38
(lp1698
Vmetadata
p1699
atp1700
Rp1701
(dp1702
g48
VNN
p1703
sbatp1704
Rp1705
(dp1706
g48
VNP
p1707
sbag36
(g37
g38
(lp1708
g36
(g37
g38
(lp1709
Vof
p1710
atp1711
Rp1712
(dp1713
g48
VIN
p1714
sbag36
(g37
g38
(lp1715
g36
(g37
g38
(lp1716
Vresources
p1717
atp1718
Rp1719
(dp1720
g48
VNNS
p1721
sbatp1722
Rp1723
(dp1724
g48
VNP
p1725
sbatp1726
Rp1727
(dp1728
g48
VPP
p1729
sbatp1730
Rp1731
(dp1732
g48
VNP
p1733
sbag36
(g37
g38
(lp1734
g36
(g37
g38
(lp1735
Vis
p1736
atp1737
Rp1738
(dp1739
g48
VVBZ
p1740
sbag36
(g37
g38
(lp1741
g36
(g37
g38
(lp1742
Vavailable
p1743
atp1744
Rp1745
(dp1746
g48
VJJ
p1747
sbatp1748
Rp1749
(dp1750
g48
VADJP
p1751
sbatp1752
Rp1753
(dp1754
g48
VVP
p1755
sbatp1756
Rp1757
(dp1758
g48
g196
sbatp1759
Rp1760
(dp1761
g48
VSBAR
p1762
sbatp1763
Rp1764
(dp1765
g48
VVP
p1766
sbag36
(g37
g38
(lp1767
g296
atp1768
Rp1769
(dp1770
g48
g296
sbatp1771
Rp1772
(dp1773
g48
g196
sbatp1774
Rp1775
(dp1776
g48
VROOT
p1777
sbasbasg1115
I4
sg29
I1
sg32
I0
sba(icmyPackage
Parag
p1778
(dp1779
g14
I1
sg25
(lp1780
(icmyPackage
Sent
p1781
(dp1782
g14
I1
sg29
I2
sg30
S'SLN naturally supports relational reasoning, analogical reason- ing, and inductive reasoning [1].'
p1783
sg32
I0
sg33
I11
sg34
(lp1784
g36
(g37
g38
(lp1785
g36
(g37
g38
(lp1786
g36
(g37
g38
(lp1787
g36
(g37
g38
(lp1788
VSLN
p1789
atp1790
Rp1791
(dp1792
g48
VNNP
p1793
sbatp1794
Rp1795
(dp1796
g48
VNP
p1797
sbag36
(g37
g38
(lp1798
g36
(g37
g38
(lp1799
Vnaturally
p1800
atp1801
Rp1802
(dp1803
g48
VRB
p1804
sbatp1805
Rp1806
(dp1807
g48
VADVP
p1808
sbag36
(g37
g38
(lp1809
g36
(g37
g38
(lp1810
Vsupports
p1811
atp1812
Rp1813
(dp1814
g48
VVBZ
p1815
sbag36
(g37
g38
(lp1816
g36
(g37
g38
(lp1817
g36
(g37
g38
(lp1818
Vrelational
p1819
atp1820
Rp1821
(dp1822
g48
VJJ
p1823
sbag36
(g37
g38
(lp1824
Vreasoning
p1825
atp1826
Rp1827
(dp1828
g48
VNN
p1829
sbatp1830
Rp1831
(dp1832
g48
VNP
p1833
sbag36
(g37
g38
(lp1834
g226
atp1835
Rp1836
(dp1837
g48
g226
sbag36
(g37
g38
(lp1838
g36
(g37
g38
(lp1839
g36
(g37
g38
(lp1840
Vanalogical
p1841
atp1842
Rp1843
(dp1844
g48
VJJ
p1845
sbag36
(g37
g38
(lp1846
Vreason
p1847
atp1848
Rp1849
(dp1850
g48
VNN
p1851
sbatp1852
Rp1853
(dp1854
g48
VNP
p1855
sbag36
(g37
g38
(lp1856
g246
atp1857
Rp1858
(dp1859
g48
g189
sbag36
(g37
g38
(lp1860
g36
(g37
g38
(lp1861
Ving
p1862
atp1863
Rp1864
(dp1865
g48
VNN
p1866
sbatp1867
Rp1868
(dp1869
g48
VNP
p1870
sbatp1871
Rp1872
(dp1873
g48
VNP
p1874
sbag36
(g37
g38
(lp1875
g226
atp1876
Rp1877
(dp1878
g48
g226
sbag36
(g37
g38
(lp1879
Vand
p1880
atp1881
Rp1882
(dp1883
g48
VCC
p1884
sbag36
(g37
g38
(lp1885
g36
(g37
g38
(lp1886
g36
(g37
g38
(lp1887
Vinductive
p1888
atp1889
Rp1890
(dp1891
g48
VJJ
p1892
sbag36
(g37
g38
(lp1893
Vreasoning
p1894
atp1895
Rp1896
(dp1897
g48
VNN
p1898
sbatp1899
Rp1900
(dp1901
g48
VNP
p1902
sbag36
(g37
g38
(lp1903
g36
(g37
g38
(lp1904
g36
(g37
g38
(lp1905
V-LSB-
p1906
atp1907
Rp1908
(dp1909
g48
VCD
p1910
sbag36
(g37
g38
(lp1911
V1
p1912
atp1913
Rp1914
(dp1915
g48
VCD
p1916
sbatp1917
Rp1918
(dp1919
g48
VQP
p1920
sbag36
(g37
g38
(lp1921
V-RSB-
p1922
atp1923
Rp1924
(dp1925
g48
VNNS
p1926
sbatp1927
Rp1928
(dp1929
g48
VNP
p1930
sbatp1931
Rp1932
(dp1933
g48
VNP
p1934
sbatp1935
Rp1936
(dp1937
g48
VNP
p1938
sbatp1939
Rp1940
(dp1941
g48
VVP
p1942
sbag36
(g37
g38
(lp1943
g296
atp1944
Rp1945
(dp1946
g48
g296
sbatp1947
Rp1948
(dp1949
g48
g196
sbatp1950
Rp1951
(dp1952
g48
VROOT
p1953
sbasba(icmyPackage
Sent
p1954
(dp1955
g14
I1
sg29
I2
sg30
S'It can be localized or decentral- ized.'
p1956
sg32
I0
sg33
I12
sg34
(lp1957
g36
(g37
g38
(lp1958
g36
(g37
g38
(lp1959
g36
(g37
g38
(lp1960
g36
(g37
g38
(lp1961
VIt
p1962
atp1963
Rp1964
(dp1965
g48
VPRP
p1966
sbatp1967
Rp1968
(dp1969
g48
VNP
p1970
sbag36
(g37
g38
(lp1971
g36
(g37
g38
(lp1972
Vcan
p1973
atp1974
Rp1975
(dp1976
g48
VMD
p1977
sbag36
(g37
g38
(lp1978
g36
(g37
g38
(lp1979
Vbe
p1980
atp1981
Rp1982
(dp1983
g48
VVB
p1984
sbag36
(g37
g38
(lp1985
g36
(g37
g38
(lp1986
g36
(g37
g38
(lp1987
Vlocalized
p1988
atp1989
Rp1990
(dp1991
g48
VJJ
p1992
sbag36
(g37
g38
(lp1993
Vor
p1994
atp1995
Rp1996
(dp1997
g48
VCC
p1998
sbag36
(g37
g38
(lp1999
Vdecentral
p2000
atp2001
Rp2002
(dp2003
g48
VJJ
p2004
sbatp2005
Rp2006
(dp2007
g48
VADJP
p2008
sbag36
(g37
g38
(lp2009
g246
atp2010
Rp2011
(dp2012
g48
g189
sbag36
(g37
g38
(lp2013
g36
(g37
g38
(lp2014
Vized
p2015
atp2016
Rp2017
(dp2018
g48
VJJ
p2019
sbatp2020
Rp2021
(dp2022
g48
VADJP
p2023
sbatp2024
Rp2025
(dp2026
g48
VADJP
p2027
sbatp2028
Rp2029
(dp2030
g48
VVP
p2031
sbatp2032
Rp2033
(dp2034
g48
VVP
p2035
sbag36
(g37
g38
(lp2036
g296
atp2037
Rp2038
(dp2039
g48
g296
sbatp2040
Rp2041
(dp2042
g48
g196
sbatp2043
Rp2044
(dp2045
g48
VROOT
p2046
sbasba(icmyPackage
Sent
p2047
(dp2048
g14
I1
sg29
I2
sg30
S'It autonomously evolves with addition or change of nodes and links.'
p2049
sg32
I0
sg33
I13
sg34
(lp2050
g36
(g37
g38
(lp2051
g36
(g37
g38
(lp2052
g36
(g37
g38
(lp2053
g36
(g37
g38
(lp2054
VIt
p2055
atp2056
Rp2057
(dp2058
g48
VPRP
p2059
sbatp2060
Rp2061
(dp2062
g48
VNP
p2063
sbag36
(g37
g38
(lp2064
g36
(g37
g38
(lp2065
Vautonomously
p2066
atp2067
Rp2068
(dp2069
g48
VRB
p2070
sbatp2071
Rp2072
(dp2073
g48
VADVP
p2074
sbag36
(g37
g38
(lp2075
g36
(g37
g38
(lp2076
Vevolves
p2077
atp2078
Rp2079
(dp2080
g48
VVBZ
p2081
sbag36
(g37
g38
(lp2082
g36
(g37
g38
(lp2083
Vwith
p2084
atp2085
Rp2086
(dp2087
g48
VIN
p2088
sbag36
(g37
g38
(lp2089
g36
(g37
g38
(lp2090
g36
(g37
g38
(lp2091
Vaddition
p2092
atp2093
Rp2094
(dp2095
g48
VNN
p2096
sbag36
(g37
g38
(lp2097
Vor
p2098
atp2099
Rp2100
(dp2101
g48
VCC
p2102
sbag36
(g37
g38
(lp2103
Vchange
p2104
atp2105
Rp2106
(dp2107
g48
VNN
p2108
sbatp2109
Rp2110
(dp2111
g48
VNP
p2112
sbag36
(g37
g38
(lp2113
g36
(g37
g38
(lp2114
Vof
p2115
atp2116
Rp2117
(dp2118
g48
VIN
p2119
sbag36
(g37
g38
(lp2120
g36
(g37
g38
(lp2121
Vnodes
p2122
atp2123
Rp2124
(dp2125
g48
VNNS
p2126
sbag36
(g37
g38
(lp2127
Vand
p2128
atp2129
Rp2130
(dp2131
g48
VCC
p2132
sbag36
(g37
g38
(lp2133
Vlinks
p2134
atp2135
Rp2136
(dp2137
g48
VNNS
p2138
sbatp2139
Rp2140
(dp2141
g48
VNP
p2142
sbatp2143
Rp2144
(dp2145
g48
VPP
p2146
sbatp2147
Rp2148
(dp2149
g48
VNP
p2150
sbatp2151
Rp2152
(dp2153
g48
VPP
p2154
sbatp2155
Rp2156
(dp2157
g48
VVP
p2158
sbag36
(g37
g38
(lp2159
g296
atp2160
Rp2161
(dp2162
g48
g296
sbatp2163
Rp2164
(dp2165
g48
g196
sbatp2166
Rp2167
(dp2168
g48
VROOT
p2169
sbasba(icmyPackage
Sent
p2170
(dp2171
g14
I1
sg29
I2
sg30
S'SLN inherits the characteristics of the Web and naturally sup- ports relational query.'
p2172
sg32
I0
sg33
I14
sg34
(lp2173
g36
(g37
g38
(lp2174
g36
(g37
g38
(lp2175
g36
(g37
g38
(lp2176
g36
(g37
g38
(lp2177
VSLN
p2178
atp2179
Rp2180
(dp2181
g48
VNNP
p2182
sbatp2183
Rp2184
(dp2185
g48
VNP
p2186
sbag36
(g37
g38
(lp2187
g36
(g37
g38
(lp2188
Vinherits
p2189
atp2190
Rp2191
(dp2192
g48
VVBZ
p2193
sbag36
(g37
g38
(lp2194
g36
(g37
g38
(lp2195
g36
(g37
g38
(lp2196
Vthe
p2197
atp2198
Rp2199
(dp2200
g48
VDT
p2201
sbag36
(g37
g38
(lp2202
Vcharacteristics
p2203
atp2204
Rp2205
(dp2206
g48
VNNS
p2207
sbatp2208
Rp2209
(dp2210
g48
VNP
p2211
sbag36
(g37
g38
(lp2212
g36
(g37
g38
(lp2213
Vof
p2214
atp2215
Rp2216
(dp2217
g48
VIN
p2218
sbag36
(g37
g38
(lp2219
g36
(g37
g38
(lp2220
Vthe
p2221
atp2222
Rp2223
(dp2224
g48
VDT
p2225
sbag36
(g37
g38
(lp2226
g36
(g37
g38
(lp2227
g36
(g37
g38
(lp2228
VWeb
p2229
atp2230
Rp2231
(dp2232
g48
VJJ
p2233
sbatp2234
Rp2235
(dp2236
g48
VADJP
p2237
sbag36
(g37
g38
(lp2238
Vand
p2239
atp2240
Rp2241
(dp2242
g48
VCC
p2243
sbag36
(g37
g38
(lp2244
g36
(g37
g38
(lp2245
Vnaturally
p2246
atp2247
Rp2248
(dp2249
g48
VRB
p2250
sbag36
(g37
g38
(lp2251
Vsup
p2252
atp2253
Rp2254
(dp2255
g48
VJJ
p2256
sbatp2257
Rp2258
(dp2259
g48
VADJP
p2260
sbag36
(g37
g38
(lp2261
g246
atp2262
Rp2263
(dp2264
g48
g189
sbatp2265
Rp2266
(dp2267
g48
VADJP
p2268
sbag36
(g37
g38
(lp2269
Vports
p2270
atp2271
Rp2272
(dp2273
g48
VNNS
p2274
sbag36
(g37
g38
(lp2275
Vrelational
p2276
atp2277
Rp2278
(dp2279
g48
VNN
p2280
sbatp2281
Rp2282
(dp2283
g48
VNP
p2284
sbatp2285
Rp2286
(dp2287
g48
VPP
p2288
sbatp2289
Rp2290
(dp2291
g48
VNP
p2292
sbag36
(g37
g38
(lp2293
g36
(g37
g38
(lp2294
Vquery
p2295
atp2296
Rp2297
(dp2298
g48
VRB
p2299
sbatp2300
Rp2301
(dp2302
g48
VADVP
p2303
sbatp2304
Rp2305
(dp2306
g48
VVP
p2307
sbag36
(g37
g38
(lp2308
g296
atp2309
Rp2310
(dp2311
g48
g296
sbatp2312
Rp2313
(dp2314
g48
g196
sbatp2315
Rp2316
(dp2317
g48
VROOT
p2318
sbasbasg1115
I4
sg29
I2
sg32
I0
sba(icmyPackage
Parag
p2319
(dp2320
g14
I1
sg25
(lp2321
(icmyPackage
Sent
p2322
(dp2323
g14
I1
sg29
I3
sg30
S'With the addition and removal of semantic links, an SLN may evolve into semantic communities.'
p2324
sg32
I0
sg33
I15
sg34
(lp2325
g36
(g37
g38
(lp2326
g36
(g37
g38
(lp2327
g36
(g37
g38
(lp2328
g36
(g37
g38
(lp2329
VWith
p2330
atp2331
Rp2332
(dp2333
g48
VIN
p2334
sbag36
(g37
g38
(lp2335
g36
(g37
g38
(lp2336
g36
(g37
g38
(lp2337
Vthe
p2338
atp2339
Rp2340
(dp2341
g48
VDT
p2342
sbag36
(g37
g38
(lp2343
Vaddition
p2344
atp2345
Rp2346
(dp2347
g48
VNN
p2348
sbag36
(g37
g38
(lp2349
Vand
p2350
atp2351
Rp2352
(dp2353
g48
VCC
p2354
sbag36
(g37
g38
(lp2355
Vremoval
p2356
atp2357
Rp2358
(dp2359
g48
VNN
p2360
sbatp2361
Rp2362
(dp2363
g48
VNP
p2364
sbag36
(g37
g38
(lp2365
g36
(g37
g38
(lp2366
Vof
p2367
atp2368
Rp2369
(dp2370
g48
VIN
p2371
sbag36
(g37
g38
(lp2372
g36
(g37
g38
(lp2373
Vsemantic
p2374
atp2375
Rp2376
(dp2377
g48
VJJ
p2378
sbag36
(g37
g38
(lp2379
Vlinks
p2380
atp2381
Rp2382
(dp2383
g48
VNNS
p2384
sbatp2385
Rp2386
(dp2387
g48
VNP
p2388
sbatp2389
Rp2390
(dp2391
g48
VPP
p2392
sbatp2393
Rp2394
(dp2395
g48
VNP
p2396
sbatp2397
Rp2398
(dp2399
g48
VPP
p2400
sbag36
(g37
g38
(lp2401
g226
atp2402
Rp2403
(dp2404
g48
g226
sbag36
(g37
g38
(lp2405
g36
(g37
g38
(lp2406
Van
p2407
atp2408
Rp2409
(dp2410
g48
VDT
p2411
sbag36
(g37
g38
(lp2412
VSLN
p2413
atp2414
Rp2415
(dp2416
g48
VNNP
p2417
sbatp2418
Rp2419
(dp2420
g48
VNP
p2421
sbag36
(g37
g38
(lp2422
g36
(g37
g38
(lp2423
Vmay
p2424
atp2425
Rp2426
(dp2427
g48
VMD
p2428
sbag36
(g37
g38
(lp2429
g36
(g37
g38
(lp2430
Vevolve
p2431
atp2432
Rp2433
(dp2434
g48
VVB
p2435
sbag36
(g37
g38
(lp2436
g36
(g37
g38
(lp2437
Vinto
p2438
atp2439
Rp2440
(dp2441
g48
VIN
p2442
sbag36
(g37
g38
(lp2443
g36
(g37
g38
(lp2444
Vsemantic
p2445
atp2446
Rp2447
(dp2448
g48
VJJ
p2449
sbag36
(g37
g38
(lp2450
Vcommunities
p2451
atp2452
Rp2453
(dp2454
g48
VNNS
p2455
sbatp2456
Rp2457
(dp2458
g48
VNP
p2459
sbatp2460
Rp2461
(dp2462
g48
VPP
p2463
sbatp2464
Rp2465
(dp2466
g48
VVP
p2467
sbatp2468
Rp2469
(dp2470
g48
VVP
p2471
sbag36
(g37
g38
(lp2472
g296
atp2473
Rp2474
(dp2475
g48
g296
sbatp2476
Rp2477
(dp2478
g48
g196
sbatp2479
Rp2480
(dp2481
g48
VROOT
p2482
sbasba(icmyPackage
Sent
p2483
(dp2484
g14
I1
sg29
I3
sg30
S'The approach to discovering semantic communities in a large SLN is different from those for ordinary graph.'
p2485
sg32
I0
sg33
I16
sg34
(lp2486
g36
(g37
g38
(lp2487
g36
(g37
g38
(lp2488
g36
(g37
g38
(lp2489
g36
(g37
g38
(lp2490
g36
(g37
g38
(lp2491
VThe
p2492
atp2493
Rp2494
(dp2495
g48
VDT
p2496
sbag36
(g37
g38
(lp2497
Vapproach
p2498
atp2499
Rp2500
(dp2501
g48
VNN
p2502
sbatp2503
Rp2504
(dp2505
g48
VNP
p2506
sbag36
(g37
g38
(lp2507
g36
(g37
g38
(lp2508
Vto
p2509
atp2510
Rp2511
(dp2512
g48
VTO
p2513
sbag36
(g37
g38
(lp2514
g36
(g37
g38
(lp2515
g36
(g37
g38
(lp2516
Vdiscovering
p2517
atp2518
Rp2519
(dp2520
g48
VVBG
p2521
sbag36
(g37
g38
(lp2522
g36
(g37
g38
(lp2523
Vsemantic
p2524
atp2525
Rp2526
(dp2527
g48
VJJ
p2528
sbag36
(g37
g38
(lp2529
Vcommunities
p2530
atp2531
Rp2532
(dp2533
g48
VNNS
p2534
sbatp2535
Rp2536
(dp2537
g48
VNP
p2538
sbag36
(g37
g38
(lp2539
g36
(g37
g38
(lp2540
Vin
p2541
atp2542
Rp2543
(dp2544
g48
VIN
p2545
sbag36
(g37
g38
(lp2546
g36
(g37
g38
(lp2547
g108
atp2548
Rp2549
(dp2550
g48
VDT
p2551
sbag36
(g37
g38
(lp2552
Vlarge
p2553
atp2554
Rp2555
(dp2556
g48
VJJ
p2557
sbag36
(g37
g38
(lp2558
VSLN
p2559
atp2560
Rp2561
(dp2562
g48
VNN
p2563
sbatp2564
Rp2565
(dp2566
g48
VNP
p2567
sbatp2568
Rp2569
(dp2570
g48
VPP
p2571
sbatp2572
Rp2573
(dp2574
g48
VVP
p2575
sbatp2576
Rp2577
(dp2578
g48
g196
sbatp2579
Rp2580
(dp2581
g48
VPP
p2582
sbatp2583
Rp2584
(dp2585
g48
VNP
p2586
sbag36
(g37
g38
(lp2587
g36
(g37
g38
(lp2588
Vis
p2589
atp2590
Rp2591
(dp2592
g48
VVBZ
p2593
sbag36
(g37
g38
(lp2594
g36
(g37
g38
(lp2595
Vdifferent
p2596
atp2597
Rp2598
(dp2599
g48
VJJ
p2600
sbag36
(g37
g38
(lp2601
g36
(g37
g38
(lp2602
Vfrom
p2603
atp2604
Rp2605
(dp2606
g48
VIN
p2607
sbag36
(g37
g38
(lp2608
g36
(g37
g38
(lp2609
g36
(g37
g38
(lp2610
Vthose
p2611
atp2612
Rp2613
(dp2614
g48
VDT
p2615
sbatp2616
Rp2617
(dp2618
g48
VNP
p2619
sbag36
(g37
g38
(lp2620
g36
(g37
g38
(lp2621
Vfor
p2622
atp2623
Rp2624
(dp2625
g48
VIN
p2626
sbag36
(g37
g38
(lp2627
g36
(g37
g38
(lp2628
Vordinary
p2629
atp2630
Rp2631
(dp2632
g48
VJJ
p2633
sbag36
(g37
g38
(lp2634
Vgraph
p2635
atp2636
Rp2637
(dp2638
g48
VNN
p2639
sbatp2640
Rp2641
(dp2642
g48
VNP
p2643
sbatp2644
Rp2645
(dp2646
g48
VPP
p2647
sbatp2648
Rp2649
(dp2650
g48
VNP
p2651
sbatp2652
Rp2653
(dp2654
g48
VPP
p2655
sbatp2656
Rp2657
(dp2658
g48
VADJP
p2659
sbatp2660
Rp2661
(dp2662
g48
VVP
p2663
sbag36
(g37
g38
(lp2664
g296
atp2665
Rp2666
(dp2667
g48
g296
sbatp2668
Rp2669
(dp2670
g48
g196
sbatp2671
Rp2672
(dp2673
g48
VROOT
p2674
sbasba(icmyPackage
Sent
p2675
(dp2676
g14
I1
sg29
I3
sg30
S'The semantic communities dynamically support intelligent applications.'
p2677
sg32
I0
sg33
I17
sg34
(lp2678
g36
(g37
g38
(lp2679
g36
(g37
g38
(lp2680
g36
(g37
g38
(lp2681
g36
(g37
g38
(lp2682
VThe
p2683
atp2684
Rp2685
(dp2686
g48
VDT
p2687
sbag36
(g37
g38
(lp2688
Vsemantic
p2689
atp2690
Rp2691
(dp2692
g48
VJJ
p2693
sbag36
(g37
g38
(lp2694
Vcommunities
p2695
atp2696
Rp2697
(dp2698
g48
VNNS
p2699
sbatp2700
Rp2701
(dp2702
g48
VNP
p2703
sbag36
(g37
g38
(lp2704
g36
(g37
g38
(lp2705
Vdynamically
p2706
atp2707
Rp2708
(dp2709
g48
VRB
p2710
sbatp2711
Rp2712
(dp2713
g48
VADVP
p2714
sbag36
(g37
g38
(lp2715
g36
(g37
g38
(lp2716
Vsupport
p2717
atp2718
Rp2719
(dp2720
g48
VVBP
p2721
sbag36
(g37
g38
(lp2722
g36
(g37
g38
(lp2723
Vintelligent
p2724
atp2725
Rp2726
(dp2727
g48
VJJ
p2728
sbag36
(g37
g38
(lp2729
Vapplications
p2730
atp2731
Rp2732
(dp2733
g48
VNNS
p2734
sbatp2735
Rp2736
(dp2737
g48
VNP
p2738
sbatp2739
Rp2740
(dp2741
g48
VVP
p2742
sbag36
(g37
g38
(lp2743
g296
atp2744
Rp2745
(dp2746
g48
g296
sbatp2747
Rp2748
(dp2749
g48
g196
sbatp2750
Rp2751
(dp2752
g48
VROOT
p2753
sbasba(icmyPackage
Sent
p2754
(dp2755
g14
I1
sg29
I3
sg30
S'Furthermore, the SLN has distinguished network effect, which is useful in social network studies [2].'
p2756
sg32
I0
sg33
I18
sg34
(lp2757
g36
(g37
g38
(lp2758
g36
(g37
g38
(lp2759
g36
(g37
g38
(lp2760
g36
(g37
g38
(lp2761
VFurthermore
p2762
atp2763
Rp2764
(dp2765
g48
VRB
p2766
sbatp2767
Rp2768
(dp2769
g48
VADVP
p2770
sbag36
(g37
g38
(lp2771
g226
atp2772
Rp2773
(dp2774
g48
g226
sbag36
(g37
g38
(lp2775
g36
(g37
g38
(lp2776
Vthe
p2777
atp2778
Rp2779
(dp2780
g48
VDT
p2781
sbag36
(g37
g38
(lp2782
VSLN
p2783
atp2784
Rp2785
(dp2786
g48
VNNP
p2787
sbatp2788
Rp2789
(dp2790
g48
VNP
p2791
sbag36
(g37
g38
(lp2792
g36
(g37
g38
(lp2793
Vhas
p2794
atp2795
Rp2796
(dp2797
g48
VVBZ
p2798
sbag36
(g37
g38
(lp2799
g36
(g37
g38
(lp2800
g36
(g37
g38
(lp2801
Vdistinguished
p2802
atp2803
Rp2804
(dp2805
g48
VJJ
p2806
sbag36
(g37
g38
(lp2807
Vnetwork
p2808
atp2809
Rp2810
(dp2811
g48
VNN
p2812
sbag36
(g37
g38
(lp2813
Veffect
p2814
atp2815
Rp2816
(dp2817
g48
VNN
p2818
sbatp2819
Rp2820
(dp2821
g48
VNP
p2822
sbag36
(g37
g38
(lp2823
g226
atp2824
Rp2825
(dp2826
g48
g226
sbag36
(g37
g38
(lp2827
g36
(g37
g38
(lp2828
g36
(g37
g38
(lp2829
Vwhich
p2830
atp2831
Rp2832
(dp2833
g48
VWDT
p2834
sbatp2835
Rp2836
(dp2837
g48
VWHNP
p2838
sbag36
(g37
g38
(lp2839
g36
(g37
g38
(lp2840
g36
(g37
g38
(lp2841
Vis
p2842
atp2843
Rp2844
(dp2845
g48
VVBZ
p2846
sbag36
(g37
g38
(lp2847
g36
(g37
g38
(lp2848
Vuseful
p2849
atp2850
Rp2851
(dp2852
g48
VJJ
p2853
sbag36
(g37
g38
(lp2854
g36
(g37
g38
(lp2855
Vin
p2856
atp2857
Rp2858
(dp2859
g48
VIN
p2860
sbag36
(g37
g38
(lp2861
g36
(g37
g38
(lp2862
Vsocial
p2863
atp2864
Rp2865
(dp2866
g48
VJJ
p2867
sbag36
(g37
g38
(lp2868
Vnetwork
p2869
atp2870
Rp2871
(dp2872
g48
VNN
p2873
sbag36
(g37
g38
(lp2874
Vstudies
p2875
atp2876
Rp2877
(dp2878
g48
VNNS
p2879
sbatp2880
Rp2881
(dp2882
g48
VNP
p2883
sbatp2884
Rp2885
(dp2886
g48
VPP
p2887
sbatp2888
Rp2889
(dp2890
g48
VADJP
p2891
sbag36
(g37
g38
(lp2892
g36
(g37
g38
(lp2893
g36
(g37
g38
(lp2894
V-LSB-
p2895
atp2896
Rp2897
(dp2898
g48
VVBG
p2899
sbag36
(g37
g38
(lp2900
g36
(g37
g38
(lp2901
V2
p2902
atp2903
Rp2904
(dp2905
g48
VCD
p2906
sbag36
(g37
g38
(lp2907
V-RSB-
p2908
atp2909
Rp2910
(dp2911
g48
VNNS
p2912
sbatp2913
Rp2914
(dp2915
g48
VNP
p2916
sbatp2917
Rp2918
(dp2919
g48
VVP
p2920
sbatp2921
Rp2922
(dp2923
g48
g196
sbatp2924
Rp2925
(dp2926
g48
VVP
p2927
sbatp2928
Rp2929
(dp2930
g48
g196
sbatp2931
Rp2932
(dp2933
g48
VSBAR
p2934
sbatp2935
Rp2936
(dp2937
g48
VNP
p2938
sbatp2939
Rp2940
(dp2941
g48
VVP
p2942
sbag36
(g37
g38
(lp2943
g296
atp2944
Rp2945
(dp2946
g48
g296
sbatp2947
Rp2948
(dp2949
g48
g196
sbatp2950
Rp2951
(dp2952
g48
VROOT
p2953
sbasbasg1115
I4
sg29
I3
sg32
I0
sba(icmyPackage
Parag
p2954
(dp2955
g14
I1
sg25
(lp2956
(icmyPackage
Sent
p2957
(dp2958
g14
I1
sg29
I4
sg30
S'This special section includes six papers on semantic link net- work.'
p2959
sg32
I0
sg33
I19
sg34
(lp2960
g36
(g37
g38
(lp2961
g36
(g37
g38
(lp2962
g36
(g37
g38
(lp2963
g36
(g37
g38
(lp2964
VThis
p2965
atp2966
Rp2967
(dp2968
g48
VDT
p2969
sbag36
(g37
g38
(lp2970
Vspecial
p2971
atp2972
Rp2973
(dp2974
g48
VJJ
p2975
sbag36
(g37
g38
(lp2976
Vsection
p2977
atp2978
Rp2979
(dp2980
g48
VNN
p2981
sbatp2982
Rp2983
(dp2984
g48
VNP
p2985
sbag36
(g37
g38
(lp2986
g36
(g37
g38
(lp2987
Vincludes
p2988
atp2989
Rp2990
(dp2991
g48
VVBZ
p2992
sbag36
(g37
g38
(lp2993
g36
(g37
g38
(lp2994
g36
(g37
g38
(lp2995
g36
(g37
g38
(lp2996
Vsix
p2997
atp2998
Rp2999
(dp3000
g48
VCD
p3001
sbag36
(g37
g38
(lp3002
Vpapers
p3003
atp3004
Rp3005
(dp3006
g48
VNNS
p3007
sbatp3008
Rp3009
(dp3010
g48
VNP
p3011
sbag36
(g37
g38
(lp3012
g36
(g37
g38
(lp3013
Von
p3014
atp3015
Rp3016
(dp3017
g48
VIN
p3018
sbag36
(g37
g38
(lp3019
g36
(g37
g38
(lp3020
Vsemantic
p3021
atp3022
Rp3023
(dp3024
g48
VJJ
p3025
sbag36
(g37
g38
(lp3026
Vlink
p3027
atp3028
Rp3029
(dp3030
g48
VNN
p3031
sbag36
(g37
g38
(lp3032
Vnet
p3033
atp3034
Rp3035
(dp3036
g48
VNN
p3037
sbatp3038
Rp3039
(dp3040
g48
VNP
p3041
sbatp3042
Rp3043
(dp3044
g48
VPP
p3045
sbatp3046
Rp3047
(dp3048
g48
VNP
p3049
sbag36
(g37
g38
(lp3050
g246
atp3051
Rp3052
(dp3053
g48
g189
sbag36
(g37
g38
(lp3054
g36
(g37
g38
(lp3055
Vwork
p3056
atp3057
Rp3058
(dp3059
g48
VNN
p3060
sbatp3061
Rp3062
(dp3063
g48
VNP
p3064
sbatp3065
Rp3066
(dp3067
g48
VNP
p3068
sbatp3069
Rp3070
(dp3071
g48
VVP
p3072
sbag36
(g37
g38
(lp3073
g296
atp3074
Rp3075
(dp3076
g48
g296
sbatp3077
Rp3078
(dp3079
g48
g196
sbatp3080
Rp3081
(dp3082
g48
VROOT
p3083
sbasba(icmyPackage
Sent
p3084
(dp3085
g14
I1
sg29
I4
sg30
S'The first paper is about the application of SLN in resource discovery in a virtual organization.'
p3086
sg32
I0
sg33
I20
sg34
(lp3087
g36
(g37
g38
(lp3088
g36
(g37
g38
(lp3089
g36
(g37
g38
(lp3090
g36
(g37
g38
(lp3091
VThe
p3092
atp3093
Rp3094
(dp3095
g48
VDT
p3096
sbag36
(g37
g38
(lp3097
Vfirst
p3098
atp3099
Rp3100
(dp3101
g48
VJJ
p3102
sbag36
(g37
g38
(lp3103
Vpaper
p3104
atp3105
Rp3106
(dp3107
g48
VNN
p3108
sbatp3109
Rp3110
(dp3111
g48
VNP
p3112
sbag36
(g37
g38
(lp3113
g36
(g37
g38
(lp3114
Vis
p3115
atp3116
Rp3117
(dp3118
g48
VVBZ
p3119
sbag36
(g37
g38
(lp3120
g36
(g37
g38
(lp3121
Vabout
p3122
atp3123
Rp3124
(dp3125
g48
VIN
p3126
sbag36
(g37
g38
(lp3127
g36
(g37
g38
(lp3128
g36
(g37
g38
(lp3129
Vthe
p3130
atp3131
Rp3132
(dp3133
g48
VDT
p3134
sbag36
(g37
g38
(lp3135
Vapplication
p3136
atp3137
Rp3138
(dp3139
g48
VNN
p3140
sbatp3141
Rp3142
(dp3143
g48
VNP
p3144
sbag36
(g37
g38
(lp3145
g36
(g37
g38
(lp3146
Vof
p3147
atp3148
Rp3149
(dp3150
g48
VIN
p3151
sbag36
(g37
g38
(lp3152
g36
(g37
g38
(lp3153
VSLN
p3154
atp3155
Rp3156
(dp3157
g48
VNNP
p3158
sbatp3159
Rp3160
(dp3161
g48
VNP
p3162
sbatp3163
Rp3164
(dp3165
g48
VPP
p3166
sbatp3167
Rp3168
(dp3169
g48
VNP
p3170
sbatp3171
Rp3172
(dp3173
g48
VPP
p3174
sbag36
(g37
g38
(lp3175
g36
(g37
g38
(lp3176
Vin
p3177
atp3178
Rp3179
(dp3180
g48
VIN
p3181
sbag36
(g37
g38
(lp3182
g36
(g37
g38
(lp3183
g36
(g37
g38
(lp3184
Vresource
p3185
atp3186
Rp3187
(dp3188
g48
VNN
p3189
sbag36
(g37
g38
(lp3190
Vdiscovery
p3191
atp3192
Rp3193
(dp3194
g48
VNN
p3195
sbatp3196
Rp3197
(dp3198
g48
VNP
p3199
sbag36
(g37
g38
(lp3200
g36
(g37
g38
(lp3201
Vin
p3202
atp3203
Rp3204
(dp3205
g48
VIN
p3206
sbag36
(g37
g38
(lp3207
g36
(g37
g38
(lp3208
g108
atp3209
Rp3210
(dp3211
g48
VDT
p3212
sbag36
(g37
g38
(lp3213
Vvirtual
p3214
atp3215
Rp3216
(dp3217
g48
VJJ
p3218
sbag36
(g37
g38
(lp3219
Vorganization
p3220
atp3221
Rp3222
(dp3223
g48
VNN
p3224
sbatp3225
Rp3226
(dp3227
g48
VNP
p3228
sbatp3229
Rp3230
(dp3231
g48
VPP
p3232
sbatp3233
Rp3234
(dp3235
g48
VNP
p3236
sbatp3237
Rp3238
(dp3239
g48
VPP
p3240
sbatp3241
Rp3242
(dp3243
g48
VVP
p3244
sbag36
(g37
g38
(lp3245
g296
atp3246
Rp3247
(dp3248
g48
g296
sbatp3249
Rp3250
(dp3251
g48
g196
sbatp3252
Rp3253
(dp3254
g48
VROOT
p3255
sbasba(icmyPackage
Sent
p3256
(dp3257
g14
I1
sg29
I4
sg30
S'A semantics-aware topology construction method is used to group similar nodes to form a se- mantic small-world.'
p3258
sg32
I0
sg33
I21
sg34
(lp3259
g36
(g37
g38
(lp3260
g36
(g37
g38
(lp3261
g36
(g37
g38
(lp3262
g36
(g37
g38
(lp3263
VA
p3264
atp3265
Rp3266
(dp3267
g48
VDT
p3268
sbag36
(g37
g38
(lp3269
Vsemantics-aware
p3270
atp3271
Rp3272
(dp3273
g48
VJJ
p3274
sbag36
(g37
g38
(lp3275
Vtopology
p3276
atp3277
Rp3278
(dp3279
g48
VJJ
p3280
sbag36
(g37
g38
(lp3281
Vconstruction
p3282
atp3283
Rp3284
(dp3285
g48
VNN
p3286
sbag36
(g37
g38
(lp3287
Vmethod
p3288
atp3289
Rp3290
(dp3291
g48
VNN
p3292
sbatp3293
Rp3294
(dp3295
g48
VNP
p3296
sbag36
(g37
g38
(lp3297
g36
(g37
g38
(lp3298
Vis
p3299
atp3300
Rp3301
(dp3302
g48
VVBZ
p3303
sbag36
(g37
g38
(lp3304
g36
(g37
g38
(lp3305
Vused
p3306
atp3307
Rp3308
(dp3309
g48
VVBN
p3310
sbag36
(g37
g38
(lp3311
g36
(g37
g38
(lp3312
Vto
p3313
atp3314
Rp3315
(dp3316
g48
VTO
p3317
sbag36
(g37
g38
(lp3318
g36
(g37
g38
(lp3319
Vgroup
p3320
atp3321
Rp3322
(dp3323
g48
VNN
p3324
sbag36
(g37
g38
(lp3325
Vsimilar
p3326
atp3327
Rp3328
(dp3329
g48
VJJ
p3330
sbag36
(g37
g38
(lp3331
Vnodes
p3332
atp3333
Rp3334
(dp3335
g48
VNNS
p3336
sbatp3337
Rp3338
(dp3339
g48
VNP
p3340
sbatp3341
Rp3342
(dp3343
g48
VPP
p3344
sbag36
(g37
g38
(lp3345
g36
(g37
g38
(lp3346
g36
(g37
g38
(lp3347
Vto
p3348
atp3349
Rp3350
(dp3351
g48
VTO
p3352
sbag36
(g37
g38
(lp3353
g36
(g37
g38
(lp3354
Vform
p3355
atp3356
Rp3357
(dp3358
g48
VVB
p3359
sbag36
(g37
g38
(lp3360
g36
(g37
g38
(lp3361
g108
atp3362
Rp3363
(dp3364
g48
VFW
p3365
sbag36
(g37
g38
(lp3366
Vse
p3367
atp3368
Rp3369
(dp3370
g48
VFW
p3371
sbatp3372
Rp3373
(dp3374
g48
VADVP
p3375
sbag36
(g37
g38
(lp3376
g246
atp3377
Rp3378
(dp3379
g48
g189
sbag36
(g37
g38
(lp3380
g36
(g37
g38
(lp3381
g36
(g37
g38
(lp3382
Vmantic
p3383
atp3384
Rp3385
(dp3386
g48
VJJ
p3387
sbag36
(g37
g38
(lp3388
Vsmall-world
p3389
atp3390
Rp3391
(dp3392
g48
VJJ
p3393
sbatp3394
Rp3395
(dp3396
g48
VADJP
p3397
sbatp3398
Rp3399
(dp3400
g48
VFRAG
p3401
sbatp3402
Rp3403
(dp3404
g48
VVP
p3405
sbatp3406
Rp3407
(dp3408
g48
VVP
p3409
sbatp3410
Rp3411
(dp3412
g48
g196
sbatp3413
Rp3414
(dp3415
g48
VVP
p3416
sbatp3417
Rp3418
(dp3419
g48
VVP
p3420
sbag36
(g37
g38
(lp3421
g296
atp3422
Rp3423
(dp3424
g48
g296
sbatp3425
Rp3426
(dp3427
g48
g196
sbatp3428
Rp3429
(dp3430
g48
VROOT
p3431
sbasba(icmyPackage
Sent
p3432
(dp3433
g14
I1
sg29
I4
sg30
S'Semantic links allow queries to be propagated between semantically related nodes [3].'
p3434
sg32
I0
sg33
I22
sg34
(lp3435
g36
(g37
g38
(lp3436
g36
(g37
g38
(lp3437
g36
(g37
g38
(lp3438
g36
(g37
g38
(lp3439
VSemantic
p3440
atp3441
Rp3442
(dp3443
g48
VJJ
p3444
sbag36
(g37
g38
(lp3445
Vlinks
p3446
atp3447
Rp3448
(dp3449
g48
VNNS
p3450
sbatp3451
Rp3452
(dp3453
g48
VNP
p3454
sbag36
(g37
g38
(lp3455
g36
(g37
g38
(lp3456
Vallow
p3457
atp3458
Rp3459
(dp3460
g48
VVBP
p3461
sbag36
(g37
g38
(lp3462
g36
(g37
g38
(lp3463
g36
(g37
g38
(lp3464
Vqueries
p3465
atp3466
Rp3467
(dp3468
g48
VNNS
p3469
sbatp3470
Rp3471
(dp3472
g48
VNP
p3473
sbag36
(g37
g38
(lp3474
g36
(g37
g38
(lp3475
Vto
p3476
atp3477
Rp3478
(dp3479
g48
VTO
p3480
sbag36
(g37
g38
(lp3481
g36
(g37
g38
(lp3482
Vbe
p3483
atp3484
Rp3485
(dp3486
g48
VVB
p3487
sbag36
(g37
g38
(lp3488
g36
(g37
g38
(lp3489
Vpropagated
p3490
atp3491
Rp3492
(dp3493
g48
VVBN
p3494
sbag36
(g37
g38
(lp3495
g36
(g37
g38
(lp3496
Vbetween
p3497
atp3498
Rp3499
(dp3500
g48
VIN
p3501
sbag36
(g37
g38
(lp3502
g36
(g37
g38
(lp3503
g36
(g37
g38
(lp3504
g36
(g37
g38
(lp3505
Vsemantically
p3506
atp3507
Rp3508
(dp3509
g48
VRB
p3510
sbag36
(g37
g38
(lp3511
Vrelated
p3512
atp3513
Rp3514
(dp3515
g48
VVBN
p3516
sbatp3517
Rp3518
(dp3519
g48
VADJP
p3520
sbag36
(g37
g38
(lp3521
Vnodes
p3522
atp3523
Rp3524
(dp3525
g48
VNNS
p3526
sbatp3527
Rp3528
(dp3529
g48
VNP
p3530
sbag36
(g37
g38
(lp3531
g36
(g37
g38
(lp3532
V-LSB-
p3533
atp3534
Rp3535
(dp3536
g48
VJJ
p3537
sbag36
(g37
g38
(lp3538
g36
(g37
g38
(lp3539
V3
p3540
atp3541
Rp3542
(dp3543
g48
VCD
p3544
sbag36
(g37
g38
(lp3545
V-RSB-
p3546
atp3547
Rp3548
(dp3549
g48
VNNS
p3550
sbatp3551
Rp3552
(dp3553
g48
VNP
p3554
sbatp3555
Rp3556
(dp3557
g48
VADJP
p3558
sbatp3559
Rp3560
(dp3561
g48
VNP
p3562
sbatp3563
Rp3564
(dp3565
g48
VPP
p3566
sbatp3567
Rp3568
(dp3569
g48
VVP
p3570
sbatp3571
Rp3572
(dp3573
g48
VVP
p3574
sbatp3575
Rp3576
(dp3577
g48
VVP
p3578
sbatp3579
Rp3580
(dp3581
g48
g196
sbatp3582
Rp3583
(dp3584
g48
VVP
p3585
sbag36
(g37
g38
(lp3586
g296
atp3587
Rp3588
(dp3589
g48
g296
sbatp3590
Rp3591
(dp3592
g48
g196
sbatp3593
Rp3594
(dp3595
g48
VROOT
p3596
sbasba(icmyPackage
Sent
p3597
(dp3598
g14
I1
sg29
I4
sg30
S'The second paper applies the semantic link idea to construct a recommendation system.'
p3599
sg32
I0
sg33
I23
sg34
(lp3600
g36
(g37
g38
(lp3601
g36
(g37
g38
(lp3602
g36
(g37
g38
(lp3603
g36
(g37
g38
(lp3604
VThe
p3605
atp3606
Rp3607
(dp3608
g48
VDT
p3609
sbag36
(g37
g38
(lp3610
Vsecond
p3611
atp3612
Rp3613
(dp3614
g48
VJJ
p3615
sbag36
(g37
g38
(lp3616
Vpaper
p3617
atp3618
Rp3619
(dp3620
g48
VNN
p3621
sbatp3622
Rp3623
(dp3624
g48
VNP
p3625
sbag36
(g37
g38
(lp3626
g36
(g37
g38
(lp3627
Vapplies
p3628
atp3629
Rp3630
(dp3631
g48
VVBZ
p3632
sbag36
(g37
g38
(lp3633
g36
(g37
g38
(lp3634
Vthe
p3635
atp3636
Rp3637
(dp3638
g48
VDT
p3639
sbag36
(g37
g38
(lp3640
Vsemantic
p3641
atp3642
Rp3643
(dp3644
g48
VJJ
p3645
sbag36
(g37
g38
(lp3646
Vlink
p3647
atp3648
Rp3649
(dp3650
g48
VNN
p3651
sbag36
(g37
g38
(lp3652
Videa
p3653
atp3654
Rp3655
(dp3656
g48
VNN
p3657
sbatp3658
Rp3659
(dp3660
g48
VNP
p3661
sbag36
(g37
g38
(lp3662
g36
(g37
g38
(lp3663
g36
(g37
g38
(lp3664
Vto
p3665
atp3666
Rp3667
(dp3668
g48
VTO
p3669
sbag36
(g37
g38
(lp3670
g36
(g37
g38
(lp3671
Vconstruct
p3672
atp3673
Rp3674
(dp3675
g48
VVB
p3676
sbag36
(g37
g38
(lp3677
g36
(g37
g38
(lp3678
g108
atp3679
Rp3680
(dp3681
g48
VDT
p3682
sbag36
(g37
g38
(lp3683
Vrecommendation
p3684
atp3685
Rp3686
(dp3687
g48
VNN
p3688
sbag36
(g37
g38
(lp3689
Vsystem
p3690
atp3691
Rp3692
(dp3693
g48
VNN
p3694
sbatp3695
Rp3696
(dp3697
g48
VNP
p3698
sbatp3699
Rp3700
(dp3701
g48
VVP
p3702
sbatp3703
Rp3704
(dp3705
g48
VVP
p3706
sbatp3707
Rp3708
(dp3709
g48
g196
sbatp3710
Rp3711
(dp3712
g48
VVP
p3713
sbag36
(g37
g38
(lp3714
g296
atp3715
Rp3716
(dp3717
g48
g296
sbatp3718
Rp3719
(dp3720
g48
g196
sbatp3721
Rp3722
(dp3723
g48
VROOT
p3724
sbasba(icmyPackage
Sent
p3725
(dp3726
g14
I1
sg29
I4
sg30
S'The semantic link incorporates specific domain ontology and user opinion [4].'
p3727
sg32
I0
sg33
I24
sg34
(lp3728
g36
(g37
g38
(lp3729
g36
(g37
g38
(lp3730
g36
(g37
g38
(lp3731
g36
(g37
g38
(lp3732
VThe
p3733
atp3734
Rp3735
(dp3736
g48
VDT
p3737
sbag36
(g37
g38
(lp3738
Vsemantic
p3739
atp3740
Rp3741
(dp3742
g48
VJJ
p3743
sbag36
(g37
g38
(lp3744
Vlink
p3745
atp3746
Rp3747
(dp3748
g48
VNN
p3749
sbatp3750
Rp3751
(dp3752
g48
VNP
p3753
sbag36
(g37
g38
(lp3754
g36
(g37
g38
(lp3755
Vincorporates
p3756
atp3757
Rp3758
(dp3759
g48
VVBZ
p3760
sbag36
(g37
g38
(lp3761
g36
(g37
g38
(lp3762
g36
(g37
g38
(lp3763
Vspecific
p3764
atp3765
Rp3766
(dp3767
g48
VJJ
p3768
sbag36
(g37
g38
(lp3769
Vdomain
p3770
atp3771
Rp3772
(dp3773
g48
VNN
p3774
sbag36
(g37
g38
(lp3775
Vontology
p3776
atp3777
Rp3778
(dp3779
g48
VNN
p3780
sbag36
(g37
g38
(lp3781
Vand
p3782
atp3783
Rp3784
(dp3785
g48
VCC
p3786
sbag36
(g37
g38
(lp3787
Vuser
p3788
atp3789
Rp3790
(dp3791
g48
VNN
p3792
sbag36
(g37
g38
(lp3793
Vopinion
p3794
atp3795
Rp3796
(dp3797
g48
VNN
p3798
sbatp3799
Rp3800
(dp3801
g48
VNP
p3802
sbag36
(g37
g38
(lp3803
g36
(g37
g38
(lp3804
V-LSB-
p3805
atp3806
Rp3807
(dp3808
g48
VVBG
p3809
sbag36
(g37
g38
(lp3810
g36
(g37
g38
(lp3811
V4
p3812
atp3813
Rp3814
(dp3815
g48
VCD
p3816
sbag36
(g37
g38
(lp3817
V-RSB-
p3818
atp3819
Rp3820
(dp3821
g48
VNNS
p3822
sbatp3823
Rp3824
(dp3825
g48
VNP
p3826
sbatp3827
Rp3828
(dp3829
g48
VVP
p3830
sbatp3831
Rp3832
(dp3833
g48
VNP
p3834
sbatp3835
Rp3836
(dp3837
g48
VVP
p3838
sbag36
(g37
g38
(lp3839
g296
atp3840
Rp3841
(dp3842
g48
g296
sbatp3843
Rp3844
(dp3845
g48
g196
sbatp3846
Rp3847
(dp3848
g48
VROOT
p3849
sbasba(icmyPackage
Sent
p3850
(dp3851
g14
I1
sg29
I4
sg30
S'The third paper is the application of SLN in discovering phishing targets of a suspicious webpage.'
p3852
sg32
I0
sg33
I25
sg34
(lp3853
g36
(g37
g38
(lp3854
g36
(g37
g38
(lp3855
g36
(g37
g38
(lp3856
g36
(g37
g38
(lp3857
VThe
p3858
atp3859
Rp3860
(dp3861
g48
VDT
p3862
sbag36
(g37
g38
(lp3863
Vthird
p3864
atp3865
Rp3866
(dp3867
g48
VJJ
p3868
sbag36
(g37
g38
(lp3869
Vpaper
p3870
atp3871
Rp3872
(dp3873
g48
VNN
p3874
sbatp3875
Rp3876
(dp3877
g48
VNP
p3878
sbag36
(g37
g38
(lp3879
g36
(g37
g38
(lp3880
Vis
p3881
atp3882
Rp3883
(dp3884
g48
VVBZ
p3885
sbag36
(g37
g38
(lp3886
g36
(g37
g38
(lp3887
g36
(g37
g38
(lp3888
Vthe
p3889
atp3890
Rp3891
(dp3892
g48
VDT
p3893
sbag36
(g37
g38
(lp3894
Vapplication
p3895
atp3896
Rp3897
(dp3898
g48
VNN
p3899
sbatp3900
Rp3901
(dp3902
g48
VNP
p3903
sbag36
(g37
g38
(lp3904
g36
(g37
g38
(lp3905
Vof
p3906
atp3907
Rp3908
(dp3909
g48
VIN
p3910
sbag36
(g37
g38
(lp3911
g36
(g37
g38
(lp3912
g36
(g37
g38
(lp3913
VSLN
p3914
atp3915
Rp3916
(dp3917
g48
VNNP
p3918
sbatp3919
Rp3920
(dp3921
g48
VNP
p3922
sbag36
(g37
g38
(lp3923
g36
(g37
g38
(lp3924
Vin
p3925
atp3926
Rp3927
(dp3928
g48
VIN
p3929
sbag36
(g37
g38
(lp3930
g36
(g37
g38
(lp3931
g36
(g37
g38
(lp3932
Vdiscovering
p3933
atp3934
Rp3935
(dp3936
g48
VVBG
p3937
sbag36
(g37
g38
(lp3938
g36
(g37
g38
(lp3939
g36
(g37
g38
(lp3940
Vphishing
p3941
atp3942
Rp3943
(dp3944
g48
VVBG
p3945
sbag36
(g37
g38
(lp3946
Vtargets
p3947
atp3948
Rp3949
(dp3950
g48
VNNS
p3951
sbatp3952
Rp3953
(dp3954
g48
VNP
p3955
sbag36
(g37
g38
(lp3956
g36
(g37
g38
(lp3957
Vof
p3958
atp3959
Rp3960
(dp3961
g48
VIN
p3962
sbag36
(g37
g38
(lp3963
g36
(g37
g38
(lp3964
g108
atp3965
Rp3966
(dp3967
g48
VDT
p3968
sbag36
(g37
g38
(lp3969
Vsuspicious
p3970
atp3971
Rp3972
(dp3973
g48
VJJ
p3974
sbag36
(g37
g38
(lp3975
Vwebpage
p3976
atp3977
Rp3978
(dp3979
g48
VNN
p3980
sbatp3981
Rp3982
(dp3983
g48
VNP
p3984
sbatp3985
Rp3986
(dp3987
g48
VPP
p3988
sbatp3989
Rp3990
(dp3991
g48
VNP
p3992
sbatp3993
Rp3994
(dp3995
g48
VVP
p3996
sbatp3997
Rp3998
(dp3999
g48
g196
sbatp4000
Rp4001
(dp4002
g48
VPP
p4003
sbatp4004
Rp4005
(dp4006
g48
VNP
p4007
sbatp4008
Rp4009
(dp4010
g48
VPP
p4011
sbatp4012
Rp4013
(dp4014
g48
VNP
p4015
sbatp4016
Rp4017
(dp4018
g48
VVP
p4019
sbag36
(g37
g38
(lp4020
g296
atp4021
Rp4022
(dp4023
g48
g296
sbatp4024
Rp4025
(dp4026
g48
g196
sbatp4027
Rp4028
(dp4029
g48
VROOT
p4030
sbasba(icmyPackage
Sent
p4031
(dp4032
g14
I1
sg29
I4
sg30
S'The approach is based on construction and reasoning of the SLN of the suspicious web- page [5].'
p4033
sg32
I0
sg33
I26
sg34
(lp4034
g36
(g37
g38
(lp4035
g36
(g37
g38
(lp4036
g36
(g37
g38
(lp4037
g36
(g37
g38
(lp4038
g36
(g37
g38
(lp4039
VThe
p4040
atp4041
Rp4042
(dp4043
g48
VDT
p4044
sbag36
(g37
g38
(lp4045
Vapproach
p4046
atp4047
Rp4048
(dp4049
g48
VNN
p4050
sbatp4051
Rp4052
(dp4053
g48
VNP
p4054
sbag36
(g37
g38
(lp4055
g36
(g37
g38
(lp4056
Vis
p4057
atp4058
Rp4059
(dp4060
g48
VVBZ
p4061
sbag36
(g37
g38
(lp4062
g36
(g37
g38
(lp4063
Vbased
p4064
atp4065
Rp4066
(dp4067
g48
VVBN
p4068
sbag36
(g37
g38
(lp4069
g36
(g37
g38
(lp4070
Von
p4071
atp4072
Rp4073
(dp4074
g48
VIN
p4075
sbag36
(g37
g38
(lp4076
g36
(g37
g38
(lp4077
g36
(g37
g38
(lp4078
Vconstruction
p4079
atp4080
Rp4081
(dp4082
g48
VNN
p4083
sbag36
(g37
g38
(lp4084
Vand
p4085
atp4086
Rp4087
(dp4088
g48
VCC
p4089
sbag36
(g37
g38
(lp4090
Vreasoning
p4091
atp4092
Rp4093
(dp4094
g48
VNN
p4095
sbatp4096
Rp4097
(dp4098
g48
VNP
p4099
sbag36
(g37
g38
(lp4100
g36
(g37
g38
(lp4101
Vof
p4102
atp4103
Rp4104
(dp4105
g48
VIN
p4106
sbag36
(g37
g38
(lp4107
g36
(g37
g38
(lp4108
g36
(g37
g38
(lp4109
Vthe
p4110
atp4111
Rp4112
(dp4113
g48
VDT
p4114
sbag36
(g37
g38
(lp4115
VSLN
p4116
atp4117
Rp4118
(dp4119
g48
VNNP
p4120
sbatp4121
Rp4122
(dp4123
g48
VNP
p4124
sbag36
(g37
g38
(lp4125
g36
(g37
g38
(lp4126
Vof
p4127
atp4128
Rp4129
(dp4130
g48
VIN
p4131
sbag36
(g37
g38
(lp4132
g36
(g37
g38
(lp4133
Vthe
p4134
atp4135
Rp4136
(dp4137
g48
VDT
p4138
sbag36
(g37
g38
(lp4139
Vsuspicious
p4140
atp4141
Rp4142
(dp4143
g48
VJJ
p4144
sbag36
(g37
g38
(lp4145
Vweb
p4146
atp4147
Rp4148
(dp4149
g48
VNN
p4150
sbatp4151
Rp4152
(dp4153
g48
VNP
p4154
sbatp4155
Rp4156
(dp4157
g48
VPP
p4158
sbatp4159
Rp4160
(dp4161
g48
VNP
p4162
sbatp4163
Rp4164
(dp4165
g48
VPP
p4166
sbatp4167
Rp4168
(dp4169
g48
VNP
p4170
sbatp4171
Rp4172
(dp4173
g48
VPP
p4174
sbatp4175
Rp4176
(dp4177
g48
VVP
p4178
sbatp4179
Rp4180
(dp4181
g48
VVP
p4182
sbatp4183
Rp4184
(dp4185
g48
g196
sbag36
(g37
g38
(lp4186
g246
atp4187
Rp4188
(dp4189
g48
g189
sbag36
(g37
g38
(lp4190
g36
(g37
g38
(lp4191
g36
(g37
g38
(lp4192
Vpage
p4193
atp4194
Rp4195
(dp4196
g48
VNN
p4197
sbatp4198
Rp4199
(dp4200
g48
VNP
p4201
sbag36
(g37
g38
(lp4202
g36
(g37
g38
(lp4203
V-LSB-
p4204
atp4205
Rp4206
(dp4207
g48
VVBZ
p4208
sbag36
(g37
g38
(lp4209
g36
(g37
g38
(lp4210
V5
p4211
atp4212
Rp4213
(dp4214
g48
VCD
p4215
sbag36
(g37
g38
(lp4216
V-RSB-
p4217
atp4218
Rp4219
(dp4220
g48
VNNS
p4221
sbatp4222
Rp4223
(dp4224
g48
VNP
p4225
sbatp4226
Rp4227
(dp4228
g48
VVP
p4229
sbatp4230
Rp4231
(dp4232
g48
g196
sbag36
(g37
g38
(lp4233
g296
atp4234
Rp4235
(dp4236
g48
g296
sbatp4237
Rp4238
(dp4239
g48
g196
sbatp4240
Rp4241
(dp4242
g48
VROOT
p4243
sbasba(icmyPackage
Sent
p4244
(dp4245
g14
I1
sg29
I4
sg30
S'The fourth paper suggests an object-oriented SLN lan- guage for complex object description and operation [6].'
p4246
sg32
I0
sg33
I27
sg34
(lp4247
g36
(g37
g38
(lp4248
g36
(g37
g38
(lp4249
g36
(g37
g38
(lp4250
g36
(g37
g38
(lp4251
g36
(g37
g38
(lp4252
VThe
p4253
atp4254
Rp4255
(dp4256
g48
VDT
p4257
sbag36
(g37
g38
(lp4258
Vfourth
p4259
atp4260
Rp4261
(dp4262
g48
VJJ
p4263
sbag36
(g37
g38
(lp4264
Vpaper
p4265
atp4266
Rp4267
(dp4268
g48
VNN
p4269
sbatp4270
Rp4271
(dp4272
g48
VNP
p4273
sbag36
(g37
g38
(lp4274
g36
(g37
g38
(lp4275
Vsuggests
p4276
atp4277
Rp4278
(dp4279
g48
VVBZ
p4280
sbag36
(g37
g38
(lp4281
g36
(g37
g38
(lp4282
Van
p4283
atp4284
Rp4285
(dp4286
g48
VDT
p4287
sbag36
(g37
g38
(lp4288
Vobject-oriented
p4289
atp4290
Rp4291
(dp4292
g48
VJJ
p4293
sbag36
(g37
g38
(lp4294
VSLN
p4295
atp4296
Rp4297
(dp4298
g48
VNNP
p4299
sbag36
(g37
g38
(lp4300
Vlan
p4301
atp4302
Rp4303
(dp4304
g48
VNN
p4305
sbatp4306
Rp4307
(dp4308
g48
VNP
p4309
sbatp4310
Rp4311
(dp4312
g48
VVP
p4313
sbatp4314
Rp4315
(dp4316
g48
g196
sbag36
(g37
g38
(lp4317
g246
atp4318
Rp4319
(dp4320
g48
g189
sbag36
(g37
g38
(lp4321
g36
(g37
g38
(lp4322
g36
(g37
g38
(lp4323
g36
(g37
g38
(lp4324
Vguage
p4325
atp4326
Rp4327
(dp4328
g48
VNN
p4329
sbatp4330
Rp4331
(dp4332
g48
VNP
p4333
sbag36
(g37
g38
(lp4334
g36
(g37
g38
(lp4335
Vfor
p4336
atp4337
Rp4338
(dp4339
g48
VIN
p4340
sbag36
(g37
g38
(lp4341
g36
(g37
g38
(lp4342
Vcomplex
p4343
atp4344
Rp4345
(dp4346
g48
VNN
p4347
sbatp4348
Rp4349
(dp4350
g48
VNP
p4351
sbatp4352
Rp4353
(dp4354
g48
VPP
p4355
sbatp4356
Rp4357
(dp4358
g48
VNP
p4359
sbag36
(g37
g38
(lp4360
g36
(g37
g38
(lp4361
Vobject
p4362
atp4363
Rp4364
(dp4365
g48
VVBP
p4366
sbag36
(g37
g38
(lp4367
g36
(g37
g38
(lp4368
g36
(g37
g38
(lp4369
Vdescription
p4370
atp4371
Rp4372
(dp4373
g48
VNN
p4374
sbag36
(g37
g38
(lp4375
Vand
p4376
atp4377
Rp4378
(dp4379
g48
VCC
p4380
sbag36
(g37
g38
(lp4381
Voperation
p4382
atp4383
Rp4384
(dp4385
g48
VNN
p4386
sbag36
(g37
g38
(lp4387
V-LSB-
p4388
atp4389
Rp4390
(dp4391
g48
VNNS
p4392
sbatp4393
Rp4394
(dp4395
g48
VNP
p4396
sbag36
(g37
g38
(lp4397
g36
(g37
g38
(lp4398
V6
p4399
atp4400
Rp4401
(dp4402
g48
VCD
p4403
sbag36
(g37
g38
(lp4404
V-RSB-
p4405
atp4406
Rp4407
(dp4408
g48
VJJ
p4409
sbatp4410
Rp4411
(dp4412
g48
VADJP
p4413
sbatp4414
Rp4415
(dp4416
g48
g196
sbatp4417
Rp4418
(dp4419
g48
VVP
p4420
sbatp4421
Rp4422
(dp4423
g48
g196
sbag36
(g37
g38
(lp4424
g296
atp4425
Rp4426
(dp4427
g48
g296
sbatp4428
Rp4429
(dp4430
g48
g196
sbatp4431
Rp4432
(dp4433
g48
VROOT
p4434
sbasba(icmyPackage
Sent
p4435
(dp4436
g14
I1
sg29
I4
sg30
S'The fifth paper applies SLN idea to a citation network.'
p4437
sg32
I0
sg33
I28
sg34
(lp4438
g36
(g37
g38
(lp4439
g36
(g37
g38
(lp4440
g36
(g37
g38
(lp4441
g36
(g37
g38
(lp4442
VThe
p4443
atp4444
Rp4445
(dp4446
g48
VDT
p4447
sbag36
(g37
g38
(lp4448
Vfifth
p4449
atp4450
Rp4451
(dp4452
g48
VJJ
p4453
sbag36
(g37
g38
(lp4454
Vpaper
p4455
atp4456
Rp4457
(dp4458
g48
VNN
p4459
sbatp4460
Rp4461
(dp4462
g48
VNP
p4463
sbag36
(g37
g38
(lp4464
g36
(g37
g38
(lp4465
Vapplies
p4466
atp4467
Rp4468
(dp4469
g48
VVBZ
p4470
sbag36
(g37
g38
(lp4471
g36
(g37
g38
(lp4472
VSLN
p4473
atp4474
Rp4475
(dp4476
g48
VNNP
p4477
sbag36
(g37
g38
(lp4478
Videa
p4479
atp4480
Rp4481
(dp4482
g48
VNN
p4483
sbatp4484
Rp4485
(dp4486
g48
VNP
p4487
sbag36
(g37
g38
(lp4488
g36
(g37
g38
(lp4489
Vto
p4490
atp4491
Rp4492
(dp4493
g48
VTO
p4494
sbag36
(g37
g38
(lp4495
g36
(g37
g38
(lp4496
g108
atp4497
Rp4498
(dp4499
g48
VDT
p4500
sbag36
(g37
g38
(lp4501
Vcitation
p4502
atp4503
Rp4504
(dp4505
g48
VNN
p4506
sbag36
(g37
g38
(lp4507
Vnetwork
p4508
atp4509
Rp4510
(dp4511
g48
VNN
p4512
sbatp4513
Rp4514
(dp4515
g48
VNP
p4516
sbatp4517
Rp4518
(dp4519
g48
VPP
p4520
sbatp4521
Rp4522
(dp4523
g48
VVP
p4524
sbag36
(g37
g38
(lp4525
g296
atp4526
Rp4527
(dp4528
g48
g296
sbatp4529
Rp4530
(dp4531
g48
g196
sbatp4532
Rp4533
(dp4534
g48
VROOT
p4535
sbasba(icmyPackage
Sent
p4536
(dp4537
g14
I1
sg29
I4
sg30
S'The methods for ag- gregating and discovering opinion communities in citation SLNs (C-SLN) are discussed [7].'
p4538
sg32
I0
sg33
I29
sg34
(lp4539
g36
(g37
g38
(lp4540
g36
(g37
g38
(lp4541
g36
(g37
g38
(lp4542
g36
(g37
g38
(lp4543
g36
(g37
g38
(lp4544
VThe
p4545
atp4546
Rp4547
(dp4548
g48
VDT
p4549
sbag36
(g37
g38
(lp4550
Vmethods
p4551
atp4552
Rp4553
(dp4554
g48
VNNS
p4555
sbatp4556
Rp4557
(dp4558
g48
VNP
p4559
sbag36
(g37
g38
(lp4560
g36
(g37
g38
(lp4561
Vfor
p4562
atp4563
Rp4564
(dp4565
g48
VIN
p4566
sbag36
(g37
g38
(lp4567
g36
(g37
g38
(lp4568
g36
(g37
g38
(lp4569
Vag
p4570
atp4571
Rp4572
(dp4573
g48
VNN
p4574
sbatp4575
Rp4576
(dp4577
g48
VNP
p4578
sbag36
(g37
g38
(lp4579
g246
atp4580
Rp4581
(dp4582
g48
g189
sbag36
(g37
g38
(lp4583
g36
(g37
g38
(lp4584
g36
(g37
g38
(lp4585
Vgregating
p4586
atp4587
Rp4588
(dp4589
g48
VVBG
p4590
sbag36
(g37
g38
(lp4591
Vand
p4592
atp4593
Rp4594
(dp4595
g48
VCC
p4596
sbag36
(g37
g38
(lp4597
Vdiscovering
p4598
atp4599
Rp4600
(dp4601
g48
VVBG
p4602
sbag36
(g37
g38
(lp4603
g36
(g37
g38
(lp4604
Vopinion
p4605
atp4606
Rp4607
(dp4608
g48
VNN
p4609
sbag36
(g37
g38
(lp4610
Vcommunities
p4611
atp4612
Rp4613
(dp4614
g48
VNNS
p4615
sbatp4616
Rp4617
(dp4618
g48
VNP
p4619
sbag36
(g37
g38
(lp4620
g36
(g37
g38
(lp4621
Vin
p4622
atp4623
Rp4624
(dp4625
g48
VIN
p4626
sbag36
(g37
g38
(lp4627
g36
(g37
g38
(lp4628
g36
(g37
g38
(lp4629
Vcitation
p4630
atp4631
Rp4632
(dp4633
g48
VNN
p4634
sbag36
(g37
g38
(lp4635
VSLNs
p4636
atp4637
Rp4638
(dp4639
g48
VNNS
p4640
sbatp4641
Rp4642
(dp4643
g48
VNP
p4644
sbag36
(g37
g38
(lp4645
g36
(g37
g38
(lp4646
V-LRB-
p4647
atp4648
Rp4649
(dp4650
g48
V-LRB-
p4651
sbag36
(g37
g38
(lp4652
g36
(g37
g38
(lp4653
VC-SLN
p4654
atp4655
Rp4656
(dp4657
g48
VNNP
p4658
sbatp4659
Rp4660
(dp4661
g48
VNP
p4662
sbag36
(g37
g38
(lp4663
V-RRB-
p4664
atp4665
Rp4666
(dp4667
g48
V-RRB-
p4668
sbatp4669
Rp4670
(dp4671
g48
VPRN
p4672
sbatp4673
Rp4674
(dp4675
g48
VNP
p4676
sbatp4677
Rp4678
(dp4679
g48
VPP
p4680
sbatp4681
Rp4682
(dp4683
g48
VVP
p4684
sbatp4685
Rp4686
(dp4687
g48
g196
sbatp4688
Rp4689
(dp4690
g48
VNP
p4691
sbatp4692
Rp4693
(dp4694
g48
VPP
p4695
sbatp4696
Rp4697
(dp4698
g48
VNP
p4699
sbag36
(g37
g38
(lp4700
g36
(g37
g38
(lp4701
Vare
p4702
atp4703
Rp4704
(dp4705
g48
VVBP
p4706
sbag36
(g37
g38
(lp4707
g36
(g37
g38
(lp4708
Vdiscussed
p4709
atp4710
Rp4711
(dp4712
g48
VVBN
p4713
sbag36
(g37
g38
(lp4714
g36
(g37
g38
(lp4715
g36
(g37
g38
(lp4716
V-LSB-
p4717
atp4718
Rp4719
(dp4720
g48
VCD
p4721
sbag36
(g37
g38
(lp4722
V7
p4723
atp4724
Rp4725
(dp4726
g48
VCD
p4727
sbatp4728
Rp4729
(dp4730
g48
VQP
p4731
sbag36
(g37
g38
(lp4732
V-RSB-
p4733
atp4734
Rp4735
(dp4736
g48
VNNS
p4737
sbatp4738
Rp4739
(dp4740
g48
VNP
p4741
sbatp4742
Rp4743
(dp4744
g48
VVP
p4745
sbatp4746
Rp4747
(dp4748
g48
VVP
p4749
sbag36
(g37
g38
(lp4750
g296
atp4751
Rp4752
(dp4753
g48
g296
sbatp4754
Rp4755
(dp4756
g48
g196
sbatp4757
Rp4758
(dp4759
g48
VROOT
p4760
sbasba(icmyPackage
Sent
p4761
(dp4762
g14
I1
sg29
I4
sg30
S'The sixth paper proposes a schema the- ory for SLN, including rule-constraint normal forms and relevant algorithms.'
p4763
sg32
I0
sg33
I30
sg34
(lp4764
g36
(g37
g38
(lp4765
g36
(g37
g38
(lp4766
g36
(g37
g38
(lp4767
g36
(g37
g38
(lp4768
g36
(g37
g38
(lp4769
VThe
p4770
atp4771
Rp4772
(dp4773
g48
VDT
p4774
sbag36
(g37
g38
(lp4775
Vsixth
p4776
atp4777
Rp4778
(dp4779
g48
VJJ
p4780
sbag36
(g37
g38
(lp4781
Vpaper
p4782
atp4783
Rp4784
(dp4785
g48
VNN
p4786
sbatp4787
Rp4788
(dp4789
g48
VNP
p4790
sbag36
(g37
g38
(lp4791
g36
(g37
g38
(lp4792
g36
(g37
g38
(lp4793
g36
(g37
g38
(lp4794
Vproposes
p4795
atp4796
Rp4797
(dp4798
g48
VVBZ
p4799
sbag36
(g37
g38
(lp4800
g36
(g37
g38
(lp4801
g108
atp4802
Rp4803
(dp4804
g48
VDT
p4805
sbag36
(g37
g38
(lp4806
Vschema
p4807
atp4808
Rp4809
(dp4810
g48
VNN
p4811
sbatp4812
Rp4813
(dp4814
g48
VNP
p4815
sbatp4816
Rp4817
(dp4818
g48
VVP
p4819
sbatp4820
Rp4821
(dp4822
g48
g196
sbatp4823
Rp4824
(dp4825
g48
VSBAR
p4826
sbatp4827
Rp4828
(dp4829
g48
VNP
p4830
sbag36
(g37
g38
(lp4831
g36
(g37
g38
(lp4832
g36
(g37
g38
(lp4833
Vthe
p4834
atp4835
Rp4836
(dp4837
g48
VDT
p4838
sbatp4839
Rp4840
(dp4841
g48
VX
p4842
sbag36
(g37
g38
(lp4843
g246
atp4844
Rp4845
(dp4846
g48
g189
sbag36
(g37
g38
(lp4847
g36
(g37
g38
(lp4848
Vory
p4849
atp4850
Rp4851
(dp4852
g48
VVBN
p4853
sbag36
(g37
g38
(lp4854
g36
(g37
g38
(lp4855
Vfor
p4856
atp4857
Rp4858
(dp4859
g48
VIN
p4860
sbag36
(g37
g38
(lp4861
g36
(g37
g38
(lp4862
VSLN
p4863
atp4864
Rp4865
(dp4866
g48
VNNP
p4867
sbatp4868
Rp4869
(dp4870
g48
VNP
p4871
sbatp4872
Rp4873
(dp4874
g48
VPP
p4875
sbag36
(g37
g38
(lp4876
g226
atp4877
Rp4878
(dp4879
g48
g226
sbag36
(g37
g38
(lp4880
g36
(g37
g38
(lp4881
Vincluding
p4882
atp4883
Rp4884
(dp4885
g48
VVBG
p4886
sbag36
(g37
g38
(lp4887
g36
(g37
g38
(lp4888
g36
(g37
g38
(lp4889
Vrule-constraint
p4890
atp4891
Rp4892
(dp4893
g48
VJJ
p4894
sbag36
(g37
g38
(lp4895
Vnormal
p4896
atp4897
Rp4898
(dp4899
g48
VJJ
p4900
sbag36
(g37
g38
(lp4901
Vforms
p4902
atp4903
Rp4904
(dp4905
g48
VNNS
p4906
sbatp4907
Rp4908
(dp4909
g48
VNP
p4910
sbag36
(g37
g38
(lp4911
Vand
p4912
atp4913
Rp4914
(dp4915
g48
VCC
p4916
sbag36
(g37
g38
(lp4917
g36
(g37
g38
(lp4918
Vrelevant
p4919
atp4920
Rp4921
(dp4922
g48
VJJ
p4923
sbag36
(g37
g38
(lp4924
Valgorithms
p4925
atp4926
Rp4927
(dp4928
g48
VNNS
p4929
sbatp4930
Rp4931
(dp4932
g48
VNP
p4933
sbatp4934
Rp4935
(dp4936
g48
VNP
p4937
sbatp4938
Rp4939
(dp4940
g48
VPP
p4941
sbatp4942
Rp4943
(dp4944
g48
VVP
p4945
sbag36
(g37
g38
(lp4946
g296
atp4947
Rp4948
(dp4949
g48
g296
sbatp4950
Rp4951
(dp4952
g48
g4842
sbatp4953
Rp4954
(dp4955
g48
VFRAG
p4956
sbatp4957
Rp4958
(dp4959
g48
VROOT
p4960
sbasba(icmyPackage
Sent
p4961
(dp4962
g14
I1
sg29
I4
sg30
S'It helps normalized management of SLN [8].'
p4963
sg32
I0
sg33
I31
sg34
(lp4964
g36
(g37
g38
(lp4965
g36
(g37
g38
(lp4966
g36
(g37
g38
(lp4967
g36
(g37
g38
(lp4968
VIt
p4969
atp4970
Rp4971
(dp4972
g48
VPRP
p4973
sbatp4974
Rp4975
(dp4976
g48
VNP
p4977
sbag36
(g37
g38
(lp4978
g36
(g37
g38
(lp4979
Vhelps
p4980
atp4981
Rp4982
(dp4983
g48
VVBZ
p4984
sbag36
(g37
g38
(lp4985
g36
(g37
g38
(lp4986
g36
(g37
g38
(lp4987
Vnormalized
p4988
atp4989
Rp4990
(dp4991
g48
VJJ
p4992
sbag36
(g37
g38
(lp4993
Vmanagement
p4994
atp4995
Rp4996
(dp4997
g48
VNN
p4998
sbatp4999
Rp5000
(dp5001
g48
VNP
p5002
sbag36
(g37
g38
(lp5003
g36
(g37
g38
(lp5004
Vof
p5005
atp5006
Rp5007
(dp5008
g48
VIN
p5009
sbag36
(g37
g38
(lp5010
g36
(g37
g38
(lp5011
VSLN
p5012
atp5013
Rp5014
(dp5015
g48
VNNP
p5016
sbag36
(g37
g38
(lp5017
V-LSB-
p5018
atp5019
Rp5020
(dp5021
g48
VNNP
p5022
sbag36
(g37
g38
(lp5023
V8
p5024
atp5025
Rp5026
(dp5027
g48
VCD
p5028
sbag36
(g37
g38
(lp5029
V-RSB-
p5030
atp5031
Rp5032
(dp5033
g48
VNNS
p5034
sbatp5035
Rp5036
(dp5037
g48
VNP
p5038
sbatp5039
Rp5040
(dp5041
g48
VPP
p5042
sbatp5043
Rp5044
(dp5045
g48
VNP
p5046
sbatp5047
Rp5048
(dp5049
g48
VVP
p5050
sbag36
(g37
g38
(lp5051
g296
atp5052
Rp5053
(dp5054
g48
g296
sbatp5055
Rp5056
(dp5057
g48
g196
sbatp5058
Rp5059
(dp5060
g48
VROOT
p5061
sbasbasg1115
I13
sg29
I4
sg32
I0
sba(icmyPackage
Parag
p5062
(dp5063
g14
I1
sg25
(lp5064
(icmyPackage
Sent
p5065
(dp5066
g14
I1
sg29
I5
sg30
S'Things in the world are interrelated.'
p5067
sg32
I0
sg33
I32
sg34
(lp5068
g36
(g37
g38
(lp5069
g36
(g37
g38
(lp5070
g36
(g37
g38
(lp5071
g36
(g37
g38
(lp5072
g36
(g37
g38
(lp5073
VThings
p5074
atp5075
Rp5076
(dp5077
g48
VNNS
p5078
sbatp5079
Rp5080
(dp5081
g48
VNP
p5082
sbag36
(g37
g38
(lp5083
g36
(g37
g38
(lp5084
Vin
p5085
atp5086
Rp5087
(dp5088
g48
VIN
p5089
sbag36
(g37
g38
(lp5090
g36
(g37
g38
(lp5091
Vthe
p5092
atp5093
Rp5094
(dp5095
g48
VDT
p5096
sbag36
(g37
g38
(lp5097
Vworld
p5098
atp5099
Rp5100
(dp5101
g48
VNN
p5102
sbatp5103
Rp5104
(dp5105
g48
VNP
p5106
sbatp5107
Rp5108
(dp5109
g48
VPP
p5110
sbatp5111
Rp5112
(dp5113
g48
VNP
p5114
sbag36
(g37
g38
(lp5115
g36
(g37
g38
(lp5116
Vare
p5117
atp5118
Rp5119
(dp5120
g48
VVBP
p5121
sbag36
(g37
g38
(lp5122
g36
(g37
g38
(lp5123
Vinterrelated
p5124
atp5125
Rp5126
(dp5127
g48
VJJ
p5128
sbatp5129
Rp5130
(dp5131
g48
VADJP
p5132
sbatp5133
Rp5134
(dp5135
g48
VVP
p5136
sbag36
(g37
g38
(lp5137
g296
atp5138
Rp5139
(dp5140
g48
g296
sbatp5141
Rp5142
(dp5143
g48
g196
sbatp5144
Rp5145
(dp5146
g48
VROOT
p5147
sbasba(icmyPackage
Sent
p5148
(dp5149
g14
I1
sg29
I5
sg30
S'SLN not only reflects the interconnected world but also the interconnected minds.'
p5150
sg32
I0
sg33
I33
sg34
(lp5151
g36
(g37
g38
(lp5152
g36
(g37
g38
(lp5153
g36
(g37
g38
(lp5154
g36
(g37
g38
(lp5155
VSLN
p5156
atp5157
Rp5158
(dp5159
g48
VNNP
p5160
sbatp5161
Rp5162
(dp5163
g48
VNP
p5164
sbag36
(g37
g38
(lp5165
g36
(g37
g38
(lp5166
Vnot
p5167
atp5168
Rp5169
(dp5170
g48
VRB
p5171
sbag36
(g37
g38
(lp5172
Vonly
p5173
atp5174
Rp5175
(dp5176
g48
VRB
p5177
sbatp5178
Rp5179
(dp5180
g48
VADVP
p5181
sbag36
(g37
g38
(lp5182
g36
(g37
g38
(lp5183
Vreflects
p5184
atp5185
Rp5186
(dp5187
g48
VVBZ
p5188
sbag36
(g37
g38
(lp5189
g36
(g37
g38
(lp5190
g36
(g37
g38
(lp5191
Vthe
p5192
atp5193
Rp5194
(dp5195
g48
VDT
p5196
sbag36
(g37
g38
(lp5197
Vinterconnected
p5198
atp5199
Rp5200
(dp5201
g48
VJJ
p5202
sbag36
(g37
g38
(lp5203
Vworld
p5204
atp5205
Rp5206
(dp5207
g48
VNN
p5208
sbatp5209
Rp5210
(dp5211
g48
VNP
p5212
sbag36
(g37
g38
(lp5213
g36
(g37
g38
(lp5214
Vbut
p5215
atp5216
Rp5217
(dp5218
g48
VCC
p5219
sbag36
(g37
g38
(lp5220
Valso
p5221
atp5222
Rp5223
(dp5224
g48
VRB
p5225
sbatp5226
Rp5227
(dp5228
g48
VCONJP
p5229
sbag36
(g37
g38
(lp5230
g36
(g37
g38
(lp5231
Vthe
p5232
atp5233
Rp5234
(dp5235
g48
VDT
p5236
sbag36
(g37
g38
(lp5237
Vinterconnected
p5238
atp5239
Rp5240
(dp5241
g48
VJJ
p5242
sbag36
(g37
g38
(lp5243
Vminds
p5244
atp5245
Rp5246
(dp5247
g48
VNNS
p5248
sbatp5249
Rp5250
(dp5251
g48
VNP
p5252
sbatp5253
Rp5254
(dp5255
g48
VNP
p5256
sbatp5257
Rp5258
(dp5259
g48
VVP
p5260
sbag36
(g37
g38
(lp5261
g296
atp5262
Rp5263
(dp5264
g48
g296
sbatp5265
Rp5266
(dp5267
g48
g196
sbatp5268
Rp5269
(dp5270
g48
VROOT
p5271
sbasba(icmyPackage
Sent
p5272
(dp5273
g14
I1
sg29
I5
sg30
S'The self- organized characteristic of SLN makes it a suitable model to estab- lish a dynamic semantic image in the interactive semantics [9].'
p5274
sg32
I0
sg33
I34
sg34
(lp5275
g36
(g37
g38
(lp5276
g36
(g37
g38
(lp5277
g36
(g37
g38
(lp5278
g36
(g37
g38
(lp5279
g36
(g37
g38
(lp5280
VThe
p5281
atp5282
Rp5283
(dp5284
g48
VDT
p5285
sbag36
(g37
g38
(lp5286
Vself
p5287
atp5288
Rp5289
(dp5290
g48
VNN
p5291
sbatp5292
Rp5293
(dp5294
g48
VNP
p5295
sbag36
(g37
g38
(lp5296
g246
atp5297
Rp5298
(dp5299
g48
g189
sbag36
(g37
g38
(lp5300
g36
(g37
g38
(lp5301
g36
(g37
g38
(lp5302
Vorganized
p5303
atp5304
Rp5305
(dp5306
g48
VVBN
p5307
sbag36
(g37
g38
(lp5308
Vcharacteristic
p5309
atp5310
Rp5311
(dp5312
g48
VNN
p5313
sbatp5314
Rp5315
(dp5316
g48
VNP
p5317
sbag36
(g37
g38
(lp5318
g36
(g37
g38
(lp5319
Vof
p5320
atp5321
Rp5322
(dp5323
g48
VIN
p5324
sbag36
(g37
g38
(lp5325
g36
(g37
g38
(lp5326
VSLN
p5327
atp5328
Rp5329
(dp5330
g48
VNNP
p5331
sbatp5332
Rp5333
(dp5334
g48
VNP
p5335
sbatp5336
Rp5337
(dp5338
g48
VPP
p5339
sbatp5340
Rp5341
(dp5342
g48
VNP
p5343
sbatp5344
Rp5345
(dp5346
g48
VNP
p5347
sbag36
(g37
g38
(lp5348
g36
(g37
g38
(lp5349
Vmakes
p5350
atp5351
Rp5352
(dp5353
g48
VVBZ
p5354
sbag36
(g37
g38
(lp5355
g36
(g37
g38
(lp5356
Vit
p5357
atp5358
Rp5359
(dp5360
g48
VPRP
p5361
sbatp5362
Rp5363
(dp5364
g48
VNP
p5365
sbag36
(g37
g38
(lp5366
g36
(g37
g38
(lp5367
g108
atp5368
Rp5369
(dp5370
g48
VDT
p5371
sbag36
(g37
g38
(lp5372
Vsuitable
p5373
atp5374
Rp5375
(dp5376
g48
VJJ
p5377
sbag36
(g37
g38
(lp5378
Vmodel
p5379
atp5380
Rp5381
(dp5382
g48
VNN
p5383
sbag36
(g37
g38
(lp5384
g36
(g37
g38
(lp5385
g36
(g37
g38
(lp5386
Vto
p5387
atp5388
Rp5389
(dp5390
g48
VTO
p5391
sbag36
(g37
g38
(lp5392
g36
(g37
g38
(lp5393
g36
(g37
g38
(lp5394
Vestab
p5395
atp5396
Rp5397
(dp5398
g48
VVB
p5399
sbatp5400
Rp5401
(dp5402
g48
VVP
p5403
sbag36
(g37
g38
(lp5404
g246
atp5405
Rp5406
(dp5407
g48
g189
sbag36
(g37
g38
(lp5408
g36
(g37
g38
(lp5409
Vlish
p5410
atp5411
Rp5412
(dp5413
g48
VVB
p5414
sbag36
(g37
g38
(lp5415
g36
(g37
g38
(lp5416
g108
atp5417
Rp5418
(dp5419
g48
VDT
p5420
sbag36
(g37
g38
(lp5421
Vdynamic
p5422
atp5423
Rp5424
(dp5425
g48
VJJ
p5426
sbag36
(g37
g38
(lp5427
Vsemantic
p5428
atp5429
Rp5430
(dp5431
g48
VJJ
p5432
sbag36
(g37
g38
(lp5433
Vimage
p5434
atp5435
Rp5436
(dp5437
g48
VNN
p5438
sbatp5439
Rp5440
(dp5441
g48
VNP
p5442
sbag36
(g37
g38
(lp5443
g36
(g37
g38
(lp5444
Vin
p5445
atp5446
Rp5447
(dp5448
g48
VIN
p5449
sbag36
(g37
g38
(lp5450
g36
(g37
g38
(lp5451
g36
(g37
g38
(lp5452
Vthe
p5453
atp5454
Rp5455
(dp5456
g48
VDT
p5457
sbag36
(g37
g38
(lp5458
Vinteractive
p5459
atp5460
Rp5461
(dp5462
g48
VJJ
p5463
sbag36
(g37
g38
(lp5464
Vsemantics
p5465
atp5466
Rp5467
(dp5468
g48
VNNS
p5469
sbatp5470
Rp5471
(dp5472
g48
VNP
p5473
sbag36
(g37
g38
(lp5474
g36
(g37
g38
(lp5475
V-LSB-
p5476
atp5477
Rp5478
(dp5479
g48
VVBG
p5480
sbag36
(g37
g38
(lp5481
g36
(g37
g38
(lp5482
V9
p5483
atp5484
Rp5485
(dp5486
g48
VCD
p5487
sbag36
(g37
g38
(lp5488
V-RSB-
p5489
atp5490
Rp5491
(dp5492
g48
VNNS
p5493
sbatp5494
Rp5495
(dp5496
g48
VNP
p5497
sbatp5498
Rp5499
(dp5500
g48
VVP
p5501
sbatp5502
Rp5503
(dp5504
g48
VNP
p5505
sbatp5506
Rp5507
(dp5508
g48
VPP
p5509
sbatp5510
Rp5511
(dp5512
g48
VVP
p5513
sbatp5514
Rp5515
(dp5516
g48
VVP
p5517
sbatp5518
Rp5519
(dp5520
g48
VVP
p5521
sbatp5522
Rp5523
(dp5524
g48
g196
sbatp5525
Rp5526
(dp5527
g48
VNP
p5528
sbatp5529
Rp5530
(dp5531
g48
VVP
p5532
sbag36
(g37
g38
(lp5533
g296
atp5534
Rp5535
(dp5536
g48
g296
sbatp5537
Rp5538
(dp5539
g48
g196
sbatp5540
Rp5541
(dp5542
g48
VROOT
p5543
sbasba(icmyPackage
Sent
p5544
(dp5545
g14
I1
sg29
I5
sg30
S'This special section will play an important role in accelerating research and application of SLN.'
p5546
sg32
I0
sg33
I35
sg34
(lp5547
g36
(g37
g38
(lp5548
g36
(g37
g38
(lp5549
g36
(g37
g38
(lp5550
g36
(g37
g38
(lp5551
VThis
p5552
atp5553
Rp5554
(dp5555
g48
VDT
p5556
sbag36
(g37
g38
(lp5557
Vspecial
p5558
atp5559
Rp5560
(dp5561
g48
VJJ
p5562
sbag36
(g37
g38
(lp5563
Vsection
p5564
atp5565
Rp5566
(dp5567
g48
VNN
p5568
sbatp5569
Rp5570
(dp5571
g48
VNP
p5572
sbag36
(g37
g38
(lp5573
g36
(g37
g38
(lp5574
Vwill
p5575
atp5576
Rp5577
(dp5578
g48
VMD
p5579
sbag36
(g37
g38
(lp5580
g36
(g37
g38
(lp5581
Vplay
p5582
atp5583
Rp5584
(dp5585
g48
VVB
p5586
sbag36
(g37
g38
(lp5587
g36
(g37
g38
(lp5588
Van
p5589
atp5590
Rp5591
(dp5592
g48
VDT
p5593
sbag36
(g37
g38
(lp5594
Vimportant
p5595
atp5596
Rp5597
(dp5598
g48
VJJ
p5599
sbag36
(g37
g38
(lp5600
Vrole
p5601
atp5602
Rp5603
(dp5604
g48
VNN
p5605
sbatp5606
Rp5607
(dp5608
g48
VNP
p5609
sbag36
(g37
g38
(lp5610
g36
(g37
g38
(lp5611
Vin
p5612
atp5613
Rp5614
(dp5615
g48
VIN
p5616
sbag36
(g37
g38
(lp5617
g36
(g37
g38
(lp5618
g36
(g37
g38
(lp5619
Vaccelerating
p5620
atp5621
Rp5622
(dp5623
g48
VVBG
p5624
sbag36
(g37
g38
(lp5625
g36
(g37
g38
(lp5626
g36
(g37
g38
(lp5627
Vresearch
p5628
atp5629
Rp5630
(dp5631
g48
VNN
p5632
sbag36
(g37
g38
(lp5633
Vand
p5634
atp5635
Rp5636
(dp5637
g48
VCC
p5638
sbag36
(g37
g38
(lp5639
Vapplication
p5640
atp5641
Rp5642
(dp5643
g48
VNN
p5644
sbatp5645
Rp5646
(dp5647
g48
VNP
p5648
sbag36
(g37
g38
(lp5649
g36
(g37
g38
(lp5650
Vof
p5651
atp5652
Rp5653
(dp5654
g48
VIN
p5655
sbag36
(g37
g38
(lp5656
g36
(g37
g38
(lp5657
VSLN
p5658
atp5659
Rp5660
(dp5661
g48
VNNP
p5662
sbatp5663
Rp5664
(dp5665
g48
VNP
p5666
sbatp5667
Rp5668
(dp5669
g48
VPP
p5670
sbatp5671
Rp5672
(dp5673
g48
VNP
p5674
sbatp5675
Rp5676
(dp5677
g48
VVP
p5678
sbatp5679
Rp5680
(dp5681
g48
g196
sbatp5682
Rp5683
(dp5684
g48
VPP
p5685
sbatp5686
Rp5687
(dp5688
g48
VVP
p5689
sbatp5690
Rp5691
(dp5692
g48
VVP
p5693
sbag36
(g37
g38
(lp5694
g296
atp5695
Rp5696
(dp5697
g48
g296
sbatp5698
Rp5699
(dp5700
g48
g196
sbatp5701
Rp5702
(dp5703
g48
VROOT
p5704
sbasba(icmyPackage
Sent
p5705
(dp5706
g14
I1
sg29
I5
sg30
S'SLN is different from traditional semantic networks in goal, model, technology, and research method.'
p5707
sg32
I0
sg33
I36
sg34
(lp5708
g36
(g37
g38
(lp5709
g36
(g37
g38
(lp5710
g36
(g37
g38
(lp5711
g36
(g37
g38
(lp5712
VSLN
p5713
atp5714
Rp5715
(dp5716
g48
VNNP
p5717
sbatp5718
Rp5719
(dp5720
g48
VNP
p5721
sbag36
(g37
g38
(lp5722
g36
(g37
g38
(lp5723
Vis
p5724
atp5725
Rp5726
(dp5727
g48
VVBZ
p5728
sbag36
(g37
g38
(lp5729
g36
(g37
g38
(lp5730
Vdifferent
p5731
atp5732
Rp5733
(dp5734
g48
VJJ
p5735
sbag36
(g37
g38
(lp5736
g36
(g37
g38
(lp5737
Vfrom
p5738
atp5739
Rp5740
(dp5741
g48
VIN
p5742
sbag36
(g37
g38
(lp5743
g36
(g37
g38
(lp5744
g36
(g37
g38
(lp5745
Vtraditional
p5746
atp5747
Rp5748
(dp5749
g48
VJJ
p5750
sbag36
(g37
g38
(lp5751
Vsemantic
p5752
atp5753
Rp5754
(dp5755
g48
VJJ
p5756
sbag36
(g37
g38
(lp5757
Vnetworks
p5758
atp5759
Rp5760
(dp5761
g48
VNNS
p5762
sbatp5763
Rp5764
(dp5765
g48
VNP
p5766
sbag36
(g37
g38
(lp5767
g36
(g37
g38
(lp5768
Vin
p5769
atp5770
Rp5771
(dp5772
g48
VIN
p5773
sbag36
(g37
g38
(lp5774
g36
(g37
g38
(lp5775
Vgoal
p5776
atp5777
Rp5778
(dp5779
g48
VNN
p5780
sbag36
(g37
g38
(lp5781
g226
atp5782
Rp5783
(dp5784
g48
g226
sbag36
(g37
g38
(lp5785
Vmodel
p5786
atp5787
Rp5788
(dp5789
g48
VNN
p5790
sbag36
(g37
g38
(lp5791
g226
atp5792
Rp5793
(dp5794
g48
g226
sbag36
(g37
g38
(lp5795
Vtechnology
p5796
atp5797
Rp5798
(dp5799
g48
VNN
p5800
sbag36
(g37
g38
(lp5801
g226
atp5802
Rp5803
(dp5804
g48
g226
sbag36
(g37
g38
(lp5805
Vand
p5806
atp5807
Rp5808
(dp5809
g48
VCC
p5810
sbag36
(g37
g38
(lp5811
Vresearch
p5812
atp5813
Rp5814
(dp5815
g48
VNN
p5816
sbag36
(g37
g38
(lp5817
Vmethod
p5818
atp5819
Rp5820
(dp5821
g48
VNN
p5822
sbatp5823
Rp5824
(dp5825
g48
VNP
p5826
sbatp5827
Rp5828
(dp5829
g48
VPP
p5830
sbatp5831
Rp5832
(dp5833
g48
VNP
p5834
sbatp5835
Rp5836
(dp5837
g48
VPP
p5838
sbatp5839
Rp5840
(dp5841
g48
VADJP
p5842
sbatp5843
Rp5844
(dp5845
g48
VVP
p5846
sbag36
(g37
g38
(lp5847
g296
atp5848
Rp5849
(dp5850
g48
g296
sbatp5851
Rp5852
(dp5853
g48
g196
sbatp5854
Rp5855
(dp5856
g48
VROOT
p5857
sbasba(icmyPackage
Sent
p5858
(dp5859
g14
I1
sg29
I5
sg30
S'SLN is forming a promising research direction.'
p5860
sg32
I0
sg33
I37
sg34
(lp5861
g36
(g37
g38
(lp5862
g36
(g37
g38
(lp5863
g36
(g37
g38
(lp5864
g36
(g37
g38
(lp5865
VSLN
p5866
atp5867
Rp5868
(dp5869
g48
VNNP
p5870
sbatp5871
Rp5872
(dp5873
g48
VNP
p5874
sbag36
(g37
g38
(lp5875
g36
(g37
g38
(lp5876
Vis
p5877
atp5878
Rp5879
(dp5880
g48
VVBZ
p5881
sbag36
(g37
g38
(lp5882
g36
(g37
g38
(lp5883
Vforming
p5884
atp5885
Rp5886
(dp5887
g48
VVBG
p5888
sbag36
(g37
g38
(lp5889
g36
(g37
g38
(lp5890
g108
atp5891
Rp5892
(dp5893
g48
VDT
p5894
sbag36
(g37
g38
(lp5895
Vpromising
p5896
atp5897
Rp5898
(dp5899
g48
VJJ
p5900
sbag36
(g37
g38
(lp5901
Vresearch
p5902
atp5903
Rp5904
(dp5905
g48
VNN
p5906
sbag36
(g37
g38
(lp5907
Vdirection
p5908
atp5909
Rp5910
(dp5911
g48
VNN
p5912
sbatp5913
Rp5914
(dp5915
g48
VNP
p5916
sbatp5917
Rp5918
(dp5919
g48
VVP
p5920
sbatp5921
Rp5922
(dp5923
g48
VVP
p5924
sbag36
(g37
g38
(lp5925
g296
atp5926
Rp5927
(dp5928
g48
g296
sbatp5929
Rp5930
(dp5931
g48
g196
sbatp5932
Rp5933
(dp5934
g48
VROOT
p5935
sbasbasg1115
I6
sg29
I5
sg32
I0
sbasg32
I0
sbasS'sc_num'
p5936
I1
sS'Ctitle'
p5937
S'INTRODUCTION'
p5938
sg20
I6
sg21
(lp5939
g23
ag1116
ag1778
ag2319
ag2954
ag5062
asbasS'Ftitle'
p5940
S'Special section: Semantic Link Network'
p5941
sS's_num'
p5942
I38
sS'S_list'
p5943
(lp5944
g27
ag201
ag308
ag499
ag602
ag788
ag916
ag1119
ag1319
ag1418
ag1507
ag1781
ag1954
ag2047
ag2170
ag2322
ag2483
ag2675
ag2754
ag2957
ag3084
ag3256
ag3432
ag3597
ag3725
ag3850
ag4031
ag4244
ag4435
ag4536
ag4761
ag4961
ag5065
ag5148
ag5272
ag5544
ag5705
ag5858
asS'P_list'
p5945
(lp5946
g23
ag1116
ag1778
ag2319
ag2954
ag5062
asS'Ftag'
p5947
S'f0012'
p5948
sS'c_num'
p5949
I1
sg20
I6
sS'Abstract'
p5950
(lp5951
sS'Refer'
p5952
(lp5953
(icmyPackage
Refer
p5954
(dp5955
g30
S'[1] H. Zhuge, The Knowledge Grid, World Scientific, 2004.'
p5956
sS'Rtag'
p5957
I1
sba(icmyPackage
Refer
p5958
(dp5959
g30
S'[2] H. Zhuge, Communities and emerging semantics in semantic link network: Discovery and learning, IEEE Transactions on Knowledge and Data Engineering\n21 (6) (2009) 785\xe2\x80\x93799.'
p5960
sg5957
I2
sba(icmyPackage
Refer
p5961
(dp5962
g30
S'[3] J. Li, Grid resource discovery based on semantically linked virtual organizations, Future Generation Computer Systems 26 (3) (2010) 361\xe2\x80\x93373.'
p5963
sg5957
I3
sba(icmyPackage
Refer
p5964
(dp5965
g30
S'[4] R. Colomo-Palacios, SOLAR: Social link advanced recommendation system, Future Generation Computer Systems 26 (3) (2010) 374\xe2\x80\x93380.'
p5966
sg5957
I4
sba(icmyPackage
Refer
p5967
(dp5968
g30
S'[5] W. Liu, et al., Discovering phishing target based on semantic link network, Future Generation Computer Systems 26 (3) (2010) 381\xe2\x80\x93388.'
p5969
sg5957
I5
sba(icmyPackage
Refer
p5970
(dp5971
g30
S'[6] X. Sun, OSLN: An object-oriented semantic link network language for complex object description and operation, Future Generation Computer Systems 26 (3)\n(2010) 389\xe2\x80\x93399.'
p5972
sg5957
I6
sba(icmyPackage
Refer
p5973
(dp5974
g30
S'[7] Z. Huang, Y. Qiu, A multiple-perspective approach to constructing and aggregating citation semantic link network, Future Generation Computer Systems 26 (3) (2010) 400\xe2\x80\x93407.'
p5975
sg5957
I7
sba(icmyPackage
Refer
p5976
(dp5977
g30
S'[8] H. Zhuge, Y. Sun, The schema theory for semantic link network, Future Generation Computer Systems 26 (3) (2010) 408\xe2\x80\x93420.'
p5978
sg5957
I8
sba(icmyPackage
Refer
p5979
(dp5980
g30
S'[9] H. Zhuge, Interactive semantics, Artificial Intelligence (January 2010).'
p5981
sg5957
I9
sbasb.