(icmyPackage
Paper
p0
(dp1
S'KeyW'
p2
(lp3
sS'author'
p4
S'J. McCarthy'
p5
sS'auinfo'
p6
(lp7
S'Computer Science Department, Stanford University, Stanford, CA 95305'
p8
aS'jmc@cs.stanford.edu'
p9
asS'C_list'
p10
(lp11
(icmyPackage
Sec
p12
(dp13
S'Ctag'
p14
I1
sS'sclist'
p15
(lp16
(icmyPackage
SubSec
p17
(dp18
g14
I1
sS'SCtitle'
p19
NsS'p_num'
p20
I3
sS'plist'
p21
(lp22
(icmyPackage
Parag
p23
(dp24
g14
I1
sS'slist'
p25
(lp26
(icmyPackage
Sent
p27
(dp28
g14
I1
sS'Ptag'
p29
I1
sS'text'
p30
S'From the AI point of view, consciousness must be regarded as a collection of interacting processes rather than the unitary object of much philosophical speculation.'
p31
sS'SCtag'
p32
I0
sS'Stag'
p33
I6
sS'PTree'
p34
(lp35
ccopy_reg
_reconstructor
p36
(cnltk.tree
Tree
p37
c__builtin__
list
p38
(lp39
g36
(g37
g38
(lp40
g36
(g37
g38
(lp41
g36
(g37
g38
(lp42
VFrom
p43
atp44
Rp45
(dp46
S'_label'
p47
VIN
p48
sbag36
(g37
g38
(lp49
g36
(g37
g38
(lp50
g36
(g37
g38
(lp51
Vthe
p52
atp53
Rp54
(dp55
g47
VDT
p56
sbag36
(g37
g38
(lp57
VAI
p58
atp59
Rp60
(dp61
g47
VNNP
p62
sbag36
(g37
g38
(lp63
Vpoint
p64
atp65
Rp66
(dp67
g47
VNN
p68
sbatp69
Rp70
(dp71
g47
VNP
p72
sbag36
(g37
g38
(lp73
g36
(g37
g38
(lp74
Vof
p75
atp76
Rp77
(dp78
g47
VIN
p79
sbag36
(g37
g38
(lp80
g36
(g37
g38
(lp81
Vview
p82
atp83
Rp84
(dp85
g47
VNN
p86
sbatp87
Rp88
(dp89
g47
VNP
p90
sbatp91
Rp92
(dp93
g47
VPP
p94
sbatp95
Rp96
(dp97
g47
VNP
p98
sbatp99
Rp100
(dp101
g47
VPP
p102
sbag36
(g37
g38
(lp103
V,
p104
atp105
Rp106
(dp107
g47
g104
sbag36
(g37
g38
(lp108
g36
(g37
g38
(lp109
Vconsciousness
p110
atp111
Rp112
(dp113
g47
VNN
p114
sbatp115
Rp116
(dp117
g47
VNP
p118
sbag36
(g37
g38
(lp119
g36
(g37
g38
(lp120
Vmust
p121
atp122
Rp123
(dp124
g47
VMD
p125
sbag36
(g37
g38
(lp126
g36
(g37
g38
(lp127
Vbe
p128
atp129
Rp130
(dp131
g47
VVB
p132
sbag36
(g37
g38
(lp133
g36
(g37
g38
(lp134
Vregarded
p135
atp136
Rp137
(dp138
g47
VVBN
p139
sbag36
(g37
g38
(lp140
g36
(g37
g38
(lp141
Vas
p142
atp143
Rp144
(dp145
g47
VIN
p146
sbag36
(g37
g38
(lp147
g36
(g37
g38
(lp148
g36
(g37
g38
(lp149
g36
(g37
g38
(lp150
Va
p151
atp152
Rp153
(dp154
g47
VDT
p155
sbag36
(g37
g38
(lp156
Vcollection
p157
atp158
Rp159
(dp160
g47
VNN
p161
sbatp162
Rp163
(dp164
g47
VNP
p165
sbag36
(g37
g38
(lp166
g36
(g37
g38
(lp167
Vof
p168
atp169
Rp170
(dp171
g47
VIN
p172
sbag36
(g37
g38
(lp173
g36
(g37
g38
(lp174
Vinteracting
p175
atp176
Rp177
(dp178
g47
VJJ
p179
sbag36
(g37
g38
(lp180
Vprocesses
p181
atp182
Rp183
(dp184
g47
VNNS
p185
sbatp186
Rp187
(dp188
g47
VNP
p189
sbatp190
Rp191
(dp192
g47
VPP
p193
sbatp194
Rp195
(dp196
g47
VNP
p197
sbag36
(g37
g38
(lp198
g36
(g37
g38
(lp199
Vrather
p200
atp201
Rp202
(dp203
g47
VRB
p204
sbag36
(g37
g38
(lp205
Vthan
p206
atp207
Rp208
(dp209
g47
VIN
p210
sbatp211
Rp212
(dp213
g47
VCONJP
p214
sbag36
(g37
g38
(lp215
g36
(g37
g38
(lp216
g36
(g37
g38
(lp217
Vthe
p218
atp219
Rp220
(dp221
g47
VDT
p222
sbag36
(g37
g38
(lp223
Vunitary
p224
atp225
Rp226
(dp227
g47
VJJ
p228
sbag36
(g37
g38
(lp229
Vobject
p230
atp231
Rp232
(dp233
g47
VNN
p234
sbatp235
Rp236
(dp237
g47
VNP
p238
sbag36
(g37
g38
(lp239
g36
(g37
g38
(lp240
Vof
p241
atp242
Rp243
(dp244
g47
VIN
p245
sbag36
(g37
g38
(lp246
g36
(g37
g38
(lp247
g36
(g37
g38
(lp248
Vmuch
p249
atp250
Rp251
(dp252
g47
VRB
p253
sbag36
(g37
g38
(lp254
Vphilosophical
p255
atp256
Rp257
(dp258
g47
VJJ
p259
sbatp260
Rp261
(dp262
g47
VADJP
p263
sbag36
(g37
g38
(lp264
Vspeculation
p265
atp266
Rp267
(dp268
g47
VNN
p269
sbatp270
Rp271
(dp272
g47
VNP
p273
sbatp274
Rp275
(dp276
g47
VPP
p277
sbatp278
Rp279
(dp280
g47
VNP
p281
sbatp282
Rp283
(dp284
g47
VNP
p285
sbatp286
Rp287
(dp288
g47
VPP
p289
sbatp290
Rp291
(dp292
g47
VVP
p293
sbatp294
Rp295
(dp296
g47
VVP
p297
sbatp298
Rp299
(dp300
g47
VVP
p301
sbag36
(g37
g38
(lp302
V.
p303
atp304
Rp305
(dp306
g47
g303
sbatp307
Rp308
(dp309
g47
VS
p310
sbatp311
Rp312
(dp313
g47
VROOT
p314
sbasba(icmyPackage
Sent
p315
(dp316
g14
I1
sg29
I1
sg30
S'We ask what kinds of propositions and other entities need to be designed for consciousness to be useful to an animal or a machine.'
p317
sg32
I0
sg33
I7
sg34
(lp318
g36
(g37
g38
(lp319
g36
(g37
g38
(lp320
g36
(g37
g38
(lp321
g36
(g37
g38
(lp322
VWe
p323
atp324
Rp325
(dp326
g47
VPRP
p327
sbatp328
Rp329
(dp330
g47
VNP
p331
sbag36
(g37
g38
(lp332
g36
(g37
g38
(lp333
Vask
p334
atp335
Rp336
(dp337
g47
VVBP
p338
sbag36
(g37
g38
(lp339
g36
(g37
g38
(lp340
g36
(g37
g38
(lp341
Vwhat
p342
atp343
Rp344
(dp345
g47
VWP
p346
sbatp347
Rp348
(dp349
g47
VWHNP
p350
sbag36
(g37
g38
(lp351
g36
(g37
g38
(lp352
g36
(g37
g38
(lp353
g36
(g37
g38
(lp354
Vkinds
p355
atp356
Rp357
(dp358
g47
VNNS
p359
sbatp360
Rp361
(dp362
g47
VNP
p363
sbag36
(g37
g38
(lp364
g36
(g37
g38
(lp365
Vof
p366
atp367
Rp368
(dp369
g47
VIN
p370
sbag36
(g37
g38
(lp371
g36
(g37
g38
(lp372
g36
(g37
g38
(lp373
Vpropositions
p374
atp375
Rp376
(dp377
g47
VNNS
p378
sbatp379
Rp380
(dp381
g47
VNP
p382
sbag36
(g37
g38
(lp383
Vand
p384
atp385
Rp386
(dp387
g47
VCC
p388
sbag36
(g37
g38
(lp389
g36
(g37
g38
(lp390
Vother
p391
atp392
Rp393
(dp394
g47
VJJ
p395
sbag36
(g37
g38
(lp396
Ventities
p397
atp398
Rp399
(dp400
g47
VNNS
p401
sbatp402
Rp403
(dp404
g47
VNP
p405
sbatp406
Rp407
(dp408
g47
VNP
p409
sbatp410
Rp411
(dp412
g47
VPP
p413
sbatp414
Rp415
(dp416
g47
VNP
p417
sbag36
(g37
g38
(lp418
g36
(g37
g38
(lp419
Vneed
p420
atp421
Rp422
(dp423
g47
VVBP
p424
sbag36
(g37
g38
(lp425
g36
(g37
g38
(lp426
g36
(g37
g38
(lp427
Vto
p428
atp429
Rp430
(dp431
g47
VTO
p432
sbag36
(g37
g38
(lp433
g36
(g37
g38
(lp434
Vbe
p435
atp436
Rp437
(dp438
g47
VVB
p439
sbag36
(g37
g38
(lp440
g36
(g37
g38
(lp441
Vdesigned
p442
atp443
Rp444
(dp445
g47
VVBN
p446
sbag36
(g37
g38
(lp447
g36
(g37
g38
(lp448
Vfor
p449
atp450
Rp451
(dp452
g47
VIN
p453
sbag36
(g37
g38
(lp454
g36
(g37
g38
(lp455
Vconsciousness
p456
atp457
Rp458
(dp459
g47
VNN
p460
sbatp461
Rp462
(dp463
g47
VNP
p464
sbatp465
Rp466
(dp467
g47
VPP
p468
sbag36
(g37
g38
(lp469
g36
(g37
g38
(lp470
g36
(g37
g38
(lp471
Vto
p472
atp473
Rp474
(dp475
g47
VTO
p476
sbag36
(g37
g38
(lp477
g36
(g37
g38
(lp478
Vbe
p479
atp480
Rp481
(dp482
g47
VVB
p483
sbag36
(g37
g38
(lp484
g36
(g37
g38
(lp485
Vuseful
p486
atp487
Rp488
(dp489
g47
VJJ
p490
sbag36
(g37
g38
(lp491
g36
(g37
g38
(lp492
Vto
p493
atp494
Rp495
(dp496
g47
VTO
p497
sbag36
(g37
g38
(lp498
g36
(g37
g38
(lp499
g36
(g37
g38
(lp500
Van
p501
atp502
Rp503
(dp504
g47
VDT
p505
sbag36
(g37
g38
(lp506
Vanimal
p507
atp508
Rp509
(dp510
g47
VNN
p511
sbatp512
Rp513
(dp514
g47
VNP
p515
sbag36
(g37
g38
(lp516
Vor
p517
atp518
Rp519
(dp520
g47
VCC
p521
sbag36
(g37
g38
(lp522
g36
(g37
g38
(lp523
g151
atp524
Rp525
(dp526
g47
VDT
p527
sbag36
(g37
g38
(lp528
Vmachine
p529
atp530
Rp531
(dp532
g47
VNN
p533
sbatp534
Rp535
(dp536
g47
VNP
p537
sbatp538
Rp539
(dp540
g47
VNP
p541
sbatp542
Rp543
(dp544
g47
VPP
p545
sbatp546
Rp547
(dp548
g47
VADJP
p549
sbatp550
Rp551
(dp552
g47
VVP
p553
sbatp554
Rp555
(dp556
g47
VVP
p557
sbatp558
Rp559
(dp560
g47
g310
sbatp561
Rp562
(dp563
g47
VVP
p564
sbatp565
Rp566
(dp567
g47
VVP
p568
sbatp569
Rp570
(dp571
g47
VVP
p572
sbatp573
Rp574
(dp575
g47
g310
sbatp576
Rp577
(dp578
g47
VVP
p579
sbatp580
Rp581
(dp582
g47
g310
sbatp583
Rp584
(dp585
g47
VSBAR
p586
sbatp587
Rp588
(dp589
g47
VVP
p590
sbag36
(g37
g38
(lp591
g303
atp592
Rp593
(dp594
g47
g303
sbatp595
Rp596
(dp597
g47
g310
sbatp598
Rp599
(dp600
g47
VROOT
p601
sbasba(icmyPackage
Sent
p602
(dp603
g14
I1
sg29
I1
sg30
S'We thereby assert that human consciousness is useful to human functioning and not just and epiphenomenon.'
p604
sg32
I0
sg33
I8
sg34
(lp605
g36
(g37
g38
(lp606
g36
(g37
g38
(lp607
g36
(g37
g38
(lp608
g36
(g37
g38
(lp609
VWe
p610
atp611
Rp612
(dp613
g47
VPRP
p614
sbatp615
Rp616
(dp617
g47
VNP
p618
sbag36
(g37
g38
(lp619
g36
(g37
g38
(lp620
Vthereby
p621
atp622
Rp623
(dp624
g47
VRB
p625
sbatp626
Rp627
(dp628
g47
VADVP
p629
sbag36
(g37
g38
(lp630
g36
(g37
g38
(lp631
Vassert
p632
atp633
Rp634
(dp635
g47
VVBP
p636
sbag36
(g37
g38
(lp637
g36
(g37
g38
(lp638
Vthat
p639
atp640
Rp641
(dp642
g47
VIN
p643
sbag36
(g37
g38
(lp644
g36
(g37
g38
(lp645
g36
(g37
g38
(lp646
Vhuman
p647
atp648
Rp649
(dp650
g47
VJJ
p651
sbag36
(g37
g38
(lp652
Vconsciousness
p653
atp654
Rp655
(dp656
g47
VNN
p657
sbatp658
Rp659
(dp660
g47
VNP
p661
sbag36
(g37
g38
(lp662
g36
(g37
g38
(lp663
Vis
p664
atp665
Rp666
(dp667
g47
VVBZ
p668
sbag36
(g37
g38
(lp669
g36
(g37
g38
(lp670
Vuseful
p671
atp672
Rp673
(dp674
g47
VJJ
p675
sbag36
(g37
g38
(lp676
g36
(g37
g38
(lp677
Vto
p678
atp679
Rp680
(dp681
g47
VTO
p682
sbag36
(g37
g38
(lp683
g36
(g37
g38
(lp684
g36
(g37
g38
(lp685
Vhuman
p686
atp687
Rp688
(dp689
g47
VJJ
p690
sbag36
(g37
g38
(lp691
Vfunctioning
p692
atp693
Rp694
(dp695
g47
VNN
p696
sbatp697
Rp698
(dp699
g47
VNP
p700
sbag36
(g37
g38
(lp701
Vand
p702
atp703
Rp704
(dp705
g47
VCC
p706
sbag36
(g37
g38
(lp707
g36
(g37
g38
(lp708
g36
(g37
g38
(lp709
Vnot
p710
atp711
Rp712
(dp713
g47
VRB
p714
sbag36
(g37
g38
(lp715
Vjust
p716
atp717
Rp718
(dp719
g47
VRB
p720
sbatp721
Rp722
(dp723
g47
VNP
p724
sbag36
(g37
g38
(lp725
Vand
p726
atp727
Rp728
(dp729
g47
VCC
p730
sbag36
(g37
g38
(lp731
g36
(g37
g38
(lp732
Vepiphenomenon
p733
atp734
Rp735
(dp736
g47
VNN
p737
sbatp738
Rp739
(dp740
g47
VNP
p741
sbatp742
Rp743
(dp744
g47
VNP
p745
sbatp746
Rp747
(dp748
g47
VNP
p749
sbatp750
Rp751
(dp752
g47
VPP
p753
sbatp754
Rp755
(dp756
g47
VADJP
p757
sbatp758
Rp759
(dp760
g47
VVP
p761
sbatp762
Rp763
(dp764
g47
g310
sbatp765
Rp766
(dp767
g47
VSBAR
p768
sbatp769
Rp770
(dp771
g47
VVP
p772
sbag36
(g37
g38
(lp773
g303
atp774
Rp775
(dp776
g47
g303
sbatp777
Rp778
(dp779
g47
g310
sbatp780
Rp781
(dp782
g47
VROOT
p783
sbasba(icmyPackage
Sent
p784
(dp785
g14
I1
sg29
I1
sg30
S"Zombies in the sense of Todd Moody's article are merely the victims of Moody's prejudices."
p786
sg32
I0
sg33
I9
sg34
(lp787
g36
(g37
g38
(lp788
g36
(g37
g38
(lp789
g36
(g37
g38
(lp790
g36
(g37
g38
(lp791
g36
(g37
g38
(lp792
VZombies
p793
atp794
Rp795
(dp796
g47
VNNS
p797
sbatp798
Rp799
(dp800
g47
VNP
p801
sbag36
(g37
g38
(lp802
g36
(g37
g38
(lp803
Vin
p804
atp805
Rp806
(dp807
g47
VIN
p808
sbag36
(g37
g38
(lp809
g36
(g37
g38
(lp810
g36
(g37
g38
(lp811
Vthe
p812
atp813
Rp814
(dp815
g47
VDT
p816
sbag36
(g37
g38
(lp817
Vsense
p818
atp819
Rp820
(dp821
g47
VNN
p822
sbatp823
Rp824
(dp825
g47
VNP
p826
sbag36
(g37
g38
(lp827
g36
(g37
g38
(lp828
Vof
p829
atp830
Rp831
(dp832
g47
VIN
p833
sbag36
(g37
g38
(lp834
g36
(g37
g38
(lp835
g36
(g37
g38
(lp836
VTodd
p837
atp838
Rp839
(dp840
g47
VNNP
p841
sbag36
(g37
g38
(lp842
VMoody
p843
atp844
Rp845
(dp846
g47
VNNP
p847
sbag36
(g37
g38
(lp848
V's
p849
atp850
Rp851
(dp852
g47
VPOS
p853
sbatp854
Rp855
(dp856
g47
VNP
p857
sbag36
(g37
g38
(lp858
Varticle
p859
atp860
Rp861
(dp862
g47
VNN
p863
sbatp864
Rp865
(dp866
g47
VNP
p867
sbatp868
Rp869
(dp870
g47
VPP
p871
sbatp872
Rp873
(dp874
g47
VNP
p875
sbatp876
Rp877
(dp878
g47
VPP
p879
sbatp880
Rp881
(dp882
g47
VNP
p883
sbag36
(g37
g38
(lp884
g36
(g37
g38
(lp885
Vare
p886
atp887
Rp888
(dp889
g47
VVBP
p890
sbag36
(g37
g38
(lp891
g36
(g37
g38
(lp892
Vmerely
p893
atp894
Rp895
(dp896
g47
VRB
p897
sbatp898
Rp899
(dp900
g47
VADVP
p901
sbag36
(g37
g38
(lp902
g36
(g37
g38
(lp903
g36
(g37
g38
(lp904
Vthe
p905
atp906
Rp907
(dp908
g47
VDT
p909
sbag36
(g37
g38
(lp910
Vvictims
p911
atp912
Rp913
(dp914
g47
VNNS
p915
sbatp916
Rp917
(dp918
g47
VNP
p919
sbag36
(g37
g38
(lp920
g36
(g37
g38
(lp921
Vof
p922
atp923
Rp924
(dp925
g47
VIN
p926
sbag36
(g37
g38
(lp927
g36
(g37
g38
(lp928
g36
(g37
g38
(lp929
VMoody
p930
atp931
Rp932
(dp933
g47
VNNP
p934
sbag36
(g37
g38
(lp935
V's
p936
atp937
Rp938
(dp939
g47
VPOS
p940
sbatp941
Rp942
(dp943
g47
VNP
p944
sbag36
(g37
g38
(lp945
Vprejudices
p946
atp947
Rp948
(dp949
g47
VNNS
p950
sbatp951
Rp952
(dp953
g47
VNP
p954
sbatp955
Rp956
(dp957
g47
VPP
p958
sbatp959
Rp960
(dp961
g47
VNP
p962
sbatp963
Rp964
(dp965
g47
VVP
p966
sbag36
(g37
g38
(lp967
g303
atp968
Rp969
(dp970
g47
g303
sbatp971
Rp972
(dp973
g47
g310
sbatp974
Rp975
(dp976
g47
VROOT
p977
sbasba(icmyPackage
Sent
p978
(dp979
g14
I1
sg29
I1
sg30
S'To behave like humans, zombies will need what Moody might call pseudo-consciousness, but useful pseudo-consciousness will share all the observable qualities of human consciousness including what the zombie will be able to report.'
p980
sg32
I0
sg33
I10
sg34
(lp981
g36
(g37
g38
(lp982
g36
(g37
g38
(lp983
g36
(g37
g38
(lp984
g36
(g37
g38
(lp985
g36
(g37
g38
(lp986
g36
(g37
g38
(lp987
VTo
p988
atp989
Rp990
(dp991
g47
VTO
p992
sbag36
(g37
g38
(lp993
g36
(g37
g38
(lp994
Vbehave
p995
atp996
Rp997
(dp998
g47
VVB
p999
sbag36
(g37
g38
(lp1000
g36
(g37
g38
(lp1001
Vlike
p1002
atp1003
Rp1004
(dp1005
g47
VIN
p1006
sbag36
(g37
g38
(lp1007
g36
(g37
g38
(lp1008
Vhumans
p1009
atp1010
Rp1011
(dp1012
g47
VNNS
p1013
sbatp1014
Rp1015
(dp1016
g47
VNP
p1017
sbatp1018
Rp1019
(dp1020
g47
VPP
p1021
sbatp1022
Rp1023
(dp1024
g47
VVP
p1025
sbatp1026
Rp1027
(dp1028
g47
VVP
p1029
sbatp1030
Rp1031
(dp1032
g47
g310
sbag36
(g37
g38
(lp1033
g104
atp1034
Rp1035
(dp1036
g47
g104
sbag36
(g37
g38
(lp1037
g36
(g37
g38
(lp1038
Vzombies
p1039
atp1040
Rp1041
(dp1042
g47
VNNS
p1043
sbatp1044
Rp1045
(dp1046
g47
VNP
p1047
sbag36
(g37
g38
(lp1048
g36
(g37
g38
(lp1049
Vwill
p1050
atp1051
Rp1052
(dp1053
g47
VMD
p1054
sbag36
(g37
g38
(lp1055
g36
(g37
g38
(lp1056
Vneed
p1057
atp1058
Rp1059
(dp1060
g47
VVB
p1061
sbag36
(g37
g38
(lp1062
g36
(g37
g38
(lp1063
g36
(g37
g38
(lp1064
Vwhat
p1065
atp1066
Rp1067
(dp1068
g47
VWP
p1069
sbatp1070
Rp1071
(dp1072
g47
VWHNP
p1073
sbag36
(g37
g38
(lp1074
g36
(g37
g38
(lp1075
g36
(g37
g38
(lp1076
VMoody
p1077
atp1078
Rp1079
(dp1080
g47
VNNP
p1081
sbatp1082
Rp1083
(dp1084
g47
VNP
p1085
sbag36
(g37
g38
(lp1086
g36
(g37
g38
(lp1087
Vmight
p1088
atp1089
Rp1090
(dp1091
g47
VMD
p1092
sbag36
(g37
g38
(lp1093
g36
(g37
g38
(lp1094
Vcall
p1095
atp1096
Rp1097
(dp1098
g47
VVB
p1099
sbag36
(g37
g38
(lp1100
g36
(g37
g38
(lp1101
Vpseudo-consciousness
p1102
atp1103
Rp1104
(dp1105
g47
VNNS
p1106
sbatp1107
Rp1108
(dp1109
g47
VNP
p1110
sbatp1111
Rp1112
(dp1113
g47
VVP
p1114
sbatp1115
Rp1116
(dp1117
g47
VVP
p1118
sbatp1119
Rp1120
(dp1121
g47
g310
sbatp1122
Rp1123
(dp1124
g47
VSBAR
p1125
sbatp1126
Rp1127
(dp1128
g47
VVP
p1129
sbatp1130
Rp1131
(dp1132
g47
VVP
p1133
sbatp1134
Rp1135
(dp1136
g47
g310
sbag36
(g37
g38
(lp1137
g104
atp1138
Rp1139
(dp1140
g47
g104
sbag36
(g37
g38
(lp1141
Vbut
p1142
atp1143
Rp1144
(dp1145
g47
VCC
p1146
sbag36
(g37
g38
(lp1147
g36
(g37
g38
(lp1148
g36
(g37
g38
(lp1149
Vuseful
p1150
atp1151
Rp1152
(dp1153
g47
VJJ
p1154
sbag36
(g37
g38
(lp1155
Vpseudo-consciousness
p1156
atp1157
Rp1158
(dp1159
g47
VNNS
p1160
sbatp1161
Rp1162
(dp1163
g47
VNP
p1164
sbag36
(g37
g38
(lp1165
g36
(g37
g38
(lp1166
Vwill
p1167
atp1168
Rp1169
(dp1170
g47
VMD
p1171
sbag36
(g37
g38
(lp1172
g36
(g37
g38
(lp1173
Vshare
p1174
atp1175
Rp1176
(dp1177
g47
VVB
p1178
sbag36
(g37
g38
(lp1179
g36
(g37
g38
(lp1180
g36
(g37
g38
(lp1181
Vall
p1182
atp1183
Rp1184
(dp1185
g47
VPDT
p1186
sbag36
(g37
g38
(lp1187
Vthe
p1188
atp1189
Rp1190
(dp1191
g47
VDT
p1192
sbag36
(g37
g38
(lp1193
Vobservable
p1194
atp1195
Rp1196
(dp1197
g47
VJJ
p1198
sbag36
(g37
g38
(lp1199
Vqualities
p1200
atp1201
Rp1202
(dp1203
g47
VNNS
p1204
sbatp1205
Rp1206
(dp1207
g47
VNP
p1208
sbag36
(g37
g38
(lp1209
g36
(g37
g38
(lp1210
Vof
p1211
atp1212
Rp1213
(dp1214
g47
VIN
p1215
sbag36
(g37
g38
(lp1216
g36
(g37
g38
(lp1217
g36
(g37
g38
(lp1218
Vhuman
p1219
atp1220
Rp1221
(dp1222
g47
VJJ
p1223
sbag36
(g37
g38
(lp1224
Vconsciousness
p1225
atp1226
Rp1227
(dp1228
g47
VNN
p1229
sbatp1230
Rp1231
(dp1232
g47
VNP
p1233
sbag36
(g37
g38
(lp1234
g36
(g37
g38
(lp1235
Vincluding
p1236
atp1237
Rp1238
(dp1239
g47
VVBG
p1240
sbag36
(g37
g38
(lp1241
g36
(g37
g38
(lp1242
g36
(g37
g38
(lp1243
Vwhat
p1244
atp1245
Rp1246
(dp1247
g47
VWP
p1248
sbatp1249
Rp1250
(dp1251
g47
VWHNP
p1252
sbag36
(g37
g38
(lp1253
g36
(g37
g38
(lp1254
g36
(g37
g38
(lp1255
Vthe
p1256
atp1257
Rp1258
(dp1259
g47
VDT
p1260
sbag36
(g37
g38
(lp1261
Vzombie
p1262
atp1263
Rp1264
(dp1265
g47
VNN
p1266
sbatp1267
Rp1268
(dp1269
g47
VNP
p1270
sbag36
(g37
g38
(lp1271
g36
(g37
g38
(lp1272
Vwill
p1273
atp1274
Rp1275
(dp1276
g47
VMD
p1277
sbag36
(g37
g38
(lp1278
g36
(g37
g38
(lp1279
Vbe
p1280
atp1281
Rp1282
(dp1283
g47
VVB
p1284
sbag36
(g37
g38
(lp1285
g36
(g37
g38
(lp1286
Vable
p1287
atp1288
Rp1289
(dp1290
g47
VJJ
p1291
sbag36
(g37
g38
(lp1292
g36
(g37
g38
(lp1293
g36
(g37
g38
(lp1294
Vto
p1295
atp1296
Rp1297
(dp1298
g47
VTO
p1299
sbag36
(g37
g38
(lp1300
g36
(g37
g38
(lp1301
Vreport
p1302
atp1303
Rp1304
(dp1305
g47
VVB
p1306
sbatp1307
Rp1308
(dp1309
g47
VVP
p1310
sbatp1311
Rp1312
(dp1313
g47
VVP
p1314
sbatp1315
Rp1316
(dp1317
g47
g310
sbatp1318
Rp1319
(dp1320
g47
VADJP
p1321
sbatp1322
Rp1323
(dp1324
g47
VVP
p1325
sbatp1326
Rp1327
(dp1328
g47
VVP
p1329
sbatp1330
Rp1331
(dp1332
g47
g310
sbatp1333
Rp1334
(dp1335
g47
VSBAR
p1336
sbatp1337
Rp1338
(dp1339
g47
VPP
p1340
sbatp1341
Rp1342
(dp1343
g47
VNP
p1344
sbatp1345
Rp1346
(dp1347
g47
VPP
p1348
sbatp1349
Rp1350
(dp1351
g47
VNP
p1352
sbatp1353
Rp1354
(dp1355
g47
VVP
p1356
sbatp1357
Rp1358
(dp1359
g47
VVP
p1360
sbatp1361
Rp1362
(dp1363
g47
g310
sbag36
(g37
g38
(lp1364
g303
atp1365
Rp1366
(dp1367
g47
g303
sbatp1368
Rp1369
(dp1370
g47
g310
sbatp1371
Rp1372
(dp1373
g47
VROOT
p1374
sbasba(icmyPackage
Sent
p1375
(dp1376
g14
I1
sg29
I1
sg30
S'Robots will require a pseudo-consciousness with many of the intellectual qualities of human consciousness but will function successfully with few if any human emotional conscious qualities if that is how we choose to build them.'
p1377
sg32
I0
sg33
I11
sg34
(lp1378
g36
(g37
g38
(lp1379
g36
(g37
g38
(lp1380
g36
(g37
g38
(lp1381
g36
(g37
g38
(lp1382
VRobots
p1383
atp1384
Rp1385
(dp1386
g47
VNNP
p1387
sbatp1388
Rp1389
(dp1390
g47
VNP
p1391
sbag36
(g37
g38
(lp1392
g36
(g37
g38
(lp1393
g36
(g37
g38
(lp1394
Vwill
p1395
atp1396
Rp1397
(dp1398
g47
VMD
p1399
sbag36
(g37
g38
(lp1400
g36
(g37
g38
(lp1401
Vrequire
p1402
atp1403
Rp1404
(dp1405
g47
VVB
p1406
sbag36
(g37
g38
(lp1407
g36
(g37
g38
(lp1408
g151
atp1409
Rp1410
(dp1411
g47
VDT
p1412
sbag36
(g37
g38
(lp1413
Vpseudo-consciousness
p1414
atp1415
Rp1416
(dp1417
g47
VNNS
p1418
sbatp1419
Rp1420
(dp1421
g47
VNP
p1422
sbag36
(g37
g38
(lp1423
g36
(g37
g38
(lp1424
Vwith
p1425
atp1426
Rp1427
(dp1428
g47
VIN
p1429
sbag36
(g37
g38
(lp1430
g36
(g37
g38
(lp1431
g36
(g37
g38
(lp1432
Vmany
p1433
atp1434
Rp1435
(dp1436
g47
VJJ
p1437
sbatp1438
Rp1439
(dp1440
g47
VNP
p1441
sbag36
(g37
g38
(lp1442
g36
(g37
g38
(lp1443
Vof
p1444
atp1445
Rp1446
(dp1447
g47
VIN
p1448
sbag36
(g37
g38
(lp1449
g36
(g37
g38
(lp1450
g36
(g37
g38
(lp1451
Vthe
p1452
atp1453
Rp1454
(dp1455
g47
VDT
p1456
sbag36
(g37
g38
(lp1457
Vintellectual
p1458
atp1459
Rp1460
(dp1461
g47
VJJ
p1462
sbag36
(g37
g38
(lp1463
Vqualities
p1464
atp1465
Rp1466
(dp1467
g47
VNNS
p1468
sbatp1469
Rp1470
(dp1471
g47
VNP
p1472
sbag36
(g37
g38
(lp1473
g36
(g37
g38
(lp1474
Vof
p1475
atp1476
Rp1477
(dp1478
g47
VIN
p1479
sbag36
(g37
g38
(lp1480
g36
(g37
g38
(lp1481
Vhuman
p1482
atp1483
Rp1484
(dp1485
g47
VJJ
p1486
sbag36
(g37
g38
(lp1487
Vconsciousness
p1488
atp1489
Rp1490
(dp1491
g47
VNN
p1492
sbatp1493
Rp1494
(dp1495
g47
VNP
p1496
sbatp1497
Rp1498
(dp1499
g47
VPP
p1500
sbatp1501
Rp1502
(dp1503
g47
VNP
p1504
sbatp1505
Rp1506
(dp1507
g47
VPP
p1508
sbatp1509
Rp1510
(dp1511
g47
VNP
p1512
sbatp1513
Rp1514
(dp1515
g47
VPP
p1516
sbatp1517
Rp1518
(dp1519
g47
VVP
p1520
sbatp1521
Rp1522
(dp1523
g47
VVP
p1524
sbag36
(g37
g38
(lp1525
Vbut
p1526
atp1527
Rp1528
(dp1529
g47
VCC
p1530
sbag36
(g37
g38
(lp1531
g36
(g37
g38
(lp1532
Vwill
p1533
atp1534
Rp1535
(dp1536
g47
VMD
p1537
sbag36
(g37
g38
(lp1538
g36
(g37
g38
(lp1539
Vfunction
p1540
atp1541
Rp1542
(dp1543
g47
VVB
p1544
sbag36
(g37
g38
(lp1545
g36
(g37
g38
(lp1546
Vsuccessfully
p1547
atp1548
Rp1549
(dp1550
g47
VRB
p1551
sbatp1552
Rp1553
(dp1554
g47
VADVP
p1555
sbag36
(g37
g38
(lp1556
g36
(g37
g38
(lp1557
Vwith
p1558
atp1559
Rp1560
(dp1561
g47
VIN
p1562
sbag36
(g37
g38
(lp1563
g36
(g37
g38
(lp1564
g36
(g37
g38
(lp1565
Vfew
p1566
atp1567
Rp1568
(dp1569
g47
VJJ
p1570
sbatp1571
Rp1572
(dp1573
g47
VNP
p1574
sbag36
(g37
g38
(lp1575
g36
(g37
g38
(lp1576
Vif
p1577
atp1578
Rp1579
(dp1580
g47
VIN
p1581
sbag36
(g37
g38
(lp1582
g36
(g37
g38
(lp1583
Vany
p1584
atp1585
Rp1586
(dp1587
g47
VDT
p1588
sbag36
(g37
g38
(lp1589
Vhuman
p1590
atp1591
Rp1592
(dp1593
g47
VJJ
p1594
sbag36
(g37
g38
(lp1595
Vemotional
p1596
atp1597
Rp1598
(dp1599
g47
VJJ
p1600
sbag36
(g37
g38
(lp1601
Vconscious
p1602
atp1603
Rp1604
(dp1605
g47
VJJ
p1606
sbag36
(g37
g38
(lp1607
Vqualities
p1608
atp1609
Rp1610
(dp1611
g47
VNNS
p1612
sbatp1613
Rp1614
(dp1615
g47
VNP
p1616
sbatp1617
Rp1618
(dp1619
g47
VPP
p1620
sbatp1621
Rp1622
(dp1623
g47
VNP
p1624
sbatp1625
Rp1626
(dp1627
g47
VPP
p1628
sbag36
(g37
g38
(lp1629
g36
(g37
g38
(lp1630
Vif
p1631
atp1632
Rp1633
(dp1634
g47
VIN
p1635
sbag36
(g37
g38
(lp1636
g36
(g37
g38
(lp1637
g36
(g37
g38
(lp1638
Vthat
p1639
atp1640
Rp1641
(dp1642
g47
VDT
p1643
sbatp1644
Rp1645
(dp1646
g47
VNP
p1647
sbag36
(g37
g38
(lp1648
g36
(g37
g38
(lp1649
Vis
p1650
atp1651
Rp1652
(dp1653
g47
VVBZ
p1654
sbag36
(g37
g38
(lp1655
g36
(g37
g38
(lp1656
g36
(g37
g38
(lp1657
Vhow
p1658
atp1659
Rp1660
(dp1661
g47
VWRB
p1662
sbatp1663
Rp1664
(dp1665
g47
VWHADVP
p1666
sbag36
(g37
g38
(lp1667
g36
(g37
g38
(lp1668
g36
(g37
g38
(lp1669
Vwe
p1670
atp1671
Rp1672
(dp1673
g47
VPRP
p1674
sbatp1675
Rp1676
(dp1677
g47
VNP
p1678
sbag36
(g37
g38
(lp1679
g36
(g37
g38
(lp1680
Vchoose
p1681
atp1682
Rp1683
(dp1684
g47
VVBP
p1685
sbag36
(g37
g38
(lp1686
g36
(g37
g38
(lp1687
g36
(g37
g38
(lp1688
Vto
p1689
atp1690
Rp1691
(dp1692
g47
VTO
p1693
sbag36
(g37
g38
(lp1694
g36
(g37
g38
(lp1695
Vbuild
p1696
atp1697
Rp1698
(dp1699
g47
VVB
p1700
sbag36
(g37
g38
(lp1701
g36
(g37
g38
(lp1702
Vthem
p1703
atp1704
Rp1705
(dp1706
g47
VPRP
p1707
sbatp1708
Rp1709
(dp1710
g47
VNP
p1711
sbatp1712
Rp1713
(dp1714
g47
VVP
p1715
sbatp1716
Rp1717
(dp1718
g47
VVP
p1719
sbatp1720
Rp1721
(dp1722
g47
g310
sbatp1723
Rp1724
(dp1725
g47
VVP
p1726
sbatp1727
Rp1728
(dp1729
g47
g310
sbatp1730
Rp1731
(dp1732
g47
VSBAR
p1733
sbatp1734
Rp1735
(dp1736
g47
VVP
p1737
sbatp1738
Rp1739
(dp1740
g47
g310
sbatp1741
Rp1742
(dp1743
g47
VSBAR
p1744
sbatp1745
Rp1746
(dp1747
g47
VVP
p1748
sbatp1749
Rp1750
(dp1751
g47
VVP
p1752
sbatp1753
Rp1754
(dp1755
g47
VVP
p1756
sbag36
(g37
g38
(lp1757
g303
atp1758
Rp1759
(dp1760
g47
g303
sbatp1761
Rp1762
(dp1763
g47
g310
sbatp1764
Rp1765
(dp1766
g47
VROOT
p1767
sbasbasS'sent_num'
p1768
I6
sg29
I1
sg32
I0
sba(icmyPackage
Parag
p1769
(dp1770
g14
I1
sg25
(lp1771
(icmyPackage
Sent
p1772
(dp1773
g14
I1
sg29
I2
sg30
S'Such is an AI doctrine on the subject.'
p1774
sg32
I0
sg33
I12
sg34
(lp1775
g36
(g37
g38
(lp1776
g36
(g37
g38
(lp1777
g36
(g37
g38
(lp1778
g36
(g37
g38
(lp1779
VSuch
p1780
atp1781
Rp1782
(dp1783
g47
VJJ
p1784
sbatp1785
Rp1786
(dp1787
g47
VNP
p1788
sbag36
(g37
g38
(lp1789
g36
(g37
g38
(lp1790
Vis
p1791
atp1792
Rp1793
(dp1794
g47
VVBZ
p1795
sbag36
(g37
g38
(lp1796
g36
(g37
g38
(lp1797
g36
(g37
g38
(lp1798
Van
p1799
atp1800
Rp1801
(dp1802
g47
VDT
p1803
sbag36
(g37
g38
(lp1804
VAI
p1805
atp1806
Rp1807
(dp1808
g47
VNNP
p1809
sbag36
(g37
g38
(lp1810
Vdoctrine
p1811
atp1812
Rp1813
(dp1814
g47
VNN
p1815
sbatp1816
Rp1817
(dp1818
g47
VNP
p1819
sbag36
(g37
g38
(lp1820
g36
(g37
g38
(lp1821
Von
p1822
atp1823
Rp1824
(dp1825
g47
VIN
p1826
sbag36
(g37
g38
(lp1827
g36
(g37
g38
(lp1828
Vthe
p1829
atp1830
Rp1831
(dp1832
g47
VDT
p1833
sbag36
(g37
g38
(lp1834
Vsubject
p1835
atp1836
Rp1837
(dp1838
g47
VNN
p1839
sbatp1840
Rp1841
(dp1842
g47
VNP
p1843
sbatp1844
Rp1845
(dp1846
g47
VPP
p1847
sbatp1848
Rp1849
(dp1850
g47
VNP
p1851
sbatp1852
Rp1853
(dp1854
g47
VVP
p1855
sbag36
(g37
g38
(lp1856
g303
atp1857
Rp1858
(dp1859
g47
g303
sbatp1860
Rp1861
(dp1862
g47
g310
sbatp1863
Rp1864
(dp1865
g47
VROOT
p1866
sbasba(icmyPackage
Sent
p1867
(dp1868
g14
I1
sg29
I2
sg30
S'We now must ask what are the specific processes that make up the consciousness necessary for successful robots and the additional processes required should we want them to imitate humans.'
p1869
sg32
I0
sg33
I13
sg34
(lp1870
g36
(g37
g38
(lp1871
g36
(g37
g38
(lp1872
g36
(g37
g38
(lp1873
g36
(g37
g38
(lp1874
VWe
p1875
atp1876
Rp1877
(dp1878
g47
VPRP
p1879
sbatp1880
Rp1881
(dp1882
g47
VNP
p1883
sbag36
(g37
g38
(lp1884
g36
(g37
g38
(lp1885
Vnow
p1886
atp1887
Rp1888
(dp1889
g47
VRB
p1890
sbatp1891
Rp1892
(dp1893
g47
VADVP
p1894
sbag36
(g37
g38
(lp1895
g36
(g37
g38
(lp1896
Vmust
p1897
atp1898
Rp1899
(dp1900
g47
VMD
p1901
sbag36
(g37
g38
(lp1902
g36
(g37
g38
(lp1903
Vask
p1904
atp1905
Rp1906
(dp1907
g47
VVB
p1908
sbag36
(g37
g38
(lp1909
g36
(g37
g38
(lp1910
g36
(g37
g38
(lp1911
Vwhat
p1912
atp1913
Rp1914
(dp1915
g47
VWP
p1916
sbatp1917
Rp1918
(dp1919
g47
VWHNP
p1920
sbag36
(g37
g38
(lp1921
g36
(g37
g38
(lp1922
g36
(g37
g38
(lp1923
Vare
p1924
atp1925
Rp1926
(dp1927
g47
VVBP
p1928
sbag36
(g37
g38
(lp1929
g36
(g37
g38
(lp1930
g36
(g37
g38
(lp1931
Vthe
p1932
atp1933
Rp1934
(dp1935
g47
VDT
p1936
sbag36
(g37
g38
(lp1937
Vspecific
p1938
atp1939
Rp1940
(dp1941
g47
VJJ
p1942
sbag36
(g37
g38
(lp1943
Vprocesses
p1944
atp1945
Rp1946
(dp1947
g47
VNNS
p1948
sbatp1949
Rp1950
(dp1951
g47
VNP
p1952
sbag36
(g37
g38
(lp1953
g36
(g37
g38
(lp1954
g36
(g37
g38
(lp1955
Vthat
p1956
atp1957
Rp1958
(dp1959
g47
VWDT
p1960
sbatp1961
Rp1962
(dp1963
g47
VWHNP
p1964
sbag36
(g37
g38
(lp1965
g36
(g37
g38
(lp1966
g36
(g37
g38
(lp1967
Vmake
p1968
atp1969
Rp1970
(dp1971
g47
VVBP
p1972
sbag36
(g37
g38
(lp1973
g36
(g37
g38
(lp1974
Vup
p1975
atp1976
Rp1977
(dp1978
g47
VRP
p1979
sbatp1980
Rp1981
(dp1982
g47
VPRT
p1983
sbag36
(g37
g38
(lp1984
g36
(g37
g38
(lp1985
g36
(g37
g38
(lp1986
Vthe
p1987
atp1988
Rp1989
(dp1990
g47
VDT
p1991
sbag36
(g37
g38
(lp1992
Vconsciousness
p1993
atp1994
Rp1995
(dp1996
g47
VNN
p1997
sbatp1998
Rp1999
(dp2000
g47
VNP
p2001
sbag36
(g37
g38
(lp2002
g36
(g37
g38
(lp2003
Vnecessary
p2004
atp2005
Rp2006
(dp2007
g47
VJJ
p2008
sbag36
(g37
g38
(lp2009
g36
(g37
g38
(lp2010
Vfor
p2011
atp2012
Rp2013
(dp2014
g47
VIN
p2015
sbag36
(g37
g38
(lp2016
g36
(g37
g38
(lp2017
g36
(g37
g38
(lp2018
Vsuccessful
p2019
atp2020
Rp2021
(dp2022
g47
VJJ
p2023
sbag36
(g37
g38
(lp2024
Vrobots
p2025
atp2026
Rp2027
(dp2028
g47
VNNS
p2029
sbatp2030
Rp2031
(dp2032
g47
VNP
p2033
sbag36
(g37
g38
(lp2034
Vand
p2035
atp2036
Rp2037
(dp2038
g47
VCC
p2039
sbag36
(g37
g38
(lp2040
g36
(g37
g38
(lp2041
g36
(g37
g38
(lp2042
Vthe
p2043
atp2044
Rp2045
(dp2046
g47
VDT
p2047
sbag36
(g37
g38
(lp2048
Vadditional
p2049
atp2050
Rp2051
(dp2052
g47
VJJ
p2053
sbag36
(g37
g38
(lp2054
Vprocesses
p2055
atp2056
Rp2057
(dp2058
g47
VNNS
p2059
sbatp2060
Rp2061
(dp2062
g47
VNP
p2063
sbag36
(g37
g38
(lp2064
g36
(g37
g38
(lp2065
Vrequired
p2066
atp2067
Rp2068
(dp2069
g47
VVBN
p2070
sbag36
(g37
g38
(lp2071
g36
(g37
g38
(lp2072
Vshould
p2073
atp2074
Rp2075
(dp2076
g47
VMD
p2077
sbag36
(g37
g38
(lp2078
g36
(g37
g38
(lp2079
g36
(g37
g38
(lp2080
Vwe
p2081
atp2082
Rp2083
(dp2084
g47
VPRP
p2085
sbatp2086
Rp2087
(dp2088
g47
VNP
p2089
sbag36
(g37
g38
(lp2090
g36
(g37
g38
(lp2091
Vwant
p2092
atp2093
Rp2094
(dp2095
g47
VVBP
p2096
sbag36
(g37
g38
(lp2097
g36
(g37
g38
(lp2098
g36
(g37
g38
(lp2099
Vthem
p2100
atp2101
Rp2102
(dp2103
g47
VPRP
p2104
sbatp2105
Rp2106
(dp2107
g47
VNP
p2108
sbag36
(g37
g38
(lp2109
g36
(g37
g38
(lp2110
Vto
p2111
atp2112
Rp2113
(dp2114
g47
VTO
p2115
sbag36
(g37
g38
(lp2116
g36
(g37
g38
(lp2117
Vimitate
p2118
atp2119
Rp2120
(dp2121
g47
VVB
p2122
sbag36
(g37
g38
(lp2123
g36
(g37
g38
(lp2124
Vhumans
p2125
atp2126
Rp2127
(dp2128
g47
VNNS
p2129
sbatp2130
Rp2131
(dp2132
g47
VNP
p2133
sbatp2134
Rp2135
(dp2136
g47
VVP
p2137
sbatp2138
Rp2139
(dp2140
g47
VVP
p2141
sbatp2142
Rp2143
(dp2144
g47
g310
sbatp2145
Rp2146
(dp2147
g47
VVP
p2148
sbatp2149
Rp2150
(dp2151
g47
g310
sbatp2152
Rp2153
(dp2154
g47
VSBAR
p2155
sbatp2156
Rp2157
(dp2158
g47
VVP
p2159
sbatp2160
Rp2161
(dp2162
g47
VNP
p2163
sbatp2164
Rp2165
(dp2166
g47
VNP
p2167
sbatp2168
Rp2169
(dp2170
g47
VPP
p2171
sbatp2172
Rp2173
(dp2174
g47
VADJP
p2175
sbatp2176
Rp2177
(dp2178
g47
g310
sbatp2179
Rp2180
(dp2181
g47
VVP
p2182
sbatp2183
Rp2184
(dp2185
g47
g310
sbatp2186
Rp2187
(dp2188
g47
VSBAR
p2189
sbatp2190
Rp2191
(dp2192
g47
VNP
p2193
sbatp2194
Rp2195
(dp2196
g47
VVP
p2197
sbatp2198
Rp2199
(dp2200
g47
g310
sbatp2201
Rp2202
(dp2203
g47
VSBAR
p2204
sbatp2205
Rp2206
(dp2207
g47
VVP
p2208
sbatp2209
Rp2210
(dp2211
g47
VVP
p2212
sbag36
(g37
g38
(lp2213
g303
atp2214
Rp2215
(dp2216
g47
g303
sbatp2217
Rp2218
(dp2219
g47
g310
sbatp2220
Rp2221
(dp2222
g47
VROOT
p2223
sbasba(icmyPackage
Sent
p2224
(dp2225
g14
I1
sg29
I2
sg30
S'Many aspects of intelligent behavior do not require anything like a human level of consciousness, and hardly any AI systems built so far have any.'
p2226
sg32
I0
sg33
I14
sg34
(lp2227
g36
(g37
g38
(lp2228
g36
(g37
g38
(lp2229
g36
(g37
g38
(lp2230
g36
(g37
g38
(lp2231
g36
(g37
g38
(lp2232
g36
(g37
g38
(lp2233
VMany
p2234
atp2235
Rp2236
(dp2237
g47
VJJ
p2238
sbag36
(g37
g38
(lp2239
Vaspects
p2240
atp2241
Rp2242
(dp2243
g47
VNNS
p2244
sbatp2245
Rp2246
(dp2247
g47
VNP
p2248
sbag36
(g37
g38
(lp2249
g36
(g37
g38
(lp2250
Vof
p2251
atp2252
Rp2253
(dp2254
g47
VIN
p2255
sbag36
(g37
g38
(lp2256
g36
(g37
g38
(lp2257
Vintelligent
p2258
atp2259
Rp2260
(dp2261
g47
VJJ
p2262
sbag36
(g37
g38
(lp2263
Vbehavior
p2264
atp2265
Rp2266
(dp2267
g47
VNN
p2268
sbatp2269
Rp2270
(dp2271
g47
VNP
p2272
sbatp2273
Rp2274
(dp2275
g47
VPP
p2276
sbatp2277
Rp2278
(dp2279
g47
VNP
p2280
sbag36
(g37
g38
(lp2281
g36
(g37
g38
(lp2282
Vdo
p2283
atp2284
Rp2285
(dp2286
g47
VVBP
p2287
sbag36
(g37
g38
(lp2288
Vnot
p2289
atp2290
Rp2291
(dp2292
g47
VRB
p2293
sbag36
(g37
g38
(lp2294
g36
(g37
g38
(lp2295
Vrequire
p2296
atp2297
Rp2298
(dp2299
g47
VVB
p2300
sbag36
(g37
g38
(lp2301
g36
(g37
g38
(lp2302
Vanything
p2303
atp2304
Rp2305
(dp2306
g47
VNN
p2307
sbatp2308
Rp2309
(dp2310
g47
VNP
p2311
sbag36
(g37
g38
(lp2312
g36
(g37
g38
(lp2313
Vlike
p2314
atp2315
Rp2316
(dp2317
g47
VIN
p2318
sbag36
(g37
g38
(lp2319
g36
(g37
g38
(lp2320
g36
(g37
g38
(lp2321
g151
atp2322
Rp2323
(dp2324
g47
VDT
p2325
sbag36
(g37
g38
(lp2326
Vhuman
p2327
atp2328
Rp2329
(dp2330
g47
VJJ
p2331
sbag36
(g37
g38
(lp2332
Vlevel
p2333
atp2334
Rp2335
(dp2336
g47
VNN
p2337
sbatp2338
Rp2339
(dp2340
g47
VNP
p2341
sbag36
(g37
g38
(lp2342
g36
(g37
g38
(lp2343
Vof
p2344
atp2345
Rp2346
(dp2347
g47
VIN
p2348
sbag36
(g37
g38
(lp2349
g36
(g37
g38
(lp2350
Vconsciousness
p2351
atp2352
Rp2353
(dp2354
g47
VNN
p2355
sbatp2356
Rp2357
(dp2358
g47
VNP
p2359
sbatp2360
Rp2361
(dp2362
g47
VPP
p2363
sbatp2364
Rp2365
(dp2366
g47
VNP
p2367
sbatp2368
Rp2369
(dp2370
g47
VPP
p2371
sbatp2372
Rp2373
(dp2374
g47
VVP
p2375
sbatp2376
Rp2377
(dp2378
g47
VVP
p2379
sbatp2380
Rp2381
(dp2382
g47
g310
sbag36
(g37
g38
(lp2383
g104
atp2384
Rp2385
(dp2386
g47
g104
sbag36
(g37
g38
(lp2387
Vand
p2388
atp2389
Rp2390
(dp2391
g47
VCC
p2392
sbag36
(g37
g38
(lp2393
g36
(g37
g38
(lp2394
g36
(g37
g38
(lp2395
Vhardly
p2396
atp2397
Rp2398
(dp2399
g47
VRB
p2400
sbatp2401
Rp2402
(dp2403
g47
VADVP
p2404
sbag36
(g37
g38
(lp2405
g36
(g37
g38
(lp2406
Vany
p2407
atp2408
Rp2409
(dp2410
g47
VDT
p2411
sbag36
(g37
g38
(lp2412
VAI
p2413
atp2414
Rp2415
(dp2416
g47
VNNP
p2417
sbag36
(g37
g38
(lp2418
Vsystems
p2419
atp2420
Rp2421
(dp2422
g47
VNNS
p2423
sbatp2424
Rp2425
(dp2426
g47
VNP
p2427
sbag36
(g37
g38
(lp2428
g36
(g37
g38
(lp2429
Vbuilt
p2430
atp2431
Rp2432
(dp2433
g47
VVBD
p2434
sbag36
(g37
g38
(lp2435
g36
(g37
g38
(lp2436
Vso
p2437
atp2438
Rp2439
(dp2440
g47
VRB
p2441
sbag36
(g37
g38
(lp2442
Vfar
p2443
atp2444
Rp2445
(dp2446
g47
VRB
p2447
sbatp2448
Rp2449
(dp2450
g47
VADVP
p2451
sbag36
(g37
g38
(lp2452
g36
(g37
g38
(lp2453
Vhave
p2454
atp2455
Rp2456
(dp2457
g47
VVB
p2458
sbag36
(g37
g38
(lp2459
g36
(g37
g38
(lp2460
Vany
p2461
atp2462
Rp2463
(dp2464
g47
VDT
p2465
sbatp2466
Rp2467
(dp2468
g47
VNP
p2469
sbatp2470
Rp2471
(dp2472
g47
VVP
p2473
sbatp2474
Rp2475
(dp2476
g47
VVP
p2477
sbatp2478
Rp2479
(dp2480
g47
g310
sbag36
(g37
g38
(lp2481
g303
atp2482
Rp2483
(dp2484
g47
g303
sbatp2485
Rp2486
(dp2487
g47
g310
sbatp2488
Rp2489
(dp2490
g47
VROOT
p2491
sbasba(icmyPackage
Sent
p2492
(dp2493
g14
I1
sg29
I2
sg30
S'For this reason the following remarks are somewhat speculative and are more stimulated by people like the Dreyfuses and Penrose who deny the possibility of robot consciousness than by any features of existing programs.'
p2494
sg32
I0
sg33
I15
sg34
(lp2495
g36
(g37
g38
(lp2496
g36
(g37
g38
(lp2497
g36
(g37
g38
(lp2498
g36
(g37
g38
(lp2499
VFor
p2500
atp2501
Rp2502
(dp2503
g47
VIN
p2504
sbag36
(g37
g38
(lp2505
g36
(g37
g38
(lp2506
Vthis
p2507
atp2508
Rp2509
(dp2510
g47
VDT
p2511
sbag36
(g37
g38
(lp2512
Vreason
p2513
atp2514
Rp2515
(dp2516
g47
VNN
p2517
sbatp2518
Rp2519
(dp2520
g47
VNP
p2521
sbatp2522
Rp2523
(dp2524
g47
VPP
p2525
sbag36
(g37
g38
(lp2526
g36
(g37
g38
(lp2527
Vthe
p2528
atp2529
Rp2530
(dp2531
g47
VDT
p2532
sbag36
(g37
g38
(lp2533
Vfollowing
p2534
atp2535
Rp2536
(dp2537
g47
VVBG
p2538
sbag36
(g37
g38
(lp2539
Vremarks
p2540
atp2541
Rp2542
(dp2543
g47
VNNS
p2544
sbatp2545
Rp2546
(dp2547
g47
VNP
p2548
sbag36
(g37
g38
(lp2549
g36
(g37
g38
(lp2550
g36
(g37
g38
(lp2551
Vare
p2552
atp2553
Rp2554
(dp2555
g47
VVBP
p2556
sbag36
(g37
g38
(lp2557
g36
(g37
g38
(lp2558
Vsomewhat
p2559
atp2560
Rp2561
(dp2562
g47
VRB
p2563
sbag36
(g37
g38
(lp2564
Vspeculative
p2565
atp2566
Rp2567
(dp2568
g47
VJJ
p2569
sbatp2570
Rp2571
(dp2572
g47
VADJP
p2573
sbatp2574
Rp2575
(dp2576
g47
VVP
p2577
sbag36
(g37
g38
(lp2578
Vand
p2579
atp2580
Rp2581
(dp2582
g47
VCC
p2583
sbag36
(g37
g38
(lp2584
g36
(g37
g38
(lp2585
Vare
p2586
atp2587
Rp2588
(dp2589
g47
VVBP
p2590
sbag36
(g37
g38
(lp2591
g36
(g37
g38
(lp2592
g36
(g37
g38
(lp2593
Vmore
p2594
atp2595
Rp2596
(dp2597
g47
VRBR
p2598
sbag36
(g37
g38
(lp2599
Vstimulated
p2600
atp2601
Rp2602
(dp2603
g47
VJJ
p2604
sbag36
(g37
g38
(lp2605
g36
(g37
g38
(lp2606
Vby
p2607
atp2608
Rp2609
(dp2610
g47
VIN
p2611
sbag36
(g37
g38
(lp2612
g36
(g37
g38
(lp2613
g36
(g37
g38
(lp2614
Vpeople
p2615
atp2616
Rp2617
(dp2618
g47
VNNS
p2619
sbatp2620
Rp2621
(dp2622
g47
VNP
p2623
sbag36
(g37
g38
(lp2624
g36
(g37
g38
(lp2625
Vlike
p2626
atp2627
Rp2628
(dp2629
g47
VIN
p2630
sbag36
(g37
g38
(lp2631
g36
(g37
g38
(lp2632
Vthe
p2633
atp2634
Rp2635
(dp2636
g47
VDT
p2637
sbag36
(g37
g38
(lp2638
VDreyfuses
p2639
atp2640
Rp2641
(dp2642
g47
VNNP
p2643
sbag36
(g37
g38
(lp2644
Vand
p2645
atp2646
Rp2647
(dp2648
g47
VCC
p2649
sbag36
(g37
g38
(lp2650
VPenrose
p2651
atp2652
Rp2653
(dp2654
g47
VNNP
p2655
sbatp2656
Rp2657
(dp2658
g47
VNP
p2659
sbatp2660
Rp2661
(dp2662
g47
VPP
p2663
sbag36
(g37
g38
(lp2664
g36
(g37
g38
(lp2665
g36
(g37
g38
(lp2666
Vwho
p2667
atp2668
Rp2669
(dp2670
g47
VWP
p2671
sbatp2672
Rp2673
(dp2674
g47
VWHNP
p2675
sbag36
(g37
g38
(lp2676
g36
(g37
g38
(lp2677
g36
(g37
g38
(lp2678
Vdeny
p2679
atp2680
Rp2681
(dp2682
g47
VVBP
p2683
sbag36
(g37
g38
(lp2684
g36
(g37
g38
(lp2685
g36
(g37
g38
(lp2686
Vthe
p2687
atp2688
Rp2689
(dp2690
g47
VDT
p2691
sbag36
(g37
g38
(lp2692
Vpossibility
p2693
atp2694
Rp2695
(dp2696
g47
VNN
p2697
sbatp2698
Rp2699
(dp2700
g47
VNP
p2701
sbag36
(g37
g38
(lp2702
g36
(g37
g38
(lp2703
Vof
p2704
atp2705
Rp2706
(dp2707
g47
VIN
p2708
sbag36
(g37
g38
(lp2709
g36
(g37
g38
(lp2710
Vrobot
p2711
atp2712
Rp2713
(dp2714
g47
VNN
p2715
sbag36
(g37
g38
(lp2716
Vconsciousness
p2717
atp2718
Rp2719
(dp2720
g47
VNN
p2721
sbatp2722
Rp2723
(dp2724
g47
VNP
p2725
sbatp2726
Rp2727
(dp2728
g47
VPP
p2729
sbatp2730
Rp2731
(dp2732
g47
VNP
p2733
sbatp2734
Rp2735
(dp2736
g47
VVP
p2737
sbatp2738
Rp2739
(dp2740
g47
g310
sbatp2741
Rp2742
(dp2743
g47
VSBAR
p2744
sbatp2745
Rp2746
(dp2747
g47
VNP
p2748
sbatp2749
Rp2750
(dp2751
g47
VPP
p2752
sbatp2753
Rp2754
(dp2755
g47
VADJP
p2756
sbag36
(g37
g38
(lp2757
g36
(g37
g38
(lp2758
Vthan
p2759
atp2760
Rp2761
(dp2762
g47
VIN
p2763
sbag36
(g37
g38
(lp2764
g36
(g37
g38
(lp2765
Vby
p2766
atp2767
Rp2768
(dp2769
g47
VIN
p2770
sbag36
(g37
g38
(lp2771
g36
(g37
g38
(lp2772
g36
(g37
g38
(lp2773
Vany
p2774
atp2775
Rp2776
(dp2777
g47
VDT
p2778
sbag36
(g37
g38
(lp2779
Vfeatures
p2780
atp2781
Rp2782
(dp2783
g47
VNNS
p2784
sbatp2785
Rp2786
(dp2787
g47
VNP
p2788
sbag36
(g37
g38
(lp2789
g36
(g37
g38
(lp2790
Vof
p2791
atp2792
Rp2793
(dp2794
g47
VIN
p2795
sbag36
(g37
g38
(lp2796
g36
(g37
g38
(lp2797
Vexisting
p2798
atp2799
Rp2800
(dp2801
g47
VVBG
p2802
sbag36
(g37
g38
(lp2803
Vprograms
p2804
atp2805
Rp2806
(dp2807
g47
VNNS
p2808
sbatp2809
Rp2810
(dp2811
g47
VNP
p2812
sbatp2813
Rp2814
(dp2815
g47
VPP
p2816
sbatp2817
Rp2818
(dp2819
g47
VNP
p2820
sbatp2821
Rp2822
(dp2823
g47
VPP
p2824
sbatp2825
Rp2826
(dp2827
g47
VADVP
p2828
sbatp2829
Rp2830
(dp2831
g47
VADJP
p2832
sbatp2833
Rp2834
(dp2835
g47
VVP
p2836
sbatp2837
Rp2838
(dp2839
g47
VVP
p2840
sbag36
(g37
g38
(lp2841
g303
atp2842
Rp2843
(dp2844
g47
g303
sbatp2845
Rp2846
(dp2847
g47
g310
sbatp2848
Rp2849
(dp2850
g47
VROOT
p2851
sbasbasg1768
I4
sg29
I2
sg32
I0
sba(icmyPackage
Parag
p2852
(dp2853
g14
I1
sg25
(lp2854
(icmyPackage
Sent
p2855
(dp2856
g14
I1
sg29
I3
sg30
S'We regard consciousness as a subset of the memory of an animal or machine distinguished by the fact that many processes involve only those elements of memory that are in consciousness.'
p2857
sg32
I0
sg33
I16
sg34
(lp2858
g36
(g37
g38
(lp2859
g36
(g37
g38
(lp2860
g36
(g37
g38
(lp2861
g36
(g37
g38
(lp2862
VWe
p2863
atp2864
Rp2865
(dp2866
g47
VPRP
p2867
sbatp2868
Rp2869
(dp2870
g47
VNP
p2871
sbag36
(g37
g38
(lp2872
g36
(g37
g38
(lp2873
Vregard
p2874
atp2875
Rp2876
(dp2877
g47
VVBP
p2878
sbag36
(g37
g38
(lp2879
g36
(g37
g38
(lp2880
Vconsciousness
p2881
atp2882
Rp2883
(dp2884
g47
VNN
p2885
sbatp2886
Rp2887
(dp2888
g47
VNP
p2889
sbag36
(g37
g38
(lp2890
g36
(g37
g38
(lp2891
Vas
p2892
atp2893
Rp2894
(dp2895
g47
VIN
p2896
sbag36
(g37
g38
(lp2897
g36
(g37
g38
(lp2898
g36
(g37
g38
(lp2899
g36
(g37
g38
(lp2900
g151
atp2901
Rp2902
(dp2903
g47
VDT
p2904
sbag36
(g37
g38
(lp2905
Vsubset
p2906
atp2907
Rp2908
(dp2909
g47
VNN
p2910
sbatp2911
Rp2912
(dp2913
g47
VNP
p2914
sbag36
(g37
g38
(lp2915
g36
(g37
g38
(lp2916
Vof
p2917
atp2918
Rp2919
(dp2920
g47
VIN
p2921
sbag36
(g37
g38
(lp2922
g36
(g37
g38
(lp2923
g36
(g37
g38
(lp2924
Vthe
p2925
atp2926
Rp2927
(dp2928
g47
VDT
p2929
sbag36
(g37
g38
(lp2930
Vmemory
p2931
atp2932
Rp2933
(dp2934
g47
VNN
p2935
sbatp2936
Rp2937
(dp2938
g47
VNP
p2939
sbag36
(g37
g38
(lp2940
g36
(g37
g38
(lp2941
Vof
p2942
atp2943
Rp2944
(dp2945
g47
VIN
p2946
sbag36
(g37
g38
(lp2947
g36
(g37
g38
(lp2948
Van
p2949
atp2950
Rp2951
(dp2952
g47
VDT
p2953
sbag36
(g37
g38
(lp2954
Vanimal
p2955
atp2956
Rp2957
(dp2958
g47
VNN
p2959
sbag36
(g37
g38
(lp2960
Vor
p2961
atp2962
Rp2963
(dp2964
g47
VCC
p2965
sbag36
(g37
g38
(lp2966
Vmachine
p2967
atp2968
Rp2969
(dp2970
g47
VNN
p2971
sbatp2972
Rp2973
(dp2974
g47
VNP
p2975
sbatp2976
Rp2977
(dp2978
g47
VPP
p2979
sbatp2980
Rp2981
(dp2982
g47
VNP
p2983
sbatp2984
Rp2985
(dp2986
g47
VPP
p2987
sbatp2988
Rp2989
(dp2990
g47
VNP
p2991
sbag36
(g37
g38
(lp2992
g36
(g37
g38
(lp2993
Vdistinguished
p2994
atp2995
Rp2996
(dp2997
g47
VVBD
p2998
sbag36
(g37
g38
(lp2999
g36
(g37
g38
(lp3000
Vby
p3001
atp3002
Rp3003
(dp3004
g47
VIN
p3005
sbag36
(g37
g38
(lp3006
g36
(g37
g38
(lp3007
Vthe
p3008
atp3009
Rp3010
(dp3011
g47
VDT
p3012
sbag36
(g37
g38
(lp3013
Vfact
p3014
atp3015
Rp3016
(dp3017
g47
VNN
p3018
sbatp3019
Rp3020
(dp3021
g47
VNP
p3022
sbatp3023
Rp3024
(dp3025
g47
VPP
p3026
sbag36
(g37
g38
(lp3027
g36
(g37
g38
(lp3028
Vthat
p3029
atp3030
Rp3031
(dp3032
g47
VIN
p3033
sbag36
(g37
g38
(lp3034
g36
(g37
g38
(lp3035
g36
(g37
g38
(lp3036
Vmany
p3037
atp3038
Rp3039
(dp3040
g47
VJJ
p3041
sbag36
(g37
g38
(lp3042
Vprocesses
p3043
atp3044
Rp3045
(dp3046
g47
VNNS
p3047
sbatp3048
Rp3049
(dp3050
g47
VNP
p3051
sbag36
(g37
g38
(lp3052
g36
(g37
g38
(lp3053
Vinvolve
p3054
atp3055
Rp3056
(dp3057
g47
VVBP
p3058
sbag36
(g37
g38
(lp3059
g36
(g37
g38
(lp3060
g36
(g37
g38
(lp3061
Vonly
p3062
atp3063
Rp3064
(dp3065
g47
VRB
p3066
sbag36
(g37
g38
(lp3067
Vthose
p3068
atp3069
Rp3070
(dp3071
g47
VDT
p3072
sbag36
(g37
g38
(lp3073
Velements
p3074
atp3075
Rp3076
(dp3077
g47
VNNS
p3078
sbatp3079
Rp3080
(dp3081
g47
VNP
p3082
sbag36
(g37
g38
(lp3083
g36
(g37
g38
(lp3084
Vof
p3085
atp3086
Rp3087
(dp3088
g47
VIN
p3089
sbag36
(g37
g38
(lp3090
g36
(g37
g38
(lp3091
Vmemory
p3092
atp3093
Rp3094
(dp3095
g47
VNN
p3096
sbatp3097
Rp3098
(dp3099
g47
VNP
p3100
sbatp3101
Rp3102
(dp3103
g47
VPP
p3104
sbag36
(g37
g38
(lp3105
g36
(g37
g38
(lp3106
g36
(g37
g38
(lp3107
Vthat
p3108
atp3109
Rp3110
(dp3111
g47
VWDT
p3112
sbatp3113
Rp3114
(dp3115
g47
VWHNP
p3116
sbag36
(g37
g38
(lp3117
g36
(g37
g38
(lp3118
g36
(g37
g38
(lp3119
Vare
p3120
atp3121
Rp3122
(dp3123
g47
VVBP
p3124
sbag36
(g37
g38
(lp3125
g36
(g37
g38
(lp3126
Vin
p3127
atp3128
Rp3129
(dp3130
g47
VIN
p3131
sbag36
(g37
g38
(lp3132
g36
(g37
g38
(lp3133
Vconsciousness
p3134
atp3135
Rp3136
(dp3137
g47
VNN
p3138
sbatp3139
Rp3140
(dp3141
g47
VNP
p3142
sbatp3143
Rp3144
(dp3145
g47
VPP
p3146
sbatp3147
Rp3148
(dp3149
g47
VVP
p3150
sbatp3151
Rp3152
(dp3153
g47
g310
sbatp3154
Rp3155
(dp3156
g47
VSBAR
p3157
sbatp3158
Rp3159
(dp3160
g47
VNP
p3161
sbatp3162
Rp3163
(dp3164
g47
VVP
p3165
sbatp3166
Rp3167
(dp3168
g47
g310
sbatp3169
Rp3170
(dp3171
g47
VSBAR
p3172
sbatp3173
Rp3174
(dp3175
g47
VVP
p3176
sbatp3177
Rp3178
(dp3179
g47
g310
sbatp3180
Rp3181
(dp3182
g47
VSBAR
p3183
sbatp3184
Rp3185
(dp3186
g47
VVP
p3187
sbag36
(g37
g38
(lp3188
g303
atp3189
Rp3190
(dp3191
g47
g303
sbatp3192
Rp3193
(dp3194
g47
g310
sbatp3195
Rp3196
(dp3197
g47
VROOT
p3198
sbasba(icmyPackage
Sent
p3199
(dp3200
g14
I1
sg29
I3
sg30
S'The elements of memory include propositions (like sentences) and other entities We may divide our consideration into basic consciousness and consciousness of self.'
p3201
sg32
I0
sg33
I17
sg34
(lp3202
g36
(g37
g38
(lp3203
g36
(g37
g38
(lp3204
g36
(g37
g38
(lp3205
g36
(g37
g38
(lp3206
g36
(g37
g38
(lp3207
VThe
p3208
atp3209
Rp3210
(dp3211
g47
VDT
p3212
sbag36
(g37
g38
(lp3213
Velements
p3214
atp3215
Rp3216
(dp3217
g47
VNNS
p3218
sbatp3219
Rp3220
(dp3221
g47
VNP
p3222
sbag36
(g37
g38
(lp3223
g36
(g37
g38
(lp3224
Vof
p3225
atp3226
Rp3227
(dp3228
g47
VIN
p3229
sbag36
(g37
g38
(lp3230
g36
(g37
g38
(lp3231
Vmemory
p3232
atp3233
Rp3234
(dp3235
g47
VNN
p3236
sbatp3237
Rp3238
(dp3239
g47
VNP
p3240
sbatp3241
Rp3242
(dp3243
g47
VPP
p3244
sbatp3245
Rp3246
(dp3247
g47
VNP
p3248
sbag36
(g37
g38
(lp3249
g36
(g37
g38
(lp3250
Vinclude
p3251
atp3252
Rp3253
(dp3254
g47
VVBP
p3255
sbag36
(g37
g38
(lp3256
g36
(g37
g38
(lp3257
g36
(g37
g38
(lp3258
g36
(g37
g38
(lp3259
Vpropositions
p3260
atp3261
Rp3262
(dp3263
g47
VNNS
p3264
sbatp3265
Rp3266
(dp3267
g47
VNP
p3268
sbag36
(g37
g38
(lp3269
g36
(g37
g38
(lp3270
V-LRB-
p3271
atp3272
Rp3273
(dp3274
g47
V-LRB-
p3275
sbag36
(g37
g38
(lp3276
g36
(g37
g38
(lp3277
Vlike
p3278
atp3279
Rp3280
(dp3281
g47
VIN
p3282
sbag36
(g37
g38
(lp3283
g36
(g37
g38
(lp3284
Vsentences
p3285
atp3286
Rp3287
(dp3288
g47
VNNS
p3289
sbatp3290
Rp3291
(dp3292
g47
VNP
p3293
sbatp3294
Rp3295
(dp3296
g47
VPP
p3297
sbag36
(g37
g38
(lp3298
V-RRB-
p3299
atp3300
Rp3301
(dp3302
g47
V-RRB-
p3303
sbatp3304
Rp3305
(dp3306
g47
VPRN
p3307
sbatp3308
Rp3309
(dp3310
g47
VNP
p3311
sbag36
(g37
g38
(lp3312
Vand
p3313
atp3314
Rp3315
(dp3316
g47
VCC
p3317
sbag36
(g37
g38
(lp3318
g36
(g37
g38
(lp3319
g36
(g37
g38
(lp3320
Vother
p3321
atp3322
Rp3323
(dp3324
g47
VJJ
p3325
sbag36
(g37
g38
(lp3326
Ventities
p3327
atp3328
Rp3329
(dp3330
g47
VNNS
p3331
sbatp3332
Rp3333
(dp3334
g47
VNP
p3335
sbag36
(g37
g38
(lp3336
g36
(g37
g38
(lp3337
g36
(g37
g38
(lp3338
g36
(g37
g38
(lp3339
VWe
p3340
atp3341
Rp3342
(dp3343
g47
VPRP
p3344
sbatp3345
Rp3346
(dp3347
g47
VNP
p3348
sbag36
(g37
g38
(lp3349
g36
(g37
g38
(lp3350
Vmay
p3351
atp3352
Rp3353
(dp3354
g47
VMD
p3355
sbag36
(g37
g38
(lp3356
g36
(g37
g38
(lp3357
Vdivide
p3358
atp3359
Rp3360
(dp3361
g47
VVB
p3362
sbag36
(g37
g38
(lp3363
g36
(g37
g38
(lp3364
Vour
p3365
atp3366
Rp3367
(dp3368
g47
VPRP$
p3369
sbag36
(g37
g38
(lp3370
Vconsideration
p3371
atp3372
Rp3373
(dp3374
g47
VNN
p3375
sbatp3376
Rp3377
(dp3378
g47
VNP
p3379
sbag36
(g37
g38
(lp3380
g36
(g37
g38
(lp3381
Vinto
p3382
atp3383
Rp3384
(dp3385
g47
VIN
p3386
sbag36
(g37
g38
(lp3387
g36
(g37
g38
(lp3388
g36
(g37
g38
(lp3389
Vbasic
p3390
atp3391
Rp3392
(dp3393
g47
VJJ
p3394
sbag36
(g37
g38
(lp3395
Vconsciousness
p3396
atp3397
Rp3398
(dp3399
g47
VNN
p3400
sbag36
(g37
g38
(lp3401
Vand
p3402
atp3403
Rp3404
(dp3405
g47
VCC
p3406
sbag36
(g37
g38
(lp3407
Vconsciousness
p3408
atp3409
Rp3410
(dp3411
g47
VNN
p3412
sbatp3413
Rp3414
(dp3415
g47
VNP
p3416
sbag36
(g37
g38
(lp3417
g36
(g37
g38
(lp3418
Vof
p3419
atp3420
Rp3421
(dp3422
g47
VIN
p3423
sbag36
(g37
g38
(lp3424
g36
(g37
g38
(lp3425
Vself
p3426
atp3427
Rp3428
(dp3429
g47
VNN
p3430
sbatp3431
Rp3432
(dp3433
g47
VNP
p3434
sbatp3435
Rp3436
(dp3437
g47
VPP
p3438
sbatp3439
Rp3440
(dp3441
g47
VNP
p3442
sbatp3443
Rp3444
(dp3445
g47
VPP
p3446
sbatp3447
Rp3448
(dp3449
g47
VVP
p3450
sbatp3451
Rp3452
(dp3453
g47
VVP
p3454
sbatp3455
Rp3456
(dp3457
g47
g310
sbatp3458
Rp3459
(dp3460
g47
VSBAR
p3461
sbatp3462
Rp3463
(dp3464
g47
VNP
p3465
sbatp3466
Rp3467
(dp3468
g47
VNP
p3469
sbatp3470
Rp3471
(dp3472
g47
VVP
p3473
sbag36
(g37
g38
(lp3474
g303
atp3475
Rp3476
(dp3477
g47
g303
sbatp3478
Rp3479
(dp3480
g47
g310
sbatp3481
Rp3482
(dp3483
g47
VROOT
p3484
sbasbasg1768
I2
sg29
I3
sg32
I0
sbasg32
I0
sbasS'sc_num'
p3485
I1
sS'Ctitle'
p3486
S'Introduction'
p3487
sg20
I3
sg21
(lp3488
g23
ag1769
ag2852
asba(icmyPackage
Sec
p3489
(dp3490
g14
I2
sg15
(lp3491
(icmyPackage
SubSec
p3492
(dp3493
g14
I2
sg19
Nsg20
I3
sg21
(lp3494
(icmyPackage
Parag
p3495
(dp3496
g14
I2
sg25
(lp3497
(icmyPackage
Sent
p3498
(dp3499
g14
I2
sg29
I4
sg30
S'Here are some of the elements of basic consciousness.'
p3500
sg32
I0
sg33
I18
sg34
(lp3501
g36
(g37
g38
(lp3502
g36
(g37
g38
(lp3503
g36
(g37
g38
(lp3504
g36
(g37
g38
(lp3505
VHere
p3506
atp3507
Rp3508
(dp3509
g47
VRB
p3510
sbatp3511
Rp3512
(dp3513
g47
VADVP
p3514
sbag36
(g37
g38
(lp3515
Vare
p3516
atp3517
Rp3518
(dp3519
g47
VVBP
p3520
sbag36
(g37
g38
(lp3521
g36
(g37
g38
(lp3522
g36
(g37
g38
(lp3523
Vsome
p3524
atp3525
Rp3526
(dp3527
g47
VDT
p3528
sbatp3529
Rp3530
(dp3531
g47
VNP
p3532
sbag36
(g37
g38
(lp3533
g36
(g37
g38
(lp3534
Vof
p3535
atp3536
Rp3537
(dp3538
g47
VIN
p3539
sbag36
(g37
g38
(lp3540
g36
(g37
g38
(lp3541
g36
(g37
g38
(lp3542
Vthe
p3543
atp3544
Rp3545
(dp3546
g47
VDT
p3547
sbag36
(g37
g38
(lp3548
Velements
p3549
atp3550
Rp3551
(dp3552
g47
VNNS
p3553
sbatp3554
Rp3555
(dp3556
g47
VNP
p3557
sbag36
(g37
g38
(lp3558
g36
(g37
g38
(lp3559
Vof
p3560
atp3561
Rp3562
(dp3563
g47
VIN
p3564
sbag36
(g37
g38
(lp3565
g36
(g37
g38
(lp3566
Vbasic
p3567
atp3568
Rp3569
(dp3570
g47
VJJ
p3571
sbag36
(g37
g38
(lp3572
Vconsciousness
p3573
atp3574
Rp3575
(dp3576
g47
VNN
p3577
sbatp3578
Rp3579
(dp3580
g47
VNP
p3581
sbatp3582
Rp3583
(dp3584
g47
VPP
p3585
sbatp3586
Rp3587
(dp3588
g47
VNP
p3589
sbatp3590
Rp3591
(dp3592
g47
VPP
p3593
sbatp3594
Rp3595
(dp3596
g47
VNP
p3597
sbag36
(g37
g38
(lp3598
g303
atp3599
Rp3600
(dp3601
g47
g303
sbatp3602
Rp3603
(dp3604
g47
VSINV
p3605
sbatp3606
Rp3607
(dp3608
g47
VROOT
p3609
sbasbasg1768
I1
sg29
I4
sg32
I0
sba(icmyPackage
Parag
p3610
(dp3611
g14
I2
sg25
(lp3612
(icmyPackage
Sent
p3613
(dp3614
g14
I2
sg29
I5
sg30
S'propositions.'
p3615
sg32
I0
sg33
I19
sg34
(lp3616
g36
(g37
g38
(lp3617
g36
(g37
g38
(lp3618
g36
(g37
g38
(lp3619
Vpropositions
p3620
atp3621
Rp3622
(dp3623
g47
VNNS
p3624
sbag36
(g37
g38
(lp3625
g303
atp3626
Rp3627
(dp3628
g47
g303
sbatp3629
Rp3630
(dp3631
g47
VNP
p3632
sbatp3633
Rp3634
(dp3635
g47
VROOT
p3636
sbasba(icmyPackage
Sent
p3637
(dp3638
g14
I2
sg29
I5
sg30
S"The propositions of basic consciousness are about the world and not about the system's thoughts."
p3639
sg32
I0
sg33
I20
sg34
(lp3640
g36
(g37
g38
(lp3641
g36
(g37
g38
(lp3642
g36
(g37
g38
(lp3643
g36
(g37
g38
(lp3644
g36
(g37
g38
(lp3645
VThe
p3646
atp3647
Rp3648
(dp3649
g47
VDT
p3650
sbag36
(g37
g38
(lp3651
Vpropositions
p3652
atp3653
Rp3654
(dp3655
g47
VNNS
p3656
sbatp3657
Rp3658
(dp3659
g47
VNP
p3660
sbag36
(g37
g38
(lp3661
g36
(g37
g38
(lp3662
Vof
p3663
atp3664
Rp3665
(dp3666
g47
VIN
p3667
sbag36
(g37
g38
(lp3668
g36
(g37
g38
(lp3669
Vbasic
p3670
atp3671
Rp3672
(dp3673
g47
VJJ
p3674
sbag36
(g37
g38
(lp3675
Vconsciousness
p3676
atp3677
Rp3678
(dp3679
g47
VNN
p3680
sbatp3681
Rp3682
(dp3683
g47
VNP
p3684
sbatp3685
Rp3686
(dp3687
g47
VPP
p3688
sbatp3689
Rp3690
(dp3691
g47
VNP
p3692
sbag36
(g37
g38
(lp3693
g36
(g37
g38
(lp3694
Vare
p3695
atp3696
Rp3697
(dp3698
g47
VVBP
p3699
sbag36
(g37
g38
(lp3700
g36
(g37
g38
(lp3701
g36
(g37
g38
(lp3702
Vabout
p3703
atp3704
Rp3705
(dp3706
g47
VIN
p3707
sbag36
(g37
g38
(lp3708
g36
(g37
g38
(lp3709
Vthe
p3710
atp3711
Rp3712
(dp3713
g47
VDT
p3714
sbag36
(g37
g38
(lp3715
Vworld
p3716
atp3717
Rp3718
(dp3719
g47
VNN
p3720
sbatp3721
Rp3722
(dp3723
g47
VNP
p3724
sbatp3725
Rp3726
(dp3727
g47
VPP
p3728
sbag36
(g37
g38
(lp3729
Vand
p3730
atp3731
Rp3732
(dp3733
g47
VCC
p3734
sbag36
(g37
g38
(lp3735
Vnot
p3736
atp3737
Rp3738
(dp3739
g47
VRB
p3740
sbag36
(g37
g38
(lp3741
g36
(g37
g38
(lp3742
Vabout
p3743
atp3744
Rp3745
(dp3746
g47
VIN
p3747
sbag36
(g37
g38
(lp3748
g36
(g37
g38
(lp3749
g36
(g37
g38
(lp3750
Vthe
p3751
atp3752
Rp3753
(dp3754
g47
VDT
p3755
sbag36
(g37
g38
(lp3756
Vsystem
p3757
atp3758
Rp3759
(dp3760
g47
VNN
p3761
sbag36
(g37
g38
(lp3762
V's
p3763
atp3764
Rp3765
(dp3766
g47
VPOS
p3767
sbatp3768
Rp3769
(dp3770
g47
VNP
p3771
sbag36
(g37
g38
(lp3772
Vthoughts
p3773
atp3774
Rp3775
(dp3776
g47
VNNS
p3777
sbatp3778
Rp3779
(dp3780
g47
VNP
p3781
sbatp3782
Rp3783
(dp3784
g47
VPP
p3785
sbatp3786
Rp3787
(dp3788
g47
VPP
p3789
sbatp3790
Rp3791
(dp3792
g47
VVP
p3793
sbag36
(g37
g38
(lp3794
g303
atp3795
Rp3796
(dp3797
g47
g303
sbatp3798
Rp3799
(dp3800
g47
g310
sbatp3801
Rp3802
(dp3803
g47
VROOT
p3804
sbasba(icmyPackage
Sent
p3805
(dp3806
g14
I2
sg29
I5
sg30
S'There is a gray area, and, for example, a proposition that the system is hungry can be looked at the other way.'
p3807
sg32
I0
sg33
I21
sg34
(lp3808
g36
(g37
g38
(lp3809
g36
(g37
g38
(lp3810
g36
(g37
g38
(lp3811
g36
(g37
g38
(lp3812
g36
(g37
g38
(lp3813
VThere
p3814
atp3815
Rp3816
(dp3817
g47
VEX
p3818
sbatp3819
Rp3820
(dp3821
g47
VNP
p3822
sbag36
(g37
g38
(lp3823
g36
(g37
g38
(lp3824
Vis
p3825
atp3826
Rp3827
(dp3828
g47
VVBZ
p3829
sbag36
(g37
g38
(lp3830
g36
(g37
g38
(lp3831
g151
atp3832
Rp3833
(dp3834
g47
VDT
p3835
sbag36
(g37
g38
(lp3836
Vgray
p3837
atp3838
Rp3839
(dp3840
g47
VJJ
p3841
sbag36
(g37
g38
(lp3842
Varea
p3843
atp3844
Rp3845
(dp3846
g47
VNN
p3847
sbatp3848
Rp3849
(dp3850
g47
VNP
p3851
sbatp3852
Rp3853
(dp3854
g47
VVP
p3855
sbatp3856
Rp3857
(dp3858
g47
g310
sbag36
(g37
g38
(lp3859
g104
atp3860
Rp3861
(dp3862
g47
g104
sbag36
(g37
g38
(lp3863
Vand
p3864
atp3865
Rp3866
(dp3867
g47
VCC
p3868
sbag36
(g37
g38
(lp3869
g36
(g37
g38
(lp3870
g104
atp3871
Rp3872
(dp3873
g47
g104
sbag36
(g37
g38
(lp3874
g36
(g37
g38
(lp3875
Vfor
p3876
atp3877
Rp3878
(dp3879
g47
VIN
p3880
sbag36
(g37
g38
(lp3881
g36
(g37
g38
(lp3882
Vexample
p3883
atp3884
Rp3885
(dp3886
g47
VNN
p3887
sbatp3888
Rp3889
(dp3890
g47
VNP
p3891
sbatp3892
Rp3893
(dp3894
g47
VPP
p3895
sbag36
(g37
g38
(lp3896
g104
atp3897
Rp3898
(dp3899
g47
g104
sbatp3900
Rp3901
(dp3902
g47
VPRN
p3903
sbag36
(g37
g38
(lp3904
g36
(g37
g38
(lp3905
g36
(g37
g38
(lp3906
g36
(g37
g38
(lp3907
g151
atp3908
Rp3909
(dp3910
g47
VDT
p3911
sbag36
(g37
g38
(lp3912
Vproposition
p3913
atp3914
Rp3915
(dp3916
g47
VNN
p3917
sbatp3918
Rp3919
(dp3920
g47
VNP
p3921
sbag36
(g37
g38
(lp3922
g36
(g37
g38
(lp3923
Vthat
p3924
atp3925
Rp3926
(dp3927
g47
VIN
p3928
sbag36
(g37
g38
(lp3929
g36
(g37
g38
(lp3930
g36
(g37
g38
(lp3931
Vthe
p3932
atp3933
Rp3934
(dp3935
g47
VDT
p3936
sbag36
(g37
g38
(lp3937
Vsystem
p3938
atp3939
Rp3940
(dp3941
g47
VNN
p3942
sbatp3943
Rp3944
(dp3945
g47
VNP
p3946
sbag36
(g37
g38
(lp3947
g36
(g37
g38
(lp3948
Vis
p3949
atp3950
Rp3951
(dp3952
g47
VVBZ
p3953
sbag36
(g37
g38
(lp3954
g36
(g37
g38
(lp3955
Vhungry
p3956
atp3957
Rp3958
(dp3959
g47
VJJ
p3960
sbatp3961
Rp3962
(dp3963
g47
VADJP
p3964
sbatp3965
Rp3966
(dp3967
g47
VVP
p3968
sbatp3969
Rp3970
(dp3971
g47
g310
sbatp3972
Rp3973
(dp3974
g47
VSBAR
p3975
sbatp3976
Rp3977
(dp3978
g47
VNP
p3979
sbag36
(g37
g38
(lp3980
g36
(g37
g38
(lp3981
Vcan
p3982
atp3983
Rp3984
(dp3985
g47
VMD
p3986
sbag36
(g37
g38
(lp3987
g36
(g37
g38
(lp3988
Vbe
p3989
atp3990
Rp3991
(dp3992
g47
VVB
p3993
sbag36
(g37
g38
(lp3994
g36
(g37
g38
(lp3995
Vlooked
p3996
atp3997
Rp3998
(dp3999
g47
VVBN
p4000
sbag36
(g37
g38
(lp4001
g36
(g37
g38
(lp4002
Vat
p4003
atp4004
Rp4005
(dp4006
g47
VIN
p4007
sbag36
(g37
g38
(lp4008
g36
(g37
g38
(lp4009
Vthe
p4010
atp4011
Rp4012
(dp4013
g47
VDT
p4014
sbag36
(g37
g38
(lp4015
Vother
p4016
atp4017
Rp4018
(dp4019
g47
VJJ
p4020
sbag36
(g37
g38
(lp4021
Vway
p4022
atp4023
Rp4024
(dp4025
g47
VNN
p4026
sbatp4027
Rp4028
(dp4029
g47
VNP
p4030
sbatp4031
Rp4032
(dp4033
g47
VPP
p4034
sbatp4035
Rp4036
(dp4037
g47
VVP
p4038
sbatp4039
Rp4040
(dp4041
g47
VVP
p4042
sbatp4043
Rp4044
(dp4045
g47
VVP
p4046
sbatp4047
Rp4048
(dp4049
g47
g310
sbag36
(g37
g38
(lp4050
g303
atp4051
Rp4052
(dp4053
g47
g303
sbatp4054
Rp4055
(dp4056
g47
g310
sbatp4057
Rp4058
(dp4059
g47
VROOT
p4060
sbasbasg1768
I3
sg29
I5
sg32
I0
sba(icmyPackage
Parag
p4061
(dp4062
g14
I2
sg25
(lp4063
(icmyPackage
Sent
p4064
(dp4065
g14
I2
sg29
I6
sg30
S'images of scenes and objects.'
p4066
sg32
I0
sg33
I22
sg34
(lp4067
g36
(g37
g38
(lp4068
g36
(g37
g38
(lp4069
g36
(g37
g38
(lp4070
g36
(g37
g38
(lp4071
Vimages
p4072
atp4073
Rp4074
(dp4075
g47
VNNS
p4076
sbatp4077
Rp4078
(dp4079
g47
VNP
p4080
sbag36
(g37
g38
(lp4081
g36
(g37
g38
(lp4082
Vof
p4083
atp4084
Rp4085
(dp4086
g47
VIN
p4087
sbag36
(g37
g38
(lp4088
g36
(g37
g38
(lp4089
Vscenes
p4090
atp4091
Rp4092
(dp4093
g47
VNNS
p4094
sbag36
(g37
g38
(lp4095
Vand
p4096
atp4097
Rp4098
(dp4099
g47
VCC
p4100
sbag36
(g37
g38
(lp4101
Vobjects
p4102
atp4103
Rp4104
(dp4105
g47
VNNS
p4106
sbatp4107
Rp4108
(dp4109
g47
VNP
p4110
sbatp4111
Rp4112
(dp4113
g47
VPP
p4114
sbag36
(g37
g38
(lp4115
g303
atp4116
Rp4117
(dp4118
g47
g303
sbatp4119
Rp4120
(dp4121
g47
VNP
p4122
sbatp4123
Rp4124
(dp4125
g47
VROOT
p4126
sbasba(icmyPackage
Sent
p4127
(dp4128
g14
I2
sg29
I6
sg30
S'These may be either remembered images or images of objects currently being sensed.'
p4129
sg32
I0
sg33
I23
sg34
(lp4130
g36
(g37
g38
(lp4131
g36
(g37
g38
(lp4132
g36
(g37
g38
(lp4133
g36
(g37
g38
(lp4134
VThese
p4135
atp4136
Rp4137
(dp4138
g47
VDT
p4139
sbatp4140
Rp4141
(dp4142
g47
VNP
p4143
sbag36
(g37
g38
(lp4144
g36
(g37
g38
(lp4145
Vmay
p4146
atp4147
Rp4148
(dp4149
g47
VMD
p4150
sbag36
(g37
g38
(lp4151
g36
(g37
g38
(lp4152
Vbe
p4153
atp4154
Rp4155
(dp4156
g47
VVB
p4157
sbag36
(g37
g38
(lp4158
g36
(g37
g38
(lp4159
g36
(g37
g38
(lp4160
Veither
p4161
atp4162
Rp4163
(dp4164
g47
VRB
p4165
sbatp4166
Rp4167
(dp4168
g47
VADVP
p4169
sbag36
(g37
g38
(lp4170
Vremembered
p4171
atp4172
Rp4173
(dp4174
g47
VVBN
p4175
sbag36
(g37
g38
(lp4176
g36
(g37
g38
(lp4177
g36
(g37
g38
(lp4178
Vimages
p4179
atp4180
Rp4181
(dp4182
g47
VNNS
p4183
sbag36
(g37
g38
(lp4184
Vor
p4185
atp4186
Rp4187
(dp4188
g47
VCC
p4189
sbag36
(g37
g38
(lp4190
Vimages
p4191
atp4192
Rp4193
(dp4194
g47
VNNS
p4195
sbatp4196
Rp4197
(dp4198
g47
VNP
p4199
sbag36
(g37
g38
(lp4200
g36
(g37
g38
(lp4201
Vof
p4202
atp4203
Rp4204
(dp4205
g47
VIN
p4206
sbag36
(g37
g38
(lp4207
g36
(g37
g38
(lp4208
Vobjects
p4209
atp4210
Rp4211
(dp4212
g47
VNNS
p4213
sbag36
(g37
g38
(lp4214
g36
(g37
g38
(lp4215
g36
(g37
g38
(lp4216
Vcurrently
p4217
atp4218
Rp4219
(dp4220
g47
VRB
p4221
sbatp4222
Rp4223
(dp4224
g47
VADVP
p4225
sbag36
(g37
g38
(lp4226
g36
(g37
g38
(lp4227
Vbeing
p4228
atp4229
Rp4230
(dp4231
g47
VVBG
p4232
sbag36
(g37
g38
(lp4233
g36
(g37
g38
(lp4234
Vsensed
p4235
atp4236
Rp4237
(dp4238
g47
VVBD
p4239
sbatp4240
Rp4241
(dp4242
g47
VVP
p4243
sbatp4244
Rp4245
(dp4246
g47
VVP
p4247
sbatp4248
Rp4249
(dp4250
g47
g310
sbatp4251
Rp4252
(dp4253
g47
VNP
p4254
sbatp4255
Rp4256
(dp4257
g47
VPP
p4258
sbatp4259
Rp4260
(dp4261
g47
VNP
p4262
sbatp4263
Rp4264
(dp4265
g47
VVP
p4266
sbatp4267
Rp4268
(dp4269
g47
VVP
p4270
sbatp4271
Rp4272
(dp4273
g47
VVP
p4274
sbag36
(g37
g38
(lp4275
g303
atp4276
Rp4277
(dp4278
g47
g303
sbatp4279
Rp4280
(dp4281
g47
g310
sbatp4282
Rp4283
(dp4284
g47
VROOT
p4285
sbasba(icmyPackage
Sent
p4286
(dp4287
g14
I2
sg29
I6
sg30
S'By image, I do not mean merely two dimensional visual images such as those projected on the retina.'
p4288
sg32
I0
sg33
I24
sg34
(lp4289
g36
(g37
g38
(lp4290
g36
(g37
g38
(lp4291
g36
(g37
g38
(lp4292
g36
(g37
g38
(lp4293
VBy
p4294
atp4295
Rp4296
(dp4297
g47
VIN
p4298
sbag36
(g37
g38
(lp4299
g36
(g37
g38
(lp4300
Vimage
p4301
atp4302
Rp4303
(dp4304
g47
VNN
p4305
sbatp4306
Rp4307
(dp4308
g47
VNP
p4309
sbatp4310
Rp4311
(dp4312
g47
VPP
p4313
sbag36
(g37
g38
(lp4314
g104
atp4315
Rp4316
(dp4317
g47
g104
sbag36
(g37
g38
(lp4318
g36
(g37
g38
(lp4319
VI
p4320
atp4321
Rp4322
(dp4323
g47
VPRP
p4324
sbatp4325
Rp4326
(dp4327
g47
VNP
p4328
sbag36
(g37
g38
(lp4329
g36
(g37
g38
(lp4330
Vdo
p4331
atp4332
Rp4333
(dp4334
g47
VVBP
p4335
sbag36
(g37
g38
(lp4336
Vnot
p4337
atp4338
Rp4339
(dp4340
g47
VRB
p4341
sbag36
(g37
g38
(lp4342
g36
(g37
g38
(lp4343
Vmean
p4344
atp4345
Rp4346
(dp4347
g47
VVB
p4348
sbag36
(g37
g38
(lp4349
g36
(g37
g38
(lp4350
Vmerely
p4351
atp4352
Rp4353
(dp4354
g47
VRB
p4355
sbatp4356
Rp4357
(dp4358
g47
VADVP
p4359
sbag36
(g37
g38
(lp4360
g36
(g37
g38
(lp4361
g36
(g37
g38
(lp4362
Vtwo
p4363
atp4364
Rp4365
(dp4366
g47
VCD
p4367
sbag36
(g37
g38
(lp4368
Vdimensional
p4369
atp4370
Rp4371
(dp4372
g47
VJJ
p4373
sbag36
(g37
g38
(lp4374
Vvisual
p4375
atp4376
Rp4377
(dp4378
g47
VJJ
p4379
sbag36
(g37
g38
(lp4380
Vimages
p4381
atp4382
Rp4383
(dp4384
g47
VNNS
p4385
sbatp4386
Rp4387
(dp4388
g47
VNP
p4389
sbag36
(g37
g38
(lp4390
g36
(g37
g38
(lp4391
Vsuch
p4392
atp4393
Rp4394
(dp4395
g47
VJJ
p4396
sbag36
(g37
g38
(lp4397
Vas
p4398
atp4399
Rp4400
(dp4401
g47
VIN
p4402
sbag36
(g37
g38
(lp4403
g36
(g37
g38
(lp4404
g36
(g37
g38
(lp4405
Vthose
p4406
atp4407
Rp4408
(dp4409
g47
VDT
p4410
sbatp4411
Rp4412
(dp4413
g47
VNP
p4414
sbag36
(g37
g38
(lp4415
g36
(g37
g38
(lp4416
Vprojected
p4417
atp4418
Rp4419
(dp4420
g47
VVBN
p4421
sbag36
(g37
g38
(lp4422
g36
(g37
g38
(lp4423
Von
p4424
atp4425
Rp4426
(dp4427
g47
VIN
p4428
sbag36
(g37
g38
(lp4429
g36
(g37
g38
(lp4430
Vthe
p4431
atp4432
Rp4433
(dp4434
g47
VDT
p4435
sbag36
(g37
g38
(lp4436
Vretina
p4437
atp4438
Rp4439
(dp4440
g47
VNN
p4441
sbatp4442
Rp4443
(dp4444
g47
VNP
p4445
sbatp4446
Rp4447
(dp4448
g47
VPP
p4449
sbatp4450
Rp4451
(dp4452
g47
VVP
p4453
sbatp4454
Rp4455
(dp4456
g47
VNP
p4457
sbatp4458
Rp4459
(dp4460
g47
VPP
p4461
sbatp4462
Rp4463
(dp4464
g47
VNP
p4465
sbatp4466
Rp4467
(dp4468
g47
VVP
p4469
sbatp4470
Rp4471
(dp4472
g47
VVP
p4473
sbag36
(g37
g38
(lp4474
g303
atp4475
Rp4476
(dp4477
g47
g303
sbatp4478
Rp4479
(dp4480
g47
g310
sbatp4481
Rp4482
(dp4483
g47
VROOT
p4484
sbasba(icmyPackage
Sent
p4485
(dp4486
g14
I2
sg29
I6
sg30
S'Included are auditory images and three dimensional images of objects.'
p4487
sg32
I0
sg33
I25
sg34
(lp4488
g36
(g37
g38
(lp4489
g36
(g37
g38
(lp4490
g36
(g37
g38
(lp4491
g36
(g37
g38
(lp4492
VIncluded
p4493
atp4494
Rp4495
(dp4496
g47
VNNP
p4497
sbatp4498
Rp4499
(dp4500
g47
VNP
p4501
sbag36
(g37
g38
(lp4502
g36
(g37
g38
(lp4503
Vare
p4504
atp4505
Rp4506
(dp4507
g47
VVBP
p4508
sbag36
(g37
g38
(lp4509
g36
(g37
g38
(lp4510
g36
(g37
g38
(lp4511
Vauditory
p4512
atp4513
Rp4514
(dp4515
g47
VJJ
p4516
sbag36
(g37
g38
(lp4517
Vimages
p4518
atp4519
Rp4520
(dp4521
g47
VNNS
p4522
sbatp4523
Rp4524
(dp4525
g47
VNP
p4526
sbag36
(g37
g38
(lp4527
Vand
p4528
atp4529
Rp4530
(dp4531
g47
VCC
p4532
sbag36
(g37
g38
(lp4533
g36
(g37
g38
(lp4534
g36
(g37
g38
(lp4535
Vthree
p4536
atp4537
Rp4538
(dp4539
g47
VCD
p4540
sbag36
(g37
g38
(lp4541
Vdimensional
p4542
atp4543
Rp4544
(dp4545
g47
VJJ
p4546
sbag36
(g37
g38
(lp4547
Vimages
p4548
atp4549
Rp4550
(dp4551
g47
VNNS
p4552
sbatp4553
Rp4554
(dp4555
g47
VNP
p4556
sbag36
(g37
g38
(lp4557
g36
(g37
g38
(lp4558
Vof
p4559
atp4560
Rp4561
(dp4562
g47
VIN
p4563
sbag36
(g37
g38
(lp4564
g36
(g37
g38
(lp4565
Vobjects
p4566
atp4567
Rp4568
(dp4569
g47
VNNS
p4570
sbatp4571
Rp4572
(dp4573
g47
VNP
p4574
sbatp4575
Rp4576
(dp4577
g47
VPP
p4578
sbatp4579
Rp4580
(dp4581
g47
VNP
p4582
sbatp4583
Rp4584
(dp4585
g47
VNP
p4586
sbatp4587
Rp4588
(dp4589
g47
VVP
p4590
sbag36
(g37
g38
(lp4591
g303
atp4592
Rp4593
(dp4594
g47
g303
sbatp4595
Rp4596
(dp4597
g47
g310
sbatp4598
Rp4599
(dp4600
g47
VROOT
p4601
sbasba(icmyPackage
Sent
p4602
(dp4603
g14
I2
sg29
I6
sg30
S"The auditory images of speech are transformed by filters characteristic of the hearer's understanding of the language."
p4604
sg32
I0
sg33
I26
sg34
(lp4605
g36
(g37
g38
(lp4606
g36
(g37
g38
(lp4607
g36
(g37
g38
(lp4608
g36
(g37
g38
(lp4609
g36
(g37
g38
(lp4610
VThe
p4611
atp4612
Rp4613
(dp4614
g47
VDT
p4615
sbag36
(g37
g38
(lp4616
Vauditory
p4617
atp4618
Rp4619
(dp4620
g47
VJJ
p4621
sbag36
(g37
g38
(lp4622
Vimages
p4623
atp4624
Rp4625
(dp4626
g47
VNNS
p4627
sbatp4628
Rp4629
(dp4630
g47
VNP
p4631
sbag36
(g37
g38
(lp4632
g36
(g37
g38
(lp4633
Vof
p4634
atp4635
Rp4636
(dp4637
g47
VIN
p4638
sbag36
(g37
g38
(lp4639
g36
(g37
g38
(lp4640
Vspeech
p4641
atp4642
Rp4643
(dp4644
g47
VNN
p4645
sbatp4646
Rp4647
(dp4648
g47
VNP
p4649
sbatp4650
Rp4651
(dp4652
g47
VPP
p4653
sbatp4654
Rp4655
(dp4656
g47
VNP
p4657
sbag36
(g37
g38
(lp4658
g36
(g37
g38
(lp4659
Vare
p4660
atp4661
Rp4662
(dp4663
g47
VVBP
p4664
sbag36
(g37
g38
(lp4665
g36
(g37
g38
(lp4666
Vtransformed
p4667
atp4668
Rp4669
(dp4670
g47
VVBN
p4671
sbag36
(g37
g38
(lp4672
g36
(g37
g38
(lp4673
Vby
p4674
atp4675
Rp4676
(dp4677
g47
VIN
p4678
sbag36
(g37
g38
(lp4679
g36
(g37
g38
(lp4680
g36
(g37
g38
(lp4681
Vfilters
p4682
atp4683
Rp4684
(dp4685
g47
VNNS
p4686
sbag36
(g37
g38
(lp4687
Vcharacteristic
p4688
atp4689
Rp4690
(dp4691
g47
VNN
p4692
sbatp4693
Rp4694
(dp4695
g47
VNP
p4696
sbag36
(g37
g38
(lp4697
g36
(g37
g38
(lp4698
Vof
p4699
atp4700
Rp4701
(dp4702
g47
VIN
p4703
sbag36
(g37
g38
(lp4704
g36
(g37
g38
(lp4705
g36
(g37
g38
(lp4706
g36
(g37
g38
(lp4707
Vthe
p4708
atp4709
Rp4710
(dp4711
g47
VDT
p4712
sbag36
(g37
g38
(lp4713
Vhearer
p4714
atp4715
Rp4716
(dp4717
g47
VNN
p4718
sbag36
(g37
g38
(lp4719
V's
p4720
atp4721
Rp4722
(dp4723
g47
VPOS
p4724
sbatp4725
Rp4726
(dp4727
g47
VNP
p4728
sbag36
(g37
g38
(lp4729
Vunderstanding
p4730
atp4731
Rp4732
(dp4733
g47
VNN
p4734
sbatp4735
Rp4736
(dp4737
g47
VNP
p4738
sbag36
(g37
g38
(lp4739
g36
(g37
g38
(lp4740
Vof
p4741
atp4742
Rp4743
(dp4744
g47
VIN
p4745
sbag36
(g37
g38
(lp4746
g36
(g37
g38
(lp4747
Vthe
p4748
atp4749
Rp4750
(dp4751
g47
VDT
p4752
sbag36
(g37
g38
(lp4753
Vlanguage
p4754
atp4755
Rp4756
(dp4757
g47
VNN
p4758
sbatp4759
Rp4760
(dp4761
g47
VNP
p4762
sbatp4763
Rp4764
(dp4765
g47
VPP
p4766
sbatp4767
Rp4768
(dp4769
g47
VNP
p4770
sbatp4771
Rp4772
(dp4773
g47
VPP
p4774
sbatp4775
Rp4776
(dp4777
g47
VNP
p4778
sbatp4779
Rp4780
(dp4781
g47
VPP
p4782
sbatp4783
Rp4784
(dp4785
g47
VVP
p4786
sbatp4787
Rp4788
(dp4789
g47
VVP
p4790
sbag36
(g37
g38
(lp4791
g303
atp4792
Rp4793
(dp4794
g47
g303
sbatp4795
Rp4796
(dp4797
g47
g310
sbatp4798
Rp4799
(dp4800
g47
VROOT
p4801
sbasba(icmyPackage
Sent
p4802
(dp4803
g14
I2
sg29
I6
sg30
S'The images of three dimensional objects involve vision, touch and also experience with the particular kind of object.'
p4804
sg32
I0
sg33
I27
sg34
(lp4805
g36
(g37
g38
(lp4806
g36
(g37
g38
(lp4807
g36
(g37
g38
(lp4808
g36
(g37
g38
(lp4809
g36
(g37
g38
(lp4810
VThe
p4811
atp4812
Rp4813
(dp4814
g47
VDT
p4815
sbag36
(g37
g38
(lp4816
Vimages
p4817
atp4818
Rp4819
(dp4820
g47
VNNS
p4821
sbatp4822
Rp4823
(dp4824
g47
VNP
p4825
sbag36
(g37
g38
(lp4826
g36
(g37
g38
(lp4827
Vof
p4828
atp4829
Rp4830
(dp4831
g47
VIN
p4832
sbag36
(g37
g38
(lp4833
g36
(g37
g38
(lp4834
Vthree
p4835
atp4836
Rp4837
(dp4838
g47
VCD
p4839
sbag36
(g37
g38
(lp4840
Vdimensional
p4841
atp4842
Rp4843
(dp4844
g47
VJJ
p4845
sbag36
(g37
g38
(lp4846
Vobjects
p4847
atp4848
Rp4849
(dp4850
g47
VNNS
p4851
sbatp4852
Rp4853
(dp4854
g47
VNP
p4855
sbatp4856
Rp4857
(dp4858
g47
VPP
p4859
sbatp4860
Rp4861
(dp4862
g47
VNP
p4863
sbag36
(g37
g38
(lp4864
g36
(g37
g38
(lp4865
Vinvolve
p4866
atp4867
Rp4868
(dp4869
g47
VVBP
p4870
sbag36
(g37
g38
(lp4871
g36
(g37
g38
(lp4872
g36
(g37
g38
(lp4873
Vvision
p4874
atp4875
Rp4876
(dp4877
g47
VNN
p4878
sbatp4879
Rp4880
(dp4881
g47
VNP
p4882
sbag36
(g37
g38
(lp4883
g104
atp4884
Rp4885
(dp4886
g47
g104
sbag36
(g37
g38
(lp4887
g36
(g37
g38
(lp4888
Vtouch
p4889
atp4890
Rp4891
(dp4892
g47
VNN
p4893
sbatp4894
Rp4895
(dp4896
g47
VNP
p4897
sbag36
(g37
g38
(lp4898
Vand
p4899
atp4900
Rp4901
(dp4902
g47
VCC
p4903
sbag36
(g37
g38
(lp4904
g36
(g37
g38
(lp4905
Valso
p4906
atp4907
Rp4908
(dp4909
g47
VRB
p4910
sbatp4911
Rp4912
(dp4913
g47
VADVP
p4914
sbag36
(g37
g38
(lp4915
g36
(g37
g38
(lp4916
g36
(g37
g38
(lp4917
Vexperience
p4918
atp4919
Rp4920
(dp4921
g47
VNN
p4922
sbatp4923
Rp4924
(dp4925
g47
VNP
p4926
sbag36
(g37
g38
(lp4927
g36
(g37
g38
(lp4928
Vwith
p4929
atp4930
Rp4931
(dp4932
g47
VIN
p4933
sbag36
(g37
g38
(lp4934
g36
(g37
g38
(lp4935
g36
(g37
g38
(lp4936
Vthe
p4937
atp4938
Rp4939
(dp4940
g47
VDT
p4941
sbag36
(g37
g38
(lp4942
Vparticular
p4943
atp4944
Rp4945
(dp4946
g47
VJJ
p4947
sbag36
(g37
g38
(lp4948
Vkind
p4949
atp4950
Rp4951
(dp4952
g47
VNN
p4953
sbatp4954
Rp4955
(dp4956
g47
VNP
p4957
sbag36
(g37
g38
(lp4958
g36
(g37
g38
(lp4959
Vof
p4960
atp4961
Rp4962
(dp4963
g47
VIN
p4964
sbag36
(g37
g38
(lp4965
g36
(g37
g38
(lp4966
Vobject
p4967
atp4968
Rp4969
(dp4970
g47
VNN
p4971
sbatp4972
Rp4973
(dp4974
g47
VNP
p4975
sbatp4976
Rp4977
(dp4978
g47
VPP
p4979
sbatp4980
Rp4981
(dp4982
g47
VNP
p4983
sbatp4984
Rp4985
(dp4986
g47
VPP
p4987
sbatp4988
Rp4989
(dp4990
g47
VNP
p4991
sbatp4992
Rp4993
(dp4994
g47
VNP
p4995
sbatp4996
Rp4997
(dp4998
g47
VVP
p4999
sbag36
(g37
g38
(lp5000
g303
atp5001
Rp5002
(dp5003
g47
g303
sbatp5004
Rp5005
(dp5006
g47
g310
sbatp5007
Rp5008
(dp5009
g47
VROOT
p5010
sbasba(icmyPackage
Sent
p5011
(dp5012
g14
I2
sg29
I6
sg30
S'Much more can be said about images, but it is inessential for this review, except to make the point that the actual details are important in understanding consciousness.'
p5013
sg32
I0
sg33
I28
sg34
(lp5014
g36
(g37
g38
(lp5015
g36
(g37
g38
(lp5016
g36
(g37
g38
(lp5017
g36
(g37
g38
(lp5018
g36
(g37
g38
(lp5019
VMuch
p5020
atp5021
Rp5022
(dp5023
g47
VRB
p5024
sbag36
(g37
g38
(lp5025
Vmore
p5026
atp5027
Rp5028
(dp5029
g47
VRBR
p5030
sbatp5031
Rp5032
(dp5033
g47
VNP
p5034
sbag36
(g37
g38
(lp5035
g36
(g37
g38
(lp5036
Vcan
p5037
atp5038
Rp5039
(dp5040
g47
VMD
p5041
sbag36
(g37
g38
(lp5042
g36
(g37
g38
(lp5043
Vbe
p5044
atp5045
Rp5046
(dp5047
g47
VVB
p5048
sbag36
(g37
g38
(lp5049
g36
(g37
g38
(lp5050
Vsaid
p5051
atp5052
Rp5053
(dp5054
g47
VVBN
p5055
sbag36
(g37
g38
(lp5056
g36
(g37
g38
(lp5057
Vabout
p5058
atp5059
Rp5060
(dp5061
g47
VIN
p5062
sbag36
(g37
g38
(lp5063
g36
(g37
g38
(lp5064
Vimages
p5065
atp5066
Rp5067
(dp5068
g47
VNNS
p5069
sbatp5070
Rp5071
(dp5072
g47
VNP
p5073
sbatp5074
Rp5075
(dp5076
g47
VPP
p5077
sbatp5078
Rp5079
(dp5080
g47
VVP
p5081
sbatp5082
Rp5083
(dp5084
g47
VVP
p5085
sbatp5086
Rp5087
(dp5088
g47
VVP
p5089
sbatp5090
Rp5091
(dp5092
g47
g310
sbag36
(g37
g38
(lp5093
g104
atp5094
Rp5095
(dp5096
g47
g104
sbag36
(g37
g38
(lp5097
Vbut
p5098
atp5099
Rp5100
(dp5101
g47
VCC
p5102
sbag36
(g37
g38
(lp5103
g36
(g37
g38
(lp5104
g36
(g37
g38
(lp5105
Vit
p5106
atp5107
Rp5108
(dp5109
g47
VPRP
p5110
sbatp5111
Rp5112
(dp5113
g47
VNP
p5114
sbag36
(g37
g38
(lp5115
g36
(g37
g38
(lp5116
Vis
p5117
atp5118
Rp5119
(dp5120
g47
VVBZ
p5121
sbag36
(g37
g38
(lp5122
g36
(g37
g38
(lp5123
Vinessential
p5124
atp5125
Rp5126
(dp5127
g47
VJJ
p5128
sbatp5129
Rp5130
(dp5131
g47
VADJP
p5132
sbag36
(g37
g38
(lp5133
g36
(g37
g38
(lp5134
Vfor
p5135
atp5136
Rp5137
(dp5138
g47
VIN
p5139
sbag36
(g37
g38
(lp5140
g36
(g37
g38
(lp5141
Vthis
p5142
atp5143
Rp5144
(dp5145
g47
VDT
p5146
sbag36
(g37
g38
(lp5147
Vreview
p5148
atp5149
Rp5150
(dp5151
g47
VNN
p5152
sbatp5153
Rp5154
(dp5155
g47
VNP
p5156
sbatp5157
Rp5158
(dp5159
g47
VPP
p5160
sbag36
(g37
g38
(lp5161
g36
(g37
g38
(lp5162
g104
atp5163
Rp5164
(dp5165
g47
g104
sbag36
(g37
g38
(lp5166
Vexcept
p5167
atp5168
Rp5169
(dp5170
g47
VIN
p5171
sbag36
(g37
g38
(lp5172
g36
(g37
g38
(lp5173
g36
(g37
g38
(lp5174
Vto
p5175
atp5176
Rp5177
(dp5178
g47
VTO
p5179
sbag36
(g37
g38
(lp5180
g36
(g37
g38
(lp5181
Vmake
p5182
atp5183
Rp5184
(dp5185
g47
VVB
p5186
sbag36
(g37
g38
(lp5187
g36
(g37
g38
(lp5188
Vthe
p5189
atp5190
Rp5191
(dp5192
g47
VDT
p5193
sbag36
(g37
g38
(lp5194
Vpoint
p5195
atp5196
Rp5197
(dp5198
g47
VNN
p5199
sbatp5200
Rp5201
(dp5202
g47
VNP
p5203
sbatp5204
Rp5205
(dp5206
g47
VVP
p5207
sbatp5208
Rp5209
(dp5210
g47
VVP
p5211
sbatp5212
Rp5213
(dp5214
g47
g310
sbatp5215
Rp5216
(dp5217
g47
VPRN
p5218
sbag36
(g37
g38
(lp5219
g36
(g37
g38
(lp5220
Vthat
p5221
atp5222
Rp5223
(dp5224
g47
VIN
p5225
sbag36
(g37
g38
(lp5226
g36
(g37
g38
(lp5227
g36
(g37
g38
(lp5228
Vthe
p5229
atp5230
Rp5231
(dp5232
g47
VDT
p5233
sbag36
(g37
g38
(lp5234
Vactual
p5235
atp5236
Rp5237
(dp5238
g47
VJJ
p5239
sbag36
(g37
g38
(lp5240
Vdetails
p5241
atp5242
Rp5243
(dp5244
g47
VNNS
p5245
sbatp5246
Rp5247
(dp5248
g47
VNP
p5249
sbag36
(g37
g38
(lp5250
g36
(g37
g38
(lp5251
Vare
p5252
atp5253
Rp5254
(dp5255
g47
VVBP
p5256
sbag36
(g37
g38
(lp5257
g36
(g37
g38
(lp5258
Vimportant
p5259
atp5260
Rp5261
(dp5262
g47
VJJ
p5263
sbag36
(g37
g38
(lp5264
g36
(g37
g38
(lp5265
Vin
p5266
atp5267
Rp5268
(dp5269
g47
VIN
p5270
sbag36
(g37
g38
(lp5271
g36
(g37
g38
(lp5272
g36
(g37
g38
(lp5273
Vunderstanding
p5274
atp5275
Rp5276
(dp5277
g47
VVBG
p5278
sbag36
(g37
g38
(lp5279
g36
(g37
g38
(lp5280
Vconsciousness
p5281
atp5282
Rp5283
(dp5284
g47
VNN
p5285
sbatp5286
Rp5287
(dp5288
g47
VNP
p5289
sbatp5290
Rp5291
(dp5292
g47
VVP
p5293
sbatp5294
Rp5295
(dp5296
g47
g310
sbatp5297
Rp5298
(dp5299
g47
VPP
p5300
sbatp5301
Rp5302
(dp5303
g47
VADJP
p5304
sbatp5305
Rp5306
(dp5307
g47
VVP
p5308
sbatp5309
Rp5310
(dp5311
g47
g310
sbatp5312
Rp5313
(dp5314
g47
VSBAR
p5315
sbatp5316
Rp5317
(dp5318
g47
VVP
p5319
sbatp5320
Rp5321
(dp5322
g47
g310
sbag36
(g37
g38
(lp5323
g303
atp5324
Rp5325
(dp5326
g47
g303
sbatp5327
Rp5328
(dp5329
g47
g310
sbatp5330
Rp5331
(dp5332
g47
VROOT
p5333
sbasbasg1768
I7
sg29
I6
sg32
I0
sbasg32
I0
sbasg3485
I1
sg3486
S'Basic Consciousness'
p5334
sg20
I3
sg21
(lp5335
g3495
ag3610
ag4061
asba(icmyPackage
Sec
p5336
(dp5337
g14
I3
sg15
(lp5338
(icmyPackage
SubSec
p5339
(dp5340
g14
I3
sg19
Nsg20
I9
sg21
(lp5341
(icmyPackage
Parag
p5342
(dp5343
g14
I3
sg25
(lp5344
(icmyPackage
Sent
p5345
(dp5346
g14
I3
sg29
I7
sg30
S'[McC95] discusses the kinds of consciousness of its own mental processes a robot will require in order to behave intelligently.'
p5347
sg32
I0
sg33
I29
sg34
(lp5348
g36
(g37
g38
(lp5349
g36
(g37
g38
(lp5350
g36
(g37
g38
(lp5351
g36
(g37
g38
(lp5352
V-LSB-
p5353
atp5354
Rp5355
(dp5356
g47
VNNP
p5357
sbag36
(g37
g38
(lp5358
VMcC95
p5359
atp5360
Rp5361
(dp5362
g47
VNNP
p5363
sbag36
(g37
g38
(lp5364
V-RSB-
p5365
atp5366
Rp5367
(dp5368
g47
VNNP
p5369
sbatp5370
Rp5371
(dp5372
g47
VNP
p5373
sbag36
(g37
g38
(lp5374
g36
(g37
g38
(lp5375
Vdiscusses
p5376
atp5377
Rp5378
(dp5379
g47
VVBZ
p5380
sbag36
(g37
g38
(lp5381
g36
(g37
g38
(lp5382
g36
(g37
g38
(lp5383
Vthe
p5384
atp5385
Rp5386
(dp5387
g47
VDT
p5388
sbag36
(g37
g38
(lp5389
Vkinds
p5390
atp5391
Rp5392
(dp5393
g47
VNNS
p5394
sbatp5395
Rp5396
(dp5397
g47
VNP
p5398
sbag36
(g37
g38
(lp5399
g36
(g37
g38
(lp5400
Vof
p5401
atp5402
Rp5403
(dp5404
g47
VIN
p5405
sbag36
(g37
g38
(lp5406
g36
(g37
g38
(lp5407
g36
(g37
g38
(lp5408
Vconsciousness
p5409
atp5410
Rp5411
(dp5412
g47
VNN
p5413
sbatp5414
Rp5415
(dp5416
g47
VNP
p5417
sbag36
(g37
g38
(lp5418
g36
(g37
g38
(lp5419
Vof
p5420
atp5421
Rp5422
(dp5423
g47
VIN
p5424
sbag36
(g37
g38
(lp5425
g36
(g37
g38
(lp5426
Vits
p5427
atp5428
Rp5429
(dp5430
g47
VPRP$
p5431
sbag36
(g37
g38
(lp5432
Vown
p5433
atp5434
Rp5435
(dp5436
g47
VJJ
p5437
sbag36
(g37
g38
(lp5438
Vmental
p5439
atp5440
Rp5441
(dp5442
g47
VJJ
p5443
sbag36
(g37
g38
(lp5444
Vprocesses
p5445
atp5446
Rp5447
(dp5448
g47
VNNS
p5449
sbatp5450
Rp5451
(dp5452
g47
VNP
p5453
sbatp5454
Rp5455
(dp5456
g47
VPP
p5457
sbatp5458
Rp5459
(dp5460
g47
VNP
p5461
sbatp5462
Rp5463
(dp5464
g47
VPP
p5465
sbag36
(g37
g38
(lp5466
g36
(g37
g38
(lp5467
g36
(g37
g38
(lp5468
g36
(g37
g38
(lp5469
g151
atp5470
Rp5471
(dp5472
g47
VDT
p5473
sbag36
(g37
g38
(lp5474
Vrobot
p5475
atp5476
Rp5477
(dp5478
g47
VNN
p5479
sbatp5480
Rp5481
(dp5482
g47
VNP
p5483
sbag36
(g37
g38
(lp5484
g36
(g37
g38
(lp5485
Vwill
p5486
atp5487
Rp5488
(dp5489
g47
VMD
p5490
sbag36
(g37
g38
(lp5491
g36
(g37
g38
(lp5492
Vrequire
p5493
atp5494
Rp5495
(dp5496
g47
VVB
p5497
sbag36
(g37
g38
(lp5498
g36
(g37
g38
(lp5499
Vin
p5500
atp5501
Rp5502
(dp5503
g47
VIN
p5504
sbag36
(g37
g38
(lp5505
Vorder
p5506
atp5507
Rp5508
(dp5509
g47
VNN
p5510
sbag36
(g37
g38
(lp5511
g36
(g37
g38
(lp5512
g36
(g37
g38
(lp5513
Vto
p5514
atp5515
Rp5516
(dp5517
g47
VTO
p5518
sbag36
(g37
g38
(lp5519
g36
(g37
g38
(lp5520
Vbehave
p5521
atp5522
Rp5523
(dp5524
g47
VVB
p5525
sbag36
(g37
g38
(lp5526
g36
(g37
g38
(lp5527
Vintelligently
p5528
atp5529
Rp5530
(dp5531
g47
VRB
p5532
sbatp5533
Rp5534
(dp5535
g47
VADVP
p5536
sbatp5537
Rp5538
(dp5539
g47
VVP
p5540
sbatp5541
Rp5542
(dp5543
g47
VVP
p5544
sbatp5545
Rp5546
(dp5547
g47
g310
sbatp5548
Rp5549
(dp5550
g47
VSBAR
p5551
sbatp5552
Rp5553
(dp5554
g47
VVP
p5555
sbatp5556
Rp5557
(dp5558
g47
VVP
p5559
sbatp5560
Rp5561
(dp5562
g47
g310
sbatp5563
Rp5564
(dp5565
g47
VSBAR
p5566
sbatp5567
Rp5568
(dp5569
g47
VNP
p5570
sbatp5571
Rp5572
(dp5573
g47
VVP
p5574
sbag36
(g37
g38
(lp5575
g303
atp5576
Rp5577
(dp5578
g47
g303
sbatp5579
Rp5580
(dp5581
g47
g310
sbatp5582
Rp5583
(dp5584
g47
VROOT
p5585
sbasba(icmyPackage
Sent
p5586
(dp5587
g14
I3
sg29
I7
sg30
S'Here are a few of them.'
p5588
sg32
I0
sg33
I30
sg34
(lp5589
g36
(g37
g38
(lp5590
g36
(g37
g38
(lp5591
g36
(g37
g38
(lp5592
g36
(g37
g38
(lp5593
VHere
p5594
atp5595
Rp5596
(dp5597
g47
VRB
p5598
sbatp5599
Rp5600
(dp5601
g47
VADVP
p5602
sbag36
(g37
g38
(lp5603
Vare
p5604
atp5605
Rp5606
(dp5607
g47
VVBP
p5608
sbag36
(g37
g38
(lp5609
g36
(g37
g38
(lp5610
g36
(g37
g38
(lp5611
g151
atp5612
Rp5613
(dp5614
g47
VDT
p5615
sbag36
(g37
g38
(lp5616
Vfew
p5617
atp5618
Rp5619
(dp5620
g47
VJJ
p5621
sbatp5622
Rp5623
(dp5624
g47
VNP
p5625
sbag36
(g37
g38
(lp5626
g36
(g37
g38
(lp5627
Vof
p5628
atp5629
Rp5630
(dp5631
g47
VIN
p5632
sbag36
(g37
g38
(lp5633
g36
(g37
g38
(lp5634
Vthem
p5635
atp5636
Rp5637
(dp5638
g47
VPRP
p5639
sbatp5640
Rp5641
(dp5642
g47
VNP
p5643
sbatp5644
Rp5645
(dp5646
g47
VPP
p5647
sbatp5648
Rp5649
(dp5650
g47
VNP
p5651
sbag36
(g37
g38
(lp5652
g303
atp5653
Rp5654
(dp5655
g47
g303
sbatp5656
Rp5657
(dp5658
g47
VSINV
p5659
sbatp5660
Rp5661
(dp5662
g47
VROOT
p5663
sbasbasg1768
I2
sg29
I7
sg32
I0
sba(icmyPackage
Parag
p5664
(dp5665
g14
I3
sg25
(lp5666
(icmyPackage
Sent
p5667
(dp5668
g14
I3
sg29
I8
sg30
S'1) Keeping a journal of physical and intellectual events so it can refer to its past beliefs, observations and actions.'
p5669
sg32
I0
sg33
I31
sg34
(lp5670
g36
(g37
g38
(lp5671
g36
(g37
g38
(lp5672
g36
(g37
g38
(lp5673
g36
(g37
g38
(lp5674
V1
p5675
atp5676
Rp5677
(dp5678
g47
VLS
p5679
sbag36
(g37
g38
(lp5680
V-RRB-
p5681
atp5682
Rp5683
(dp5684
g47
V-RRB-
p5685
sbatp5686
Rp5687
(dp5688
g47
VLST
p5689
sbag36
(g37
g38
(lp5690
g36
(g37
g38
(lp5691
VKeeping
p5692
atp5693
Rp5694
(dp5695
g47
VVB
p5696
sbag36
(g37
g38
(lp5697
g36
(g37
g38
(lp5698
g36
(g37
g38
(lp5699
g151
atp5700
Rp5701
(dp5702
g47
VDT
p5703
sbag36
(g37
g38
(lp5704
Vjournal
p5705
atp5706
Rp5707
(dp5708
g47
VNN
p5709
sbatp5710
Rp5711
(dp5712
g47
VNP
p5713
sbag36
(g37
g38
(lp5714
g36
(g37
g38
(lp5715
Vof
p5716
atp5717
Rp5718
(dp5719
g47
VIN
p5720
sbag36
(g37
g38
(lp5721
g36
(g37
g38
(lp5722
Vphysical
p5723
atp5724
Rp5725
(dp5726
g47
VJJ
p5727
sbag36
(g37
g38
(lp5728
Vand
p5729
atp5730
Rp5731
(dp5732
g47
VCC
p5733
sbag36
(g37
g38
(lp5734
Vintellectual
p5735
atp5736
Rp5737
(dp5738
g47
VJJ
p5739
sbag36
(g37
g38
(lp5740
Vevents
p5741
atp5742
Rp5743
(dp5744
g47
VNNS
p5745
sbatp5746
Rp5747
(dp5748
g47
VNP
p5749
sbatp5750
Rp5751
(dp5752
g47
VPP
p5753
sbatp5754
Rp5755
(dp5756
g47
VNP
p5757
sbag36
(g37
g38
(lp5758
g36
(g37
g38
(lp5759
Vso
p5760
atp5761
Rp5762
(dp5763
g47
VIN
p5764
sbag36
(g37
g38
(lp5765
g36
(g37
g38
(lp5766
g36
(g37
g38
(lp5767
Vit
p5768
atp5769
Rp5770
(dp5771
g47
VPRP
p5772
sbatp5773
Rp5774
(dp5775
g47
VNP
p5776
sbag36
(g37
g38
(lp5777
g36
(g37
g38
(lp5778
Vcan
p5779
atp5780
Rp5781
(dp5782
g47
VMD
p5783
sbag36
(g37
g38
(lp5784
g36
(g37
g38
(lp5785
Vrefer
p5786
atp5787
Rp5788
(dp5789
g47
VVB
p5790
sbag36
(g37
g38
(lp5791
g36
(g37
g38
(lp5792
Vto
p5793
atp5794
Rp5795
(dp5796
g47
VTO
p5797
sbag36
(g37
g38
(lp5798
g36
(g37
g38
(lp5799
Vits
p5800
atp5801
Rp5802
(dp5803
g47
VPRP$
p5804
sbag36
(g37
g38
(lp5805
Vpast
p5806
atp5807
Rp5808
(dp5809
g47
VJJ
p5810
sbag36
(g37
g38
(lp5811
Vbeliefs
p5812
atp5813
Rp5814
(dp5815
g47
VNNS
p5816
sbag36
(g37
g38
(lp5817
g104
atp5818
Rp5819
(dp5820
g47
g104
sbag36
(g37
g38
(lp5821
Vobservations
p5822
atp5823
Rp5824
(dp5825
g47
VNNS
p5826
sbag36
(g37
g38
(lp5827
Vand
p5828
atp5829
Rp5830
(dp5831
g47
VCC
p5832
sbag36
(g37
g38
(lp5833
Vactions
p5834
atp5835
Rp5836
(dp5837
g47
VNNS
p5838
sbatp5839
Rp5840
(dp5841
g47
VNP
p5842
sbatp5843
Rp5844
(dp5845
g47
VPP
p5846
sbatp5847
Rp5848
(dp5849
g47
VVP
p5850
sbatp5851
Rp5852
(dp5853
g47
VVP
p5854
sbatp5855
Rp5856
(dp5857
g47
g310
sbatp5858
Rp5859
(dp5860
g47
VSBAR
p5861
sbatp5862
Rp5863
(dp5864
g47
VVP
p5865
sbag36
(g37
g38
(lp5866
g303
atp5867
Rp5868
(dp5869
g47
g303
sbatp5870
Rp5871
(dp5872
g47
g310
sbatp5873
Rp5874
(dp5875
g47
VROOT
p5876
sbasbasg1768
I1
sg29
I8
sg32
I0
sba(icmyPackage
Parag
p5877
(dp5878
g14
I3
sg25
(lp5879
(icmyPackage
Sent
p5880
(dp5881
g14
I3
sg29
I9
sg30
S'2) Observing its goal structure and forming sentences about it.'
p5882
sg32
I0
sg33
I32
sg34
(lp5883
g36
(g37
g38
(lp5884
g36
(g37
g38
(lp5885
g36
(g37
g38
(lp5886
g36
(g37
g38
(lp5887
V2
p5888
atp5889
Rp5890
(dp5891
g47
VLS
p5892
sbatp5893
Rp5894
(dp5895
g47
VLST
p5896
sbag36
(g37
g38
(lp5897
V-RRB-
p5898
atp5899
Rp5900
(dp5901
g47
V-RRB-
p5902
sbag36
(g37
g38
(lp5903
g36
(g37
g38
(lp5904
g36
(g37
g38
(lp5905
VObserving
p5906
atp5907
Rp5908
(dp5909
g47
VVBG
p5910
sbag36
(g37
g38
(lp5911
g36
(g37
g38
(lp5912
Vits
p5913
atp5914
Rp5915
(dp5916
g47
VPRP$
p5917
sbag36
(g37
g38
(lp5918
Vgoal
p5919
atp5920
Rp5921
(dp5922
g47
VNN
p5923
sbag36
(g37
g38
(lp5924
Vstructure
p5925
atp5926
Rp5927
(dp5928
g47
VNN
p5929
sbatp5930
Rp5931
(dp5932
g47
VNP
p5933
sbatp5934
Rp5935
(dp5936
g47
VVP
p5937
sbatp5938
Rp5939
(dp5940
g47
g310
sbag36
(g37
g38
(lp5941
Vand
p5942
atp5943
Rp5944
(dp5945
g47
VCC
p5946
sbag36
(g37
g38
(lp5947
g36
(g37
g38
(lp5948
g36
(g37
g38
(lp5949
Vforming
p5950
atp5951
Rp5952
(dp5953
g47
VVBG
p5954
sbag36
(g37
g38
(lp5955
g36
(g37
g38
(lp5956
Vsentences
p5957
atp5958
Rp5959
(dp5960
g47
VNNS
p5961
sbatp5962
Rp5963
(dp5964
g47
VNP
p5965
sbag36
(g37
g38
(lp5966
g36
(g37
g38
(lp5967
Vabout
p5968
atp5969
Rp5970
(dp5971
g47
VIN
p5972
sbag36
(g37
g38
(lp5973
g36
(g37
g38
(lp5974
Vit
p5975
atp5976
Rp5977
(dp5978
g47
VPRP
p5979
sbatp5980
Rp5981
(dp5982
g47
VNP
p5983
sbatp5984
Rp5985
(dp5986
g47
VPP
p5987
sbatp5988
Rp5989
(dp5990
g47
VVP
p5991
sbatp5992
Rp5993
(dp5994
g47
g310
sbag36
(g37
g38
(lp5995
g303
atp5996
Rp5997
(dp5998
g47
g303
sbatp5999
Rp6000
(dp6001
g47
g310
sbatp6002
Rp6003
(dp6004
g47
VROOT
p6005
sbasba(icmyPackage
Sent
p6006
(dp6007
g14
I3
sg29
I9
sg30
S"Notice that merely having a stack of subgoals doesn't achieve this unless the stack is observable and not merely obeyable."
p6008
sg32
I0
sg33
I33
sg34
(lp6009
g36
(g37
g38
(lp6010
g36
(g37
g38
(lp6011
g36
(g37
g38
(lp6012
g36
(g37
g38
(lp6013
g36
(g37
g38
(lp6014
VNotice
p6015
atp6016
Rp6017
(dp6018
g47
VNNP
p6019
sbatp6020
Rp6021
(dp6022
g47
VNP
p6023
sbag36
(g37
g38
(lp6024
g36
(g37
g38
(lp6025
g36
(g37
g38
(lp6026
Vthat
p6027
atp6028
Rp6029
(dp6030
g47
VWDT
p6031
sbatp6032
Rp6033
(dp6034
g47
VWHNP
p6035
sbag36
(g37
g38
(lp6036
g36
(g37
g38
(lp6037
g36
(g37
g38
(lp6038
Vmerely
p6039
atp6040
Rp6041
(dp6042
g47
VRB
p6043
sbatp6044
Rp6045
(dp6046
g47
VADVP
p6047
sbag36
(g37
g38
(lp6048
g36
(g37
g38
(lp6049
Vhaving
p6050
atp6051
Rp6052
(dp6053
g47
VVBG
p6054
sbag36
(g37
g38
(lp6055
g36
(g37
g38
(lp6056
g36
(g37
g38
(lp6057
g151
atp6058
Rp6059
(dp6060
g47
VDT
p6061
sbag36
(g37
g38
(lp6062
Vstack
p6063
atp6064
Rp6065
(dp6066
g47
VNN
p6067
sbatp6068
Rp6069
(dp6070
g47
VNP
p6071
sbag36
(g37
g38
(lp6072
g36
(g37
g38
(lp6073
Vof
p6074
atp6075
Rp6076
(dp6077
g47
VIN
p6078
sbag36
(g37
g38
(lp6079
g36
(g37
g38
(lp6080
Vsubgoals
p6081
atp6082
Rp6083
(dp6084
g47
VNNS
p6085
sbatp6086
Rp6087
(dp6088
g47
VNP
p6089
sbatp6090
Rp6091
(dp6092
g47
VPP
p6093
sbatp6094
Rp6095
(dp6096
g47
VNP
p6097
sbatp6098
Rp6099
(dp6100
g47
VVP
p6101
sbatp6102
Rp6103
(dp6104
g47
g310
sbatp6105
Rp6106
(dp6107
g47
VSBAR
p6108
sbatp6109
Rp6110
(dp6111
g47
VNP
p6112
sbag36
(g37
g38
(lp6113
g36
(g37
g38
(lp6114
Vdoes
p6115
atp6116
Rp6117
(dp6118
g47
VVBZ
p6119
sbag36
(g37
g38
(lp6120
Vn't
p6121
atp6122
Rp6123
(dp6124
g47
VRB
p6125
sbag36
(g37
g38
(lp6126
g36
(g37
g38
(lp6127
Vachieve
p6128
atp6129
Rp6130
(dp6131
g47
VVB
p6132
sbag36
(g37
g38
(lp6133
g36
(g37
g38
(lp6134
Vthis
p6135
atp6136
Rp6137
(dp6138
g47
VDT
p6139
sbatp6140
Rp6141
(dp6142
g47
VNP
p6143
sbag36
(g37
g38
(lp6144
g36
(g37
g38
(lp6145
Vunless
p6146
atp6147
Rp6148
(dp6149
g47
VIN
p6150
sbag36
(g37
g38
(lp6151
g36
(g37
g38
(lp6152
g36
(g37
g38
(lp6153
Vthe
p6154
atp6155
Rp6156
(dp6157
g47
VDT
p6158
sbag36
(g37
g38
(lp6159
Vstack
p6160
atp6161
Rp6162
(dp6163
g47
VNN
p6164
sbatp6165
Rp6166
(dp6167
g47
VNP
p6168
sbag36
(g37
g38
(lp6169
g36
(g37
g38
(lp6170
Vis
p6171
atp6172
Rp6173
(dp6174
g47
VVBZ
p6175
sbag36
(g37
g38
(lp6176
g36
(g37
g38
(lp6177
g36
(g37
g38
(lp6178
Vobservable
p6179
atp6180
Rp6181
(dp6182
g47
VJJ
p6183
sbatp6184
Rp6185
(dp6186
g47
VADJP
p6187
sbag36
(g37
g38
(lp6188
Vand
p6189
atp6190
Rp6191
(dp6192
g47
VCC
p6193
sbag36
(g37
g38
(lp6194
g36
(g37
g38
(lp6195
Vnot
p6196
atp6197
Rp6198
(dp6199
g47
VRB
p6200
sbag36
(g37
g38
(lp6201
Vmerely
p6202
atp6203
Rp6204
(dp6205
g47
VRB
p6206
sbag36
(g37
g38
(lp6207
Vobeyable
p6208
atp6209
Rp6210
(dp6211
g47
VJJ
p6212
sbatp6213
Rp6214
(dp6215
g47
VADJP
p6216
sbatp6217
Rp6218
(dp6219
g47
VADJP
p6220
sbatp6221
Rp6222
(dp6223
g47
VVP
p6224
sbatp6225
Rp6226
(dp6227
g47
g310
sbatp6228
Rp6229
(dp6230
g47
VSBAR
p6231
sbatp6232
Rp6233
(dp6234
g47
VVP
p6235
sbatp6236
Rp6237
(dp6238
g47
VVP
p6239
sbag36
(g37
g38
(lp6240
g303
atp6241
Rp6242
(dp6243
g47
g303
sbatp6244
Rp6245
(dp6246
g47
g310
sbatp6247
Rp6248
(dp6249
g47
VROOT
p6250
sbasbasg1768
I2
sg29
I9
sg32
I0
sba(icmyPackage
Parag
p6251
(dp6252
g14
I3
sg25
(lp6253
(icmyPackage
Sent
p6254
(dp6255
g14
I3
sg29
I10
sg30
S'3) The robot may intend to perform a certain action.'
p6256
sg32
I0
sg33
I34
sg34
(lp6257
g36
(g37
g38
(lp6258
g36
(g37
g38
(lp6259
g36
(g37
g38
(lp6260
g36
(g37
g38
(lp6261
V3
p6262
atp6263
Rp6264
(dp6265
g47
VLS
p6266
sbag36
(g37
g38
(lp6267
V-RRB-
p6268
atp6269
Rp6270
(dp6271
g47
V-RRB-
p6272
sbatp6273
Rp6274
(dp6275
g47
VLST
p6276
sbag36
(g37
g38
(lp6277
g36
(g37
g38
(lp6278
VThe
p6279
atp6280
Rp6281
(dp6282
g47
VDT
p6283
sbag36
(g37
g38
(lp6284
Vrobot
p6285
atp6286
Rp6287
(dp6288
g47
VNN
p6289
sbatp6290
Rp6291
(dp6292
g47
VNP
p6293
sbag36
(g37
g38
(lp6294
g36
(g37
g38
(lp6295
Vmay
p6296
atp6297
Rp6298
(dp6299
g47
VMD
p6300
sbag36
(g37
g38
(lp6301
g36
(g37
g38
(lp6302
Vintend
p6303
atp6304
Rp6305
(dp6306
g47
VVB
p6307
sbag36
(g37
g38
(lp6308
g36
(g37
g38
(lp6309
g36
(g37
g38
(lp6310
Vto
p6311
atp6312
Rp6313
(dp6314
g47
VTO
p6315
sbag36
(g37
g38
(lp6316
g36
(g37
g38
(lp6317
Vperform
p6318
atp6319
Rp6320
(dp6321
g47
VVB
p6322
sbag36
(g37
g38
(lp6323
g36
(g37
g38
(lp6324
g151
atp6325
Rp6326
(dp6327
g47
VDT
p6328
sbag36
(g37
g38
(lp6329
Vcertain
p6330
atp6331
Rp6332
(dp6333
g47
VJJ
p6334
sbag36
(g37
g38
(lp6335
Vaction
p6336
atp6337
Rp6338
(dp6339
g47
VNN
p6340
sbatp6341
Rp6342
(dp6343
g47
VNP
p6344
sbatp6345
Rp6346
(dp6347
g47
VVP
p6348
sbatp6349
Rp6350
(dp6351
g47
VVP
p6352
sbatp6353
Rp6354
(dp6355
g47
g310
sbatp6356
Rp6357
(dp6358
g47
VVP
p6359
sbatp6360
Rp6361
(dp6362
g47
VVP
p6363
sbag36
(g37
g38
(lp6364
g303
atp6365
Rp6366
(dp6367
g47
g303
sbatp6368
Rp6369
(dp6370
g47
g310
sbatp6371
Rp6372
(dp6373
g47
VROOT
p6374
sbasba(icmyPackage
Sent
p6375
(dp6376
g14
I3
sg29
I10
sg30
S'It may later infer that certain possibilities are irrelevant in view of its intentions.'
p6377
sg32
I0
sg33
I35
sg34
(lp6378
g36
(g37
g38
(lp6379
g36
(g37
g38
(lp6380
g36
(g37
g38
(lp6381
g36
(g37
g38
(lp6382
VIt
p6383
atp6384
Rp6385
(dp6386
g47
VPRP
p6387
sbatp6388
Rp6389
(dp6390
g47
VNP
p6391
sbag36
(g37
g38
(lp6392
g36
(g37
g38
(lp6393
Vmay
p6394
atp6395
Rp6396
(dp6397
g47
VMD
p6398
sbag36
(g37
g38
(lp6399
g36
(g37
g38
(lp6400
Vlater
p6401
atp6402
Rp6403
(dp6404
g47
VRB
p6405
sbatp6406
Rp6407
(dp6408
g47
VADVP
p6409
sbag36
(g37
g38
(lp6410
g36
(g37
g38
(lp6411
Vinfer
p6412
atp6413
Rp6414
(dp6415
g47
VVB
p6416
sbag36
(g37
g38
(lp6417
g36
(g37
g38
(lp6418
Vthat
p6419
atp6420
Rp6421
(dp6422
g47
VIN
p6423
sbag36
(g37
g38
(lp6424
g36
(g37
g38
(lp6425
g36
(g37
g38
(lp6426
Vcertain
p6427
atp6428
Rp6429
(dp6430
g47
VJJ
p6431
sbag36
(g37
g38
(lp6432
Vpossibilities
p6433
atp6434
Rp6435
(dp6436
g47
VNNS
p6437
sbatp6438
Rp6439
(dp6440
g47
VNP
p6441
sbag36
(g37
g38
(lp6442
g36
(g37
g38
(lp6443
Vare
p6444
atp6445
Rp6446
(dp6447
g47
VVBP
p6448
sbag36
(g37
g38
(lp6449
g36
(g37
g38
(lp6450
Virrelevant
p6451
atp6452
Rp6453
(dp6454
g47
VJJ
p6455
sbag36
(g37
g38
(lp6456
g36
(g37
g38
(lp6457
Vin
p6458
atp6459
Rp6460
(dp6461
g47
VIN
p6462
sbag36
(g37
g38
(lp6463
g36
(g37
g38
(lp6464
g36
(g37
g38
(lp6465
Vview
p6466
atp6467
Rp6468
(dp6469
g47
VNN
p6470
sbatp6471
Rp6472
(dp6473
g47
VNP
p6474
sbag36
(g37
g38
(lp6475
g36
(g37
g38
(lp6476
Vof
p6477
atp6478
Rp6479
(dp6480
g47
VIN
p6481
sbag36
(g37
g38
(lp6482
g36
(g37
g38
(lp6483
Vits
p6484
atp6485
Rp6486
(dp6487
g47
VPRP$
p6488
sbag36
(g37
g38
(lp6489
Vintentions
p6490
atp6491
Rp6492
(dp6493
g47
VNNS
p6494
sbatp6495
Rp6496
(dp6497
g47
VNP
p6498
sbatp6499
Rp6500
(dp6501
g47
VPP
p6502
sbatp6503
Rp6504
(dp6505
g47
VNP
p6506
sbatp6507
Rp6508
(dp6509
g47
VPP
p6510
sbatp6511
Rp6512
(dp6513
g47
VADJP
p6514
sbatp6515
Rp6516
(dp6517
g47
VVP
p6518
sbatp6519
Rp6520
(dp6521
g47
g310
sbatp6522
Rp6523
(dp6524
g47
VSBAR
p6525
sbatp6526
Rp6527
(dp6528
g47
VVP
p6529
sbatp6530
Rp6531
(dp6532
g47
VVP
p6533
sbag36
(g37
g38
(lp6534
g303
atp6535
Rp6536
(dp6537
g47
g303
sbatp6538
Rp6539
(dp6540
g47
g310
sbatp6541
Rp6542
(dp6543
g47
VROOT
p6544
sbasba(icmyPackage
Sent
p6545
(dp6546
g14
I3
sg29
I10
sg30
S'This requires the ability to observe intentions.'
p6547
sg32
I0
sg33
I36
sg34
(lp6548
g36
(g37
g38
(lp6549
g36
(g37
g38
(lp6550
g36
(g37
g38
(lp6551
g36
(g37
g38
(lp6552
VThis
p6553
atp6554
Rp6555
(dp6556
g47
VDT
p6557
sbatp6558
Rp6559
(dp6560
g47
VNP
p6561
sbag36
(g37
g38
(lp6562
g36
(g37
g38
(lp6563
Vrequires
p6564
atp6565
Rp6566
(dp6567
g47
VVBZ
p6568
sbag36
(g37
g38
(lp6569
g36
(g37
g38
(lp6570
Vthe
p6571
atp6572
Rp6573
(dp6574
g47
VDT
p6575
sbag36
(g37
g38
(lp6576
Vability
p6577
atp6578
Rp6579
(dp6580
g47
VNN
p6581
sbag36
(g37
g38
(lp6582
g36
(g37
g38
(lp6583
g36
(g37
g38
(lp6584
Vto
p6585
atp6586
Rp6587
(dp6588
g47
VTO
p6589
sbag36
(g37
g38
(lp6590
g36
(g37
g38
(lp6591
Vobserve
p6592
atp6593
Rp6594
(dp6595
g47
VVB
p6596
sbag36
(g37
g38
(lp6597
g36
(g37
g38
(lp6598
Vintentions
p6599
atp6600
Rp6601
(dp6602
g47
VNNS
p6603
sbatp6604
Rp6605
(dp6606
g47
VNP
p6607
sbatp6608
Rp6609
(dp6610
g47
VVP
p6611
sbatp6612
Rp6613
(dp6614
g47
VVP
p6615
sbatp6616
Rp6617
(dp6618
g47
g310
sbatp6619
Rp6620
(dp6621
g47
VNP
p6622
sbatp6623
Rp6624
(dp6625
g47
VVP
p6626
sbag36
(g37
g38
(lp6627
g303
atp6628
Rp6629
(dp6630
g47
g303
sbatp6631
Rp6632
(dp6633
g47
g310
sbatp6634
Rp6635
(dp6636
g47
VROOT
p6637
sbasbasg1768
I3
sg29
I10
sg32
I0
sba(icmyPackage
Parag
p6638
(dp6639
g14
I3
sg25
(lp6640
(icmyPackage
Sent
p6641
(dp6642
g14
I3
sg29
I11
sg30
S'4) Observing how it arrived at its current beliefs.'
p6643
sg32
I0
sg33
I37
sg34
(lp6644
g36
(g37
g38
(lp6645
g36
(g37
g38
(lp6646
g36
(g37
g38
(lp6647
g36
(g37
g38
(lp6648
V4
p6649
atp6650
Rp6651
(dp6652
g47
VLS
p6653
sbag36
(g37
g38
(lp6654
V-RRB-
p6655
atp6656
Rp6657
(dp6658
g47
V-RRB-
p6659
sbatp6660
Rp6661
(dp6662
g47
VLST
p6663
sbag36
(g37
g38
(lp6664
g36
(g37
g38
(lp6665
VObserving
p6666
atp6667
Rp6668
(dp6669
g47
VVB
p6670
sbag36
(g37
g38
(lp6671
g36
(g37
g38
(lp6672
g36
(g37
g38
(lp6673
Vhow
p6674
atp6675
Rp6676
(dp6677
g47
VWRB
p6678
sbatp6679
Rp6680
(dp6681
g47
VWHADVP
p6682
sbag36
(g37
g38
(lp6683
g36
(g37
g38
(lp6684
g36
(g37
g38
(lp6685
Vit
p6686
atp6687
Rp6688
(dp6689
g47
VPRP
p6690
sbatp6691
Rp6692
(dp6693
g47
VNP
p6694
sbag36
(g37
g38
(lp6695
g36
(g37
g38
(lp6696
Varrived
p6697
atp6698
Rp6699
(dp6700
g47
VVBD
p6701
sbag36
(g37
g38
(lp6702
g36
(g37
g38
(lp6703
Vat
p6704
atp6705
Rp6706
(dp6707
g47
VIN
p6708
sbag36
(g37
g38
(lp6709
g36
(g37
g38
(lp6710
Vits
p6711
atp6712
Rp6713
(dp6714
g47
VPRP$
p6715
sbag36
(g37
g38
(lp6716
Vcurrent
p6717
atp6718
Rp6719
(dp6720
g47
VJJ
p6721
sbag36
(g37
g38
(lp6722
Vbeliefs
p6723
atp6724
Rp6725
(dp6726
g47
VNNS
p6727
sbatp6728
Rp6729
(dp6730
g47
VNP
p6731
sbatp6732
Rp6733
(dp6734
g47
VPP
p6735
sbatp6736
Rp6737
(dp6738
g47
VVP
p6739
sbatp6740
Rp6741
(dp6742
g47
g310
sbatp6743
Rp6744
(dp6745
g47
VSBAR
p6746
sbatp6747
Rp6748
(dp6749
g47
VVP
p6750
sbag36
(g37
g38
(lp6751
g303
atp6752
Rp6753
(dp6754
g47
g303
sbatp6755
Rp6756
(dp6757
g47
g310
sbatp6758
Rp6759
(dp6760
g47
VROOT
p6761
sbasba(icmyPackage
Sent
p6762
(dp6763
g14
I3
sg29
I11
sg30
S'Most of the important beliefs of the system will have been obtained by nonmonotonic reasoning, and therefore are usually uncertain.'
p6764
sg32
I0
sg33
I38
sg34
(lp6765
g36
(g37
g38
(lp6766
g36
(g37
g38
(lp6767
g36
(g37
g38
(lp6768
g36
(g37
g38
(lp6769
g36
(g37
g38
(lp6770
VMost
p6771
atp6772
Rp6773
(dp6774
g47
VJJS
p6775
sbatp6776
Rp6777
(dp6778
g47
VNP
p6779
sbag36
(g37
g38
(lp6780
g36
(g37
g38
(lp6781
Vof
p6782
atp6783
Rp6784
(dp6785
g47
VIN
p6786
sbag36
(g37
g38
(lp6787
g36
(g37
g38
(lp6788
g36
(g37
g38
(lp6789
Vthe
p6790
atp6791
Rp6792
(dp6793
g47
VDT
p6794
sbag36
(g37
g38
(lp6795
Vimportant
p6796
atp6797
Rp6798
(dp6799
g47
VJJ
p6800
sbag36
(g37
g38
(lp6801
Vbeliefs
p6802
atp6803
Rp6804
(dp6805
g47
VNNS
p6806
sbatp6807
Rp6808
(dp6809
g47
VNP
p6810
sbag36
(g37
g38
(lp6811
g36
(g37
g38
(lp6812
Vof
p6813
atp6814
Rp6815
(dp6816
g47
VIN
p6817
sbag36
(g37
g38
(lp6818
g36
(g37
g38
(lp6819
Vthe
p6820
atp6821
Rp6822
(dp6823
g47
VDT
p6824
sbag36
(g37
g38
(lp6825
Vsystem
p6826
atp6827
Rp6828
(dp6829
g47
VNN
p6830
sbatp6831
Rp6832
(dp6833
g47
VNP
p6834
sbatp6835
Rp6836
(dp6837
g47
VPP
p6838
sbatp6839
Rp6840
(dp6841
g47
VNP
p6842
sbatp6843
Rp6844
(dp6845
g47
VPP
p6846
sbatp6847
Rp6848
(dp6849
g47
VNP
p6850
sbag36
(g37
g38
(lp6851
g36
(g37
g38
(lp6852
g36
(g37
g38
(lp6853
Vwill
p6854
atp6855
Rp6856
(dp6857
g47
VMD
p6858
sbag36
(g37
g38
(lp6859
g36
(g37
g38
(lp6860
Vhave
p6861
atp6862
Rp6863
(dp6864
g47
VVB
p6865
sbag36
(g37
g38
(lp6866
g36
(g37
g38
(lp6867
Vbeen
p6868
atp6869
Rp6870
(dp6871
g47
VVBN
p6872
sbag36
(g37
g38
(lp6873
g36
(g37
g38
(lp6874
Vobtained
p6875
atp6876
Rp6877
(dp6878
g47
VVBN
p6879
sbag36
(g37
g38
(lp6880
g36
(g37
g38
(lp6881
Vby
p6882
atp6883
Rp6884
(dp6885
g47
VIN
p6886
sbag36
(g37
g38
(lp6887
g36
(g37
g38
(lp6888
Vnonmonotonic
p6889
atp6890
Rp6891
(dp6892
g47
VJJ
p6893
sbag36
(g37
g38
(lp6894
Vreasoning
p6895
atp6896
Rp6897
(dp6898
g47
VNN
p6899
sbatp6900
Rp6901
(dp6902
g47
VNP
p6903
sbatp6904
Rp6905
(dp6906
g47
VPP
p6907
sbatp6908
Rp6909
(dp6910
g47
VVP
p6911
sbatp6912
Rp6913
(dp6914
g47
VVP
p6915
sbatp6916
Rp6917
(dp6918
g47
VVP
p6919
sbatp6920
Rp6921
(dp6922
g47
VVP
p6923
sbag36
(g37
g38
(lp6924
g104
atp6925
Rp6926
(dp6927
g47
g104
sbag36
(g37
g38
(lp6928
Vand
p6929
atp6930
Rp6931
(dp6932
g47
VCC
p6933
sbag36
(g37
g38
(lp6934
g36
(g37
g38
(lp6935
g36
(g37
g38
(lp6936
Vtherefore
p6937
atp6938
Rp6939
(dp6940
g47
VRB
p6941
sbatp6942
Rp6943
(dp6944
g47
VADVP
p6945
sbag36
(g37
g38
(lp6946
Vare
p6947
atp6948
Rp6949
(dp6950
g47
VVBP
p6951
sbag36
(g37
g38
(lp6952
g36
(g37
g38
(lp6953
Vusually
p6954
atp6955
Rp6956
(dp6957
g47
VRB
p6958
sbag36
(g37
g38
(lp6959
Vuncertain
p6960
atp6961
Rp6962
(dp6963
g47
VJJ
p6964
sbatp6965
Rp6966
(dp6967
g47
VADJP
p6968
sbatp6969
Rp6970
(dp6971
g47
VVP
p6972
sbatp6973
Rp6974
(dp6975
g47
VVP
p6976
sbag36
(g37
g38
(lp6977
g303
atp6978
Rp6979
(dp6980
g47
g303
sbatp6981
Rp6982
(dp6983
g47
g310
sbatp6984
Rp6985
(dp6986
g47
VROOT
p6987
sbasba(icmyPackage
Sent
p6988
(dp6989
g14
I3
sg29
I11
sg30
S'It will need to maintain a critical view of these beliefs, i.e.'
p6990
sg32
I0
sg33
I39
sg34
(lp6991
g36
(g37
g38
(lp6992
g36
(g37
g38
(lp6993
g36
(g37
g38
(lp6994
g36
(g37
g38
(lp6995
VIt
p6996
atp6997
Rp6998
(dp6999
g47
VPRP
p7000
sbatp7001
Rp7002
(dp7003
g47
VNP
p7004
sbag36
(g37
g38
(lp7005
g36
(g37
g38
(lp7006
Vwill
p7007
atp7008
Rp7009
(dp7010
g47
VMD
p7011
sbag36
(g37
g38
(lp7012
g36
(g37
g38
(lp7013
Vneed
p7014
atp7015
Rp7016
(dp7017
g47
VVB
p7018
sbag36
(g37
g38
(lp7019
g36
(g37
g38
(lp7020
g36
(g37
g38
(lp7021
Vto
p7022
atp7023
Rp7024
(dp7025
g47
VTO
p7026
sbag36
(g37
g38
(lp7027
g36
(g37
g38
(lp7028
Vmaintain
p7029
atp7030
Rp7031
(dp7032
g47
VVB
p7033
sbag36
(g37
g38
(lp7034
g36
(g37
g38
(lp7035
g36
(g37
g38
(lp7036
g151
atp7037
Rp7038
(dp7039
g47
VDT
p7040
sbag36
(g37
g38
(lp7041
Vcritical
p7042
atp7043
Rp7044
(dp7045
g47
VJJ
p7046
sbag36
(g37
g38
(lp7047
Vview
p7048
atp7049
Rp7050
(dp7051
g47
VNN
p7052
sbatp7053
Rp7054
(dp7055
g47
VNP
p7056
sbag36
(g37
g38
(lp7057
g36
(g37
g38
(lp7058
Vof
p7059
atp7060
Rp7061
(dp7062
g47
VIN
p7063
sbag36
(g37
g38
(lp7064
g36
(g37
g38
(lp7065
g36
(g37
g38
(lp7066
Vthese
p7067
atp7068
Rp7069
(dp7070
g47
VDT
p7071
sbag36
(g37
g38
(lp7072
Vbeliefs
p7073
atp7074
Rp7075
(dp7076
g47
VNNS
p7077
sbatp7078
Rp7079
(dp7080
g47
VNP
p7081
sbag36
(g37
g38
(lp7082
g104
atp7083
Rp7084
(dp7085
g47
g104
sbag36
(g37
g38
(lp7086
g36
(g37
g38
(lp7087
Vi.e.
p7088
atp7089
Rp7090
(dp7091
g47
VNNP
p7092
sbatp7093
Rp7094
(dp7095
g47
VNP
p7096
sbatp7097
Rp7098
(dp7099
g47
VNP
p7100
sbatp7101
Rp7102
(dp7103
g47
VPP
p7104
sbatp7105
Rp7106
(dp7107
g47
VNP
p7108
sbatp7109
Rp7110
(dp7111
g47
VVP
p7112
sbatp7113
Rp7114
(dp7115
g47
VVP
p7116
sbatp7117
Rp7118
(dp7119
g47
g310
sbatp7120
Rp7121
(dp7122
g47
VVP
p7123
sbatp7124
Rp7125
(dp7126
g47
VVP
p7127
sbatp7128
Rp7129
(dp7130
g47
g310
sbatp7131
Rp7132
(dp7133
g47
VROOT
p7134
sbasba(icmyPackage
Sent
p7135
(dp7136
g14
I3
sg29
I11
sg30
S'believe meta-sentences about them that will aid in revising them when new information warrants doing so.'
p7137
sg32
I0
sg33
I40
sg34
(lp7138
g36
(g37
g38
(lp7139
g36
(g37
g38
(lp7140
g36
(g37
g38
(lp7141
g36
(g37
g38
(lp7142
Vbelieve
p7143
atp7144
Rp7145
(dp7146
g47
VVB
p7147
sbag36
(g37
g38
(lp7148
g36
(g37
g38
(lp7149
Vmeta-sentences
p7150
atp7151
Rp7152
(dp7153
g47
VNNS
p7154
sbatp7155
Rp7156
(dp7157
g47
VNP
p7158
sbag36
(g37
g38
(lp7159
g36
(g37
g38
(lp7160
Vabout
p7161
atp7162
Rp7163
(dp7164
g47
VIN
p7165
sbag36
(g37
g38
(lp7166
g36
(g37
g38
(lp7167
g36
(g37
g38
(lp7168
Vthem
p7169
atp7170
Rp7171
(dp7172
g47
VPRP
p7173
sbatp7174
Rp7175
(dp7176
g47
VNP
p7177
sbag36
(g37
g38
(lp7178
g36
(g37
g38
(lp7179
g36
(g37
g38
(lp7180
Vthat
p7181
atp7182
Rp7183
(dp7184
g47
VWDT
p7185
sbatp7186
Rp7187
(dp7188
g47
VWHNP
p7189
sbag36
(g37
g38
(lp7190
g36
(g37
g38
(lp7191
g36
(g37
g38
(lp7192
Vwill
p7193
atp7194
Rp7195
(dp7196
g47
VMD
p7197
sbag36
(g37
g38
(lp7198
g36
(g37
g38
(lp7199
Vaid
p7200
atp7201
Rp7202
(dp7203
g47
VVB
p7204
sbag36
(g37
g38
(lp7205
g36
(g37
g38
(lp7206
Vin
p7207
atp7208
Rp7209
(dp7210
g47
VIN
p7211
sbag36
(g37
g38
(lp7212
g36
(g37
g38
(lp7213
g36
(g37
g38
(lp7214
Vrevising
p7215
atp7216
Rp7217
(dp7218
g47
VVBG
p7219
sbag36
(g37
g38
(lp7220
g36
(g37
g38
(lp7221
Vthem
p7222
atp7223
Rp7224
(dp7225
g47
VPRP
p7226
sbatp7227
Rp7228
(dp7229
g47
VNP
p7230
sbatp7231
Rp7232
(dp7233
g47
VVP
p7234
sbatp7235
Rp7236
(dp7237
g47
g310
sbatp7238
Rp7239
(dp7240
g47
VPP
p7241
sbatp7242
Rp7243
(dp7244
g47
VVP
p7245
sbatp7246
Rp7247
(dp7248
g47
VVP
p7249
sbatp7250
Rp7251
(dp7252
g47
g310
sbatp7253
Rp7254
(dp7255
g47
VSBAR
p7256
sbatp7257
Rp7258
(dp7259
g47
VNP
p7260
sbatp7261
Rp7262
(dp7263
g47
VPP
p7264
sbag36
(g37
g38
(lp7265
g36
(g37
g38
(lp7266
g36
(g37
g38
(lp7267
Vwhen
p7268
atp7269
Rp7270
(dp7271
g47
VWRB
p7272
sbatp7273
Rp7274
(dp7275
g47
VWHADVP
p7276
sbag36
(g37
g38
(lp7277
g36
(g37
g38
(lp7278
g36
(g37
g38
(lp7279
Vnew
p7280
atp7281
Rp7282
(dp7283
g47
VJJ
p7284
sbag36
(g37
g38
(lp7285
Vinformation
p7286
atp7287
Rp7288
(dp7289
g47
VNN
p7290
sbatp7291
Rp7292
(dp7293
g47
VNP
p7294
sbag36
(g37
g38
(lp7295
g36
(g37
g38
(lp7296
Vwarrants
p7297
atp7298
Rp7299
(dp7300
g47
VVBZ
p7301
sbag36
(g37
g38
(lp7302
g36
(g37
g38
(lp7303
g36
(g37
g38
(lp7304
Vdoing
p7305
atp7306
Rp7307
(dp7308
g47
VVBG
p7309
sbag36
(g37
g38
(lp7310
g36
(g37
g38
(lp7311
Vso
p7312
atp7313
Rp7314
(dp7315
g47
VRB
p7316
sbatp7317
Rp7318
(dp7319
g47
VADVP
p7320
sbatp7321
Rp7322
(dp7323
g47
VVP
p7324
sbatp7325
Rp7326
(dp7327
g47
g310
sbatp7328
Rp7329
(dp7330
g47
VVP
p7331
sbatp7332
Rp7333
(dp7334
g47
g310
sbatp7335
Rp7336
(dp7337
g47
VSBAR
p7338
sbatp7339
Rp7340
(dp7341
g47
VVP
p7342
sbag36
(g37
g38
(lp7343
g303
atp7344
Rp7345
(dp7346
g47
g303
sbatp7347
Rp7348
(dp7349
g47
g310
sbatp7350
Rp7351
(dp7352
g47
VROOT
p7353
sbasba(icmyPackage
Sent
p7354
(dp7355
g14
I3
sg29
I11
sg30
S'It will presumably be useful to maintain a pedigree for each belief of the system so that it can be revised if its logical ancestors are revised.'
p7356
sg32
I0
sg33
I41
sg34
(lp7357
g36
(g37
g38
(lp7358
g36
(g37
g38
(lp7359
g36
(g37
g38
(lp7360
g36
(g37
g38
(lp7361
VIt
p7362
atp7363
Rp7364
(dp7365
g47
VPRP
p7366
sbatp7367
Rp7368
(dp7369
g47
VNP
p7370
sbag36
(g37
g38
(lp7371
g36
(g37
g38
(lp7372
Vwill
p7373
atp7374
Rp7375
(dp7376
g47
VMD
p7377
sbag36
(g37
g38
(lp7378
g36
(g37
g38
(lp7379
Vpresumably
p7380
atp7381
Rp7382
(dp7383
g47
VRB
p7384
sbatp7385
Rp7386
(dp7387
g47
VADVP
p7388
sbag36
(g37
g38
(lp7389
g36
(g37
g38
(lp7390
Vbe
p7391
atp7392
Rp7393
(dp7394
g47
VVB
p7395
sbag36
(g37
g38
(lp7396
g36
(g37
g38
(lp7397
Vuseful
p7398
atp7399
Rp7400
(dp7401
g47
VJJ
p7402
sbag36
(g37
g38
(lp7403
g36
(g37
g38
(lp7404
g36
(g37
g38
(lp7405
Vto
p7406
atp7407
Rp7408
(dp7409
g47
VTO
p7410
sbag36
(g37
g38
(lp7411
g36
(g37
g38
(lp7412
Vmaintain
p7413
atp7414
Rp7415
(dp7416
g47
VVB
p7417
sbag36
(g37
g38
(lp7418
g36
(g37
g38
(lp7419
g151
atp7420
Rp7421
(dp7422
g47
VDT
p7423
sbag36
(g37
g38
(lp7424
Vpedigree
p7425
atp7426
Rp7427
(dp7428
g47
VNN
p7429
sbatp7430
Rp7431
(dp7432
g47
VNP
p7433
sbag36
(g37
g38
(lp7434
g36
(g37
g38
(lp7435
Vfor
p7436
atp7437
Rp7438
(dp7439
g47
VIN
p7440
sbag36
(g37
g38
(lp7441
g36
(g37
g38
(lp7442
g36
(g37
g38
(lp7443
Veach
p7444
atp7445
Rp7446
(dp7447
g47
VDT
p7448
sbag36
(g37
g38
(lp7449
Vbelief
p7450
atp7451
Rp7452
(dp7453
g47
VNN
p7454
sbatp7455
Rp7456
(dp7457
g47
VNP
p7458
sbag36
(g37
g38
(lp7459
g36
(g37
g38
(lp7460
Vof
p7461
atp7462
Rp7463
(dp7464
g47
VIN
p7465
sbag36
(g37
g38
(lp7466
g36
(g37
g38
(lp7467
Vthe
p7468
atp7469
Rp7470
(dp7471
g47
VDT
p7472
sbag36
(g37
g38
(lp7473
Vsystem
p7474
atp7475
Rp7476
(dp7477
g47
VNN
p7478
sbatp7479
Rp7480
(dp7481
g47
VNP
p7482
sbatp7483
Rp7484
(dp7485
g47
VPP
p7486
sbatp7487
Rp7488
(dp7489
g47
VNP
p7490
sbatp7491
Rp7492
(dp7493
g47
VPP
p7494
sbatp7495
Rp7496
(dp7497
g47
VVP
p7498
sbatp7499
Rp7500
(dp7501
g47
VVP
p7502
sbatp7503
Rp7504
(dp7505
g47
g310
sbatp7506
Rp7507
(dp7508
g47
VADJP
p7509
sbag36
(g37
g38
(lp7510
g36
(g37
g38
(lp7511
Vso
p7512
atp7513
Rp7514
(dp7515
g47
VRB
p7516
sbag36
(g37
g38
(lp7517
Vthat
p7518
atp7519
Rp7520
(dp7521
g47
VIN
p7522
sbag36
(g37
g38
(lp7523
g36
(g37
g38
(lp7524
g36
(g37
g38
(lp7525
Vit
p7526
atp7527
Rp7528
(dp7529
g47
VPRP
p7530
sbatp7531
Rp7532
(dp7533
g47
VNP
p7534
sbag36
(g37
g38
(lp7535
g36
(g37
g38
(lp7536
Vcan
p7537
atp7538
Rp7539
(dp7540
g47
VMD
p7541
sbag36
(g37
g38
(lp7542
g36
(g37
g38
(lp7543
Vbe
p7544
atp7545
Rp7546
(dp7547
g47
VVB
p7548
sbag36
(g37
g38
(lp7549
g36
(g37
g38
(lp7550
Vrevised
p7551
atp7552
Rp7553
(dp7554
g47
VVBN
p7555
sbag36
(g37
g38
(lp7556
g36
(g37
g38
(lp7557
Vif
p7558
atp7559
Rp7560
(dp7561
g47
VIN
p7562
sbag36
(g37
g38
(lp7563
g36
(g37
g38
(lp7564
g36
(g37
g38
(lp7565
Vits
p7566
atp7567
Rp7568
(dp7569
g47
VPRP$
p7570
sbag36
(g37
g38
(lp7571
Vlogical
p7572
atp7573
Rp7574
(dp7575
g47
VJJ
p7576
sbag36
(g37
g38
(lp7577
Vancestors
p7578
atp7579
Rp7580
(dp7581
g47
VNNS
p7582
sbatp7583
Rp7584
(dp7585
g47
VNP
p7586
sbag36
(g37
g38
(lp7587
g36
(g37
g38
(lp7588
Vare
p7589
atp7590
Rp7591
(dp7592
g47
VVBP
p7593
sbag36
(g37
g38
(lp7594
g36
(g37
g38
(lp7595
Vrevised
p7596
atp7597
Rp7598
(dp7599
g47
VVBN
p7600
sbatp7601
Rp7602
(dp7603
g47
VVP
p7604
sbatp7605
Rp7606
(dp7607
g47
VVP
p7608
sbatp7609
Rp7610
(dp7611
g47
g310
sbatp7612
Rp7613
(dp7614
g47
VSBAR
p7615
sbatp7616
Rp7617
(dp7618
g47
VVP
p7619
sbatp7620
Rp7621
(dp7622
g47
VVP
p7623
sbatp7624
Rp7625
(dp7626
g47
VVP
p7627
sbatp7628
Rp7629
(dp7630
g47
g310
sbatp7631
Rp7632
(dp7633
g47
VSBAR
p7634
sbatp7635
Rp7636
(dp7637
g47
VVP
p7638
sbatp7639
Rp7640
(dp7641
g47
VVP
p7642
sbag36
(g37
g38
(lp7643
g303
atp7644
Rp7645
(dp7646
g47
g303
sbatp7647
Rp7648
(dp7649
g47
g310
sbatp7650
Rp7651
(dp7652
g47
VROOT
p7653
sbasba(icmyPackage
Sent
p7654
(dp7655
g14
I3
sg29
I11
sg30
S'Reason maintenance systems maintain the pedigrees but not in the form of sentences that can be used in reasoning.'
p7656
sg32
I0
sg33
I42
sg34
(lp7657
g36
(g37
g38
(lp7658
g36
(g37
g38
(lp7659
g36
(g37
g38
(lp7660
g36
(g37
g38
(lp7661
VReason
p7662
atp7663
Rp7664
(dp7665
g47
VNNP
p7666
sbag36
(g37
g38
(lp7667
Vmaintenance
p7668
atp7669
Rp7670
(dp7671
g47
VNN
p7672
sbag36
(g37
g38
(lp7673
Vsystems
p7674
atp7675
Rp7676
(dp7677
g47
VNNS
p7678
sbatp7679
Rp7680
(dp7681
g47
VNP
p7682
sbag36
(g37
g38
(lp7683
g36
(g37
g38
(lp7684
Vmaintain
p7685
atp7686
Rp7687
(dp7688
g47
VVBP
p7689
sbag36
(g37
g38
(lp7690
g36
(g37
g38
(lp7691
Vthe
p7692
atp7693
Rp7694
(dp7695
g47
VDT
p7696
sbag36
(g37
g38
(lp7697
Vpedigrees
p7698
atp7699
Rp7700
(dp7701
g47
VNNS
p7702
sbatp7703
Rp7704
(dp7705
g47
VNP
p7706
sbag36
(g37
g38
(lp7707
g36
(g37
g38
(lp7708
g36
(g37
g38
(lp7709
Vbut
p7710
atp7711
Rp7712
(dp7713
g47
VCC
p7714
sbag36
(g37
g38
(lp7715
Vnot
p7716
atp7717
Rp7718
(dp7719
g47
VRB
p7720
sbatp7721
Rp7722
(dp7723
g47
VCONJP
p7724
sbag36
(g37
g38
(lp7725
Vin
p7726
atp7727
Rp7728
(dp7729
g47
VIN
p7730
sbag36
(g37
g38
(lp7731
g36
(g37
g38
(lp7732
g36
(g37
g38
(lp7733
Vthe
p7734
atp7735
Rp7736
(dp7737
g47
VDT
p7738
sbag36
(g37
g38
(lp7739
Vform
p7740
atp7741
Rp7742
(dp7743
g47
VNN
p7744
sbatp7745
Rp7746
(dp7747
g47
VNP
p7748
sbag36
(g37
g38
(lp7749
g36
(g37
g38
(lp7750
Vof
p7751
atp7752
Rp7753
(dp7754
g47
VIN
p7755
sbag36
(g37
g38
(lp7756
g36
(g37
g38
(lp7757
g36
(g37
g38
(lp7758
Vsentences
p7759
atp7760
Rp7761
(dp7762
g47
VNNS
p7763
sbatp7764
Rp7765
(dp7766
g47
VNP
p7767
sbag36
(g37
g38
(lp7768
g36
(g37
g38
(lp7769
g36
(g37
g38
(lp7770
Vthat
p7771
atp7772
Rp7773
(dp7774
g47
VWDT
p7775
sbatp7776
Rp7777
(dp7778
g47
VWHNP
p7779
sbag36
(g37
g38
(lp7780
g36
(g37
g38
(lp7781
g36
(g37
g38
(lp7782
Vcan
p7783
atp7784
Rp7785
(dp7786
g47
VMD
p7787
sbag36
(g37
g38
(lp7788
g36
(g37
g38
(lp7789
Vbe
p7790
atp7791
Rp7792
(dp7793
g47
VVB
p7794
sbag36
(g37
g38
(lp7795
g36
(g37
g38
(lp7796
Vused
p7797
atp7798
Rp7799
(dp7800
g47
VVBN
p7801
sbag36
(g37
g38
(lp7802
g36
(g37
g38
(lp7803
Vin
p7804
atp7805
Rp7806
(dp7807
g47
VIN
p7808
sbag36
(g37
g38
(lp7809
g36
(g37
g38
(lp7810
Vreasoning
p7811
atp7812
Rp7813
(dp7814
g47
VNN
p7815
sbatp7816
Rp7817
(dp7818
g47
VNP
p7819
sbatp7820
Rp7821
(dp7822
g47
VPP
p7823
sbatp7824
Rp7825
(dp7826
g47
VVP
p7827
sbatp7828
Rp7829
(dp7830
g47
VVP
p7831
sbatp7832
Rp7833
(dp7834
g47
VVP
p7835
sbatp7836
Rp7837
(dp7838
g47
g310
sbatp7839
Rp7840
(dp7841
g47
VSBAR
p7842
sbatp7843
Rp7844
(dp7845
g47
VNP
p7846
sbatp7847
Rp7848
(dp7849
g47
VPP
p7850
sbatp7851
Rp7852
(dp7853
g47
VNP
p7854
sbatp7855
Rp7856
(dp7857
g47
VPP
p7858
sbatp7859
Rp7860
(dp7861
g47
VVP
p7862
sbag36
(g37
g38
(lp7863
g303
atp7864
Rp7865
(dp7866
g47
g303
sbatp7867
Rp7868
(dp7869
g47
g310
sbatp7870
Rp7871
(dp7872
g47
VROOT
p7873
sbasba(icmyPackage
Sent
p7874
(dp7875
g14
I3
sg29
I11
sg30
S'Neither do they have introspective subroutines that can observe the pedigrees and generate sentences about them.'
p7876
sg32
I0
sg33
I43
sg34
(lp7877
g36
(g37
g38
(lp7878
g36
(g37
g38
(lp7879
g36
(g37
g38
(lp7880
g36
(g37
g38
(lp7881
VNeither
p7882
atp7883
Rp7884
(dp7885
g47
VDT
p7886
sbatp7887
Rp7888
(dp7889
g47
VNP
p7890
sbag36
(g37
g38
(lp7891
g36
(g37
g38
(lp7892
Vdo
p7893
atp7894
Rp7895
(dp7896
g47
VVBP
p7897
sbag36
(g37
g38
(lp7898
g36
(g37
g38
(lp7899
g36
(g37
g38
(lp7900
g36
(g37
g38
(lp7901
Vthey
p7902
atp7903
Rp7904
(dp7905
g47
VPRP
p7906
sbatp7907
Rp7908
(dp7909
g47
VNP
p7910
sbag36
(g37
g38
(lp7911
g36
(g37
g38
(lp7912
Vhave
p7913
atp7914
Rp7915
(dp7916
g47
VVBP
p7917
sbag36
(g37
g38
(lp7918
g36
(g37
g38
(lp7919
g36
(g37
g38
(lp7920
Vintrospective
p7921
atp7922
Rp7923
(dp7924
g47
VJJ
p7925
sbag36
(g37
g38
(lp7926
Vsubroutines
p7927
atp7928
Rp7929
(dp7930
g47
VNNS
p7931
sbatp7932
Rp7933
(dp7934
g47
VNP
p7935
sbag36
(g37
g38
(lp7936
g36
(g37
g38
(lp7937
g36
(g37
g38
(lp7938
Vthat
p7939
atp7940
Rp7941
(dp7942
g47
VWDT
p7943
sbatp7944
Rp7945
(dp7946
g47
VWHNP
p7947
sbag36
(g37
g38
(lp7948
g36
(g37
g38
(lp7949
g36
(g37
g38
(lp7950
Vcan
p7951
atp7952
Rp7953
(dp7954
g47
VMD
p7955
sbag36
(g37
g38
(lp7956
g36
(g37
g38
(lp7957
g36
(g37
g38
(lp7958
Vobserve
p7959
atp7960
Rp7961
(dp7962
g47
VVB
p7963
sbag36
(g37
g38
(lp7964
g36
(g37
g38
(lp7965
Vthe
p7966
atp7967
Rp7968
(dp7969
g47
VDT
p7970
sbag36
(g37
g38
(lp7971
Vpedigrees
p7972
atp7973
Rp7974
(dp7975
g47
VNNS
p7976
sbatp7977
Rp7978
(dp7979
g47
VNP
p7980
sbatp7981
Rp7982
(dp7983
g47
VVP
p7984
sbag36
(g37
g38
(lp7985
Vand
p7986
atp7987
Rp7988
(dp7989
g47
VCC
p7990
sbag36
(g37
g38
(lp7991
g36
(g37
g38
(lp7992
Vgenerate
p7993
atp7994
Rp7995
(dp7996
g47
VVB
p7997
sbag36
(g37
g38
(lp7998
g36
(g37
g38
(lp7999
Vsentences
p8000
atp8001
Rp8002
(dp8003
g47
VNNS
p8004
sbatp8005
Rp8006
(dp8007
g47
VNP
p8008
sbag36
(g37
g38
(lp8009
g36
(g37
g38
(lp8010
Vabout
p8011
atp8012
Rp8013
(dp8014
g47
VIN
p8015
sbag36
(g37
g38
(lp8016
g36
(g37
g38
(lp8017
Vthem
p8018
atp8019
Rp8020
(dp8021
g47
VPRP
p8022
sbatp8023
Rp8024
(dp8025
g47
VNP
p8026
sbatp8027
Rp8028
(dp8029
g47
VPP
p8030
sbatp8031
Rp8032
(dp8033
g47
VVP
p8034
sbatp8035
Rp8036
(dp8037
g47
VVP
p8038
sbatp8039
Rp8040
(dp8041
g47
VVP
p8042
sbatp8043
Rp8044
(dp8045
g47
g310
sbatp8046
Rp8047
(dp8048
g47
VSBAR
p8049
sbatp8050
Rp8051
(dp8052
g47
VNP
p8053
sbatp8054
Rp8055
(dp8056
g47
VVP
p8057
sbatp8058
Rp8059
(dp8060
g47
g310
sbatp8061
Rp8062
(dp8063
g47
VSBAR
p8064
sbatp8065
Rp8066
(dp8067
g47
VVP
p8068
sbag36
(g37
g38
(lp8069
g303
atp8070
Rp8071
(dp8072
g47
g303
sbatp8073
Rp8074
(dp8075
g47
g310
sbatp8076
Rp8077
(dp8078
g47
VROOT
p8079
sbasbasg1768
I7
sg29
I11
sg32
I0
sba(icmyPackage
Parag
p8080
(dp8081
g14
I3
sg25
(lp8082
(icmyPackage
Sent
p8083
(dp8084
g14
I3
sg29
I12
sg30
S'5) Not only pedigrees of beliefs but other auxiliary information should either be represented as sentences or be observable in such a way as to give rise to sentences.'
p8085
sg32
I0
sg33
I44
sg34
(lp8086
g36
(g37
g38
(lp8087
g36
(g37
g38
(lp8088
g36
(g37
g38
(lp8089
g36
(g37
g38
(lp8090
g36
(g37
g38
(lp8091
V5
p8092
atp8093
Rp8094
(dp8095
g47
VCD
p8096
sbag36
(g37
g38
(lp8097
V-RRB-
p8098
atp8099
Rp8100
(dp8101
g47
VNNS
p8102
sbatp8103
Rp8104
(dp8105
g47
VNP
p8106
sbag36
(g37
g38
(lp8107
g36
(g37
g38
(lp8108
VNot
p8109
atp8110
Rp8111
(dp8112
g47
VRB
p8113
sbag36
(g37
g38
(lp8114
Vonly
p8115
atp8116
Rp8117
(dp8118
g47
VJJ
p8119
sbatp8120
Rp8121
(dp8122
g47
VCONJP
p8123
sbag36
(g37
g38
(lp8124
g36
(g37
g38
(lp8125
g36
(g37
g38
(lp8126
Vpedigrees
p8127
atp8128
Rp8129
(dp8130
g47
VNNS
p8131
sbatp8132
Rp8133
(dp8134
g47
VNP
p8135
sbag36
(g37
g38
(lp8136
g36
(g37
g38
(lp8137
Vof
p8138
atp8139
Rp8140
(dp8141
g47
VIN
p8142
sbag36
(g37
g38
(lp8143
g36
(g37
g38
(lp8144
g36
(g37
g38
(lp8145
Vbeliefs
p8146
atp8147
Rp8148
(dp8149
g47
VNNS
p8150
sbatp8151
Rp8152
(dp8153
g47
VNP
p8154
sbag36
(g37
g38
(lp8155
g36
(g37
g38
(lp8156
Vbut
p8157
atp8158
Rp8159
(dp8160
g47
VCC
p8161
sbag36
(g37
g38
(lp8162
g36
(g37
g38
(lp8163
Vother
p8164
atp8165
Rp8166
(dp8167
g47
VJJ
p8168
sbag36
(g37
g38
(lp8169
Vauxiliary
p8170
atp8171
Rp8172
(dp8173
g47
VJJ
p8174
sbag36
(g37
g38
(lp8175
Vinformation
p8176
atp8177
Rp8178
(dp8179
g47
VNN
p8180
sbatp8181
Rp8182
(dp8183
g47
VNP
p8184
sbatp8185
Rp8186
(dp8187
g47
VPP
p8188
sbatp8189
Rp8190
(dp8191
g47
VNP
p8192
sbatp8193
Rp8194
(dp8195
g47
VPP
p8196
sbatp8197
Rp8198
(dp8199
g47
VNP
p8200
sbatp8201
Rp8202
(dp8203
g47
VNP
p8204
sbag36
(g37
g38
(lp8205
g36
(g37
g38
(lp8206
Vshould
p8207
atp8208
Rp8209
(dp8210
g47
VMD
p8211
sbag36
(g37
g38
(lp8212
g36
(g37
g38
(lp8213
Veither
p8214
atp8215
Rp8216
(dp8217
g47
VDT
p8218
sbag36
(g37
g38
(lp8219
g36
(g37
g38
(lp8220
Vbe
p8221
atp8222
Rp8223
(dp8224
g47
VVB
p8225
sbag36
(g37
g38
(lp8226
g36
(g37
g38
(lp8227
Vrepresented
p8228
atp8229
Rp8230
(dp8231
g47
VVBN
p8232
sbag36
(g37
g38
(lp8233
g36
(g37
g38
(lp8234
Vas
p8235
atp8236
Rp8237
(dp8238
g47
VIN
p8239
sbag36
(g37
g38
(lp8240
g36
(g37
g38
(lp8241
Vsentences
p8242
atp8243
Rp8244
(dp8245
g47
VNNS
p8246
sbatp8247
Rp8248
(dp8249
g47
VNP
p8250
sbatp8251
Rp8252
(dp8253
g47
VPP
p8254
sbatp8255
Rp8256
(dp8257
g47
VVP
p8258
sbatp8259
Rp8260
(dp8261
g47
VVP
p8262
sbag36
(g37
g38
(lp8263
Vor
p8264
atp8265
Rp8266
(dp8267
g47
VCC
p8268
sbag36
(g37
g38
(lp8269
g36
(g37
g38
(lp8270
Vbe
p8271
atp8272
Rp8273
(dp8274
g47
VVB
p8275
sbag36
(g37
g38
(lp8276
g36
(g37
g38
(lp8277
Vobservable
p8278
atp8279
Rp8280
(dp8281
g47
VJJ
p8282
sbag36
(g37
g38
(lp8283
g36
(g37
g38
(lp8284
Vin
p8285
atp8286
Rp8287
(dp8288
g47
VIN
p8289
sbag36
(g37
g38
(lp8290
g36
(g37
g38
(lp8291
Vsuch
p8292
atp8293
Rp8294
(dp8295
g47
VPDT
p8296
sbag36
(g37
g38
(lp8297
g151
atp8298
Rp8299
(dp8300
g47
VDT
p8301
sbag36
(g37
g38
(lp8302
Vway
p8303
atp8304
Rp8305
(dp8306
g47
VNN
p8307
sbatp8308
Rp8309
(dp8310
g47
VNP
p8311
sbatp8312
Rp8313
(dp8314
g47
VPP
p8315
sbatp8316
Rp8317
(dp8318
g47
VADJP
p8319
sbag36
(g37
g38
(lp8320
g36
(g37
g38
(lp8321
Vas
p8322
atp8323
Rp8324
(dp8325
g47
VIN
p8326
sbag36
(g37
g38
(lp8327
g36
(g37
g38
(lp8328
g36
(g37
g38
(lp8329
Vto
p8330
atp8331
Rp8332
(dp8333
g47
VTO
p8334
sbag36
(g37
g38
(lp8335
g36
(g37
g38
(lp8336
Vgive
p8337
atp8338
Rp8339
(dp8340
g47
VVB
p8341
sbag36
(g37
g38
(lp8342
g36
(g37
g38
(lp8343
Vrise
p8344
atp8345
Rp8346
(dp8347
g47
VNN
p8348
sbatp8349
Rp8350
(dp8351
g47
VNP
p8352
sbag36
(g37
g38
(lp8353
g36
(g37
g38
(lp8354
Vto
p8355
atp8356
Rp8357
(dp8358
g47
VTO
p8359
sbag36
(g37
g38
(lp8360
g36
(g37
g38
(lp8361
Vsentences
p8362
atp8363
Rp8364
(dp8365
g47
VNNS
p8366
sbatp8367
Rp8368
(dp8369
g47
VNP
p8370
sbatp8371
Rp8372
(dp8373
g47
VPP
p8374
sbatp8375
Rp8376
(dp8377
g47
VVP
p8378
sbatp8379
Rp8380
(dp8381
g47
VVP
p8382
sbatp8383
Rp8384
(dp8385
g47
g310
sbatp8386
Rp8387
(dp8388
g47
VSBAR
p8389
sbatp8390
Rp8391
(dp8392
g47
VVP
p8393
sbatp8394
Rp8395
(dp8396
g47
VVP
p8397
sbatp8398
Rp8399
(dp8400
g47
VVP
p8401
sbag36
(g37
g38
(lp8402
g303
atp8403
Rp8404
(dp8405
g47
g303
sbatp8406
Rp8407
(dp8408
g47
g310
sbatp8409
Rp8410
(dp8411
g47
VROOT
p8412
sbasba(icmyPackage
Sent
p8413
(dp8414
g14
I3
sg29
I12
sg30
S'Thus a system should be able to answer the questions:'
p8415
sg32
I0
sg33
I45
sg34
(lp8416
g36
(g37
g38
(lp8417
g36
(g37
g38
(lp8418
g36
(g37
g38
(lp8419
g36
(g37
g38
(lp8420
VThus
p8421
atp8422
Rp8423
(dp8424
g47
VRB
p8425
sbag36
(g37
g38
(lp8426
g36
(g37
g38
(lp8427
g151
atp8428
Rp8429
(dp8430
g47
VDT
p8431
sbag36
(g37
g38
(lp8432
Vsystem
p8433
atp8434
Rp8435
(dp8436
g47
VNN
p8437
sbatp8438
Rp8439
(dp8440
g47
VNP
p8441
sbatp8442
Rp8443
(dp8444
g47
VADVP
p8445
sbag36
(g37
g38
(lp8446
g36
(g37
g38
(lp8447
Vshould
p8448
atp8449
Rp8450
(dp8451
g47
VMD
p8452
sbag36
(g37
g38
(lp8453
g36
(g37
g38
(lp8454
Vbe
p8455
atp8456
Rp8457
(dp8458
g47
VVB
p8459
sbag36
(g37
g38
(lp8460
g36
(g37
g38
(lp8461
Vable
p8462
atp8463
Rp8464
(dp8465
g47
VJJ
p8466
sbag36
(g37
g38
(lp8467
g36
(g37
g38
(lp8468
g36
(g37
g38
(lp8469
Vto
p8470
atp8471
Rp8472
(dp8473
g47
VTO
p8474
sbag36
(g37
g38
(lp8475
g36
(g37
g38
(lp8476
Vanswer
p8477
atp8478
Rp8479
(dp8480
g47
VVB
p8481
sbatp8482
Rp8483
(dp8484
g47
VVP
p8485
sbatp8486
Rp8487
(dp8488
g47
VVP
p8489
sbatp8490
Rp8491
(dp8492
g47
g310
sbatp8493
Rp8494
(dp8495
g47
VADJP
p8496
sbatp8497
Rp8498
(dp8499
g47
VVP
p8500
sbatp8501
Rp8502
(dp8503
g47
VVP
p8504
sbag36
(g37
g38
(lp8505
g36
(g37
g38
(lp8506
Vthe
p8507
atp8508
Rp8509
(dp8510
g47
VDT
p8511
sbag36
(g37
g38
(lp8512
Vquestions
p8513
atp8514
Rp8515
(dp8516
g47
VNNS
p8517
sbatp8518
Rp8519
(dp8520
g47
VNP
p8521
sbag36
(g37
g38
(lp8522
V:
p8523
atp8524
Rp8525
(dp8526
g47
g8523
sbatp8527
Rp8528
(dp8529
g47
VSINV
p8530
sbatp8531
Rp8532
(dp8533
g47
VROOT
p8534
sbasba(icmyPackage
Sent
p8535
(dp8536
g14
I3
sg29
I12
sg30
S'\\Why do I believe p?'
p8537
sg32
I0
sg33
I46
sg34
(lp8538
g36
(g37
g38
(lp8539
g36
(g37
g38
(lp8540
g36
(g37
g38
(lp8541
g36
(g37
g38
(lp8542
g36
(g37
g38
(lp8543
V\u005c
p8544
atp8545
Rp8546
(dp8547
g47
VRB
p8548
sbatp8549
Rp8550
(dp8551
g47
VADVP
p8552
sbag36
(g37
g38
(lp8553
VWhy
p8554
atp8555
Rp8556
(dp8557
g47
VWRB
p8558
sbatp8559
Rp8560
(dp8561
g47
VWHADVP
p8562
sbag36
(g37
g38
(lp8563
g36
(g37
g38
(lp8564
Vdo
p8565
atp8566
Rp8567
(dp8568
g47
VVBP
p8569
sbag36
(g37
g38
(lp8570
g36
(g37
g38
(lp8571
g4320
atp8572
Rp8573
(dp8574
g47
VPRP
p8575
sbatp8576
Rp8577
(dp8578
g47
VNP
p8579
sbag36
(g37
g38
(lp8580
g36
(g37
g38
(lp8581
Vbelieve
p8582
atp8583
Rp8584
(dp8585
g47
VVB
p8586
sbag36
(g37
g38
(lp8587
g36
(g37
g38
(lp8588
Vp
p8589
atp8590
Rp8591
(dp8592
g47
VNN
p8593
sbatp8594
Rp8595
(dp8596
g47
VNP
p8597
sbatp8598
Rp8599
(dp8600
g47
VVP
p8601
sbatp8602
Rp8603
(dp8604
g47
VSQ
p8605
sbag36
(g37
g38
(lp8606
V?
p8607
atp8608
Rp8609
(dp8610
g47
g303
sbatp8611
Rp8612
(dp8613
g47
VSBARQ
p8614
sbatp8615
Rp8616
(dp8617
g47
VROOT
p8618
sbasba(icmyPackage
Sent
p8619
(dp8620
g14
I3
sg29
I12
sg30
S"or alternatively \\Why don't I believe p?"
p8621
sg32
I0
sg33
I47
sg34
(lp8622
g36
(g37
g38
(lp8623
g36
(g37
g38
(lp8624
g36
(g37
g38
(lp8625
Vor
p8626
atp8627
Rp8628
(dp8629
g47
VCC
p8630
sbag36
(g37
g38
(lp8631
g36
(g37
g38
(lp8632
g36
(g37
g38
(lp8633
Valternatively
p8634
atp8635
Rp8636
(dp8637
g47
VNNP
p8638
sbatp8639
Rp8640
(dp8641
g47
VNP
p8642
sbag36
(g37
g38
(lp8643
g36
(g37
g38
(lp8644
g36
(g37
g38
(lp8645
g36
(g37
g38
(lp8646
V\u005c
p8647
atp8648
Rp8649
(dp8650
g47
VVBD
p8651
sbag36
(g37
g38
(lp8652
g36
(g37
g38
(lp8653
g36
(g37
g38
(lp8654
g36
(g37
g38
(lp8655
VWhy
p8656
atp8657
Rp8658
(dp8659
g47
VWRB
p8660
sbatp8661
Rp8662
(dp8663
g47
VWHADVP
p8664
sbag36
(g37
g38
(lp8665
g36
(g37
g38
(lp8666
Vdo
p8667
atp8668
Rp8669
(dp8670
g47
VVBP
p8671
sbag36
(g37
g38
(lp8672
Vn't
p8673
atp8674
Rp8675
(dp8676
g47
VRB
p8677
sbag36
(g37
g38
(lp8678
g36
(g37
g38
(lp8679
g4320
atp8680
Rp8681
(dp8682
g47
VPRP
p8683
sbatp8684
Rp8685
(dp8686
g47
VNP
p8687
sbag36
(g37
g38
(lp8688
g36
(g37
g38
(lp8689
Vbelieve
p8690
atp8691
Rp8692
(dp8693
g47
VVB
p8694
sbag36
(g37
g38
(lp8695
g36
(g37
g38
(lp8696
g8589
atp8697
Rp8698
(dp8699
g47
VNN
p8700
sbatp8701
Rp8702
(dp8703
g47
VNP
p8704
sbatp8705
Rp8706
(dp8707
g47
VVP
p8708
sbatp8709
Rp8710
(dp8711
g47
VSQ
p8712
sbag36
(g37
g38
(lp8713
g8607
atp8714
Rp8715
(dp8716
g47
g303
sbatp8717
Rp8718
(dp8719
g47
VSBARQ
p8720
sbatp8721
Rp8722
(dp8723
g47
VSBAR
p8724
sbatp8725
Rp8726
(dp8727
g47
VVP
p8728
sbatp8729
Rp8730
(dp8731
g47
g310
sbatp8732
Rp8733
(dp8734
g47
VSBAR
p8735
sbatp8736
Rp8737
(dp8738
g47
VNP
p8739
sbatp8740
Rp8741
(dp8742
g47
VFRAG
p8743
sbatp8744
Rp8745
(dp8746
g47
VROOT
p8747
sbasba(icmyPackage
Sent
p8748
(dp8749
g14
I3
sg29
I12
sg30
S'.'
p8750
sg32
I0
sg33
I48
sg34
(lp8751
g36
(g37
g38
(lp8752
g36
(g37
g38
(lp8753
g36
(g37
g38
(lp8754
g303
atp8755
Rp8756
(dp8757
g47
VUH
p8758
sbatp8759
Rp8760
(dp8761
g47
VINTJ
p8762
sbatp8763
Rp8764
(dp8765
g47
VROOT
p8766
sbasbasg1768
I5
sg29
I12
sg32
I0
sba(icmyPackage
Parag
p8767
(dp8768
g14
I3
sg25
(lp8769
(icmyPackage
Sent
p8770
(dp8771
g14
I3
sg29
I13
sg30
S'6) Regarding its entire mental state up to the present as an object, i.e.'
p8772
sg32
I0
sg33
I49
sg34
(lp8773
g36
(g37
g38
(lp8774
g36
(g37
g38
(lp8775
g36
(g37
g38
(lp8776
g36
(g37
g38
(lp8777
g36
(g37
g38
(lp8778
V6
p8779
atp8780
Rp8781
(dp8782
g47
VCD
p8783
sbag36
(g37
g38
(lp8784
V-RRB-
p8785
atp8786
Rp8787
(dp8788
g47
VCD
p8789
sbatp8790
Rp8791
(dp8792
g47
VQP
p8793
sbatp8794
Rp8795
(dp8796
g47
VNP
p8797
sbag36
(g37
g38
(lp8798
g36
(g37
g38
(lp8799
g36
(g37
g38
(lp8800
VRegarding
p8801
atp8802
Rp8803
(dp8804
g47
VVBG
p8805
sbag36
(g37
g38
(lp8806
g36
(g37
g38
(lp8807
Vits
p8808
atp8809
Rp8810
(dp8811
g47
VPRP$
p8812
sbag36
(g37
g38
(lp8813
Ventire
p8814
atp8815
Rp8816
(dp8817
g47
VJJ
p8818
sbag36
(g37
g38
(lp8819
Vmental
p8820
atp8821
Rp8822
(dp8823
g47
VJJ
p8824
sbag36
(g37
g38
(lp8825
Vstate
p8826
atp8827
Rp8828
(dp8829
g47
VNN
p8830
sbatp8831
Rp8832
(dp8833
g47
VNP
p8834
sbag36
(g37
g38
(lp8835
g36
(g37
g38
(lp8836
Vup
p8837
atp8838
Rp8839
(dp8840
g47
VRP
p8841
sbatp8842
Rp8843
(dp8844
g47
VPRT
p8845
sbag36
(g37
g38
(lp8846
g36
(g37
g38
(lp8847
Vto
p8848
atp8849
Rp8850
(dp8851
g47
VTO
p8852
sbag36
(g37
g38
(lp8853
g36
(g37
g38
(lp8854
g36
(g37
g38
(lp8855
Vthe
p8856
atp8857
Rp8858
(dp8859
g47
VDT
p8860
sbag36
(g37
g38
(lp8861
Vpresent
p8862
atp8863
Rp8864
(dp8865
g47
VNN
p8866
sbatp8867
Rp8868
(dp8869
g47
VNP
p8870
sbag36
(g37
g38
(lp8871
g36
(g37
g38
(lp8872
Vas
p8873
atp8874
Rp8875
(dp8876
g47
VIN
p8877
sbag36
(g37
g38
(lp8878
g36
(g37
g38
(lp8879
g36
(g37
g38
(lp8880
Van
p8881
atp8882
Rp8883
(dp8884
g47
VDT
p8885
sbag36
(g37
g38
(lp8886
Vobject
p8887
atp8888
Rp8889
(dp8890
g47
VNN
p8891
sbatp8892
Rp8893
(dp8894
g47
VNP
p8895
sbag36
(g37
g38
(lp8896
g104
atp8897
Rp8898
(dp8899
g47
g104
sbag36
(g37
g38
(lp8900
g36
(g37
g38
(lp8901
Vi.e.
p8902
atp8903
Rp8904
(dp8905
g47
VNNP
p8906
sbatp8907
Rp8908
(dp8909
g47
VNP
p8910
sbatp8911
Rp8912
(dp8913
g47
VNP
p8914
sbatp8915
Rp8916
(dp8917
g47
VPP
p8918
sbatp8919
Rp8920
(dp8921
g47
VNP
p8922
sbatp8923
Rp8924
(dp8925
g47
VPP
p8926
sbatp8927
Rp8928
(dp8929
g47
VVP
p8930
sbatp8931
Rp8932
(dp8933
g47
g310
sbatp8934
Rp8935
(dp8936
g47
VFRAG
p8937
sbatp8938
Rp8939
(dp8940
g47
VROOT
p8941
sbasba(icmyPackage
Sent
p8942
(dp8943
g14
I3
sg29
I13
sg30
S'a context.'
p8944
sg32
I0
sg33
I50
sg34
(lp8945
g36
(g37
g38
(lp8946
g36
(g37
g38
(lp8947
g36
(g37
g38
(lp8948
g151
atp8949
Rp8950
(dp8951
g47
VDT
p8952
sbag36
(g37
g38
(lp8953
Vcontext
p8954
atp8955
Rp8956
(dp8957
g47
VNN
p8958
sbag36
(g37
g38
(lp8959
g303
atp8960
Rp8961
(dp8962
g47
g303
sbatp8963
Rp8964
(dp8965
g47
VNP
p8966
sbatp8967
Rp8968
(dp8969
g47
VROOT
p8970
sbasba(icmyPackage
Sent
p8971
(dp8972
g14
I3
sg29
I13
sg30
S'[McC93] discusses contexts as formal objects.'
p8973
sg32
I0
sg33
I51
sg34
(lp8974
g36
(g37
g38
(lp8975
g36
(g37
g38
(lp8976
g36
(g37
g38
(lp8977
g36
(g37
g38
(lp8978
V-LSB-
p8979
atp8980
Rp8981
(dp8982
g47
VNNP
p8983
sbag36
(g37
g38
(lp8984
VMcC93
p8985
atp8986
Rp8987
(dp8988
g47
VNNP
p8989
sbag36
(g37
g38
(lp8990
V-RSB-
p8991
atp8992
Rp8993
(dp8994
g47
VNNP
p8995
sbatp8996
Rp8997
(dp8998
g47
VNP
p8999
sbag36
(g37
g38
(lp9000
g36
(g37
g38
(lp9001
Vdiscusses
p9002
atp9003
Rp9004
(dp9005
g47
VVBZ
p9006
sbag36
(g37
g38
(lp9007
g36
(g37
g38
(lp9008
Vcontexts
p9009
atp9010
Rp9011
(dp9012
g47
VNNS
p9013
sbatp9014
Rp9015
(dp9016
g47
VNP
p9017
sbag36
(g37
g38
(lp9018
g36
(g37
g38
(lp9019
Vas
p9020
atp9021
Rp9022
(dp9023
g47
VIN
p9024
sbag36
(g37
g38
(lp9025
g36
(g37
g38
(lp9026
Vformal
p9027
atp9028
Rp9029
(dp9030
g47
VJJ
p9031
sbag36
(g37
g38
(lp9032
Vobjects
p9033
atp9034
Rp9035
(dp9036
g47
VNNS
p9037
sbatp9038
Rp9039
(dp9040
g47
VNP
p9041
sbatp9042
Rp9043
(dp9044
g47
VPP
p9045
sbatp9046
Rp9047
(dp9048
g47
VVP
p9049
sbag36
(g37
g38
(lp9050
g303
atp9051
Rp9052
(dp9053
g47
g303
sbatp9054
Rp9055
(dp9056
g47
g310
sbatp9057
Rp9058
(dp9059
g47
VROOT
p9060
sbasba(icmyPackage
Sent
p9061
(dp9062
g14
I3
sg29
I13
sg30
S"The ability to transcend one's present context and think about it as an object is an important form of introspection, especially when we compare human and machine intelligence as Roger Penrose (1994) and other philosophical AI critics do."
p9063
sg32
I0
sg33
I52
sg34
(lp9064
g36
(g37
g38
(lp9065
g36
(g37
g38
(lp9066
g36
(g37
g38
(lp9067
g36
(g37
g38
(lp9068
VThe
p9069
atp9070
Rp9071
(dp9072
g47
VDT
p9073
sbag36
(g37
g38
(lp9074
Vability
p9075
atp9076
Rp9077
(dp9078
g47
VNN
p9079
sbag36
(g37
g38
(lp9080
g36
(g37
g38
(lp9081
g36
(g37
g38
(lp9082
Vto
p9083
atp9084
Rp9085
(dp9086
g47
VTO
p9087
sbag36
(g37
g38
(lp9088
g36
(g37
g38
(lp9089
g36
(g37
g38
(lp9090
Vtranscend
p9091
atp9092
Rp9093
(dp9094
g47
VVB
p9095
sbag36
(g37
g38
(lp9096
g36
(g37
g38
(lp9097
g36
(g37
g38
(lp9098
Vone
p9099
atp9100
Rp9101
(dp9102
g47
VCD
p9103
sbag36
(g37
g38
(lp9104
V's
p9105
atp9106
Rp9107
(dp9108
g47
VPOS
p9109
sbatp9110
Rp9111
(dp9112
g47
VNP
p9113
sbag36
(g37
g38
(lp9114
Vpresent
p9115
atp9116
Rp9117
(dp9118
g47
VJJ
p9119
sbag36
(g37
g38
(lp9120
Vcontext
p9121
atp9122
Rp9123
(dp9124
g47
VNN
p9125
sbatp9126
Rp9127
(dp9128
g47
VNP
p9129
sbatp9130
Rp9131
(dp9132
g47
VVP
p9133
sbag36
(g37
g38
(lp9134
Vand
p9135
atp9136
Rp9137
(dp9138
g47
VCC
p9139
sbag36
(g37
g38
(lp9140
g36
(g37
g38
(lp9141
Vthink
p9142
atp9143
Rp9144
(dp9145
g47
VVB
p9146
sbag36
(g37
g38
(lp9147
g36
(g37
g38
(lp9148
Vabout
p9149
atp9150
Rp9151
(dp9152
g47
VIN
p9153
sbag36
(g37
g38
(lp9154
g36
(g37
g38
(lp9155
Vit
p9156
atp9157
Rp9158
(dp9159
g47
VPRP
p9160
sbatp9161
Rp9162
(dp9163
g47
VNP
p9164
sbatp9165
Rp9166
(dp9167
g47
VPP
p9168
sbag36
(g37
g38
(lp9169
g36
(g37
g38
(lp9170
Vas
p9171
atp9172
Rp9173
(dp9174
g47
VIN
p9175
sbag36
(g37
g38
(lp9176
g36
(g37
g38
(lp9177
g36
(g37
g38
(lp9178
Van
p9179
atp9180
Rp9181
(dp9182
g47
VDT
p9183
sbag36
(g37
g38
(lp9184
Vobject
p9185
atp9186
Rp9187
(dp9188
g47
VNN
p9189
sbatp9190
Rp9191
(dp9192
g47
VNP
p9193
sbag36
(g37
g38
(lp9194
g36
(g37
g38
(lp9195
Vis
p9196
atp9197
Rp9198
(dp9199
g47
VVBZ
p9200
sbag36
(g37
g38
(lp9201
g36
(g37
g38
(lp9202
g36
(g37
g38
(lp9203
Van
p9204
atp9205
Rp9206
(dp9207
g47
VDT
p9208
sbag36
(g37
g38
(lp9209
Vimportant
p9210
atp9211
Rp9212
(dp9213
g47
VJJ
p9214
sbag36
(g37
g38
(lp9215
Vform
p9216
atp9217
Rp9218
(dp9219
g47
VNN
p9220
sbatp9221
Rp9222
(dp9223
g47
VNP
p9224
sbag36
(g37
g38
(lp9225
g36
(g37
g38
(lp9226
Vof
p9227
atp9228
Rp9229
(dp9230
g47
VIN
p9231
sbag36
(g37
g38
(lp9232
g36
(g37
g38
(lp9233
g36
(g37
g38
(lp9234
Vintrospection
p9235
atp9236
Rp9237
(dp9238
g47
VNN
p9239
sbatp9240
Rp9241
(dp9242
g47
VNP
p9243
sbag36
(g37
g38
(lp9244
g104
atp9245
Rp9246
(dp9247
g47
g104
sbag36
(g37
g38
(lp9248
g36
(g37
g38
(lp9249
g36
(g37
g38
(lp9250
Vespecially
p9251
atp9252
Rp9253
(dp9254
g47
VRB
p9255
sbag36
(g37
g38
(lp9256
Vwhen
p9257
atp9258
Rp9259
(dp9260
g47
VWRB
p9261
sbatp9262
Rp9263
(dp9264
g47
VWHADVP
p9265
sbag36
(g37
g38
(lp9266
g36
(g37
g38
(lp9267
g36
(g37
g38
(lp9268
Vwe
p9269
atp9270
Rp9271
(dp9272
g47
VPRP
p9273
sbatp9274
Rp9275
(dp9276
g47
VNP
p9277
sbag36
(g37
g38
(lp9278
g36
(g37
g38
(lp9279
Vcompare
p9280
atp9281
Rp9282
(dp9283
g47
VVBP
p9284
sbag36
(g37
g38
(lp9285
g36
(g37
g38
(lp9286
Vhuman
p9287
atp9288
Rp9289
(dp9290
g47
VJJ
p9291
sbag36
(g37
g38
(lp9292
Vand
p9293
atp9294
Rp9295
(dp9296
g47
VCC
p9297
sbag36
(g37
g38
(lp9298
Vmachine
p9299
atp9300
Rp9301
(dp9302
g47
VNN
p9303
sbag36
(g37
g38
(lp9304
Vintelligence
p9305
atp9306
Rp9307
(dp9308
g47
VNN
p9309
sbatp9310
Rp9311
(dp9312
g47
VNP
p9313
sbag36
(g37
g38
(lp9314
g36
(g37
g38
(lp9315
Vas
p9316
atp9317
Rp9318
(dp9319
g47
VIN
p9320
sbag36
(g37
g38
(lp9321
g36
(g37
g38
(lp9322
g36
(g37
g38
(lp9323
g36
(g37
g38
(lp9324
VRoger
p9325
atp9326
Rp9327
(dp9328
g47
VNNP
p9329
sbag36
(g37
g38
(lp9330
VPenrose
p9331
atp9332
Rp9333
(dp9334
g47
VNNP
p9335
sbatp9336
Rp9337
(dp9338
g47
VNP
p9339
sbag36
(g37
g38
(lp9340
g36
(g37
g38
(lp9341
V-LRB-
p9342
atp9343
Rp9344
(dp9345
g47
V-LRB-
p9346
sbag36
(g37
g38
(lp9347
g36
(g37
g38
(lp9348
V1994
p9349
atp9350
Rp9351
(dp9352
g47
VCD
p9353
sbatp9354
Rp9355
(dp9356
g47
VNP
p9357
sbag36
(g37
g38
(lp9358
V-RRB-
p9359
atp9360
Rp9361
(dp9362
g47
V-RRB-
p9363
sbatp9364
Rp9365
(dp9366
g47
VPRN
p9367
sbatp9368
Rp9369
(dp9370
g47
VNP
p9371
sbag36
(g37
g38
(lp9372
Vand
p9373
atp9374
Rp9375
(dp9376
g47
VCC
p9377
sbag36
(g37
g38
(lp9378
g36
(g37
g38
(lp9379
Vother
p9380
atp9381
Rp9382
(dp9383
g47
VJJ
p9384
sbag36
(g37
g38
(lp9385
Vphilosophical
p9386
atp9387
Rp9388
(dp9389
g47
VJJ
p9390
sbag36
(g37
g38
(lp9391
VAI
p9392
atp9393
Rp9394
(dp9395
g47
VNNP
p9396
sbag36
(g37
g38
(lp9397
Vcritics
p9398
atp9399
Rp9400
(dp9401
g47
VNNS
p9402
sbatp9403
Rp9404
(dp9405
g47
VNP
p9406
sbatp9407
Rp9408
(dp9409
g47
VNP
p9410
sbatp9411
Rp9412
(dp9413
g47
VPP
p9414
sbatp9415
Rp9416
(dp9417
g47
VVP
p9418
sbatp9419
Rp9420
(dp9421
g47
g310
sbatp9422
Rp9423
(dp9424
g47
VSBAR
p9425
sbatp9426
Rp9427
(dp9428
g47
VNP
p9429
sbatp9430
Rp9431
(dp9432
g47
VPP
p9433
sbatp9434
Rp9435
(dp9436
g47
VNP
p9437
sbatp9438
Rp9439
(dp9440
g47
VVP
p9441
sbatp9442
Rp9443
(dp9444
g47
g310
sbatp9445
Rp9446
(dp9447
g47
VSBAR
p9448
sbatp9449
Rp9450
(dp9451
g47
VVP
p9452
sbatp9453
Rp9454
(dp9455
g47
VVP
p9456
sbatp9457
Rp9458
(dp9459
g47
VVP
p9460
sbatp9461
Rp9462
(dp9463
g47
g310
sbatp9464
Rp9465
(dp9466
g47
VNP
p9467
sbag36
(g37
g38
(lp9468
g36
(g37
g38
(lp9469
Vdo
p9470
atp9471
Rp9472
(dp9473
g47
VVBP
p9474
sbatp9475
Rp9476
(dp9477
g47
VVP
p9478
sbag36
(g37
g38
(lp9479
g303
atp9480
Rp9481
(dp9482
g47
g303
sbatp9483
Rp9484
(dp9485
g47
g310
sbatp9486
Rp9487
(dp9488
g47
VROOT
p9489
sbasbasg1768
I4
sg29
I13
sg32
I0
sba(icmyPackage
Parag
p9490
(dp9491
g14
I3
sg25
(lp9492
(icmyPackage
Sent
p9493
(dp9494
g14
I3
sg29
I14
sg30
S'7) Knowing what goals it can currently achieve and what its choices are for action.'
p9495
sg32
I0
sg33
I53
sg34
(lp9496
g36
(g37
g38
(lp9497
g36
(g37
g38
(lp9498
g36
(g37
g38
(lp9499
g36
(g37
g38
(lp9500
V7
p9501
atp9502
Rp9503
(dp9504
g47
VCD
p9505
sbag36
(g37
g38
(lp9506
V-RRB-
p9507
atp9508
Rp9509
(dp9510
g47
VNNS
p9511
sbatp9512
Rp9513
(dp9514
g47
VNP
p9515
sbag36
(g37
g38
(lp9516
g36
(g37
g38
(lp9517
VKnowing
p9518
atp9519
Rp9520
(dp9521
g47
VVBG
p9522
sbag36
(g37
g38
(lp9523
g36
(g37
g38
(lp9524
g36
(g37
g38
(lp9525
g36
(g37
g38
(lp9526
Vwhat
p9527
atp9528
Rp9529
(dp9530
g47
VWP
p9531
sbatp9532
Rp9533
(dp9534
g47
VWHNP
p9535
sbag36
(g37
g38
(lp9536
g36
(g37
g38
(lp9537
g36
(g37
g38
(lp9538
Vgoals
p9539
atp9540
Rp9541
(dp9542
g47
VVBD
p9543
sbag36
(g37
g38
(lp9544
g36
(g37
g38
(lp9545
g36
(g37
g38
(lp9546
g36
(g37
g38
(lp9547
Vit
p9548
atp9549
Rp9550
(dp9551
g47
VPRP
p9552
sbatp9553
Rp9554
(dp9555
g47
VNP
p9556
sbag36
(g37
g38
(lp9557
g36
(g37
g38
(lp9558
Vcan
p9559
atp9560
Rp9561
(dp9562
g47
VMD
p9563
sbag36
(g37
g38
(lp9564
g36
(g37
g38
(lp9565
Vcurrently
p9566
atp9567
Rp9568
(dp9569
g47
VRB
p9570
sbatp9571
Rp9572
(dp9573
g47
VADVP
p9574
sbag36
(g37
g38
(lp9575
g36
(g37
g38
(lp9576
Vachieve
p9577
atp9578
Rp9579
(dp9580
g47
VVB
p9581
sbatp9582
Rp9583
(dp9584
g47
VVP
p9585
sbatp9586
Rp9587
(dp9588
g47
VVP
p9589
sbatp9590
Rp9591
(dp9592
g47
g310
sbatp9593
Rp9594
(dp9595
g47
VSBAR
p9596
sbatp9597
Rp9598
(dp9599
g47
VVP
p9600
sbatp9601
Rp9602
(dp9603
g47
g310
sbatp9604
Rp9605
(dp9606
g47
VSBAR
p9607
sbag36
(g37
g38
(lp9608
Vand
p9609
atp9610
Rp9611
(dp9612
g47
VCC
p9613
sbag36
(g37
g38
(lp9614
g36
(g37
g38
(lp9615
g36
(g37
g38
(lp9616
Vwhat
p9617
atp9618
Rp9619
(dp9620
g47
VWP
p9621
sbatp9622
Rp9623
(dp9624
g47
VWHNP
p9625
sbag36
(g37
g38
(lp9626
g36
(g37
g38
(lp9627
g36
(g37
g38
(lp9628
Vits
p9629
atp9630
Rp9631
(dp9632
g47
VPRP$
p9633
sbag36
(g37
g38
(lp9634
Vchoices
p9635
atp9636
Rp9637
(dp9638
g47
VNNS
p9639
sbatp9640
Rp9641
(dp9642
g47
VNP
p9643
sbag36
(g37
g38
(lp9644
g36
(g37
g38
(lp9645
Vare
p9646
atp9647
Rp9648
(dp9649
g47
VVBP
p9650
sbag36
(g37
g38
(lp9651
g36
(g37
g38
(lp9652
Vfor
p9653
atp9654
Rp9655
(dp9656
g47
VIN
p9657
sbag36
(g37
g38
(lp9658
g36
(g37
g38
(lp9659
Vaction
p9660
atp9661
Rp9662
(dp9663
g47
VNN
p9664
sbatp9665
Rp9666
(dp9667
g47
VNP
p9668
sbatp9669
Rp9670
(dp9671
g47
VPP
p9672
sbatp9673
Rp9674
(dp9675
g47
VVP
p9676
sbatp9677
Rp9678
(dp9679
g47
g310
sbatp9680
Rp9681
(dp9682
g47
VSBAR
p9683
sbatp9684
Rp9685
(dp9686
g47
VSBAR
p9687
sbatp9688
Rp9689
(dp9690
g47
VVP
p9691
sbag36
(g37
g38
(lp9692
g303
atp9693
Rp9694
(dp9695
g47
g303
sbatp9696
Rp9697
(dp9698
g47
VNP
p9699
sbatp9700
Rp9701
(dp9702
g47
VROOT
p9703
sbasba(icmyPackage
Sent
p9704
(dp9705
g14
I3
sg29
I14
sg30
S"We claim that the ability to understand one's own choices constitutes free will."
p9706
sg32
I0
sg33
I54
sg34
(lp9707
g36
(g37
g38
(lp9708
g36
(g37
g38
(lp9709
g36
(g37
g38
(lp9710
g36
(g37
g38
(lp9711
VWe
p9712
atp9713
Rp9714
(dp9715
g47
VPRP
p9716
sbatp9717
Rp9718
(dp9719
g47
VNP
p9720
sbag36
(g37
g38
(lp9721
g36
(g37
g38
(lp9722
Vclaim
p9723
atp9724
Rp9725
(dp9726
g47
VVBP
p9727
sbag36
(g37
g38
(lp9728
g36
(g37
g38
(lp9729
Vthat
p9730
atp9731
Rp9732
(dp9733
g47
VIN
p9734
sbag36
(g37
g38
(lp9735
g36
(g37
g38
(lp9736
g36
(g37
g38
(lp9737
Vthe
p9738
atp9739
Rp9740
(dp9741
g47
VDT
p9742
sbag36
(g37
g38
(lp9743
Vability
p9744
atp9745
Rp9746
(dp9747
g47
VNN
p9748
sbag36
(g37
g38
(lp9749
g36
(g37
g38
(lp9750
g36
(g37
g38
(lp9751
Vto
p9752
atp9753
Rp9754
(dp9755
g47
VTO
p9756
sbag36
(g37
g38
(lp9757
g36
(g37
g38
(lp9758
Vunderstand
p9759
atp9760
Rp9761
(dp9762
g47
VVB
p9763
sbag36
(g37
g38
(lp9764
g36
(g37
g38
(lp9765
g36
(g37
g38
(lp9766
Vone
p9767
atp9768
Rp9769
(dp9770
g47
VCD
p9771
sbag36
(g37
g38
(lp9772
V's
p9773
atp9774
Rp9775
(dp9776
g47
VPOS
p9777
sbatp9778
Rp9779
(dp9780
g47
VNP
p9781
sbag36
(g37
g38
(lp9782
Vown
p9783
atp9784
Rp9785
(dp9786
g47
VJJ
p9787
sbag36
(g37
g38
(lp9788
Vchoices
p9789
atp9790
Rp9791
(dp9792
g47
VNNS
p9793
sbatp9794
Rp9795
(dp9796
g47
VNP
p9797
sbatp9798
Rp9799
(dp9800
g47
VVP
p9801
sbatp9802
Rp9803
(dp9804
g47
VVP
p9805
sbatp9806
Rp9807
(dp9808
g47
g310
sbatp9809
Rp9810
(dp9811
g47
VNP
p9812
sbag36
(g37
g38
(lp9813
g36
(g37
g38
(lp9814
Vconstitutes
p9815
atp9816
Rp9817
(dp9818
g47
VVBZ
p9819
sbag36
(g37
g38
(lp9820
g36
(g37
g38
(lp9821
Vfree
p9822
atp9823
Rp9824
(dp9825
g47
VJJ
p9826
sbag36
(g37
g38
(lp9827
Vwill
p9828
atp9829
Rp9830
(dp9831
g47
VNN
p9832
sbatp9833
Rp9834
(dp9835
g47
VNP
p9836
sbatp9837
Rp9838
(dp9839
g47
VVP
p9840
sbatp9841
Rp9842
(dp9843
g47
g310
sbatp9844
Rp9845
(dp9846
g47
VSBAR
p9847
sbatp9848
Rp9849
(dp9850
g47
VVP
p9851
sbag36
(g37
g38
(lp9852
g303
atp9853
Rp9854
(dp9855
g47
g303
sbatp9856
Rp9857
(dp9858
g47
g310
sbatp9859
Rp9860
(dp9861
g47
VROOT
p9862
sbasba(icmyPackage
Sent
p9863
(dp9864
g14
I3
sg29
I14
sg30
S'The subject is discussed in detail in [MH69].'
p9865
sg32
I0
sg33
I55
sg34
(lp9866
g36
(g37
g38
(lp9867
g36
(g37
g38
(lp9868
g36
(g37
g38
(lp9869
g36
(g37
g38
(lp9870
VThe
p9871
atp9872
Rp9873
(dp9874
g47
VDT
p9875
sbag36
(g37
g38
(lp9876
Vsubject
p9877
atp9878
Rp9879
(dp9880
g47
VNN
p9881
sbatp9882
Rp9883
(dp9884
g47
VNP
p9885
sbag36
(g37
g38
(lp9886
g36
(g37
g38
(lp9887
Vis
p9888
atp9889
Rp9890
(dp9891
g47
VVBZ
p9892
sbag36
(g37
g38
(lp9893
g36
(g37
g38
(lp9894
Vdiscussed
p9895
atp9896
Rp9897
(dp9898
g47
VVBN
p9899
sbag36
(g37
g38
(lp9900
g36
(g37
g38
(lp9901
Vin
p9902
atp9903
Rp9904
(dp9905
g47
VIN
p9906
sbag36
(g37
g38
(lp9907
g36
(g37
g38
(lp9908
g36
(g37
g38
(lp9909
Vdetail
p9910
atp9911
Rp9912
(dp9913
g47
VNN
p9914
sbatp9915
Rp9916
(dp9917
g47
VNP
p9918
sbag36
(g37
g38
(lp9919
g36
(g37
g38
(lp9920
Vin
p9921
atp9922
Rp9923
(dp9924
g47
VIN
p9925
sbag36
(g37
g38
(lp9926
g36
(g37
g38
(lp9927
V-LSB-
p9928
atp9929
Rp9930
(dp9931
g47
VNNP
p9932
sbag36
(g37
g38
(lp9933
VMH69
p9934
atp9935
Rp9936
(dp9937
g47
VNNP
p9938
sbag36
(g37
g38
(lp9939
V-RSB-
p9940
atp9941
Rp9942
(dp9943
g47
VNNP
p9944
sbatp9945
Rp9946
(dp9947
g47
VNP
p9948
sbatp9949
Rp9950
(dp9951
g47
VPP
p9952
sbatp9953
Rp9954
(dp9955
g47
VNP
p9956
sbatp9957
Rp9958
(dp9959
g47
VPP
p9960
sbatp9961
Rp9962
(dp9963
g47
VVP
p9964
sbatp9965
Rp9966
(dp9967
g47
VVP
p9968
sbag36
(g37
g38
(lp9969
g303
atp9970
Rp9971
(dp9972
g47
g303
sbatp9973
Rp9974
(dp9975
g47
g310
sbatp9976
Rp9977
(dp9978
g47
VROOT
p9979
sbasbasg1768
I3
sg29
I14
sg32
I0
sba(icmyPackage
Parag
p9980
(dp9981
g14
I3
sg25
(lp9982
(icmyPackage
Sent
p9983
(dp9984
g14
I3
sg29
I15
sg30
S'Taken together these requirements for successful human-level goal achieving behavior amount to a substantial fraction of human consciousness.'
p9985
sg32
I0
sg33
I56
sg34
(lp9986
g36
(g37
g38
(lp9987
g36
(g37
g38
(lp9988
g36
(g37
g38
(lp9989
g36
(g37
g38
(lp9990
VTaken
p9991
atp9992
Rp9993
(dp9994
g47
VVBN
p9995
sbag36
(g37
g38
(lp9996
g36
(g37
g38
(lp9997
Vtogether
p9998
atp9999
Rp10000
(dp10001
g47
VRP
p10002
sbatp10003
Rp10004
(dp10005
g47
VPRT
p10006
sbag36
(g37
g38
(lp10007
g36
(g37
g38
(lp10008
g36
(g37
g38
(lp10009
Vthese
p10010
atp10011
Rp10012
(dp10013
g47
VDT
p10014
sbag36
(g37
g38
(lp10015
Vrequirements
p10016
atp10017
Rp10018
(dp10019
g47
VNNS
p10020
sbatp10021
Rp10022
(dp10023
g47
VNP
p10024
sbag36
(g37
g38
(lp10025
g36
(g37
g38
(lp10026
Vfor
p10027
atp10028
Rp10029
(dp10030
g47
VIN
p10031
sbag36
(g37
g38
(lp10032
g36
(g37
g38
(lp10033
Vsuccessful
p10034
atp10035
Rp10036
(dp10037
g47
VJJ
p10038
sbag36
(g37
g38
(lp10039
Vhuman-level
p10040
atp10041
Rp10042
(dp10043
g47
VJJ
p10044
sbag36
(g37
g38
(lp10045
Vgoal
p10046
atp10047
Rp10048
(dp10049
g47
VNN
p10050
sbatp10051
Rp10052
(dp10053
g47
VNP
p10054
sbatp10055
Rp10056
(dp10057
g47
VPP
p10058
sbatp10059
Rp10060
(dp10061
g47
VNP
p10062
sbag36
(g37
g38
(lp10063
g36
(g37
g38
(lp10064
g36
(g37
g38
(lp10065
Vachieving
p10066
atp10067
Rp10068
(dp10069
g47
VVBG
p10070
sbag36
(g37
g38
(lp10071
g36
(g37
g38
(lp10072
Vbehavior
p10073
atp10074
Rp10075
(dp10076
g47
VNN
p10077
sbag36
(g37
g38
(lp10078
Vamount
p10079
atp10080
Rp10081
(dp10082
g47
VNN
p10083
sbatp10084
Rp10085
(dp10086
g47
VNP
p10087
sbag36
(g37
g38
(lp10088
g36
(g37
g38
(lp10089
Vto
p10090
atp10091
Rp10092
(dp10093
g47
VTO
p10094
sbag36
(g37
g38
(lp10095
g36
(g37
g38
(lp10096
g36
(g37
g38
(lp10097
g151
atp10098
Rp10099
(dp10100
g47
VDT
p10101
sbag36
(g37
g38
(lp10102
Vsubstantial
p10103
atp10104
Rp10105
(dp10106
g47
VJJ
p10107
sbag36
(g37
g38
(lp10108
Vfraction
p10109
atp10110
Rp10111
(dp10112
g47
VNN
p10113
sbatp10114
Rp10115
(dp10116
g47
VNP
p10117
sbag36
(g37
g38
(lp10118
g36
(g37
g38
(lp10119
Vof
p10120
atp10121
Rp10122
(dp10123
g47
VIN
p10124
sbag36
(g37
g38
(lp10125
g36
(g37
g38
(lp10126
Vhuman
p10127
atp10128
Rp10129
(dp10130
g47
VJJ
p10131
sbag36
(g37
g38
(lp10132
Vconsciousness
p10133
atp10134
Rp10135
(dp10136
g47
VNN
p10137
sbatp10138
Rp10139
(dp10140
g47
VNP
p10141
sbatp10142
Rp10143
(dp10144
g47
VPP
p10145
sbatp10146
Rp10147
(dp10148
g47
VNP
p10149
sbatp10150
Rp10151
(dp10152
g47
VPP
p10153
sbatp10154
Rp10155
(dp10156
g47
VVP
p10157
sbatp10158
Rp10159
(dp10160
g47
g310
sbatp10161
Rp10162
(dp10163
g47
VVP
p10164
sbag36
(g37
g38
(lp10165
g303
atp10166
Rp10167
(dp10168
g47
g303
sbatp10169
Rp10170
(dp10171
g47
g310
sbatp10172
Rp10173
(dp10174
g47
VROOT
p10175
sbasba(icmyPackage
Sent
p10176
(dp10177
g14
I3
sg29
I15
sg30
S'A human emotional structure is not required for robots.'
p10178
sg32
I0
sg33
I57
sg34
(lp10179
g36
(g37
g38
(lp10180
g36
(g37
g38
(lp10181
g36
(g37
g38
(lp10182
g36
(g37
g38
(lp10183
VA
p10184
atp10185
Rp10186
(dp10187
g47
VDT
p10188
sbag36
(g37
g38
(lp10189
Vhuman
p10190
atp10191
Rp10192
(dp10193
g47
VJJ
p10194
sbag36
(g37
g38
(lp10195
Vemotional
p10196
atp10197
Rp10198
(dp10199
g47
VJJ
p10200
sbag36
(g37
g38
(lp10201
Vstructure
p10202
atp10203
Rp10204
(dp10205
g47
VNN
p10206
sbatp10207
Rp10208
(dp10209
g47
VNP
p10210
sbag36
(g37
g38
(lp10211
g36
(g37
g38
(lp10212
Vis
p10213
atp10214
Rp10215
(dp10216
g47
VVBZ
p10217
sbag36
(g37
g38
(lp10218
Vnot
p10219
atp10220
Rp10221
(dp10222
g47
VRB
p10223
sbag36
(g37
g38
(lp10224
g36
(g37
g38
(lp10225
Vrequired
p10226
atp10227
Rp10228
(dp10229
g47
VVBN
p10230
sbag36
(g37
g38
(lp10231
g36
(g37
g38
(lp10232
Vfor
p10233
atp10234
Rp10235
(dp10236
g47
VIN
p10237
sbag36
(g37
g38
(lp10238
g36
(g37
g38
(lp10239
Vrobots
p10240
atp10241
Rp10242
(dp10243
g47
VNNS
p10244
sbatp10245
Rp10246
(dp10247
g47
VNP
p10248
sbatp10249
Rp10250
(dp10251
g47
VPP
p10252
sbatp10253
Rp10254
(dp10255
g47
VVP
p10256
sbatp10257
Rp10258
(dp10259
g47
VVP
p10260
sbag36
(g37
g38
(lp10261
g303
atp10262
Rp10263
(dp10264
g47
g303
sbatp10265
Rp10266
(dp10267
g47
g310
sbatp10268
Rp10269
(dp10270
g47
VROOT
p10271
sbasbasg1768
I2
sg29
I15
sg32
I0
sbasg32
I0
sbasg3485
I1
sg3486
S'Consciousness of Self'
p10272
sg20
I9
sg21
(lp10273
g5342
ag5664
ag5877
ag6251
ag6638
ag8080
ag8767
ag9490
ag9980
asba(icmyPackage
Sec
p10274
(dp10275
g14
I4
sg15
(lp10276
(icmyPackage
SubSec
p10277
(dp10278
g14
I4
sg19
Nsg20
I1
sg21
(lp10279
(icmyPackage
Parag
p10280
(dp10281
g14
I4
sg25
(lp10282
(icmyPackage
Sent
p10283
(dp10284
g14
I4
sg29
I16
sg30
S"Moody isn't consistent in his description of zombies."
p10285
sg32
I0
sg33
I58
sg34
(lp10286
g36
(g37
g38
(lp10287
g36
(g37
g38
(lp10288
g36
(g37
g38
(lp10289
g36
(g37
g38
(lp10290
VMoody
p10291
atp10292
Rp10293
(dp10294
g47
VNNP
p10295
sbatp10296
Rp10297
(dp10298
g47
VNP
p10299
sbag36
(g37
g38
(lp10300
g36
(g37
g38
(lp10301
Vis
p10302
atp10303
Rp10304
(dp10305
g47
VVBZ
p10306
sbag36
(g37
g38
(lp10307
Vn't
p10308
atp10309
Rp10310
(dp10311
g47
VRB
p10312
sbag36
(g37
g38
(lp10313
g36
(g37
g38
(lp10314
Vconsistent
p10315
atp10316
Rp10317
(dp10318
g47
VJJ
p10319
sbag36
(g37
g38
(lp10320
g36
(g37
g38
(lp10321
Vin
p10322
atp10323
Rp10324
(dp10325
g47
VIN
p10326
sbag36
(g37
g38
(lp10327
g36
(g37
g38
(lp10328
g36
(g37
g38
(lp10329
Vhis
p10330
atp10331
Rp10332
(dp10333
g47
VPRP$
p10334
sbag36
(g37
g38
(lp10335
Vdescription
p10336
atp10337
Rp10338
(dp10339
g47
VNN
p10340
sbatp10341
Rp10342
(dp10343
g47
VNP
p10344
sbag36
(g37
g38
(lp10345
g36
(g37
g38
(lp10346
Vof
p10347
atp10348
Rp10349
(dp10350
g47
VIN
p10351
sbag36
(g37
g38
(lp10352
g36
(g37
g38
(lp10353
Vzombies
p10354
atp10355
Rp10356
(dp10357
g47
VNNS
p10358
sbatp10359
Rp10360
(dp10361
g47
VNP
p10362
sbatp10363
Rp10364
(dp10365
g47
VPP
p10366
sbatp10367
Rp10368
(dp10369
g47
VNP
p10370
sbatp10371
Rp10372
(dp10373
g47
VPP
p10374
sbatp10375
Rp10376
(dp10377
g47
VADJP
p10378
sbatp10379
Rp10380
(dp10381
g47
VVP
p10382
sbag36
(g37
g38
(lp10383
g303
atp10384
Rp10385
(dp10386
g47
g303
sbatp10387
Rp10388
(dp10389
g47
g310
sbatp10390
Rp10391
(dp10392
g47
VROOT
p10393
sbasba(icmyPackage
Sent
p10394
(dp10395
g14
I4
sg29
I16
sg30
S'On the page 1 they behave like humans.'
p10396
sg32
I0
sg33
I59
sg34
(lp10397
g36
(g37
g38
(lp10398
g36
(g37
g38
(lp10399
g36
(g37
g38
(lp10400
g36
(g37
g38
(lp10401
VOn
p10402
atp10403
Rp10404
(dp10405
g47
VIN
p10406
sbag36
(g37
g38
(lp10407
g36
(g37
g38
(lp10408
Vthe
p10409
atp10410
Rp10411
(dp10412
g47
VDT
p10413
sbag36
(g37
g38
(lp10414
Vpage
p10415
atp10416
Rp10417
(dp10418
g47
VNN
p10419
sbag36
(g37
g38
(lp10420
g5675
atp10421
Rp10422
(dp10423
g47
VCD
p10424
sbatp10425
Rp10426
(dp10427
g47
VNP
p10428
sbatp10429
Rp10430
(dp10431
g47
VPP
p10432
sbag36
(g37
g38
(lp10433
g36
(g37
g38
(lp10434
Vthey
p10435
atp10436
Rp10437
(dp10438
g47
VPRP
p10439
sbatp10440
Rp10441
(dp10442
g47
VNP
p10443
sbag36
(g37
g38
(lp10444
g36
(g37
g38
(lp10445
Vbehave
p10446
atp10447
Rp10448
(dp10449
g47
VVBZ
p10450
sbag36
(g37
g38
(lp10451
g36
(g37
g38
(lp10452
Vlike
p10453
atp10454
Rp10455
(dp10456
g47
VIN
p10457
sbag36
(g37
g38
(lp10458
g36
(g37
g38
(lp10459
Vhumans
p10460
atp10461
Rp10462
(dp10463
g47
VNNS
p10464
sbatp10465
Rp10466
(dp10467
g47
VNP
p10468
sbatp10469
Rp10470
(dp10471
g47
VPP
p10472
sbatp10473
Rp10474
(dp10475
g47
VVP
p10476
sbag36
(g37
g38
(lp10477
g303
atp10478
Rp10479
(dp10480
g47
g303
sbatp10481
Rp10482
(dp10483
g47
g310
sbatp10484
Rp10485
(dp10486
g47
VROOT
p10487
sbasba(icmyPackage
Sent
p10488
(dp10489
g14
I4
sg29
I16
sg30
S'On page 3 they express puzzlement about human consciousness.'
p10490
sg32
I0
sg33
I60
sg34
(lp10491
g36
(g37
g38
(lp10492
g36
(g37
g38
(lp10493
g36
(g37
g38
(lp10494
g36
(g37
g38
(lp10495
VOn
p10496
atp10497
Rp10498
(dp10499
g47
VIN
p10500
sbag36
(g37
g38
(lp10501
g36
(g37
g38
(lp10502
Vpage
p10503
atp10504
Rp10505
(dp10506
g47
VNN
p10507
sbag36
(g37
g38
(lp10508
g6262
atp10509
Rp10510
(dp10511
g47
VCD
p10512
sbatp10513
Rp10514
(dp10515
g47
VNP
p10516
sbatp10517
Rp10518
(dp10519
g47
VPP
p10520
sbag36
(g37
g38
(lp10521
g36
(g37
g38
(lp10522
Vthey
p10523
atp10524
Rp10525
(dp10526
g47
VPRP
p10527
sbatp10528
Rp10529
(dp10530
g47
VNP
p10531
sbag36
(g37
g38
(lp10532
g36
(g37
g38
(lp10533
Vexpress
p10534
atp10535
Rp10536
(dp10537
g47
VVBP
p10538
sbag36
(g37
g38
(lp10539
g36
(g37
g38
(lp10540
g36
(g37
g38
(lp10541
Vpuzzlement
p10542
atp10543
Rp10544
(dp10545
g47
VNN
p10546
sbatp10547
Rp10548
(dp10549
g47
VNP
p10550
sbag36
(g37
g38
(lp10551
g36
(g37
g38
(lp10552
Vabout
p10553
atp10554
Rp10555
(dp10556
g47
VIN
p10557
sbag36
(g37
g38
(lp10558
g36
(g37
g38
(lp10559
Vhuman
p10560
atp10561
Rp10562
(dp10563
g47
VJJ
p10564
sbag36
(g37
g38
(lp10565
Vconsciousness
p10566
atp10567
Rp10568
(dp10569
g47
VNN
p10570
sbatp10571
Rp10572
(dp10573
g47
VNP
p10574
sbatp10575
Rp10576
(dp10577
g47
VPP
p10578
sbatp10579
Rp10580
(dp10581
g47
VNP
p10582
sbatp10583
Rp10584
(dp10585
g47
VVP
p10586
sbag36
(g37
g38
(lp10587
g303
atp10588
Rp10589
(dp10590
g47
g303
sbatp10591
Rp10592
(dp10593
g47
g310
sbatp10594
Rp10595
(dp10596
g47
VROOT
p10597
sbasba(icmyPackage
Sent
p10598
(dp10599
g14
I4
sg29
I16
sg30
S"Wouldn't a real Moody zombie behave as though it understood as much about consciousness as Moody does?"
p10600
sg32
I0
sg33
I61
sg34
(lp10601
g36
(g37
g38
(lp10602
g36
(g37
g38
(lp10603
g36
(g37
g38
(lp10604
VWould
p10605
atp10606
Rp10607
(dp10608
g47
VMD
p10609
sbag36
(g37
g38
(lp10610
Vn't
p10611
atp10612
Rp10613
(dp10614
g47
VRB
p10615
sbag36
(g37
g38
(lp10616
g36
(g37
g38
(lp10617
g151
atp10618
Rp10619
(dp10620
g47
VDT
p10621
sbag36
(g37
g38
(lp10622
Vreal
p10623
atp10624
Rp10625
(dp10626
g47
VJJ
p10627
sbag36
(g37
g38
(lp10628
VMoody
p10629
atp10630
Rp10631
(dp10632
g47
VNNP
p10633
sbag36
(g37
g38
(lp10634
Vzombie
p10635
atp10636
Rp10637
(dp10638
g47
VNN
p10639
sbatp10640
Rp10641
(dp10642
g47
VNP
p10643
sbag36
(g37
g38
(lp10644
g36
(g37
g38
(lp10645
Vbehave
p10646
atp10647
Rp10648
(dp10649
g47
VVB
p10650
sbag36
(g37
g38
(lp10651
g36
(g37
g38
(lp10652
Vas
p10653
atp10654
Rp10655
(dp10656
g47
VRB
p10657
sbag36
(g37
g38
(lp10658
Vthough
p10659
atp10660
Rp10661
(dp10662
g47
VIN
p10663
sbag36
(g37
g38
(lp10664
g36
(g37
g38
(lp10665
g36
(g37
g38
(lp10666
Vit
p10667
atp10668
Rp10669
(dp10670
g47
VPRP
p10671
sbatp10672
Rp10673
(dp10674
g47
VNP
p10675
sbag36
(g37
g38
(lp10676
g36
(g37
g38
(lp10677
Vunderstood
p10678
atp10679
Rp10680
(dp10681
g47
VVBD
p10682
sbag36
(g37
g38
(lp10683
g36
(g37
g38
(lp10684
Vas
p10685
atp10686
Rp10687
(dp10688
g47
VRB
p10689
sbag36
(g37
g38
(lp10690
Vmuch
p10691
atp10692
Rp10693
(dp10694
g47
VRB
p10695
sbatp10696
Rp10697
(dp10698
g47
VADVP
p10699
sbag36
(g37
g38
(lp10700
g36
(g37
g38
(lp10701
Vabout
p10702
atp10703
Rp10704
(dp10705
g47
VIN
p10706
sbag36
(g37
g38
(lp10707
g36
(g37
g38
(lp10708
Vconsciousness
p10709
atp10710
Rp10711
(dp10712
g47
VNN
p10713
sbatp10714
Rp10715
(dp10716
g47
VNP
p10717
sbatp10718
Rp10719
(dp10720
g47
VPP
p10721
sbag36
(g37
g38
(lp10722
g36
(g37
g38
(lp10723
Vas
p10724
atp10725
Rp10726
(dp10727
g47
VIN
p10728
sbag36
(g37
g38
(lp10729
g36
(g37
g38
(lp10730
g36
(g37
g38
(lp10731
VMoody
p10732
atp10733
Rp10734
(dp10735
g47
VNNP
p10736
sbatp10737
Rp10738
(dp10739
g47
VNP
p10740
sbag36
(g37
g38
(lp10741
g36
(g37
g38
(lp10742
Vdoes
p10743
atp10744
Rp10745
(dp10746
g47
VVBZ
p10747
sbatp10748
Rp10749
(dp10750
g47
VVP
p10751
sbatp10752
Rp10753
(dp10754
g47
g310
sbatp10755
Rp10756
(dp10757
g47
VSBAR
p10758
sbatp10759
Rp10760
(dp10761
g47
VVP
p10762
sbatp10763
Rp10764
(dp10765
g47
g310
sbatp10766
Rp10767
(dp10768
g47
VSBAR
p10769
sbatp10770
Rp10771
(dp10772
g47
VVP
p10773
sbag36
(g37
g38
(lp10774
g8607
atp10775
Rp10776
(dp10777
g47
g303
sbatp10778
Rp10779
(dp10780
g47
VSQ
p10781
sbatp10782
Rp10783
(dp10784
g47
VROOT
p10785
sbasbasg1768
I4
sg29
I16
sg32
I0
sbasg32
I0
sbasg3485
I1
sg3486
S'Moody Zombies'
p10786
sg20
I1
sg21
(lp10787
g10280
asbasS'Ftitle'
p10788
S"Todd Moody's Zombies"
p10789
sS's_num'
p10790
I62
sS'S_list'
p10791
(lp10792
(icmyPackage
Sent
p10793
(dp10794
g14
I0
sg29
I0
sg30
S'From the AI point of view, consciousness must be regarded as a collection of interacting processes rather than the unitary object of much philosophical speculation.'
p10795
sg32
I0
sg33
I0
sg34
(lp10796
g36
(g37
g38
(lp10797
g36
(g37
g38
(lp10798
g36
(g37
g38
(lp10799
g36
(g37
g38
(lp10800
VFrom
p10801
atp10802
Rp10803
(dp10804
g47
VIN
p10805
sbag36
(g37
g38
(lp10806
g36
(g37
g38
(lp10807
g36
(g37
g38
(lp10808
Vthe
p10809
atp10810
Rp10811
(dp10812
g47
VDT
p10813
sbag36
(g37
g38
(lp10814
VAI
p10815
atp10816
Rp10817
(dp10818
g47
VNNP
p10819
sbag36
(g37
g38
(lp10820
Vpoint
p10821
atp10822
Rp10823
(dp10824
g47
VNN
p10825
sbatp10826
Rp10827
(dp10828
g47
VNP
p10829
sbag36
(g37
g38
(lp10830
g36
(g37
g38
(lp10831
Vof
p10832
atp10833
Rp10834
(dp10835
g47
VIN
p10836
sbag36
(g37
g38
(lp10837
g36
(g37
g38
(lp10838
Vview
p10839
atp10840
Rp10841
(dp10842
g47
VNN
p10843
sbatp10844
Rp10845
(dp10846
g47
VNP
p10847
sbatp10848
Rp10849
(dp10850
g47
VPP
p10851
sbatp10852
Rp10853
(dp10854
g47
VNP
p10855
sbatp10856
Rp10857
(dp10858
g47
VPP
p10859
sbag36
(g37
g38
(lp10860
g104
atp10861
Rp10862
(dp10863
g47
g104
sbag36
(g37
g38
(lp10864
g36
(g37
g38
(lp10865
Vconsciousness
p10866
atp10867
Rp10868
(dp10869
g47
VNN
p10870
sbatp10871
Rp10872
(dp10873
g47
VNP
p10874
sbag36
(g37
g38
(lp10875
g36
(g37
g38
(lp10876
Vmust
p10877
atp10878
Rp10879
(dp10880
g47
VMD
p10881
sbag36
(g37
g38
(lp10882
g36
(g37
g38
(lp10883
Vbe
p10884
atp10885
Rp10886
(dp10887
g47
VVB
p10888
sbag36
(g37
g38
(lp10889
g36
(g37
g38
(lp10890
Vregarded
p10891
atp10892
Rp10893
(dp10894
g47
VVBN
p10895
sbag36
(g37
g38
(lp10896
g36
(g37
g38
(lp10897
Vas
p10898
atp10899
Rp10900
(dp10901
g47
VIN
p10902
sbag36
(g37
g38
(lp10903
g36
(g37
g38
(lp10904
g36
(g37
g38
(lp10905
g36
(g37
g38
(lp10906
g151
atp10907
Rp10908
(dp10909
g47
VDT
p10910
sbag36
(g37
g38
(lp10911
Vcollection
p10912
atp10913
Rp10914
(dp10915
g47
VNN
p10916
sbatp10917
Rp10918
(dp10919
g47
VNP
p10920
sbag36
(g37
g38
(lp10921
g36
(g37
g38
(lp10922
Vof
p10923
atp10924
Rp10925
(dp10926
g47
VIN
p10927
sbag36
(g37
g38
(lp10928
g36
(g37
g38
(lp10929
Vinteracting
p10930
atp10931
Rp10932
(dp10933
g47
VJJ
p10934
sbag36
(g37
g38
(lp10935
Vprocesses
p10936
atp10937
Rp10938
(dp10939
g47
VNNS
p10940
sbatp10941
Rp10942
(dp10943
g47
VNP
p10944
sbatp10945
Rp10946
(dp10947
g47
VPP
p10948
sbatp10949
Rp10950
(dp10951
g47
VNP
p10952
sbag36
(g37
g38
(lp10953
g36
(g37
g38
(lp10954
Vrather
p10955
atp10956
Rp10957
(dp10958
g47
VRB
p10959
sbag36
(g37
g38
(lp10960
Vthan
p10961
atp10962
Rp10963
(dp10964
g47
VIN
p10965
sbatp10966
Rp10967
(dp10968
g47
VCONJP
p10969
sbag36
(g37
g38
(lp10970
g36
(g37
g38
(lp10971
g36
(g37
g38
(lp10972
Vthe
p10973
atp10974
Rp10975
(dp10976
g47
VDT
p10977
sbag36
(g37
g38
(lp10978
Vunitary
p10979
atp10980
Rp10981
(dp10982
g47
VJJ
p10983
sbag36
(g37
g38
(lp10984
Vobject
p10985
atp10986
Rp10987
(dp10988
g47
VNN
p10989
sbatp10990
Rp10991
(dp10992
g47
VNP
p10993
sbag36
(g37
g38
(lp10994
g36
(g37
g38
(lp10995
Vof
p10996
atp10997
Rp10998
(dp10999
g47
VIN
p11000
sbag36
(g37
g38
(lp11001
g36
(g37
g38
(lp11002
g36
(g37
g38
(lp11003
Vmuch
p11004
atp11005
Rp11006
(dp11007
g47
VRB
p11008
sbag36
(g37
g38
(lp11009
Vphilosophical
p11010
atp11011
Rp11012
(dp11013
g47
VJJ
p11014
sbatp11015
Rp11016
(dp11017
g47
VADJP
p11018
sbag36
(g37
g38
(lp11019
Vspeculation
p11020
atp11021
Rp11022
(dp11023
g47
VNN
p11024
sbatp11025
Rp11026
(dp11027
g47
VNP
p11028
sbatp11029
Rp11030
(dp11031
g47
VPP
p11032
sbatp11033
Rp11034
(dp11035
g47
VNP
p11036
sbatp11037
Rp11038
(dp11039
g47
VNP
p11040
sbatp11041
Rp11042
(dp11043
g47
VPP
p11044
sbatp11045
Rp11046
(dp11047
g47
VVP
p11048
sbatp11049
Rp11050
(dp11051
g47
VVP
p11052
sbatp11053
Rp11054
(dp11055
g47
VVP
p11056
sbag36
(g37
g38
(lp11057
g303
atp11058
Rp11059
(dp11060
g47
g303
sbatp11061
Rp11062
(dp11063
g47
g310
sbatp11064
Rp11065
(dp11066
g47
VROOT
p11067
sbasba(icmyPackage
Sent
p11068
(dp11069
g14
I0
sg29
I0
sg30
S'We ask what kinds of propositions and other entities need to be designed for consciousness to be useful to an animal or a machine.'
p11070
sg32
I0
sg33
I1
sg34
(lp11071
g36
(g37
g38
(lp11072
g36
(g37
g38
(lp11073
g36
(g37
g38
(lp11074
g36
(g37
g38
(lp11075
VWe
p11076
atp11077
Rp11078
(dp11079
g47
VPRP
p11080
sbatp11081
Rp11082
(dp11083
g47
VNP
p11084
sbag36
(g37
g38
(lp11085
g36
(g37
g38
(lp11086
Vask
p11087
atp11088
Rp11089
(dp11090
g47
VVBP
p11091
sbag36
(g37
g38
(lp11092
g36
(g37
g38
(lp11093
g36
(g37
g38
(lp11094
Vwhat
p11095
atp11096
Rp11097
(dp11098
g47
VWP
p11099
sbatp11100
Rp11101
(dp11102
g47
VWHNP
p11103
sbag36
(g37
g38
(lp11104
g36
(g37
g38
(lp11105
g36
(g37
g38
(lp11106
g36
(g37
g38
(lp11107
Vkinds
p11108
atp11109
Rp11110
(dp11111
g47
VNNS
p11112
sbatp11113
Rp11114
(dp11115
g47
VNP
p11116
sbag36
(g37
g38
(lp11117
g36
(g37
g38
(lp11118
Vof
p11119
atp11120
Rp11121
(dp11122
g47
VIN
p11123
sbag36
(g37
g38
(lp11124
g36
(g37
g38
(lp11125
g36
(g37
g38
(lp11126
Vpropositions
p11127
atp11128
Rp11129
(dp11130
g47
VNNS
p11131
sbatp11132
Rp11133
(dp11134
g47
VNP
p11135
sbag36
(g37
g38
(lp11136
Vand
p11137
atp11138
Rp11139
(dp11140
g47
VCC
p11141
sbag36
(g37
g38
(lp11142
g36
(g37
g38
(lp11143
Vother
p11144
atp11145
Rp11146
(dp11147
g47
VJJ
p11148
sbag36
(g37
g38
(lp11149
Ventities
p11150
atp11151
Rp11152
(dp11153
g47
VNNS
p11154
sbatp11155
Rp11156
(dp11157
g47
VNP
p11158
sbatp11159
Rp11160
(dp11161
g47
VNP
p11162
sbatp11163
Rp11164
(dp11165
g47
VPP
p11166
sbatp11167
Rp11168
(dp11169
g47
VNP
p11170
sbag36
(g37
g38
(lp11171
g36
(g37
g38
(lp11172
Vneed
p11173
atp11174
Rp11175
(dp11176
g47
VVBP
p11177
sbag36
(g37
g38
(lp11178
g36
(g37
g38
(lp11179
g36
(g37
g38
(lp11180
Vto
p11181
atp11182
Rp11183
(dp11184
g47
VTO
p11185
sbag36
(g37
g38
(lp11186
g36
(g37
g38
(lp11187
Vbe
p11188
atp11189
Rp11190
(dp11191
g47
VVB
p11192
sbag36
(g37
g38
(lp11193
g36
(g37
g38
(lp11194
Vdesigned
p11195
atp11196
Rp11197
(dp11198
g47
VVBN
p11199
sbag36
(g37
g38
(lp11200
g36
(g37
g38
(lp11201
Vfor
p11202
atp11203
Rp11204
(dp11205
g47
VIN
p11206
sbag36
(g37
g38
(lp11207
g36
(g37
g38
(lp11208
Vconsciousness
p11209
atp11210
Rp11211
(dp11212
g47
VNN
p11213
sbatp11214
Rp11215
(dp11216
g47
VNP
p11217
sbatp11218
Rp11219
(dp11220
g47
VPP
p11221
sbag36
(g37
g38
(lp11222
g36
(g37
g38
(lp11223
g36
(g37
g38
(lp11224
Vto
p11225
atp11226
Rp11227
(dp11228
g47
VTO
p11229
sbag36
(g37
g38
(lp11230
g36
(g37
g38
(lp11231
Vbe
p11232
atp11233
Rp11234
(dp11235
g47
VVB
p11236
sbag36
(g37
g38
(lp11237
g36
(g37
g38
(lp11238
Vuseful
p11239
atp11240
Rp11241
(dp11242
g47
VJJ
p11243
sbag36
(g37
g38
(lp11244
g36
(g37
g38
(lp11245
Vto
p11246
atp11247
Rp11248
(dp11249
g47
VTO
p11250
sbag36
(g37
g38
(lp11251
g36
(g37
g38
(lp11252
g36
(g37
g38
(lp11253
Van
p11254
atp11255
Rp11256
(dp11257
g47
VDT
p11258
sbag36
(g37
g38
(lp11259
Vanimal
p11260
atp11261
Rp11262
(dp11263
g47
VNN
p11264
sbatp11265
Rp11266
(dp11267
g47
VNP
p11268
sbag36
(g37
g38
(lp11269
Vor
p11270
atp11271
Rp11272
(dp11273
g47
VCC
p11274
sbag36
(g37
g38
(lp11275
g36
(g37
g38
(lp11276
g151
atp11277
Rp11278
(dp11279
g47
VDT
p11280
sbag36
(g37
g38
(lp11281
Vmachine
p11282
atp11283
Rp11284
(dp11285
g47
VNN
p11286
sbatp11287
Rp11288
(dp11289
g47
VNP
p11290
sbatp11291
Rp11292
(dp11293
g47
VNP
p11294
sbatp11295
Rp11296
(dp11297
g47
VPP
p11298
sbatp11299
Rp11300
(dp11301
g47
VADJP
p11302
sbatp11303
Rp11304
(dp11305
g47
VVP
p11306
sbatp11307
Rp11308
(dp11309
g47
VVP
p11310
sbatp11311
Rp11312
(dp11313
g47
g310
sbatp11314
Rp11315
(dp11316
g47
VVP
p11317
sbatp11318
Rp11319
(dp11320
g47
VVP
p11321
sbatp11322
Rp11323
(dp11324
g47
VVP
p11325
sbatp11326
Rp11327
(dp11328
g47
g310
sbatp11329
Rp11330
(dp11331
g47
VVP
p11332
sbatp11333
Rp11334
(dp11335
g47
g310
sbatp11336
Rp11337
(dp11338
g47
VSBAR
p11339
sbatp11340
Rp11341
(dp11342
g47
VVP
p11343
sbag36
(g37
g38
(lp11344
g303
atp11345
Rp11346
(dp11347
g47
g303
sbatp11348
Rp11349
(dp11350
g47
g310
sbatp11351
Rp11352
(dp11353
g47
VROOT
p11354
sbasba(icmyPackage
Sent
p11355
(dp11356
g14
I0
sg29
I0
sg30
S'We thereby assert that human consciousness is useful to human functioning and not just and epiphenomenon.'
p11357
sg32
I0
sg33
I2
sg34
(lp11358
g36
(g37
g38
(lp11359
g36
(g37
g38
(lp11360
g36
(g37
g38
(lp11361
g36
(g37
g38
(lp11362
VWe
p11363
atp11364
Rp11365
(dp11366
g47
VPRP
p11367
sbatp11368
Rp11369
(dp11370
g47
VNP
p11371
sbag36
(g37
g38
(lp11372
g36
(g37
g38
(lp11373
Vthereby
p11374
atp11375
Rp11376
(dp11377
g47
VRB
p11378
sbatp11379
Rp11380
(dp11381
g47
VADVP
p11382
sbag36
(g37
g38
(lp11383
g36
(g37
g38
(lp11384
Vassert
p11385
atp11386
Rp11387
(dp11388
g47
VVBP
p11389
sbag36
(g37
g38
(lp11390
g36
(g37
g38
(lp11391
Vthat
p11392
atp11393
Rp11394
(dp11395
g47
VIN
p11396
sbag36
(g37
g38
(lp11397
g36
(g37
g38
(lp11398
g36
(g37
g38
(lp11399
Vhuman
p11400
atp11401
Rp11402
(dp11403
g47
VJJ
p11404
sbag36
(g37
g38
(lp11405
Vconsciousness
p11406
atp11407
Rp11408
(dp11409
g47
VNN
p11410
sbatp11411
Rp11412
(dp11413
g47
VNP
p11414
sbag36
(g37
g38
(lp11415
g36
(g37
g38
(lp11416
Vis
p11417
atp11418
Rp11419
(dp11420
g47
VVBZ
p11421
sbag36
(g37
g38
(lp11422
g36
(g37
g38
(lp11423
Vuseful
p11424
atp11425
Rp11426
(dp11427
g47
VJJ
p11428
sbag36
(g37
g38
(lp11429
g36
(g37
g38
(lp11430
Vto
p11431
atp11432
Rp11433
(dp11434
g47
VTO
p11435
sbag36
(g37
g38
(lp11436
g36
(g37
g38
(lp11437
g36
(g37
g38
(lp11438
Vhuman
p11439
atp11440
Rp11441
(dp11442
g47
VJJ
p11443
sbag36
(g37
g38
(lp11444
Vfunctioning
p11445
atp11446
Rp11447
(dp11448
g47
VNN
p11449
sbatp11450
Rp11451
(dp11452
g47
VNP
p11453
sbag36
(g37
g38
(lp11454
Vand
p11455
atp11456
Rp11457
(dp11458
g47
VCC
p11459
sbag36
(g37
g38
(lp11460
g36
(g37
g38
(lp11461
g36
(g37
g38
(lp11462
Vnot
p11463
atp11464
Rp11465
(dp11466
g47
VRB
p11467
sbag36
(g37
g38
(lp11468
Vjust
p11469
atp11470
Rp11471
(dp11472
g47
VRB
p11473
sbatp11474
Rp11475
(dp11476
g47
VNP
p11477
sbag36
(g37
g38
(lp11478
Vand
p11479
atp11480
Rp11481
(dp11482
g47
VCC
p11483
sbag36
(g37
g38
(lp11484
g36
(g37
g38
(lp11485
Vepiphenomenon
p11486
atp11487
Rp11488
(dp11489
g47
VNN
p11490
sbatp11491
Rp11492
(dp11493
g47
VNP
p11494
sbatp11495
Rp11496
(dp11497
g47
VNP
p11498
sbatp11499
Rp11500
(dp11501
g47
VNP
p11502
sbatp11503
Rp11504
(dp11505
g47
VPP
p11506
sbatp11507
Rp11508
(dp11509
g47
VADJP
p11510
sbatp11511
Rp11512
(dp11513
g47
VVP
p11514
sbatp11515
Rp11516
(dp11517
g47
g310
sbatp11518
Rp11519
(dp11520
g47
VSBAR
p11521
sbatp11522
Rp11523
(dp11524
g47
VVP
p11525
sbag36
(g37
g38
(lp11526
g303
atp11527
Rp11528
(dp11529
g47
g303
sbatp11530
Rp11531
(dp11532
g47
g310
sbatp11533
Rp11534
(dp11535
g47
VROOT
p11536
sbasba(icmyPackage
Sent
p11537
(dp11538
g14
I0
sg29
I0
sg30
S"Zombies in the sense of Todd Moody's article are merely the victims of Moody's prejudices."
p11539
sg32
I0
sg33
I3
sg34
(lp11540
g36
(g37
g38
(lp11541
g36
(g37
g38
(lp11542
g36
(g37
g38
(lp11543
g36
(g37
g38
(lp11544
g36
(g37
g38
(lp11545
VZombies
p11546
atp11547
Rp11548
(dp11549
g47
VNNS
p11550
sbatp11551
Rp11552
(dp11553
g47
VNP
p11554
sbag36
(g37
g38
(lp11555
g36
(g37
g38
(lp11556
Vin
p11557
atp11558
Rp11559
(dp11560
g47
VIN
p11561
sbag36
(g37
g38
(lp11562
g36
(g37
g38
(lp11563
g36
(g37
g38
(lp11564
Vthe
p11565
atp11566
Rp11567
(dp11568
g47
VDT
p11569
sbag36
(g37
g38
(lp11570
Vsense
p11571
atp11572
Rp11573
(dp11574
g47
VNN
p11575
sbatp11576
Rp11577
(dp11578
g47
VNP
p11579
sbag36
(g37
g38
(lp11580
g36
(g37
g38
(lp11581
Vof
p11582
atp11583
Rp11584
(dp11585
g47
VIN
p11586
sbag36
(g37
g38
(lp11587
g36
(g37
g38
(lp11588
g36
(g37
g38
(lp11589
VTodd
p11590
atp11591
Rp11592
(dp11593
g47
VNNP
p11594
sbag36
(g37
g38
(lp11595
VMoody
p11596
atp11597
Rp11598
(dp11599
g47
VNNP
p11600
sbag36
(g37
g38
(lp11601
V's
p11602
atp11603
Rp11604
(dp11605
g47
VPOS
p11606
sbatp11607
Rp11608
(dp11609
g47
VNP
p11610
sbag36
(g37
g38
(lp11611
Varticle
p11612
atp11613
Rp11614
(dp11615
g47
VNN
p11616
sbatp11617
Rp11618
(dp11619
g47
VNP
p11620
sbatp11621
Rp11622
(dp11623
g47
VPP
p11624
sbatp11625
Rp11626
(dp11627
g47
VNP
p11628
sbatp11629
Rp11630
(dp11631
g47
VPP
p11632
sbatp11633
Rp11634
(dp11635
g47
VNP
p11636
sbag36
(g37
g38
(lp11637
g36
(g37
g38
(lp11638
Vare
p11639
atp11640
Rp11641
(dp11642
g47
VVBP
p11643
sbag36
(g37
g38
(lp11644
g36
(g37
g38
(lp11645
Vmerely
p11646
atp11647
Rp11648
(dp11649
g47
VRB
p11650
sbatp11651
Rp11652
(dp11653
g47
VADVP
p11654
sbag36
(g37
g38
(lp11655
g36
(g37
g38
(lp11656
g36
(g37
g38
(lp11657
Vthe
p11658
atp11659
Rp11660
(dp11661
g47
VDT
p11662
sbag36
(g37
g38
(lp11663
Vvictims
p11664
atp11665
Rp11666
(dp11667
g47
VNNS
p11668
sbatp11669
Rp11670
(dp11671
g47
VNP
p11672
sbag36
(g37
g38
(lp11673
g36
(g37
g38
(lp11674
Vof
p11675
atp11676
Rp11677
(dp11678
g47
VIN
p11679
sbag36
(g37
g38
(lp11680
g36
(g37
g38
(lp11681
g36
(g37
g38
(lp11682
VMoody
p11683
atp11684
Rp11685
(dp11686
g47
VNNP
p11687
sbag36
(g37
g38
(lp11688
V's
p11689
atp11690
Rp11691
(dp11692
g47
VPOS
p11693
sbatp11694
Rp11695
(dp11696
g47
VNP
p11697
sbag36
(g37
g38
(lp11698
Vprejudices
p11699
atp11700
Rp11701
(dp11702
g47
VNNS
p11703
sbatp11704
Rp11705
(dp11706
g47
VNP
p11707
sbatp11708
Rp11709
(dp11710
g47
VPP
p11711
sbatp11712
Rp11713
(dp11714
g47
VNP
p11715
sbatp11716
Rp11717
(dp11718
g47
VVP
p11719
sbag36
(g37
g38
(lp11720
g303
atp11721
Rp11722
(dp11723
g47
g303
sbatp11724
Rp11725
(dp11726
g47
g310
sbatp11727
Rp11728
(dp11729
g47
VROOT
p11730
sbasba(icmyPackage
Sent
p11731
(dp11732
g14
I0
sg29
I0
sg30
S'To behave like humans, zombies will need what Moody might call pseudo-consciousness, but useful pseudo-consciousness will share all the observable qualities of human consciousness including what the zombie will be able to report.'
p11733
sg32
I0
sg33
I4
sg34
(lp11734
g36
(g37
g38
(lp11735
g36
(g37
g38
(lp11736
g36
(g37
g38
(lp11737
g36
(g37
g38
(lp11738
g36
(g37
g38
(lp11739
g36
(g37
g38
(lp11740
VTo
p11741
atp11742
Rp11743
(dp11744
g47
VTO
p11745
sbag36
(g37
g38
(lp11746
g36
(g37
g38
(lp11747
Vbehave
p11748
atp11749
Rp11750
(dp11751
g47
VVB
p11752
sbag36
(g37
g38
(lp11753
g36
(g37
g38
(lp11754
Vlike
p11755
atp11756
Rp11757
(dp11758
g47
VIN
p11759
sbag36
(g37
g38
(lp11760
g36
(g37
g38
(lp11761
Vhumans
p11762
atp11763
Rp11764
(dp11765
g47
VNNS
p11766
sbatp11767
Rp11768
(dp11769
g47
VNP
p11770
sbatp11771
Rp11772
(dp11773
g47
VPP
p11774
sbatp11775
Rp11776
(dp11777
g47
VVP
p11778
sbatp11779
Rp11780
(dp11781
g47
VVP
p11782
sbatp11783
Rp11784
(dp11785
g47
g310
sbag36
(g37
g38
(lp11786
g104
atp11787
Rp11788
(dp11789
g47
g104
sbag36
(g37
g38
(lp11790
g36
(g37
g38
(lp11791
Vzombies
p11792
atp11793
Rp11794
(dp11795
g47
VNNS
p11796
sbatp11797
Rp11798
(dp11799
g47
VNP
p11800
sbag36
(g37
g38
(lp11801
g36
(g37
g38
(lp11802
Vwill
p11803
atp11804
Rp11805
(dp11806
g47
VMD
p11807
sbag36
(g37
g38
(lp11808
g36
(g37
g38
(lp11809
Vneed
p11810
atp11811
Rp11812
(dp11813
g47
VVB
p11814
sbag36
(g37
g38
(lp11815
g36
(g37
g38
(lp11816
g36
(g37
g38
(lp11817
Vwhat
p11818
atp11819
Rp11820
(dp11821
g47
VWP
p11822
sbatp11823
Rp11824
(dp11825
g47
VWHNP
p11826
sbag36
(g37
g38
(lp11827
g36
(g37
g38
(lp11828
g36
(g37
g38
(lp11829
VMoody
p11830
atp11831
Rp11832
(dp11833
g47
VNNP
p11834
sbatp11835
Rp11836
(dp11837
g47
VNP
p11838
sbag36
(g37
g38
(lp11839
g36
(g37
g38
(lp11840
Vmight
p11841
atp11842
Rp11843
(dp11844
g47
VMD
p11845
sbag36
(g37
g38
(lp11846
g36
(g37
g38
(lp11847
Vcall
p11848
atp11849
Rp11850
(dp11851
g47
VVB
p11852
sbag36
(g37
g38
(lp11853
g36
(g37
g38
(lp11854
Vpseudo-consciousness
p11855
atp11856
Rp11857
(dp11858
g47
VNNS
p11859
sbatp11860
Rp11861
(dp11862
g47
VNP
p11863
sbatp11864
Rp11865
(dp11866
g47
VVP
p11867
sbatp11868
Rp11869
(dp11870
g47
VVP
p11871
sbatp11872
Rp11873
(dp11874
g47
g310
sbatp11875
Rp11876
(dp11877
g47
VSBAR
p11878
sbatp11879
Rp11880
(dp11881
g47
VVP
p11882
sbatp11883
Rp11884
(dp11885
g47
VVP
p11886
sbatp11887
Rp11888
(dp11889
g47
g310
sbag36
(g37
g38
(lp11890
g104
atp11891
Rp11892
(dp11893
g47
g104
sbag36
(g37
g38
(lp11894
Vbut
p11895
atp11896
Rp11897
(dp11898
g47
VCC
p11899
sbag36
(g37
g38
(lp11900
g36
(g37
g38
(lp11901
g36
(g37
g38
(lp11902
Vuseful
p11903
atp11904
Rp11905
(dp11906
g47
VJJ
p11907
sbag36
(g37
g38
(lp11908
Vpseudo-consciousness
p11909
atp11910
Rp11911
(dp11912
g47
VNNS
p11913
sbatp11914
Rp11915
(dp11916
g47
VNP
p11917
sbag36
(g37
g38
(lp11918
g36
(g37
g38
(lp11919
Vwill
p11920
atp11921
Rp11922
(dp11923
g47
VMD
p11924
sbag36
(g37
g38
(lp11925
g36
(g37
g38
(lp11926
Vshare
p11927
atp11928
Rp11929
(dp11930
g47
VVB
p11931
sbag36
(g37
g38
(lp11932
g36
(g37
g38
(lp11933
g36
(g37
g38
(lp11934
Vall
p11935
atp11936
Rp11937
(dp11938
g47
VPDT
p11939
sbag36
(g37
g38
(lp11940
Vthe
p11941
atp11942
Rp11943
(dp11944
g47
VDT
p11945
sbag36
(g37
g38
(lp11946
Vobservable
p11947
atp11948
Rp11949
(dp11950
g47
VJJ
p11951
sbag36
(g37
g38
(lp11952
Vqualities
p11953
atp11954
Rp11955
(dp11956
g47
VNNS
p11957
sbatp11958
Rp11959
(dp11960
g47
VNP
p11961
sbag36
(g37
g38
(lp11962
g36
(g37
g38
(lp11963
Vof
p11964
atp11965
Rp11966
(dp11967
g47
VIN
p11968
sbag36
(g37
g38
(lp11969
g36
(g37
g38
(lp11970
g36
(g37
g38
(lp11971
Vhuman
p11972
atp11973
Rp11974
(dp11975
g47
VJJ
p11976
sbag36
(g37
g38
(lp11977
Vconsciousness
p11978
atp11979
Rp11980
(dp11981
g47
VNN
p11982
sbatp11983
Rp11984
(dp11985
g47
VNP
p11986
sbag36
(g37
g38
(lp11987
g36
(g37
g38
(lp11988
Vincluding
p11989
atp11990
Rp11991
(dp11992
g47
VVBG
p11993
sbag36
(g37
g38
(lp11994
g36
(g37
g38
(lp11995
g36
(g37
g38
(lp11996
Vwhat
p11997
atp11998
Rp11999
(dp12000
g47
VWP
p12001
sbatp12002
Rp12003
(dp12004
g47
VWHNP
p12005
sbag36
(g37
g38
(lp12006
g36
(g37
g38
(lp12007
g36
(g37
g38
(lp12008
Vthe
p12009
atp12010
Rp12011
(dp12012
g47
VDT
p12013
sbag36
(g37
g38
(lp12014
Vzombie
p12015
atp12016
Rp12017
(dp12018
g47
VNN
p12019
sbatp12020
Rp12021
(dp12022
g47
VNP
p12023
sbag36
(g37
g38
(lp12024
g36
(g37
g38
(lp12025
Vwill
p12026
atp12027
Rp12028
(dp12029
g47
VMD
p12030
sbag36
(g37
g38
(lp12031
g36
(g37
g38
(lp12032
Vbe
p12033
atp12034
Rp12035
(dp12036
g47
VVB
p12037
sbag36
(g37
g38
(lp12038
g36
(g37
g38
(lp12039
Vable
p12040
atp12041
Rp12042
(dp12043
g47
VJJ
p12044
sbag36
(g37
g38
(lp12045
g36
(g37
g38
(lp12046
g36
(g37
g38
(lp12047
Vto
p12048
atp12049
Rp12050
(dp12051
g47
VTO
p12052
sbag36
(g37
g38
(lp12053
g36
(g37
g38
(lp12054
Vreport
p12055
atp12056
Rp12057
(dp12058
g47
VVB
p12059
sbatp12060
Rp12061
(dp12062
g47
VVP
p12063
sbatp12064
Rp12065
(dp12066
g47
VVP
p12067
sbatp12068
Rp12069
(dp12070
g47
g310
sbatp12071
Rp12072
(dp12073
g47
VADJP
p12074
sbatp12075
Rp12076
(dp12077
g47
VVP
p12078
sbatp12079
Rp12080
(dp12081
g47
VVP
p12082
sbatp12083
Rp12084
(dp12085
g47
g310
sbatp12086
Rp12087
(dp12088
g47
VSBAR
p12089
sbatp12090
Rp12091
(dp12092
g47
VPP
p12093
sbatp12094
Rp12095
(dp12096
g47
VNP
p12097
sbatp12098
Rp12099
(dp12100
g47
VPP
p12101
sbatp12102
Rp12103
(dp12104
g47
VNP
p12105
sbatp12106
Rp12107
(dp12108
g47
VVP
p12109
sbatp12110
Rp12111
(dp12112
g47
VVP
p12113
sbatp12114
Rp12115
(dp12116
g47
g310
sbag36
(g37
g38
(lp12117
g303
atp12118
Rp12119
(dp12120
g47
g303
sbatp12121
Rp12122
(dp12123
g47
g310
sbatp12124
Rp12125
(dp12126
g47
VROOT
p12127
sbasba(icmyPackage
Sent
p12128
(dp12129
g14
I0
sg29
I0
sg30
S'Robots will require a pseudo-consciousness with many of the intellectual qualities of human consciousness but will function successfully with few if any human emotional conscious qualities if that is how we choose to build them.'
p12130
sg32
I0
sg33
I5
sg34
(lp12131
g36
(g37
g38
(lp12132
g36
(g37
g38
(lp12133
g36
(g37
g38
(lp12134
g36
(g37
g38
(lp12135
VRobots
p12136
atp12137
Rp12138
(dp12139
g47
VNNP
p12140
sbatp12141
Rp12142
(dp12143
g47
VNP
p12144
sbag36
(g37
g38
(lp12145
g36
(g37
g38
(lp12146
g36
(g37
g38
(lp12147
Vwill
p12148
atp12149
Rp12150
(dp12151
g47
VMD
p12152
sbag36
(g37
g38
(lp12153
g36
(g37
g38
(lp12154
Vrequire
p12155
atp12156
Rp12157
(dp12158
g47
VVB
p12159
sbag36
(g37
g38
(lp12160
g36
(g37
g38
(lp12161
g151
atp12162
Rp12163
(dp12164
g47
VDT
p12165
sbag36
(g37
g38
(lp12166
Vpseudo-consciousness
p12167
atp12168
Rp12169
(dp12170
g47
VNNS
p12171
sbatp12172
Rp12173
(dp12174
g47
VNP
p12175
sbag36
(g37
g38
(lp12176
g36
(g37
g38
(lp12177
Vwith
p12178
atp12179
Rp12180
(dp12181
g47
VIN
p12182
sbag36
(g37
g38
(lp12183
g36
(g37
g38
(lp12184
g36
(g37
g38
(lp12185
Vmany
p12186
atp12187
Rp12188
(dp12189
g47
VJJ
p12190
sbatp12191
Rp12192
(dp12193
g47
VNP
p12194
sbag36
(g37
g38
(lp12195
g36
(g37
g38
(lp12196
Vof
p12197
atp12198
Rp12199
(dp12200
g47
VIN
p12201
sbag36
(g37
g38
(lp12202
g36
(g37
g38
(lp12203
g36
(g37
g38
(lp12204
Vthe
p12205
atp12206
Rp12207
(dp12208
g47
VDT
p12209
sbag36
(g37
g38
(lp12210
Vintellectual
p12211
atp12212
Rp12213
(dp12214
g47
VJJ
p12215
sbag36
(g37
g38
(lp12216
Vqualities
p12217
atp12218
Rp12219
(dp12220
g47
VNNS
p12221
sbatp12222
Rp12223
(dp12224
g47
VNP
p12225
sbag36
(g37
g38
(lp12226
g36
(g37
g38
(lp12227
Vof
p12228
atp12229
Rp12230
(dp12231
g47
VIN
p12232
sbag36
(g37
g38
(lp12233
g36
(g37
g38
(lp12234
Vhuman
p12235
atp12236
Rp12237
(dp12238
g47
VJJ
p12239
sbag36
(g37
g38
(lp12240
Vconsciousness
p12241
atp12242
Rp12243
(dp12244
g47
VNN
p12245
sbatp12246
Rp12247
(dp12248
g47
VNP
p12249
sbatp12250
Rp12251
(dp12252
g47
VPP
p12253
sbatp12254
Rp12255
(dp12256
g47
VNP
p12257
sbatp12258
Rp12259
(dp12260
g47
VPP
p12261
sbatp12262
Rp12263
(dp12264
g47
VNP
p12265
sbatp12266
Rp12267
(dp12268
g47
VPP
p12269
sbatp12270
Rp12271
(dp12272
g47
VVP
p12273
sbatp12274
Rp12275
(dp12276
g47
VVP
p12277
sbag36
(g37
g38
(lp12278
Vbut
p12279
atp12280
Rp12281
(dp12282
g47
VCC
p12283
sbag36
(g37
g38
(lp12284
g36
(g37
g38
(lp12285
Vwill
p12286
atp12287
Rp12288
(dp12289
g47
VMD
p12290
sbag36
(g37
g38
(lp12291
g36
(g37
g38
(lp12292
Vfunction
p12293
atp12294
Rp12295
(dp12296
g47
VVB
p12297
sbag36
(g37
g38
(lp12298
g36
(g37
g38
(lp12299
Vsuccessfully
p12300
atp12301
Rp12302
(dp12303
g47
VRB
p12304
sbatp12305
Rp12306
(dp12307
g47
VADVP
p12308
sbag36
(g37
g38
(lp12309
g36
(g37
g38
(lp12310
Vwith
p12311
atp12312
Rp12313
(dp12314
g47
VIN
p12315
sbag36
(g37
g38
(lp12316
g36
(g37
g38
(lp12317
g36
(g37
g38
(lp12318
Vfew
p12319
atp12320
Rp12321
(dp12322
g47
VJJ
p12323
sbatp12324
Rp12325
(dp12326
g47
VNP
p12327
sbag36
(g37
g38
(lp12328
g36
(g37
g38
(lp12329
Vif
p12330
atp12331
Rp12332
(dp12333
g47
VIN
p12334
sbag36
(g37
g38
(lp12335
g36
(g37
g38
(lp12336
Vany
p12337
atp12338
Rp12339
(dp12340
g47
VDT
p12341
sbag36
(g37
g38
(lp12342
Vhuman
p12343
atp12344
Rp12345
(dp12346
g47
VJJ
p12347
sbag36
(g37
g38
(lp12348
Vemotional
p12349
atp12350
Rp12351
(dp12352
g47
VJJ
p12353
sbag36
(g37
g38
(lp12354
Vconscious
p12355
atp12356
Rp12357
(dp12358
g47
VJJ
p12359
sbag36
(g37
g38
(lp12360
Vqualities
p12361
atp12362
Rp12363
(dp12364
g47
VNNS
p12365
sbatp12366
Rp12367
(dp12368
g47
VNP
p12369
sbatp12370
Rp12371
(dp12372
g47
VPP
p12373
sbatp12374
Rp12375
(dp12376
g47
VNP
p12377
sbatp12378
Rp12379
(dp12380
g47
VPP
p12381
sbag36
(g37
g38
(lp12382
g36
(g37
g38
(lp12383
Vif
p12384
atp12385
Rp12386
(dp12387
g47
VIN
p12388
sbag36
(g37
g38
(lp12389
g36
(g37
g38
(lp12390
g36
(g37
g38
(lp12391
Vthat
p12392
atp12393
Rp12394
(dp12395
g47
VDT
p12396
sbatp12397
Rp12398
(dp12399
g47
VNP
p12400
sbag36
(g37
g38
(lp12401
g36
(g37
g38
(lp12402
Vis
p12403
atp12404
Rp12405
(dp12406
g47
VVBZ
p12407
sbag36
(g37
g38
(lp12408
g36
(g37
g38
(lp12409
g36
(g37
g38
(lp12410
Vhow
p12411
atp12412
Rp12413
(dp12414
g47
VWRB
p12415
sbatp12416
Rp12417
(dp12418
g47
VWHADVP
p12419
sbag36
(g37
g38
(lp12420
g36
(g37
g38
(lp12421
g36
(g37
g38
(lp12422
Vwe
p12423
atp12424
Rp12425
(dp12426
g47
VPRP
p12427
sbatp12428
Rp12429
(dp12430
g47
VNP
p12431
sbag36
(g37
g38
(lp12432
g36
(g37
g38
(lp12433
Vchoose
p12434
atp12435
Rp12436
(dp12437
g47
VVBP
p12438
sbag36
(g37
g38
(lp12439
g36
(g37
g38
(lp12440
g36
(g37
g38
(lp12441
Vto
p12442
atp12443
Rp12444
(dp12445
g47
VTO
p12446
sbag36
(g37
g38
(lp12447
g36
(g37
g38
(lp12448
Vbuild
p12449
atp12450
Rp12451
(dp12452
g47
VVB
p12453
sbag36
(g37
g38
(lp12454
g36
(g37
g38
(lp12455
Vthem
p12456
atp12457
Rp12458
(dp12459
g47
VPRP
p12460
sbatp12461
Rp12462
(dp12463
g47
VNP
p12464
sbatp12465
Rp12466
(dp12467
g47
VVP
p12468
sbatp12469
Rp12470
(dp12471
g47
VVP
p12472
sbatp12473
Rp12474
(dp12475
g47
g310
sbatp12476
Rp12477
(dp12478
g47
VVP
p12479
sbatp12480
Rp12481
(dp12482
g47
g310
sbatp12483
Rp12484
(dp12485
g47
VSBAR
p12486
sbatp12487
Rp12488
(dp12489
g47
VVP
p12490
sbatp12491
Rp12492
(dp12493
g47
g310
sbatp12494
Rp12495
(dp12496
g47
VSBAR
p12497
sbatp12498
Rp12499
(dp12500
g47
VVP
p12501
sbatp12502
Rp12503
(dp12504
g47
VVP
p12505
sbatp12506
Rp12507
(dp12508
g47
VVP
p12509
sbag36
(g37
g38
(lp12510
g303
atp12511
Rp12512
(dp12513
g47
g303
sbatp12514
Rp12515
(dp12516
g47
g310
sbatp12517
Rp12518
(dp12519
g47
VROOT
p12520
sbasbag27
ag315
ag602
ag784
ag978
ag1375
ag1772
ag1867
ag2224
ag2492
ag2855
ag3199
ag3498
ag3613
ag3637
ag3805
ag4064
ag4127
ag4286
ag4485
ag4602
ag4802
ag5011
ag5345
ag5586
ag5667
ag5880
ag6006
ag6254
ag6375
ag6545
ag6641
ag6762
ag6988
ag7135
ag7354
ag7654
ag7874
ag8083
ag8413
ag8535
ag8619
ag8748
ag8770
ag8942
ag8971
ag9061
ag9493
ag9704
ag9863
ag9983
ag10176
ag10283
ag10394
ag10488
ag10598
asS'P_list'
p12521
(lp12522
(icmyPackage
Parag
p12523
(dp12524
g14
I0
sg25
(lp12525
g10793
ag11068
ag11355
ag11537
ag11731
ag12128
asg1768
I6
sg29
I0
sg32
I0
sbag23
ag1769
ag2852
ag3495
ag3610
ag4061
ag5342
ag5664
ag5877
ag6251
ag6638
ag8080
ag8767
ag9490
ag9980
ag10280
asS'Ftag'
p12526
S'f0026'
p12527
sS'c_num'
p12528
I4
sg20
I17
sS'Abstract'
p12529
(lp12530
g10793
ag11068
ag11355
ag11537
ag11731
ag12128
asS'Refer'
p12531
(lp12532
(icmyPackage
Refer
p12533
(dp12534
g30
S'[McC93] John McCarthy. Notes on formalizing context. In IJCAI-93, 1993. Available on http://www-formal.stanford.edu/jmc/.'
p12535
sS'Rtag'
p12536
S'McC93'
p12537
sba(icmyPackage
Refer
p12538
(dp12539
g30
S'[McC95] John McCarthy. Making robots conscious of their mental states. 1995. to appear, available on http://wwwformal.stanford.edu/jmc/.'
p12540
sg12536
S'McC95'
p12541
sba(icmyPackage
Refer
p12542
(dp12543
g30
S'[MH69] John McCarthy and Patrick J. Hayes. Some philosophical problems from the standpoint of artificial intelligence. In B. Meltzer and D. Michie, editors, Machine Intelligence 4, pages 463{502. Edinburgh University Press, 1969.'
p12544
sg12536
S'MH69'
p12545
sbasb.