(icmyPackage
Paper
p0
(dp1
S'KeyW'
p2
(lp3
sS'author'
p4
S'Jim Gray'
p5
sS'auinfo'
p6
(lp7
S'Jim Gray is at Microsoft Research, San Francisco,California 94105, USA.'
p8
aS'Microsoft Research, Microsoft Corporation'
p9
asS'C_list'
p10
(lp11
(icmyPackage
Sec
p12
(dp13
S'Ctag'
p14
I1
sS'sclist'
p15
(lp16
(icmyPackage
SubSec
p17
(dp18
g14
I1
sS'SCtitle'
p19
NsS'p_num'
p20
I10
sS'plist'
p21
(lp22
(icmyPackage
Parag
p23
(dp24
g14
I1
sS'slist'
p25
(lp26
(icmyPackage
Sent
p27
(dp28
g14
I1
sS'Ptag'
p29
I0
sS'text'
p30
S'"A Measure of Transaction Processing Power" [1] defined three performance benchmarks:'
p31
sS'SCtag'
p32
I0
sS'Stag'
p33
I0
sS'PTree'
p34
(lp35
ccopy_reg
_reconstructor
p36
(cnltk.tree
Tree
p37
c__builtin__
list
p38
(lp39
g36
(g37
g38
(lp40
g36
(g37
g38
(lp41
V``
p42
atp43
Rp44
(dp45
S'_label'
p46
V``
p47
sbag36
(g37
g38
(lp48
g36
(g37
g38
(lp49
g36
(g37
g38
(lp50
VA
p51
atp52
Rp53
(dp54
g46
VDT
p55
sbag36
(g37
g38
(lp56
VMeasure
p57
atp58
Rp59
(dp60
g46
VNN
p61
sbatp62
Rp63
(dp64
g46
VNP
p65
sbag36
(g37
g38
(lp66
g36
(g37
g38
(lp67
Vof
p68
atp69
Rp70
(dp71
g46
VIN
p72
sbag36
(g37
g38
(lp73
g36
(g37
g38
(lp74
g36
(g37
g38
(lp75
VTransaction
p76
atp77
Rp78
(dp79
g46
VNNP
p80
sbag36
(g37
g38
(lp81
VProcessing
p82
atp83
Rp84
(dp85
g46
VNNP
p86
sbag36
(g37
g38
(lp87
VPower
p88
atp89
Rp90
(dp91
g46
VNNP
p92
sbatp93
Rp94
(dp95
g46
VNP
p96
sbag36
(g37
g38
(lp97
V''
p98
atp99
Rp100
(dp101
g46
V''
p102
sbag36
(g37
g38
(lp103
g36
(g37
g38
(lp104
V-LSB-
p105
atp106
Rp107
(dp108
g46
VVBG
p109
sbag36
(g37
g38
(lp110
g36
(g37
g38
(lp111
g36
(g37
g38
(lp112
V1
p113
atp114
Rp115
(dp116
g46
VCD
p117
sbag36
(g37
g38
(lp118
V-RSB-
p119
atp120
Rp121
(dp122
g46
VCD
p123
sbatp124
Rp125
(dp126
g46
VQP
p127
sbatp128
Rp129
(dp130
g46
VNP
p131
sbatp132
Rp133
(dp134
g46
VVP
p135
sbatp136
Rp137
(dp138
g46
VNP
p139
sbatp140
Rp141
(dp142
g46
VPP
p143
sbatp144
Rp145
(dp146
g46
VNP
p147
sbag36
(g37
g38
(lp148
g36
(g37
g38
(lp149
Vdefined
p150
atp151
Rp152
(dp153
g46
VVBD
p154
sbag36
(g37
g38
(lp155
g36
(g37
g38
(lp156
Vthree
p157
atp158
Rp159
(dp160
g46
VCD
p161
sbag36
(g37
g38
(lp162
Vperformance
p163
atp164
Rp165
(dp166
g46
VNN
p167
sbag36
(g37
g38
(lp168
Vbenchmarks
p169
atp170
Rp171
(dp172
g46
VNNS
p173
sbatp174
Rp175
(dp176
g46
VNP
p177
sbatp178
Rp179
(dp180
g46
VVP
p181
sbag36
(g37
g38
(lp182
V:
p183
atp184
Rp185
(dp186
g46
g183
sbatp187
Rp188
(dp189
g46
VS
p190
sbatp191
Rp192
(dp193
g46
VROOT
p194
sbasba(icmyPackage
Sent
p195
(dp196
g14
I1
sg29
I0
sg30
S'DebitCredit:'
p197
sg32
I0
sg33
I1
sg34
(lp198
g36
(g37
g38
(lp199
g36
(g37
g38
(lp200
g36
(g37
g38
(lp201
VDebitCredit
p202
atp203
Rp204
(dp205
g46
VNNP
p206
sbag36
(g37
g38
(lp207
g183
atp208
Rp209
(dp210
g46
g183
sbatp211
Rp212
(dp213
g46
VNP
p214
sbatp215
Rp216
(dp217
g46
VROOT
p218
sbasba(icmyPackage
Sent
p219
(dp220
g14
I1
sg29
I0
sg30
S'a test of the database and transaction system, Sort:'
p221
sg32
I0
sg33
I2
sg34
(lp222
g36
(g37
g38
(lp223
g36
(g37
g38
(lp224
g36
(g37
g38
(lp225
g36
(g37
g38
(lp226
Va
p227
atp228
Rp229
(dp230
g46
VDT
p231
sbag36
(g37
g38
(lp232
Vtest
p233
atp234
Rp235
(dp236
g46
VNN
p237
sbatp238
Rp239
(dp240
g46
VNP
p241
sbag36
(g37
g38
(lp242
g36
(g37
g38
(lp243
Vof
p244
atp245
Rp246
(dp247
g46
VIN
p248
sbag36
(g37
g38
(lp249
g36
(g37
g38
(lp250
g36
(g37
g38
(lp251
Vthe
p252
atp253
Rp254
(dp255
g46
VDT
p256
sbag36
(g37
g38
(lp257
Vdatabase
p258
atp259
Rp260
(dp261
g46
VNN
p262
sbag36
(g37
g38
(lp263
Vand
p264
atp265
Rp266
(dp267
g46
VCC
p268
sbag36
(g37
g38
(lp269
Vtransaction
p270
atp271
Rp272
(dp273
g46
VNN
p274
sbag36
(g37
g38
(lp275
Vsystem
p276
atp277
Rp278
(dp279
g46
VNN
p280
sbatp281
Rp282
(dp283
g46
VNP
p284
sbag36
(g37
g38
(lp285
V,
p286
atp287
Rp288
(dp289
g46
g286
sbag36
(g37
g38
(lp290
g36
(g37
g38
(lp291
VSort
p292
atp293
Rp294
(dp295
g46
VNNP
p296
sbatp297
Rp298
(dp299
g46
VNP
p300
sbatp301
Rp302
(dp303
g46
VNP
p304
sbatp305
Rp306
(dp307
g46
VPP
p308
sbag36
(g37
g38
(lp309
g183
atp310
Rp311
(dp312
g46
g183
sbatp313
Rp314
(dp315
g46
VNP
p316
sbatp317
Rp318
(dp319
g46
VROOT
p320
sbasba(icmyPackage
Sent
p321
(dp322
g14
I1
sg29
I0
sg30
S'a test of the OS and IO system, and Copy:'
p323
sg32
I0
sg33
I3
sg34
(lp324
g36
(g37
g38
(lp325
g36
(g37
g38
(lp326
g36
(g37
g38
(lp327
g36
(g37
g38
(lp328
g227
atp329
Rp330
(dp331
g46
VDT
p332
sbag36
(g37
g38
(lp333
Vtest
p334
atp335
Rp336
(dp337
g46
VNN
p338
sbatp339
Rp340
(dp341
g46
VNP
p342
sbag36
(g37
g38
(lp343
g36
(g37
g38
(lp344
Vof
p345
atp346
Rp347
(dp348
g46
VIN
p349
sbag36
(g37
g38
(lp350
g36
(g37
g38
(lp351
g36
(g37
g38
(lp352
Vthe
p353
atp354
Rp355
(dp356
g46
VDT
p357
sbag36
(g37
g38
(lp358
VOS
p359
atp360
Rp361
(dp362
g46
VNNP
p363
sbag36
(g37
g38
(lp364
Vand
p365
atp366
Rp367
(dp368
g46
VCC
p369
sbag36
(g37
g38
(lp370
VIO
p371
atp372
Rp373
(dp374
g46
VNNP
p375
sbag36
(g37
g38
(lp376
Vsystem
p377
atp378
Rp379
(dp380
g46
VNN
p381
sbatp382
Rp383
(dp384
g46
VNP
p385
sbag36
(g37
g38
(lp386
g286
atp387
Rp388
(dp389
g46
g286
sbag36
(g37
g38
(lp390
Vand
p391
atp392
Rp393
(dp394
g46
VCC
p395
sbag36
(g37
g38
(lp396
g36
(g37
g38
(lp397
VCopy
p398
atp399
Rp400
(dp401
g46
VNNP
p402
sbatp403
Rp404
(dp405
g46
VNP
p406
sbatp407
Rp408
(dp409
g46
VNP
p410
sbatp411
Rp412
(dp413
g46
VPP
p414
sbag36
(g37
g38
(lp415
g183
atp416
Rp417
(dp418
g46
g183
sbatp419
Rp420
(dp421
g46
VNP
p422
sbatp423
Rp424
(dp425
g46
VROOT
p426
sbasba(icmyPackage
Sent
p427
(dp428
g14
I1
sg29
I0
sg30
S'a test of the file system.'
p429
sg32
I0
sg33
I4
sg34
(lp430
g36
(g37
g38
(lp431
g36
(g37
g38
(lp432
g36
(g37
g38
(lp433
g36
(g37
g38
(lp434
g227
atp435
Rp436
(dp437
g46
VDT
p438
sbag36
(g37
g38
(lp439
Vtest
p440
atp441
Rp442
(dp443
g46
VNN
p444
sbatp445
Rp446
(dp447
g46
VNP
p448
sbag36
(g37
g38
(lp449
g36
(g37
g38
(lp450
Vof
p451
atp452
Rp453
(dp454
g46
VIN
p455
sbag36
(g37
g38
(lp456
g36
(g37
g38
(lp457
Vthe
p458
atp459
Rp460
(dp461
g46
VDT
p462
sbag36
(g37
g38
(lp463
Vfile
p464
atp465
Rp466
(dp467
g46
VNN
p468
sbag36
(g37
g38
(lp469
Vsystem
p470
atp471
Rp472
(dp473
g46
VNN
p474
sbatp475
Rp476
(dp477
g46
VNP
p478
sbatp479
Rp480
(dp481
g46
VPP
p482
sbag36
(g37
g38
(lp483
V.
p484
atp485
Rp486
(dp487
g46
g484
sbatp488
Rp489
(dp490
g46
VNP
p491
sbatp492
Rp493
(dp494
g46
VROOT
p495
sbasbasS'sent_num'
p496
I5
sg29
I0
sg32
I0
sba(icmyPackage
Parag
p497
(dp498
g14
I1
sg25
(lp499
(icmyPackage
Sent
p500
(dp501
g14
I1
sg29
I1
sg30
S'DebitCredit morphed into TPC-A and then TPC-C.'
p502
sg32
I0
sg33
I5
sg34
(lp503
g36
(g37
g38
(lp504
g36
(g37
g38
(lp505
g36
(g37
g38
(lp506
g36
(g37
g38
(lp507
VDebitCredit
p508
atp509
Rp510
(dp511
g46
VNNP
p512
sbatp513
Rp514
(dp515
g46
VNP
p516
sbag36
(g37
g38
(lp517
g36
(g37
g38
(lp518
g36
(g37
g38
(lp519
Vmorphed
p520
atp521
Rp522
(dp523
g46
VVBD
p524
sbag36
(g37
g38
(lp525
g36
(g37
g38
(lp526
Vinto
p527
atp528
Rp529
(dp530
g46
VIN
p531
sbag36
(g37
g38
(lp532
g36
(g37
g38
(lp533
VTPC-A
p534
atp535
Rp536
(dp537
g46
VNNP
p538
sbatp539
Rp540
(dp541
g46
VNP
p542
sbatp543
Rp544
(dp545
g46
VPP
p546
sbatp547
Rp548
(dp549
g46
VVP
p550
sbag36
(g37
g38
(lp551
Vand
p552
atp553
Rp554
(dp555
g46
VCC
p556
sbag36
(g37
g38
(lp557
g36
(g37
g38
(lp558
Vthen
p559
atp560
Rp561
(dp562
g46
VRB
p563
sbatp564
Rp565
(dp566
g46
VADVP
p567
sbag36
(g37
g38
(lp568
g36
(g37
g38
(lp569
VTPC-C
p570
atp571
Rp572
(dp573
g46
VVBZ
p574
sbatp575
Rp576
(dp577
g46
VVP
p578
sbatp579
Rp580
(dp581
g46
VVP
p582
sbag36
(g37
g38
(lp583
g484
atp584
Rp585
(dp586
g46
g484
sbatp587
Rp588
(dp589
g46
g190
sbatp590
Rp591
(dp592
g46
VROOT
p593
sbasba(icmyPackage
Sent
p594
(dp595
g14
I1
sg29
I1
sg30
S'In 1985, systems were nearing 100 transactions per second, now they deliver 100,000 transactions per second, and a palmtop can deliver several thousand transactions per second (www.tpc.org, and [2]).'
p596
sg32
I0
sg33
I6
sg34
(lp597
g36
(g37
g38
(lp598
g36
(g37
g38
(lp599
g36
(g37
g38
(lp600
g36
(g37
g38
(lp601
VIn
p602
atp603
Rp604
(dp605
g46
VIN
p606
sbag36
(g37
g38
(lp607
g36
(g37
g38
(lp608
V1985
p609
atp610
Rp611
(dp612
g46
VCD
p613
sbatp614
Rp615
(dp616
g46
VNP
p617
sbatp618
Rp619
(dp620
g46
VPP
p621
sbag36
(g37
g38
(lp622
g36
(g37
g38
(lp623
g286
atp624
Rp625
(dp626
g46
g286
sbag36
(g37
g38
(lp627
g36
(g37
g38
(lp628
g36
(g37
g38
(lp629
Vsystems
p630
atp631
Rp632
(dp633
g46
VNNS
p634
sbatp635
Rp636
(dp637
g46
VNP
p638
sbag36
(g37
g38
(lp639
g36
(g37
g38
(lp640
Vwere
p641
atp642
Rp643
(dp644
g46
VVBD
p645
sbag36
(g37
g38
(lp646
g36
(g37
g38
(lp647
Vnearing
p648
atp649
Rp650
(dp651
g46
VVBG
p652
sbag36
(g37
g38
(lp653
g36
(g37
g38
(lp654
g36
(g37
g38
(lp655
V100
p656
atp657
Rp658
(dp659
g46
VCD
p660
sbag36
(g37
g38
(lp661
Vtransactions
p662
atp663
Rp664
(dp665
g46
VNNS
p666
sbatp667
Rp668
(dp669
g46
VNP
p670
sbag36
(g37
g38
(lp671
g36
(g37
g38
(lp672
Vper
p673
atp674
Rp675
(dp676
g46
VIN
p677
sbag36
(g37
g38
(lp678
g36
(g37
g38
(lp679
Vsecond
p680
atp681
Rp682
(dp683
g46
VNN
p684
sbatp685
Rp686
(dp687
g46
VNP
p688
sbatp689
Rp690
(dp691
g46
VPP
p692
sbatp693
Rp694
(dp695
g46
VNP
p696
sbatp697
Rp698
(dp699
g46
VVP
p700
sbatp701
Rp702
(dp703
g46
VVP
p704
sbatp705
Rp706
(dp707
g46
g190
sbag36
(g37
g38
(lp708
g286
atp709
Rp710
(dp711
g46
g286
sbatp712
Rp713
(dp714
g46
VPRN
p715
sbag36
(g37
g38
(lp716
g36
(g37
g38
(lp717
g36
(g37
g38
(lp718
Vnow
p719
atp720
Rp721
(dp722
g46
VRB
p723
sbatp724
Rp725
(dp726
g46
VADVP
p727
sbag36
(g37
g38
(lp728
g36
(g37
g38
(lp729
Vthey
p730
atp731
Rp732
(dp733
g46
VPRP
p734
sbatp735
Rp736
(dp737
g46
VNP
p738
sbag36
(g37
g38
(lp739
g36
(g37
g38
(lp740
Vdeliver
p741
atp742
Rp743
(dp744
g46
VVBP
p745
sbag36
(g37
g38
(lp746
g36
(g37
g38
(lp747
g36
(g37
g38
(lp748
V100,000
p749
atp750
Rp751
(dp752
g46
VCD
p753
sbag36
(g37
g38
(lp754
Vtransactions
p755
atp756
Rp757
(dp758
g46
VNNS
p759
sbatp760
Rp761
(dp762
g46
VNP
p763
sbag36
(g37
g38
(lp764
g36
(g37
g38
(lp765
Vper
p766
atp767
Rp768
(dp769
g46
VIN
p770
sbag36
(g37
g38
(lp771
g36
(g37
g38
(lp772
Vsecond
p773
atp774
Rp775
(dp776
g46
VNN
p777
sbatp778
Rp779
(dp780
g46
VNP
p781
sbatp782
Rp783
(dp784
g46
VPP
p785
sbatp786
Rp787
(dp788
g46
VNP
p789
sbatp790
Rp791
(dp792
g46
VVP
p793
sbatp794
Rp795
(dp796
g46
g190
sbag36
(g37
g38
(lp797
g286
atp798
Rp799
(dp800
g46
g286
sbag36
(g37
g38
(lp801
Vand
p802
atp803
Rp804
(dp805
g46
VCC
p806
sbag36
(g37
g38
(lp807
g36
(g37
g38
(lp808
g36
(g37
g38
(lp809
g227
atp810
Rp811
(dp812
g46
VDT
p813
sbag36
(g37
g38
(lp814
Vpalmtop
p815
atp816
Rp817
(dp818
g46
VNN
p819
sbatp820
Rp821
(dp822
g46
VNP
p823
sbag36
(g37
g38
(lp824
g36
(g37
g38
(lp825
Vcan
p826
atp827
Rp828
(dp829
g46
VMD
p830
sbag36
(g37
g38
(lp831
g36
(g37
g38
(lp832
Vdeliver
p833
atp834
Rp835
(dp836
g46
VVB
p837
sbag36
(g37
g38
(lp838
g36
(g37
g38
(lp839
g36
(g37
g38
(lp840
g36
(g37
g38
(lp841
Vseveral
p842
atp843
Rp844
(dp845
g46
VJJ
p846
sbag36
(g37
g38
(lp847
Vthousand
p848
atp849
Rp850
(dp851
g46
VCD
p852
sbatp853
Rp854
(dp855
g46
VQP
p856
sbag36
(g37
g38
(lp857
Vtransactions
p858
atp859
Rp860
(dp861
g46
VNNS
p862
sbatp863
Rp864
(dp865
g46
VNP
p866
sbag36
(g37
g38
(lp867
g36
(g37
g38
(lp868
Vper
p869
atp870
Rp871
(dp872
g46
VIN
p873
sbag36
(g37
g38
(lp874
g36
(g37
g38
(lp875
Vsecond
p876
atp877
Rp878
(dp879
g46
VNN
p880
sbatp881
Rp882
(dp883
g46
VNP
p884
sbatp885
Rp886
(dp887
g46
VPP
p888
sbag36
(g37
g38
(lp889
g36
(g37
g38
(lp890
V-LRB-
p891
atp892
Rp893
(dp894
g46
V-LRB-
p895
sbag36
(g37
g38
(lp896
g36
(g37
g38
(lp897
g36
(g37
g38
(lp898
g36
(g37
g38
(lp899
Vwww.tpc.org
p900
atp901
Rp902
(dp903
g46
VVBG
p904
sbatp905
Rp906
(dp907
g46
VVP
p908
sbag36
(g37
g38
(lp909
g286
atp910
Rp911
(dp912
g46
g286
sbag36
(g37
g38
(lp913
Vand
p914
atp915
Rp916
(dp917
g46
VCC
p918
sbag36
(g37
g38
(lp919
g36
(g37
g38
(lp920
V-LSB-
p921
atp922
Rp923
(dp924
g46
VVBG
p925
sbag36
(g37
g38
(lp926
g36
(g37
g38
(lp927
g36
(g37
g38
(lp928
V2
p929
atp930
Rp931
(dp932
g46
VCD
p933
sbag36
(g37
g38
(lp934
V-RSB-
p935
atp936
Rp937
(dp938
g46
VCD
p939
sbatp940
Rp941
(dp942
g46
VQP
p943
sbatp944
Rp945
(dp946
g46
VNP
p947
sbatp948
Rp949
(dp950
g46
VVP
p951
sbatp952
Rp953
(dp954
g46
VVP
p955
sbatp956
Rp957
(dp958
g46
g190
sbag36
(g37
g38
(lp959
V-RRB-
p960
atp961
Rp962
(dp963
g46
V-RRB-
p964
sbatp965
Rp966
(dp967
g46
VPRN
p968
sbatp969
Rp970
(dp971
g46
VNP
p972
sbatp973
Rp974
(dp975
g46
VVP
p976
sbatp977
Rp978
(dp979
g46
VVP
p980
sbatp981
Rp982
(dp983
g46
g190
sbag36
(g37
g38
(lp984
g484
atp985
Rp986
(dp987
g46
g484
sbatp988
Rp989
(dp990
g46
g190
sbatp991
Rp992
(dp993
g46
VROOT
p994
sbasba(icmyPackage
Sent
p995
(dp996
g14
I1
sg29
I1
sg30
S'Price-performance (measured in dollars/tps) has also improved dramatically as shown in Figure 1.'
p997
sg32
I0
sg33
I7
sg34
(lp998
g36
(g37
g38
(lp999
g36
(g37
g38
(lp1000
g36
(g37
g38
(lp1001
g36
(g37
g38
(lp1002
g36
(g37
g38
(lp1003
VPrice-performance
p1004
atp1005
Rp1006
(dp1007
g46
VNNP
p1008
sbatp1009
Rp1010
(dp1011
g46
VNP
p1012
sbag36
(g37
g38
(lp1013
g36
(g37
g38
(lp1014
V-LRB-
p1015
atp1016
Rp1017
(dp1018
g46
V-LRB-
p1019
sbag36
(g37
g38
(lp1020
g36
(g37
g38
(lp1021
Vmeasured
p1022
atp1023
Rp1024
(dp1025
g46
VVBN
p1026
sbag36
(g37
g38
(lp1027
g36
(g37
g38
(lp1028
Vin
p1029
atp1030
Rp1031
(dp1032
g46
VIN
p1033
sbag36
(g37
g38
(lp1034
g36
(g37
g38
(lp1035
Vdollars/tps
p1036
atp1037
Rp1038
(dp1039
g46
VNNS
p1040
sbatp1041
Rp1042
(dp1043
g46
VNP
p1044
sbatp1045
Rp1046
(dp1047
g46
VPP
p1048
sbatp1049
Rp1050
(dp1051
g46
VVP
p1052
sbag36
(g37
g38
(lp1053
V-RRB-
p1054
atp1055
Rp1056
(dp1057
g46
V-RRB-
p1058
sbatp1059
Rp1060
(dp1061
g46
VPRN
p1062
sbatp1063
Rp1064
(dp1065
g46
VNP
p1066
sbag36
(g37
g38
(lp1067
g36
(g37
g38
(lp1068
Vhas
p1069
atp1070
Rp1071
(dp1072
g46
VVBZ
p1073
sbag36
(g37
g38
(lp1074
g36
(g37
g38
(lp1075
Valso
p1076
atp1077
Rp1078
(dp1079
g46
VRB
p1080
sbatp1081
Rp1082
(dp1083
g46
VADVP
p1084
sbag36
(g37
g38
(lp1085
g36
(g37
g38
(lp1086
Vimproved
p1087
atp1088
Rp1089
(dp1090
g46
VVBN
p1091
sbag36
(g37
g38
(lp1092
g36
(g37
g38
(lp1093
Vdramatically
p1094
atp1095
Rp1096
(dp1097
g46
VRB
p1098
sbatp1099
Rp1100
(dp1101
g46
VADVP
p1102
sbag36
(g37
g38
(lp1103
g36
(g37
g38
(lp1104
Vas
p1105
atp1106
Rp1107
(dp1108
g46
VIN
p1109
sbag36
(g37
g38
(lp1110
g36
(g37
g38
(lp1111
g36
(g37
g38
(lp1112
Vshown
p1113
atp1114
Rp1115
(dp1116
g46
VVBN
p1117
sbag36
(g37
g38
(lp1118
g36
(g37
g38
(lp1119
Vin
p1120
atp1121
Rp1122
(dp1123
g46
VIN
p1124
sbag36
(g37
g38
(lp1125
g36
(g37
g38
(lp1126
VFigure
p1127
atp1128
Rp1129
(dp1130
g46
VNNP
p1131
sbag36
(g37
g38
(lp1132
g113
atp1133
Rp1134
(dp1135
g46
VCD
p1136
sbatp1137
Rp1138
(dp1139
g46
VNP
p1140
sbatp1141
Rp1142
(dp1143
g46
VPP
p1144
sbatp1145
Rp1146
(dp1147
g46
VVP
p1148
sbatp1149
Rp1150
(dp1151
g46
g190
sbatp1152
Rp1153
(dp1154
g46
VSBAR
p1155
sbatp1156
Rp1157
(dp1158
g46
VVP
p1159
sbatp1160
Rp1161
(dp1162
g46
VVP
p1163
sbag36
(g37
g38
(lp1164
g484
atp1165
Rp1166
(dp1167
g46
g484
sbatp1168
Rp1169
(dp1170
g46
g190
sbatp1171
Rp1172
(dp1173
g46
VROOT
p1174
sbasbasg496
I3
sg29
I1
sg32
I0
sba(icmyPackage
Parag
p1175
(dp1176
g14
I1
sg25
(lp1177
(icmyPackage
Sent
p1178
(dp1179
g14
I1
sg29
I2
sg30
S'The sort benchmark has seen similar improvements.'
p1180
sg32
I0
sg33
I8
sg34
(lp1181
g36
(g37
g38
(lp1182
g36
(g37
g38
(lp1183
g36
(g37
g38
(lp1184
g36
(g37
g38
(lp1185
VThe
p1186
atp1187
Rp1188
(dp1189
g46
VDT
p1190
sbag36
(g37
g38
(lp1191
Vsort
p1192
atp1193
Rp1194
(dp1195
g46
VNN
p1196
sbag36
(g37
g38
(lp1197
Vbenchmark
p1198
atp1199
Rp1200
(dp1201
g46
VNN
p1202
sbatp1203
Rp1204
(dp1205
g46
VNP
p1206
sbag36
(g37
g38
(lp1207
g36
(g37
g38
(lp1208
Vhas
p1209
atp1210
Rp1211
(dp1212
g46
VVBZ
p1213
sbag36
(g37
g38
(lp1214
g36
(g37
g38
(lp1215
Vseen
p1216
atp1217
Rp1218
(dp1219
g46
VVBN
p1220
sbag36
(g37
g38
(lp1221
g36
(g37
g38
(lp1222
Vsimilar
p1223
atp1224
Rp1225
(dp1226
g46
VJJ
p1227
sbag36
(g37
g38
(lp1228
Vimprovements
p1229
atp1230
Rp1231
(dp1232
g46
VNNS
p1233
sbatp1234
Rp1235
(dp1236
g46
VNP
p1237
sbatp1238
Rp1239
(dp1240
g46
VVP
p1241
sbatp1242
Rp1243
(dp1244
g46
VVP
p1245
sbag36
(g37
g38
(lp1246
g484
atp1247
Rp1248
(dp1249
g46
g484
sbatp1250
Rp1251
(dp1252
g46
g190
sbatp1253
Rp1254
(dp1255
g46
VROOT
p1256
sbasba(icmyPackage
Sent
p1257
(dp1258
g14
I1
sg29
I2
sg30
S'The traditional Datamation "sort 1M records) now runs in a fraction of a second and has been replaced by PennySort (sort as much as you can for a penny), MinuteSort (sort as much as you can in a minute), and Terabyte sort (sort a trillion records).'
p1259
sg32
I0
sg33
I9
sg34
(lp1260
g36
(g37
g38
(lp1261
g36
(g37
g38
(lp1262
g36
(g37
g38
(lp1263
g36
(g37
g38
(lp1264
g36
(g37
g38
(lp1265
VThe
p1266
atp1267
Rp1268
(dp1269
g46
VDT
p1270
sbag36
(g37
g38
(lp1271
Vtraditional
p1272
atp1273
Rp1274
(dp1275
g46
VJJ
p1276
sbag36
(g37
g38
(lp1277
VDatamation
p1278
atp1279
Rp1280
(dp1281
g46
VNN
p1282
sbatp1283
Rp1284
(dp1285
g46
VNP
p1286
sbag36
(g37
g38
(lp1287
g36
(g37
g38
(lp1288
g36
(g37
g38
(lp1289
V``
p1290
atp1291
Rp1292
(dp1293
g46
V``
p1294
sbag36
(g37
g38
(lp1295
g36
(g37
g38
(lp1296
g36
(g37
g38
(lp1297
Vsort
p1298
atp1299
Rp1300
(dp1301
g46
VNN
p1302
sbatp1303
Rp1304
(dp1305
g46
VNP
p1306
sbag36
(g37
g38
(lp1307
V1M
p1308
atp1309
Rp1310
(dp1311
g46
VCD
p1312
sbag36
(g37
g38
(lp1313
Vrecords
p1314
atp1315
Rp1316
(dp1317
g46
VNNS
p1318
sbatp1319
Rp1320
(dp1321
g46
VNP
p1322
sbag36
(g37
g38
(lp1323
V-RRB-
p1324
atp1325
Rp1326
(dp1327
g46
V-RRB-
p1328
sbag36
(g37
g38
(lp1329
g36
(g37
g38
(lp1330
g36
(g37
g38
(lp1331
g36
(g37
g38
(lp1332
Vnow
p1333
atp1334
Rp1335
(dp1336
g46
VRB
p1337
sbatp1338
Rp1339
(dp1340
g46
VADVP
p1341
sbag36
(g37
g38
(lp1342
Vruns
p1343
atp1344
Rp1345
(dp1346
g46
VVBZ
p1347
sbag36
(g37
g38
(lp1348
g36
(g37
g38
(lp1349
Vin
p1350
atp1351
Rp1352
(dp1353
g46
VIN
p1354
sbag36
(g37
g38
(lp1355
g36
(g37
g38
(lp1356
g36
(g37
g38
(lp1357
g227
atp1358
Rp1359
(dp1360
g46
VDT
p1361
sbag36
(g37
g38
(lp1362
Vfraction
p1363
atp1364
Rp1365
(dp1366
g46
VNN
p1367
sbatp1368
Rp1369
(dp1370
g46
VNP
p1371
sbag36
(g37
g38
(lp1372
g36
(g37
g38
(lp1373
Vof
p1374
atp1375
Rp1376
(dp1377
g46
VIN
p1378
sbag36
(g37
g38
(lp1379
g36
(g37
g38
(lp1380
g227
atp1381
Rp1382
(dp1383
g46
VDT
p1384
sbag36
(g37
g38
(lp1385
Vsecond
p1386
atp1387
Rp1388
(dp1389
g46
VNN
p1390
sbatp1391
Rp1392
(dp1393
g46
VNP
p1394
sbatp1395
Rp1396
(dp1397
g46
VPP
p1398
sbatp1399
Rp1400
(dp1401
g46
VNP
p1402
sbatp1403
Rp1404
(dp1405
g46
VPP
p1406
sbatp1407
Rp1408
(dp1409
g46
VVP
p1410
sbag36
(g37
g38
(lp1411
Vand
p1412
atp1413
Rp1414
(dp1415
g46
VCC
p1416
sbag36
(g37
g38
(lp1417
g36
(g37
g38
(lp1418
Vhas
p1419
atp1420
Rp1421
(dp1422
g46
VVBZ
p1423
sbag36
(g37
g38
(lp1424
g36
(g37
g38
(lp1425
Vbeen
p1426
atp1427
Rp1428
(dp1429
g46
VVBN
p1430
sbag36
(g37
g38
(lp1431
g36
(g37
g38
(lp1432
Vreplaced
p1433
atp1434
Rp1435
(dp1436
g46
VVBN
p1437
sbag36
(g37
g38
(lp1438
g36
(g37
g38
(lp1439
Vby
p1440
atp1441
Rp1442
(dp1443
g46
VIN
p1444
sbag36
(g37
g38
(lp1445
g36
(g37
g38
(lp1446
VPennySort
p1447
atp1448
Rp1449
(dp1450
g46
VNNP
p1451
sbatp1452
Rp1453
(dp1454
g46
VNP
p1455
sbatp1456
Rp1457
(dp1458
g46
VPP
p1459
sbag36
(g37
g38
(lp1460
g36
(g37
g38
(lp1461
V-LRB-
p1462
atp1463
Rp1464
(dp1465
g46
V-LRB-
p1466
sbag36
(g37
g38
(lp1467
g36
(g37
g38
(lp1468
g36
(g37
g38
(lp1469
Vsort
p1470
atp1471
Rp1472
(dp1473
g46
VNN
p1474
sbag36
(g37
g38
(lp1475
Vas
p1476
atp1477
Rp1478
(dp1479
g46
VRB
p1480
sbag36
(g37
g38
(lp1481
Vmuch
p1482
atp1483
Rp1484
(dp1485
g46
VRB
p1486
sbatp1487
Rp1488
(dp1489
g46
VADVP
p1490
sbag36
(g37
g38
(lp1491
g36
(g37
g38
(lp1492
Vas
p1493
atp1494
Rp1495
(dp1496
g46
VIN
p1497
sbag36
(g37
g38
(lp1498
g36
(g37
g38
(lp1499
g36
(g37
g38
(lp1500
Vyou
p1501
atp1502
Rp1503
(dp1504
g46
VPRP
p1505
sbatp1506
Rp1507
(dp1508
g46
VNP
p1509
sbag36
(g37
g38
(lp1510
g36
(g37
g38
(lp1511
Vcan
p1512
atp1513
Rp1514
(dp1515
g46
VMD
p1516
sbag36
(g37
g38
(lp1517
g36
(g37
g38
(lp1518
Vfor
p1519
atp1520
Rp1521
(dp1522
g46
VIN
p1523
sbag36
(g37
g38
(lp1524
g36
(g37
g38
(lp1525
g227
atp1526
Rp1527
(dp1528
g46
VDT
p1529
sbag36
(g37
g38
(lp1530
Vpenny
p1531
atp1532
Rp1533
(dp1534
g46
VNN
p1535
sbatp1536
Rp1537
(dp1538
g46
VNP
p1539
sbatp1540
Rp1541
(dp1542
g46
VPP
p1543
sbatp1544
Rp1545
(dp1546
g46
VVP
p1547
sbatp1548
Rp1549
(dp1550
g46
g190
sbatp1551
Rp1552
(dp1553
g46
VSBAR
p1554
sbatp1555
Rp1556
(dp1557
g46
VADVP
p1558
sbag36
(g37
g38
(lp1559
V-RRB-
p1560
atp1561
Rp1562
(dp1563
g46
V-RRB-
p1564
sbatp1565
Rp1566
(dp1567
g46
VPRN
p1568
sbatp1569
Rp1570
(dp1571
g46
VVP
p1572
sbatp1573
Rp1574
(dp1575
g46
VVP
p1576
sbatp1577
Rp1578
(dp1579
g46
VVP
p1580
sbatp1581
Rp1582
(dp1583
g46
VVP
p1584
sbatp1585
Rp1586
(dp1587
g46
g190
sbatp1588
Rp1589
(dp1590
g46
VSBAR
p1591
sbatp1592
Rp1593
(dp1594
g46
VNP
p1595
sbag36
(g37
g38
(lp1596
g286
atp1597
Rp1598
(dp1599
g46
g286
sbag36
(g37
g38
(lp1600
g36
(g37
g38
(lp1601
g36
(g37
g38
(lp1602
VMinuteSort
p1603
atp1604
Rp1605
(dp1606
g46
VVB
p1607
sbag36
(g37
g38
(lp1608
g36
(g37
g38
(lp1609
V-LRB-
p1610
atp1611
Rp1612
(dp1613
g46
V-LRB-
p1614
sbag36
(g37
g38
(lp1615
g36
(g37
g38
(lp1616
g36
(g37
g38
(lp1617
Vsort
p1618
atp1619
Rp1620
(dp1621
g46
VNN
p1622
sbag36
(g37
g38
(lp1623
Vas
p1624
atp1625
Rp1626
(dp1627
g46
VRB
p1628
sbag36
(g37
g38
(lp1629
Vmuch
p1630
atp1631
Rp1632
(dp1633
g46
VRB
p1634
sbatp1635
Rp1636
(dp1637
g46
VADVP
p1638
sbag36
(g37
g38
(lp1639
g36
(g37
g38
(lp1640
Vas
p1641
atp1642
Rp1643
(dp1644
g46
VIN
p1645
sbag36
(g37
g38
(lp1646
g36
(g37
g38
(lp1647
g36
(g37
g38
(lp1648
Vyou
p1649
atp1650
Rp1651
(dp1652
g46
VPRP
p1653
sbatp1654
Rp1655
(dp1656
g46
VNP
p1657
sbag36
(g37
g38
(lp1658
g36
(g37
g38
(lp1659
Vcan
p1660
atp1661
Rp1662
(dp1663
g46
VMD
p1664
sbag36
(g37
g38
(lp1665
g36
(g37
g38
(lp1666
Vin
p1667
atp1668
Rp1669
(dp1670
g46
VIN
p1671
sbag36
(g37
g38
(lp1672
g36
(g37
g38
(lp1673
g227
atp1674
Rp1675
(dp1676
g46
VDT
p1677
sbag36
(g37
g38
(lp1678
Vminute
p1679
atp1680
Rp1681
(dp1682
g46
VNN
p1683
sbatp1684
Rp1685
(dp1686
g46
VNP
p1687
sbatp1688
Rp1689
(dp1690
g46
VPP
p1691
sbatp1692
Rp1693
(dp1694
g46
VVP
p1695
sbatp1696
Rp1697
(dp1698
g46
g190
sbatp1699
Rp1700
(dp1701
g46
VSBAR
p1702
sbatp1703
Rp1704
(dp1705
g46
VADVP
p1706
sbag36
(g37
g38
(lp1707
V-RRB-
p1708
atp1709
Rp1710
(dp1711
g46
V-RRB-
p1712
sbatp1713
Rp1714
(dp1715
g46
VPRN
p1716
sbatp1717
Rp1718
(dp1719
g46
VVP
p1720
sbag36
(g37
g38
(lp1721
g286
atp1722
Rp1723
(dp1724
g46
g286
sbag36
(g37
g38
(lp1725
Vand
p1726
atp1727
Rp1728
(dp1729
g46
VCC
p1730
sbag36
(g37
g38
(lp1731
g36
(g37
g38
(lp1732
VTerabyte
p1733
atp1734
Rp1735
(dp1736
g46
VVB
p1737
sbag36
(g37
g38
(lp1738
g36
(g37
g38
(lp1739
Vsort
p1740
atp1741
Rp1742
(dp1743
g46
VNN
p1744
sbatp1745
Rp1746
(dp1747
g46
VADVP
p1748
sbag36
(g37
g38
(lp1749
g36
(g37
g38
(lp1750
V-LRB-
p1751
atp1752
Rp1753
(dp1754
g46
V-LRB-
p1755
sbag36
(g37
g38
(lp1756
g36
(g37
g38
(lp1757
g36
(g37
g38
(lp1758
Vsort
p1759
atp1760
Rp1761
(dp1762
g46
VVB
p1763
sbag36
(g37
g38
(lp1764
g36
(g37
g38
(lp1765
g36
(g37
g38
(lp1766
g227
atp1767
Rp1768
(dp1769
g46
VDT
p1770
sbag36
(g37
g38
(lp1771
Vtrillion
p1772
atp1773
Rp1774
(dp1775
g46
VCD
p1776
sbatp1777
Rp1778
(dp1779
g46
VQP
p1780
sbag36
(g37
g38
(lp1781
Vrecords
p1782
atp1783
Rp1784
(dp1785
g46
VNNS
p1786
sbatp1787
Rp1788
(dp1789
g46
VNP
p1790
sbatp1791
Rp1792
(dp1793
g46
VVP
p1794
sbatp1795
Rp1796
(dp1797
g46
g190
sbag36
(g37
g38
(lp1798
V-RRB-
p1799
atp1800
Rp1801
(dp1802
g46
V-RRB-
p1803
sbatp1804
Rp1805
(dp1806
g46
VPRN
p1807
sbatp1808
Rp1809
(dp1810
g46
VVP
p1811
sbatp1812
Rp1813
(dp1814
g46
VVP
p1815
sbag36
(g37
g38
(lp1816
g484
atp1817
Rp1818
(dp1819
g46
g484
sbatp1820
Rp1821
(dp1822
g46
g190
sbatp1823
Rp1824
(dp1825
g46
VROOT
p1826
sbasba(icmyPackage
Sent
p1827
(dp1828
g14
I1
sg29
I2
sg30
S'Each of these three benchmarks has a Daytona (commercial), and Indy (benchmark special) category [3].'
p1829
sg32
I0
sg33
I10
sg34
(lp1830
g36
(g37
g38
(lp1831
g36
(g37
g38
(lp1832
g36
(g37
g38
(lp1833
g36
(g37
g38
(lp1834
g36
(g37
g38
(lp1835
VEach
p1836
atp1837
Rp1838
(dp1839
g46
VDT
p1840
sbatp1841
Rp1842
(dp1843
g46
VNP
p1844
sbag36
(g37
g38
(lp1845
g36
(g37
g38
(lp1846
Vof
p1847
atp1848
Rp1849
(dp1850
g46
VIN
p1851
sbag36
(g37
g38
(lp1852
g36
(g37
g38
(lp1853
Vthese
p1854
atp1855
Rp1856
(dp1857
g46
VDT
p1858
sbag36
(g37
g38
(lp1859
Vthree
p1860
atp1861
Rp1862
(dp1863
g46
VCD
p1864
sbag36
(g37
g38
(lp1865
Vbenchmarks
p1866
atp1867
Rp1868
(dp1869
g46
VNNS
p1870
sbatp1871
Rp1872
(dp1873
g46
VNP
p1874
sbatp1875
Rp1876
(dp1877
g46
VPP
p1878
sbatp1879
Rp1880
(dp1881
g46
VNP
p1882
sbag36
(g37
g38
(lp1883
g36
(g37
g38
(lp1884
Vhas
p1885
atp1886
Rp1887
(dp1888
g46
VVBZ
p1889
sbag36
(g37
g38
(lp1890
g36
(g37
g38
(lp1891
g36
(g37
g38
(lp1892
g36
(g37
g38
(lp1893
g227
atp1894
Rp1895
(dp1896
g46
VDT
p1897
sbag36
(g37
g38
(lp1898
VDaytona
p1899
atp1900
Rp1901
(dp1902
g46
VNNP
p1903
sbatp1904
Rp1905
(dp1906
g46
VNP
p1907
sbag36
(g37
g38
(lp1908
g36
(g37
g38
(lp1909
V-LRB-
p1910
atp1911
Rp1912
(dp1913
g46
V-LRB-
p1914
sbag36
(g37
g38
(lp1915
g36
(g37
g38
(lp1916
Vcommercial
p1917
atp1918
Rp1919
(dp1920
g46
VJJ
p1921
sbatp1922
Rp1923
(dp1924
g46
VNP
p1925
sbag36
(g37
g38
(lp1926
V-RRB-
p1927
atp1928
Rp1929
(dp1930
g46
V-RRB-
p1931
sbatp1932
Rp1933
(dp1934
g46
VPRN
p1935
sbatp1936
Rp1937
(dp1938
g46
VNP
p1939
sbag36
(g37
g38
(lp1940
g286
atp1941
Rp1942
(dp1943
g46
g286
sbag36
(g37
g38
(lp1944
Vand
p1945
atp1946
Rp1947
(dp1948
g46
VCC
p1949
sbag36
(g37
g38
(lp1950
g36
(g37
g38
(lp1951
g36
(g37
g38
(lp1952
VIndy
p1953
atp1954
Rp1955
(dp1956
g46
VNNP
p1957
sbatp1958
Rp1959
(dp1960
g46
VNP
p1961
sbag36
(g37
g38
(lp1962
g36
(g37
g38
(lp1963
V-LRB-
p1964
atp1965
Rp1966
(dp1967
g46
V-LRB-
p1968
sbag36
(g37
g38
(lp1969
g36
(g37
g38
(lp1970
Vbenchmark
p1971
atp1972
Rp1973
(dp1974
g46
VJJ
p1975
sbag36
(g37
g38
(lp1976
Vspecial
p1977
atp1978
Rp1979
(dp1980
g46
VNN
p1981
sbatp1982
Rp1983
(dp1984
g46
VNP
p1985
sbag36
(g37
g38
(lp1986
V-RRB-
p1987
atp1988
Rp1989
(dp1990
g46
V-RRB-
p1991
sbatp1992
Rp1993
(dp1994
g46
VPRN
p1995
sbatp1996
Rp1997
(dp1998
g46
VNP
p1999
sbag36
(g37
g38
(lp2000
g36
(g37
g38
(lp2001
g36
(g37
g38
(lp2002
Vcategory
p2003
atp2004
Rp2005
(dp2006
g46
VNN
p2007
sbatp2008
Rp2009
(dp2010
g46
VNP
p2011
sbag36
(g37
g38
(lp2012
g36
(g37
g38
(lp2013
g36
(g37
g38
(lp2014
V-LSB-
p2015
atp2016
Rp2017
(dp2018
g46
VCD
p2019
sbag36
(g37
g38
(lp2020
V3
p2021
atp2022
Rp2023
(dp2024
g46
VCD
p2025
sbatp2026
Rp2027
(dp2028
g46
VQP
p2029
sbag36
(g37
g38
(lp2030
V-RSB-
p2031
atp2032
Rp2033
(dp2034
g46
VNNS
p2035
sbatp2036
Rp2037
(dp2038
g46
VNP
p2039
sbatp2040
Rp2041
(dp2042
g46
VNP
p2043
sbatp2044
Rp2045
(dp2046
g46
VNP
p2047
sbatp2048
Rp2049
(dp2050
g46
VVP
p2051
sbag36
(g37
g38
(lp2052
g484
atp2053
Rp2054
(dp2055
g46
g484
sbatp2056
Rp2057
(dp2058
g46
g190
sbatp2059
Rp2060
(dp2061
g46
VROOT
p2062
sbasbasg496
I3
sg29
I2
sg32
I0
sba(icmyPackage
Parag
p2063
(dp2064
g14
I1
sg25
(lp2065
(icmyPackage
Sent
p2066
(dp2067
g14
I1
sg29
I3
sg30
S"This year Jim Wyllie of IBM Almaden Research won both Terabyte Sort and MinuteSort medals with his SCS (SAN Cluster Sort) [4] using SUSE Linux (SLES8) and IBM's General Parallel File System (GPFS) on an IBM 40-node 80-Itanium cluster with a SAN array of 2,520 disks."
p2068
sg32
I0
sg33
I11
sg34
(lp2069
g36
(g37
g38
(lp2070
g36
(g37
g38
(lp2071
g36
(g37
g38
(lp2072
g36
(g37
g38
(lp2073
g36
(g37
g38
(lp2074
VThis
p2075
atp2076
Rp2077
(dp2078
g46
VDT
p2079
sbag36
(g37
g38
(lp2080
Vyear
p2081
atp2082
Rp2083
(dp2084
g46
VNN
p2085
sbatp2086
Rp2087
(dp2088
g46
VNP
p2089
sbag36
(g37
g38
(lp2090
g36
(g37
g38
(lp2091
g36
(g37
g38
(lp2092
g36
(g37
g38
(lp2093
g36
(g37
g38
(lp2094
VJim
p2095
atp2096
Rp2097
(dp2098
g46
VNNP
p2099
sbag36
(g37
g38
(lp2100
VWyllie
p2101
atp2102
Rp2103
(dp2104
g46
VNNP
p2105
sbatp2106
Rp2107
(dp2108
g46
VNP
p2109
sbag36
(g37
g38
(lp2110
g36
(g37
g38
(lp2111
Vof
p2112
atp2113
Rp2114
(dp2115
g46
VIN
p2116
sbag36
(g37
g38
(lp2117
g36
(g37
g38
(lp2118
VIBM
p2119
atp2120
Rp2121
(dp2122
g46
VNNP
p2123
sbag36
(g37
g38
(lp2124
VAlmaden
p2125
atp2126
Rp2127
(dp2128
g46
VNNP
p2129
sbag36
(g37
g38
(lp2130
VResearch
p2131
atp2132
Rp2133
(dp2134
g46
VNNP
p2135
sbatp2136
Rp2137
(dp2138
g46
VNP
p2139
sbatp2140
Rp2141
(dp2142
g46
VPP
p2143
sbatp2144
Rp2145
(dp2146
g46
VNP
p2147
sbag36
(g37
g38
(lp2148
g36
(g37
g38
(lp2149
Vwon
p2150
atp2151
Rp2152
(dp2153
g46
VVBD
p2154
sbag36
(g37
g38
(lp2155
g36
(g37
g38
(lp2156
Vboth
p2157
atp2158
Rp2159
(dp2160
g46
VDT
p2161
sbag36
(g37
g38
(lp2162
VTerabyte
p2163
atp2164
Rp2165
(dp2166
g46
VNNP
p2167
sbag36
(g37
g38
(lp2168
VSort
p2169
atp2170
Rp2171
(dp2172
g46
VNNP
p2173
sbag36
(g37
g38
(lp2174
Vand
p2175
atp2176
Rp2177
(dp2178
g46
VCC
p2179
sbag36
(g37
g38
(lp2180
VMinuteSort
p2181
atp2182
Rp2183
(dp2184
g46
VNNP
p2185
sbag36
(g37
g38
(lp2186
Vmedals
p2187
atp2188
Rp2189
(dp2190
g46
VNNS
p2191
sbatp2192
Rp2193
(dp2194
g46
VNP
p2195
sbag36
(g37
g38
(lp2196
g36
(g37
g38
(lp2197
Vwith
p2198
atp2199
Rp2200
(dp2201
g46
VIN
p2202
sbag36
(g37
g38
(lp2203
g36
(g37
g38
(lp2204
Vhis
p2205
atp2206
Rp2207
(dp2208
g46
VPRP$
p2209
sbag36
(g37
g38
(lp2210
VSCS
p2211
atp2212
Rp2213
(dp2214
g46
VNN
p2215
sbatp2216
Rp2217
(dp2218
g46
VNP
p2219
sbatp2220
Rp2221
(dp2222
g46
VPP
p2223
sbatp2224
Rp2225
(dp2226
g46
VVP
p2227
sbatp2228
Rp2229
(dp2230
g46
g190
sbatp2231
Rp2232
(dp2233
g46
VSBAR
p2234
sbag36
(g37
g38
(lp2235
g36
(g37
g38
(lp2236
V-LRB-
p2237
atp2238
Rp2239
(dp2240
g46
V-LRB-
p2241
sbag36
(g37
g38
(lp2242
g36
(g37
g38
(lp2243
VSAN
p2244
atp2245
Rp2246
(dp2247
g46
VNNP
p2248
sbag36
(g37
g38
(lp2249
VCluster
p2250
atp2251
Rp2252
(dp2253
g46
VNNP
p2254
sbag36
(g37
g38
(lp2255
VSort
p2256
atp2257
Rp2258
(dp2259
g46
VNNP
p2260
sbatp2261
Rp2262
(dp2263
g46
VNP
p2264
sbag36
(g37
g38
(lp2265
V-RRB-
p2266
atp2267
Rp2268
(dp2269
g46
V-RRB-
p2270
sbatp2271
Rp2272
(dp2273
g46
VPRN
p2274
sbatp2275
Rp2276
(dp2277
g46
VNP
p2278
sbag36
(g37
g38
(lp2279
g36
(g37
g38
(lp2280
V-LSB-
p2281
atp2282
Rp2283
(dp2284
g46
VVBZ
p2285
sbag36
(g37
g38
(lp2286
g36
(g37
g38
(lp2287
g36
(g37
g38
(lp2288
V4
p2289
atp2290
Rp2291
(dp2292
g46
VCD
p2293
sbag36
(g37
g38
(lp2294
V-RSB-
p2295
atp2296
Rp2297
(dp2298
g46
VNNS
p2299
sbatp2300
Rp2301
(dp2302
g46
VNP
p2303
sbag36
(g37
g38
(lp2304
g36
(g37
g38
(lp2305
Vusing
p2306
atp2307
Rp2308
(dp2309
g46
VVBG
p2310
sbag36
(g37
g38
(lp2311
g36
(g37
g38
(lp2312
g36
(g37
g38
(lp2313
VSUSE
p2314
atp2315
Rp2316
(dp2317
g46
VNNP
p2318
sbag36
(g37
g38
(lp2319
VLinux
p2320
atp2321
Rp2322
(dp2323
g46
VNNP
p2324
sbatp2325
Rp2326
(dp2327
g46
VNP
p2328
sbag36
(g37
g38
(lp2329
g36
(g37
g38
(lp2330
V-LRB-
p2331
atp2332
Rp2333
(dp2334
g46
V-LRB-
p2335
sbag36
(g37
g38
(lp2336
g36
(g37
g38
(lp2337
VSLES8
p2338
atp2339
Rp2340
(dp2341
g46
VNNP
p2342
sbatp2343
Rp2344
(dp2345
g46
VNP
p2346
sbag36
(g37
g38
(lp2347
V-RRB-
p2348
atp2349
Rp2350
(dp2351
g46
V-RRB-
p2352
sbatp2353
Rp2354
(dp2355
g46
VPRN
p2356
sbag36
(g37
g38
(lp2357
Vand
p2358
atp2359
Rp2360
(dp2361
g46
VCC
p2362
sbag36
(g37
g38
(lp2363
g36
(g37
g38
(lp2364
g36
(g37
g38
(lp2365
g36
(g37
g38
(lp2366
VIBM
p2367
atp2368
Rp2369
(dp2370
g46
VNNP
p2371
sbag36
(g37
g38
(lp2372
V's
p2373
atp2374
Rp2375
(dp2376
g46
VPOS
p2377
sbatp2378
Rp2379
(dp2380
g46
VNP
p2381
sbag36
(g37
g38
(lp2382
VGeneral
p2383
atp2384
Rp2385
(dp2386
g46
VNNP
p2387
sbag36
(g37
g38
(lp2388
VParallel
p2389
atp2390
Rp2391
(dp2392
g46
VNNP
p2393
sbag36
(g37
g38
(lp2394
VFile
p2395
atp2396
Rp2397
(dp2398
g46
VNNP
p2399
sbag36
(g37
g38
(lp2400
VSystem
p2401
atp2402
Rp2403
(dp2404
g46
VNNP
p2405
sbatp2406
Rp2407
(dp2408
g46
VNP
p2409
sbag36
(g37
g38
(lp2410
g36
(g37
g38
(lp2411
V-LRB-
p2412
atp2413
Rp2414
(dp2415
g46
V-LRB-
p2416
sbag36
(g37
g38
(lp2417
g36
(g37
g38
(lp2418
VGPFS
p2419
atp2420
Rp2421
(dp2422
g46
VNNP
p2423
sbatp2424
Rp2425
(dp2426
g46
VNP
p2427
sbag36
(g37
g38
(lp2428
V-RRB-
p2429
atp2430
Rp2431
(dp2432
g46
V-RRB-
p2433
sbatp2434
Rp2435
(dp2436
g46
VPRN
p2437
sbag36
(g37
g38
(lp2438
g36
(g37
g38
(lp2439
Von
p2440
atp2441
Rp2442
(dp2443
g46
VIN
p2444
sbag36
(g37
g38
(lp2445
g36
(g37
g38
(lp2446
Van
p2447
atp2448
Rp2449
(dp2450
g46
VDT
p2451
sbag36
(g37
g38
(lp2452
VIBM
p2453
atp2454
Rp2455
(dp2456
g46
VNNP
p2457
sbag36
(g37
g38
(lp2458
V40-node
p2459
atp2460
Rp2461
(dp2462
g46
VJJ
p2463
sbag36
(g37
g38
(lp2464
V80-Itanium
p2465
atp2466
Rp2467
(dp2468
g46
VJJ
p2469
sbag36
(g37
g38
(lp2470
Vcluster
p2471
atp2472
Rp2473
(dp2474
g46
VNN
p2475
sbatp2476
Rp2477
(dp2478
g46
VNP
p2479
sbatp2480
Rp2481
(dp2482
g46
VPP
p2483
sbag36
(g37
g38
(lp2484
g36
(g37
g38
(lp2485
Vwith
p2486
atp2487
Rp2488
(dp2489
g46
VIN
p2490
sbag36
(g37
g38
(lp2491
g36
(g37
g38
(lp2492
g227
atp2493
Rp2494
(dp2495
g46
VDT
p2496
sbag36
(g37
g38
(lp2497
VSAN
p2498
atp2499
Rp2500
(dp2501
g46
VNNP
p2502
sbag36
(g37
g38
(lp2503
Varray
p2504
atp2505
Rp2506
(dp2507
g46
VNN
p2508
sbatp2509
Rp2510
(dp2511
g46
VNP
p2512
sbatp2513
Rp2514
(dp2515
g46
VPP
p2516
sbag36
(g37
g38
(lp2517
g36
(g37
g38
(lp2518
Vof
p2519
atp2520
Rp2521
(dp2522
g46
VIN
p2523
sbag36
(g37
g38
(lp2524
g36
(g37
g38
(lp2525
V2,520
p2526
atp2527
Rp2528
(dp2529
g46
VJJ
p2530
sbag36
(g37
g38
(lp2531
Vdisks
p2532
atp2533
Rp2534
(dp2535
g46
VNNS
p2536
sbatp2537
Rp2538
(dp2539
g46
VNP
p2540
sbatp2541
Rp2542
(dp2543
g46
VPP
p2544
sbatp2545
Rp2546
(dp2547
g46
VNP
p2548
sbatp2549
Rp2550
(dp2551
g46
VNP
p2552
sbatp2553
Rp2554
(dp2555
g46
VVP
p2556
sbatp2557
Rp2558
(dp2559
g46
VNP
p2560
sbatp2561
Rp2562
(dp2563
g46
VVP
p2564
sbag36
(g37
g38
(lp2565
g484
atp2566
Rp2567
(dp2568
g46
g484
sbatp2569
Rp2570
(dp2571
g46
g190
sbatp2572
Rp2573
(dp2574
g46
VROOT
p2575
sbasba(icmyPackage
Sent
p2576
(dp2577
g14
I1
sg29
I3
sg30
S'The machine delivered up to 14 GBps of IO bandwidth and sorted a terabyte in 437 seconds.'
p2578
sg32
I0
sg33
I12
sg34
(lp2579
g36
(g37
g38
(lp2580
g36
(g37
g38
(lp2581
g36
(g37
g38
(lp2582
g36
(g37
g38
(lp2583
VThe
p2584
atp2585
Rp2586
(dp2587
g46
VDT
p2588
sbag36
(g37
g38
(lp2589
Vmachine
p2590
atp2591
Rp2592
(dp2593
g46
VNN
p2594
sbatp2595
Rp2596
(dp2597
g46
VNP
p2598
sbag36
(g37
g38
(lp2599
g36
(g37
g38
(lp2600
g36
(g37
g38
(lp2601
Vdelivered
p2602
atp2603
Rp2604
(dp2605
g46
VVBN
p2606
sbag36
(g37
g38
(lp2607
g36
(g37
g38
(lp2608
Vup
p2609
atp2610
Rp2611
(dp2612
g46
VRP
p2613
sbatp2614
Rp2615
(dp2616
g46
VPRT
p2617
sbag36
(g37
g38
(lp2618
g36
(g37
g38
(lp2619
Vto
p2620
atp2621
Rp2622
(dp2623
g46
VTO
p2624
sbag36
(g37
g38
(lp2625
g36
(g37
g38
(lp2626
g36
(g37
g38
(lp2627
V14
p2628
atp2629
Rp2630
(dp2631
g46
VCD
p2632
sbag36
(g37
g38
(lp2633
VGBps
p2634
atp2635
Rp2636
(dp2637
g46
VNNS
p2638
sbatp2639
Rp2640
(dp2641
g46
VNP
p2642
sbag36
(g37
g38
(lp2643
g36
(g37
g38
(lp2644
Vof
p2645
atp2646
Rp2647
(dp2648
g46
VIN
p2649
sbag36
(g37
g38
(lp2650
g36
(g37
g38
(lp2651
VIO
p2652
atp2653
Rp2654
(dp2655
g46
VNNP
p2656
sbag36
(g37
g38
(lp2657
Vbandwidth
p2658
atp2659
Rp2660
(dp2661
g46
VNNP
p2662
sbatp2663
Rp2664
(dp2665
g46
VNP
p2666
sbatp2667
Rp2668
(dp2669
g46
VPP
p2670
sbatp2671
Rp2672
(dp2673
g46
VNP
p2674
sbatp2675
Rp2676
(dp2677
g46
VPP
p2678
sbatp2679
Rp2680
(dp2681
g46
VVP
p2682
sbag36
(g37
g38
(lp2683
Vand
p2684
atp2685
Rp2686
(dp2687
g46
VCC
p2688
sbag36
(g37
g38
(lp2689
g36
(g37
g38
(lp2690
Vsorted
p2691
atp2692
Rp2693
(dp2694
g46
VVBN
p2695
sbag36
(g37
g38
(lp2696
g36
(g37
g38
(lp2697
g36
(g37
g38
(lp2698
g227
atp2699
Rp2700
(dp2701
g46
VDT
p2702
sbag36
(g37
g38
(lp2703
Vterabyte
p2704
atp2705
Rp2706
(dp2707
g46
VNN
p2708
sbatp2709
Rp2710
(dp2711
g46
VNP
p2712
sbag36
(g37
g38
(lp2713
g36
(g37
g38
(lp2714
Vin
p2715
atp2716
Rp2717
(dp2718
g46
VIN
p2719
sbag36
(g37
g38
(lp2720
g36
(g37
g38
(lp2721
V437
p2722
atp2723
Rp2724
(dp2725
g46
VCD
p2726
sbag36
(g37
g38
(lp2727
Vseconds
p2728
atp2729
Rp2730
(dp2731
g46
VNNS
p2732
sbatp2733
Rp2734
(dp2735
g46
VNP
p2736
sbatp2737
Rp2738
(dp2739
g46
VPP
p2740
sbatp2741
Rp2742
(dp2743
g46
VNP
p2744
sbatp2745
Rp2746
(dp2747
g46
VVP
p2748
sbatp2749
Rp2750
(dp2751
g46
VVP
p2752
sbag36
(g37
g38
(lp2753
g484
atp2754
Rp2755
(dp2756
g46
g484
sbatp2757
Rp2758
(dp2759
g46
g190
sbatp2760
Rp2761
(dp2762
g46
VROOT
p2763
sbasba(icmyPackage
Sent
p2764
(dp2765
g14
I1
sg29
I3
sg30
S'SCS was able to sort 125 GB within a minute (wow!'
p2766
sg32
I0
sg33
I13
sg34
(lp2767
g36
(g37
g38
(lp2768
g36
(g37
g38
(lp2769
g36
(g37
g38
(lp2770
g36
(g37
g38
(lp2771
VSCS
p2772
atp2773
Rp2774
(dp2775
g46
VNNP
p2776
sbatp2777
Rp2778
(dp2779
g46
VNP
p2780
sbag36
(g37
g38
(lp2781
g36
(g37
g38
(lp2782
Vwas
p2783
atp2784
Rp2785
(dp2786
g46
VVBD
p2787
sbag36
(g37
g38
(lp2788
g36
(g37
g38
(lp2789
Vable
p2790
atp2791
Rp2792
(dp2793
g46
VJJ
p2794
sbag36
(g37
g38
(lp2795
g36
(g37
g38
(lp2796
g36
(g37
g38
(lp2797
Vto
p2798
atp2799
Rp2800
(dp2801
g46
VTO
p2802
sbag36
(g37
g38
(lp2803
g36
(g37
g38
(lp2804
Vsort
p2805
atp2806
Rp2807
(dp2808
g46
VVB
p2809
sbag36
(g37
g38
(lp2810
g36
(g37
g38
(lp2811
g36
(g37
g38
(lp2812
V125
p2813
atp2814
Rp2815
(dp2816
g46
VCD
p2817
sbag36
(g37
g38
(lp2818
VGB
p2819
atp2820
Rp2821
(dp2822
g46
VNN
p2823
sbatp2824
Rp2825
(dp2826
g46
VNP
p2827
sbag36
(g37
g38
(lp2828
g36
(g37
g38
(lp2829
Vwithin
p2830
atp2831
Rp2832
(dp2833
g46
VIN
p2834
sbag36
(g37
g38
(lp2835
g36
(g37
g38
(lp2836
g36
(g37
g38
(lp2837
g227
atp2838
Rp2839
(dp2840
g46
VDT
p2841
sbag36
(g37
g38
(lp2842
Vminute
p2843
atp2844
Rp2845
(dp2846
g46
VNN
p2847
sbatp2848
Rp2849
(dp2850
g46
VNP
p2851
sbag36
(g37
g38
(lp2852
V-LRB-
p2853
atp2854
Rp2855
(dp2856
g46
V-LRB-
p2857
sbag36
(g37
g38
(lp2858
g36
(g37
g38
(lp2859
Vwow
p2860
atp2861
Rp2862
(dp2863
g46
VNN
p2864
sbatp2865
Rp2866
(dp2867
g46
VNP
p2868
sbag36
(g37
g38
(lp2869
g36
(g37
g38
(lp2870
V!
p2871
atp2872
Rp2873
(dp2874
g46
VRB
p2875
sbatp2876
Rp2877
(dp2878
g46
VADVP
p2879
sbatp2880
Rp2881
(dp2882
g46
VNP
p2883
sbatp2884
Rp2885
(dp2886
g46
VPP
p2887
sbatp2888
Rp2889
(dp2890
g46
VNP
p2891
sbatp2892
Rp2893
(dp2894
g46
VVP
p2895
sbatp2896
Rp2897
(dp2898
g46
VVP
p2899
sbatp2900
Rp2901
(dp2902
g46
g190
sbatp2903
Rp2904
(dp2905
g46
VADJP
p2906
sbatp2907
Rp2908
(dp2909
g46
VVP
p2910
sbatp2911
Rp2912
(dp2913
g46
g190
sbatp2914
Rp2915
(dp2916
g46
VROOT
p2917
sbasba(icmyPackage
Sent
p2918
(dp2919
g14
I1
sg29
I3
sg30
S'.'
p2920
sg32
I0
sg33
I14
sg34
(lp2921
g36
(g37
g38
(lp2922
g36
(g37
g38
(lp2923
g36
(g37
g38
(lp2924
g484
atp2925
Rp2926
(dp2927
g46
VUH
p2928
sbatp2929
Rp2930
(dp2931
g46
VINTJ
p2932
sbatp2933
Rp2934
(dp2935
g46
VROOT
p2936
sbasba(icmyPackage
Sent
p2937
(dp2938
g14
I1
sg29
I3
sg30
S'It is hard to know the price of this system (now at UCSD) but the "list" price is at least $9M.'
p2939
sg32
I0
sg33
I15
sg34
(lp2940
g36
(g37
g38
(lp2941
g36
(g37
g38
(lp2942
g36
(g37
g38
(lp2943
g36
(g37
g38
(lp2944
g36
(g37
g38
(lp2945
VIt
p2946
atp2947
Rp2948
(dp2949
g46
VPRP
p2950
sbatp2951
Rp2952
(dp2953
g46
VNP
p2954
sbag36
(g37
g38
(lp2955
g36
(g37
g38
(lp2956
Vis
p2957
atp2958
Rp2959
(dp2960
g46
VVBZ
p2961
sbag36
(g37
g38
(lp2962
g36
(g37
g38
(lp2963
Vhard
p2964
atp2965
Rp2966
(dp2967
g46
VJJ
p2968
sbag36
(g37
g38
(lp2969
g36
(g37
g38
(lp2970
g36
(g37
g38
(lp2971
Vto
p2972
atp2973
Rp2974
(dp2975
g46
VTO
p2976
sbag36
(g37
g38
(lp2977
g36
(g37
g38
(lp2978
Vknow
p2979
atp2980
Rp2981
(dp2982
g46
VVB
p2983
sbag36
(g37
g38
(lp2984
g36
(g37
g38
(lp2985
g36
(g37
g38
(lp2986
Vthe
p2987
atp2988
Rp2989
(dp2990
g46
VDT
p2991
sbag36
(g37
g38
(lp2992
Vprice
p2993
atp2994
Rp2995
(dp2996
g46
VNN
p2997
sbatp2998
Rp2999
(dp3000
g46
VNP
p3001
sbag36
(g37
g38
(lp3002
g36
(g37
g38
(lp3003
Vof
p3004
atp3005
Rp3006
(dp3007
g46
VIN
p3008
sbag36
(g37
g38
(lp3009
g36
(g37
g38
(lp3010
g36
(g37
g38
(lp3011
Vthis
p3012
atp3013
Rp3014
(dp3015
g46
VDT
p3016
sbag36
(g37
g38
(lp3017
Vsystem
p3018
atp3019
Rp3020
(dp3021
g46
VNN
p3022
sbatp3023
Rp3024
(dp3025
g46
VNP
p3026
sbag36
(g37
g38
(lp3027
g36
(g37
g38
(lp3028
V-LRB-
p3029
atp3030
Rp3031
(dp3032
g46
V-LRB-
p3033
sbag36
(g37
g38
(lp3034
g36
(g37
g38
(lp3035
g36
(g37
g38
(lp3036
Vnow
p3037
atp3038
Rp3039
(dp3040
g46
VRB
p3041
sbatp3042
Rp3043
(dp3044
g46
VADVP
p3045
sbag36
(g37
g38
(lp3046
Vat
p3047
atp3048
Rp3049
(dp3050
g46
VIN
p3051
sbag36
(g37
g38
(lp3052
g36
(g37
g38
(lp3053
VUCSD
p3054
atp3055
Rp3056
(dp3057
g46
VNNP
p3058
sbatp3059
Rp3060
(dp3061
g46
VNP
p3062
sbatp3063
Rp3064
(dp3065
g46
VPP
p3066
sbag36
(g37
g38
(lp3067
V-RRB-
p3068
atp3069
Rp3070
(dp3071
g46
V-RRB-
p3072
sbatp3073
Rp3074
(dp3075
g46
VPRN
p3076
sbatp3077
Rp3078
(dp3079
g46
VNP
p3080
sbatp3081
Rp3082
(dp3083
g46
VPP
p3084
sbatp3085
Rp3086
(dp3087
g46
VNP
p3088
sbatp3089
Rp3090
(dp3091
g46
VVP
p3092
sbatp3093
Rp3094
(dp3095
g46
VVP
p3096
sbatp3097
Rp3098
(dp3099
g46
g190
sbatp3100
Rp3101
(dp3102
g46
VADJP
p3103
sbatp3104
Rp3105
(dp3106
g46
VVP
p3107
sbatp3108
Rp3109
(dp3110
g46
g190
sbag36
(g37
g38
(lp3111
Vbut
p3112
atp3113
Rp3114
(dp3115
g46
VCC
p3116
sbag36
(g37
g38
(lp3117
g36
(g37
g38
(lp3118
g36
(g37
g38
(lp3119
Vthe
p3120
atp3121
Rp3122
(dp3123
g46
VDT
p3124
sbag36
(g37
g38
(lp3125
V``
p3126
atp3127
Rp3128
(dp3129
g46
V``
p3130
sbag36
(g37
g38
(lp3131
Vlist
p3132
atp3133
Rp3134
(dp3135
g46
VNN
p3136
sbag36
(g37
g38
(lp3137
V''
p3138
atp3139
Rp3140
(dp3141
g46
V''
p3142
sbag36
(g37
g38
(lp3143
Vprice
p3144
atp3145
Rp3146
(dp3147
g46
VNN
p3148
sbatp3149
Rp3150
(dp3151
g46
VNP
p3152
sbag36
(g37
g38
(lp3153
g36
(g37
g38
(lp3154
Vis
p3155
atp3156
Rp3157
(dp3158
g46
VVBZ
p3159
sbag36
(g37
g38
(lp3160
g36
(g37
g38
(lp3161
g36
(g37
g38
(lp3162
Vat
p3163
atp3164
Rp3165
(dp3166
g46
VIN
p3167
sbag36
(g37
g38
(lp3168
Vleast
p3169
atp3170
Rp3171
(dp3172
g46
VJJS
p3173
sbag36
(g37
g38
(lp3174
V$
p3175
atp3176
Rp3177
(dp3178
g46
g3175
sbag36
(g37
g38
(lp3179
V9M
p3180
atp3181
Rp3182
(dp3183
g46
VCD
p3184
sbatp3185
Rp3186
(dp3187
g46
VQP
p3188
sbatp3189
Rp3190
(dp3191
g46
VNP
p3192
sbatp3193
Rp3194
(dp3195
g46
VVP
p3196
sbatp3197
Rp3198
(dp3199
g46
g190
sbag36
(g37
g38
(lp3200
g484
atp3201
Rp3202
(dp3203
g46
g484
sbatp3204
Rp3205
(dp3206
g46
g190
sbatp3207
Rp3208
(dp3209
g46
VROOT
p3210
sbasbasg496
I5
sg29
I3
sg32
I0
sba(icmyPackage
Parag
p3211
(dp3212
g14
I1
sg25
(lp3213
(icmyPackage
Sent
p3214
(dp3215
g14
I1
sg29
I4
sg30
S'At the other end of the spectrum, Robert Ramey with his PostmansSort used a $950 Wintel box (3.2 GHz Pentium4, 2 Maxtor SATA disks, WindowsXP) to sort 16.3 GB in 979 seconds -- setting a new Daytona Pennysort record [5].'
p3216
sg32
I0
sg33
I16
sg34
(lp3217
g36
(g37
g38
(lp3218
g36
(g37
g38
(lp3219
g36
(g37
g38
(lp3220
g36
(g37
g38
(lp3221
VAt
p3222
atp3223
Rp3224
(dp3225
g46
VIN
p3226
sbag36
(g37
g38
(lp3227
g36
(g37
g38
(lp3228
g36
(g37
g38
(lp3229
Vthe
p3230
atp3231
Rp3232
(dp3233
g46
VDT
p3234
sbag36
(g37
g38
(lp3235
Vother
p3236
atp3237
Rp3238
(dp3239
g46
VJJ
p3240
sbag36
(g37
g38
(lp3241
Vend
p3242
atp3243
Rp3244
(dp3245
g46
VNN
p3246
sbatp3247
Rp3248
(dp3249
g46
VNP
p3250
sbag36
(g37
g38
(lp3251
g36
(g37
g38
(lp3252
Vof
p3253
atp3254
Rp3255
(dp3256
g46
VIN
p3257
sbag36
(g37
g38
(lp3258
g36
(g37
g38
(lp3259
Vthe
p3260
atp3261
Rp3262
(dp3263
g46
VDT
p3264
sbag36
(g37
g38
(lp3265
Vspectrum
p3266
atp3267
Rp3268
(dp3269
g46
VNN
p3270
sbatp3271
Rp3272
(dp3273
g46
VNP
p3274
sbatp3275
Rp3276
(dp3277
g46
VPP
p3278
sbatp3279
Rp3280
(dp3281
g46
VNP
p3282
sbatp3283
Rp3284
(dp3285
g46
VPP
p3286
sbag36
(g37
g38
(lp3287
g286
atp3288
Rp3289
(dp3290
g46
g286
sbag36
(g37
g38
(lp3291
g36
(g37
g38
(lp3292
g36
(g37
g38
(lp3293
VRobert
p3294
atp3295
Rp3296
(dp3297
g46
VNNP
p3298
sbag36
(g37
g38
(lp3299
VRamey
p3300
atp3301
Rp3302
(dp3303
g46
VNNP
p3304
sbatp3305
Rp3306
(dp3307
g46
VNP
p3308
sbag36
(g37
g38
(lp3309
g36
(g37
g38
(lp3310
Vwith
p3311
atp3312
Rp3313
(dp3314
g46
VIN
p3315
sbag36
(g37
g38
(lp3316
g36
(g37
g38
(lp3317
Vhis
p3318
atp3319
Rp3320
(dp3321
g46
VPRP$
p3322
sbag36
(g37
g38
(lp3323
VPostmansSort
p3324
atp3325
Rp3326
(dp3327
g46
VNN
p3328
sbatp3329
Rp3330
(dp3331
g46
VNP
p3332
sbatp3333
Rp3334
(dp3335
g46
VPP
p3336
sbatp3337
Rp3338
(dp3339
g46
VNP
p3340
sbag36
(g37
g38
(lp3341
g36
(g37
g38
(lp3342
Vused
p3343
atp3344
Rp3345
(dp3346
g46
VVBD
p3347
sbag36
(g37
g38
(lp3348
g36
(g37
g38
(lp3349
g36
(g37
g38
(lp3350
g227
atp3351
Rp3352
(dp3353
g46
VDT
p3354
sbag36
(g37
g38
(lp3355
g36
(g37
g38
(lp3356
g36
(g37
g38
(lp3357
g3175
atp3358
Rp3359
(dp3360
g46
g3175
sbag36
(g37
g38
(lp3361
V950
p3362
atp3363
Rp3364
(dp3365
g46
VCD
p3366
sbag36
(g37
g38
(lp3367
VWintel
p3368
atp3369
Rp3370
(dp3371
g46
VCD
p3372
sbatp3373
Rp3374
(dp3375
g46
VQP
p3376
sbatp3377
Rp3378
(dp3379
g46
VADJP
p3380
sbag36
(g37
g38
(lp3381
Vbox
p3382
atp3383
Rp3384
(dp3385
g46
VNN
p3386
sbatp3387
Rp3388
(dp3389
g46
VNP
p3390
sbag36
(g37
g38
(lp3391
g36
(g37
g38
(lp3392
V-LRB-
p3393
atp3394
Rp3395
(dp3396
g46
V-LRB-
p3397
sbag36
(g37
g38
(lp3398
g36
(g37
g38
(lp3399
V3.2
p3400
atp3401
Rp3402
(dp3403
g46
VCD
p3404
sbag36
(g37
g38
(lp3405
VGHz
p3406
atp3407
Rp3408
(dp3409
g46
VNNP
p3410
sbag36
(g37
g38
(lp3411
VPentium4
p3412
atp3413
Rp3414
(dp3415
g46
VNNS
p3416
sbatp3417
Rp3418
(dp3419
g46
VNP
p3420
sbag36
(g37
g38
(lp3421
g286
atp3422
Rp3423
(dp3424
g46
g286
sbag36
(g37
g38
(lp3425
g36
(g37
g38
(lp3426
g929
atp3427
Rp3428
(dp3429
g46
VCD
p3430
sbag36
(g37
g38
(lp3431
VMaxtor
p3432
atp3433
Rp3434
(dp3435
g46
VNNP
p3436
sbag36
(g37
g38
(lp3437
VSATA
p3438
atp3439
Rp3440
(dp3441
g46
VNN
p3442
sbag36
(g37
g38
(lp3443
Vdisks
p3444
atp3445
Rp3446
(dp3447
g46
VNNS
p3448
sbatp3449
Rp3450
(dp3451
g46
VNP
p3452
sbag36
(g37
g38
(lp3453
g286
atp3454
Rp3455
(dp3456
g46
g286
sbag36
(g37
g38
(lp3457
g36
(g37
g38
(lp3458
VWindowsXP
p3459
atp3460
Rp3461
(dp3462
g46
VNNP
p3463
sbatp3464
Rp3465
(dp3466
g46
VNP
p3467
sbag36
(g37
g38
(lp3468
V-RRB-
p3469
atp3470
Rp3471
(dp3472
g46
V-RRB-
p3473
sbatp3474
Rp3475
(dp3476
g46
VPRN
p3477
sbatp3478
Rp3479
(dp3480
g46
VNP
p3481
sbag36
(g37
g38
(lp3482
g36
(g37
g38
(lp3483
Vto
p3484
atp3485
Rp3486
(dp3487
g46
VTO
p3488
sbag36
(g37
g38
(lp3489
g36
(g37
g38
(lp3490
g36
(g37
g38
(lp3491
Vsort
p3492
atp3493
Rp3494
(dp3495
g46
VNN
p3496
sbag36
(g37
g38
(lp3497
V16.3
p3498
atp3499
Rp3500
(dp3501
g46
VCD
p3502
sbag36
(g37
g38
(lp3503
VGB
p3504
atp3505
Rp3506
(dp3507
g46
VNNP
p3508
sbatp3509
Rp3510
(dp3511
g46
VNP
p3512
sbag36
(g37
g38
(lp3513
g36
(g37
g38
(lp3514
Vin
p3515
atp3516
Rp3517
(dp3518
g46
VIN
p3519
sbag36
(g37
g38
(lp3520
g36
(g37
g38
(lp3521
V979
p3522
atp3523
Rp3524
(dp3525
g46
VCD
p3526
sbag36
(g37
g38
(lp3527
Vseconds
p3528
atp3529
Rp3530
(dp3531
g46
VNNS
p3532
sbatp3533
Rp3534
(dp3535
g46
VNP
p3536
sbatp3537
Rp3538
(dp3539
g46
VPP
p3540
sbatp3541
Rp3542
(dp3543
g46
VNP
p3544
sbatp3545
Rp3546
(dp3547
g46
VPP
p3548
sbag36
(g37
g38
(lp3549
g36
(g37
g38
(lp3550
V--
p3551
atp3552
Rp3553
(dp3554
g46
g183
sbag36
(g37
g38
(lp3555
g36
(g37
g38
(lp3556
g36
(g37
g38
(lp3557
Vsetting
p3558
atp3559
Rp3560
(dp3561
g46
VVBG
p3562
sbag36
(g37
g38
(lp3563
g36
(g37
g38
(lp3564
g227
atp3565
Rp3566
(dp3567
g46
VDT
p3568
sbag36
(g37
g38
(lp3569
Vnew
p3570
atp3571
Rp3572
(dp3573
g46
VJJ
p3574
sbag36
(g37
g38
(lp3575
VDaytona
p3576
atp3577
Rp3578
(dp3579
g46
VNNP
p3580
sbag36
(g37
g38
(lp3581
VPennysort
p3582
atp3583
Rp3584
(dp3585
g46
VNNP
p3586
sbag36
(g37
g38
(lp3587
Vrecord
p3588
atp3589
Rp3590
(dp3591
g46
VNN
p3592
sbatp3593
Rp3594
(dp3595
g46
VNP
p3596
sbatp3597
Rp3598
(dp3599
g46
VVP
p3600
sbatp3601
Rp3602
(dp3603
g46
g190
sbatp3604
Rp3605
(dp3606
g46
VPRN
p3607
sbag36
(g37
g38
(lp3608
g36
(g37
g38
(lp3609
g36
(g37
g38
(lp3610
V-LSB-
p3611
atp3612
Rp3613
(dp3614
g46
VVBG
p3615
sbag36
(g37
g38
(lp3616
g36
(g37
g38
(lp3617
V5
p3618
atp3619
Rp3620
(dp3621
g46
VCD
p3622
sbag36
(g37
g38
(lp3623
V-RSB-
p3624
atp3625
Rp3626
(dp3627
g46
VNNS
p3628
sbatp3629
Rp3630
(dp3631
g46
VNP
p3632
sbatp3633
Rp3634
(dp3635
g46
VVP
p3636
sbatp3637
Rp3638
(dp3639
g46
g190
sbatp3640
Rp3641
(dp3642
g46
VVP
p3643
sbag36
(g37
g38
(lp3644
g484
atp3645
Rp3646
(dp3647
g46
g484
sbatp3648
Rp3649
(dp3650
g46
g190
sbatp3651
Rp3652
(dp3653
g46
VROOT
p3654
sbasbasg496
I1
sg29
I4
sg32
I0
sba(icmyPackage
Parag
p3655
(dp3656
g14
I1
sg25
(lp3657
(icmyPackage
Sent
p3658
(dp3659
g14
I1
sg29
I5
sg30
S"Figure 2 shows that price-performance improved about 68%/year each year since 1985, handily beating Moore's 58%/year law."
p3660
sg32
I0
sg33
I17
sg34
(lp3661
g36
(g37
g38
(lp3662
g36
(g37
g38
(lp3663
g36
(g37
g38
(lp3664
g36
(g37
g38
(lp3665
VFigure
p3666
atp3667
Rp3668
(dp3669
g46
VNN
p3670
sbag36
(g37
g38
(lp3671
g929
atp3672
Rp3673
(dp3674
g46
VCD
p3675
sbatp3676
Rp3677
(dp3678
g46
VNP
p3679
sbag36
(g37
g38
(lp3680
g36
(g37
g38
(lp3681
Vshows
p3682
atp3683
Rp3684
(dp3685
g46
VVBZ
p3686
sbag36
(g37
g38
(lp3687
g36
(g37
g38
(lp3688
Vthat
p3689
atp3690
Rp3691
(dp3692
g46
VIN
p3693
sbag36
(g37
g38
(lp3694
g36
(g37
g38
(lp3695
g36
(g37
g38
(lp3696
Vprice-performance
p3697
atp3698
Rp3699
(dp3700
g46
VNN
p3701
sbatp3702
Rp3703
(dp3704
g46
VNP
p3705
sbag36
(g37
g38
(lp3706
g36
(g37
g38
(lp3707
Vimproved
p3708
atp3709
Rp3710
(dp3711
g46
VVBD
p3712
sbag36
(g37
g38
(lp3713
g36
(g37
g38
(lp3714
g36
(g37
g38
(lp3715
g36
(g37
g38
(lp3716
Vabout
p3717
atp3718
Rp3719
(dp3720
g46
VRB
p3721
sbag36
(g37
g38
(lp3722
V68
p3723
atp3724
Rp3725
(dp3726
g46
VCD
p3727
sbatp3728
Rp3729
(dp3730
g46
VQP
p3731
sbag36
(g37
g38
(lp3732
V%
p3733
atp3734
Rp3735
(dp3736
g46
VNN
p3737
sbatp3738
Rp3739
(dp3740
g46
VNP
p3741
sbag36
(g37
g38
(lp3742
g36
(g37
g38
(lp3743
V/
p3744
atp3745
Rp3746
(dp3747
g46
g183
sbag36
(g37
g38
(lp3748
g36
(g37
g38
(lp3749
g36
(g37
g38
(lp3750
Vyear
p3751
atp3752
Rp3753
(dp3754
g46
VNN
p3755
sbatp3756
Rp3757
(dp3758
g46
VNP
p3759
sbag36
(g37
g38
(lp3760
g36
(g37
g38
(lp3761
Veach
p3762
atp3763
Rp3764
(dp3765
g46
VDT
p3766
sbag36
(g37
g38
(lp3767
Vyear
p3768
atp3769
Rp3770
(dp3771
g46
VNN
p3772
sbatp3773
Rp3774
(dp3775
g46
VNP
p3776
sbatp3777
Rp3778
(dp3779
g46
VNP
p3780
sbatp3781
Rp3782
(dp3783
g46
VPRN
p3784
sbatp3785
Rp3786
(dp3787
g46
VNP
p3788
sbag36
(g37
g38
(lp3789
g36
(g37
g38
(lp3790
Vsince
p3791
atp3792
Rp3793
(dp3794
g46
VIN
p3795
sbag36
(g37
g38
(lp3796
g36
(g37
g38
(lp3797
V1985
p3798
atp3799
Rp3800
(dp3801
g46
VCD
p3802
sbatp3803
Rp3804
(dp3805
g46
VNP
p3806
sbatp3807
Rp3808
(dp3809
g46
VPP
p3810
sbag36
(g37
g38
(lp3811
g286
atp3812
Rp3813
(dp3814
g46
g286
sbag36
(g37
g38
(lp3815
g36
(g37
g38
(lp3816
g36
(g37
g38
(lp3817
Vhandily
p3818
atp3819
Rp3820
(dp3821
g46
VRB
p3822
sbatp3823
Rp3824
(dp3825
g46
VADVP
p3826
sbag36
(g37
g38
(lp3827
g36
(g37
g38
(lp3828
Vbeating
p3829
atp3830
Rp3831
(dp3832
g46
VVBG
p3833
sbag36
(g37
g38
(lp3834
g36
(g37
g38
(lp3835
g36
(g37
g38
(lp3836
VMoore
p3837
atp3838
Rp3839
(dp3840
g46
VNNP
p3841
sbag36
(g37
g38
(lp3842
V's
p3843
atp3844
Rp3845
(dp3846
g46
VPOS
p3847
sbatp3848
Rp3849
(dp3850
g46
VNP
p3851
sbag36
(g37
g38
(lp3852
g36
(g37
g38
(lp3853
V58
p3854
atp3855
Rp3856
(dp3857
g46
VCD
p3858
sbag36
(g37
g38
(lp3859
g3733
atp3860
Rp3861
(dp3862
g46
VNN
p3863
sbatp3864
Rp3865
(dp3866
g46
VADJP
p3867
sbag36
(g37
g38
(lp3868
g3744
atp3869
Rp3870
(dp3871
g46
VJJ
p3872
sbag36
(g37
g38
(lp3873
Vyear
p3874
atp3875
Rp3876
(dp3877
g46
VNN
p3878
sbag36
(g37
g38
(lp3879
Vlaw
p3880
atp3881
Rp3882
(dp3883
g46
VNN
p3884
sbatp3885
Rp3886
(dp3887
g46
VNP
p3888
sbatp3889
Rp3890
(dp3891
g46
VVP
p3892
sbatp3893
Rp3894
(dp3895
g46
g190
sbatp3896
Rp3897
(dp3898
g46
VVP
p3899
sbatp3900
Rp3901
(dp3902
g46
g190
sbatp3903
Rp3904
(dp3905
g46
VSBAR
p3906
sbatp3907
Rp3908
(dp3909
g46
VVP
p3910
sbag36
(g37
g38
(lp3911
g484
atp3912
Rp3913
(dp3914
g46
g484
sbatp3915
Rp3916
(dp3917
g46
g190
sbatp3918
Rp3919
(dp3920
g46
VROOT
p3921
sbasba(icmyPackage
Sent
p3922
(dp3923
g14
I1
sg29
I5
sg30
S'Sort speed (records sorted per second) doubled every year between 1985 and 2000.'
p3924
sg32
I0
sg33
I18
sg34
(lp3925
g36
(g37
g38
(lp3926
g36
(g37
g38
(lp3927
g36
(g37
g38
(lp3928
g36
(g37
g38
(lp3929
g36
(g37
g38
(lp3930
VSort
p3931
atp3932
Rp3933
(dp3934
g46
VJJ
p3935
sbag36
(g37
g38
(lp3936
Vspeed
p3937
atp3938
Rp3939
(dp3940
g46
VNN
p3941
sbatp3942
Rp3943
(dp3944
g46
VNP
p3945
sbag36
(g37
g38
(lp3946
g36
(g37
g38
(lp3947
V-LRB-
p3948
atp3949
Rp3950
(dp3951
g46
V-LRB-
p3952
sbag36
(g37
g38
(lp3953
g36
(g37
g38
(lp3954
g36
(g37
g38
(lp3955
Vrecords
p3956
atp3957
Rp3958
(dp3959
g46
VNNS
p3960
sbatp3961
Rp3962
(dp3963
g46
VNP
p3964
sbag36
(g37
g38
(lp3965
g36
(g37
g38
(lp3966
Vsorted
p3967
atp3968
Rp3969
(dp3970
g46
VVBN
p3971
sbag36
(g37
g38
(lp3972
g36
(g37
g38
(lp3973
Vper
p3974
atp3975
Rp3976
(dp3977
g46
VIN
p3978
sbag36
(g37
g38
(lp3979
g36
(g37
g38
(lp3980
Vsecond
p3981
atp3982
Rp3983
(dp3984
g46
VNN
p3985
sbatp3986
Rp3987
(dp3988
g46
VNP
p3989
sbatp3990
Rp3991
(dp3992
g46
VPP
p3993
sbatp3994
Rp3995
(dp3996
g46
VVP
p3997
sbatp3998
Rp3999
(dp4000
g46
VNP
p4001
sbag36
(g37
g38
(lp4002
V-RRB-
p4003
atp4004
Rp4005
(dp4006
g46
V-RRB-
p4007
sbatp4008
Rp4009
(dp4010
g46
VPRN
p4011
sbatp4012
Rp4013
(dp4014
g46
VNP
p4015
sbag36
(g37
g38
(lp4016
g36
(g37
g38
(lp4017
Vdoubled
p4018
atp4019
Rp4020
(dp4021
g46
VVBD
p4022
sbag36
(g37
g38
(lp4023
g36
(g37
g38
(lp4024
g36
(g37
g38
(lp4025
Vevery
p4026
atp4027
Rp4028
(dp4029
g46
VDT
p4030
sbag36
(g37
g38
(lp4031
Vyear
p4032
atp4033
Rp4034
(dp4035
g46
VNN
p4036
sbatp4037
Rp4038
(dp4039
g46
VNP
p4040
sbag36
(g37
g38
(lp4041
g36
(g37
g38
(lp4042
Vbetween
p4043
atp4044
Rp4045
(dp4046
g46
VIN
p4047
sbag36
(g37
g38
(lp4048
g36
(g37
g38
(lp4049
V1985
p4050
atp4051
Rp4052
(dp4053
g46
VCD
p4054
sbag36
(g37
g38
(lp4055
Vand
p4056
atp4057
Rp4058
(dp4059
g46
VCC
p4060
sbag36
(g37
g38
(lp4061
V2000
p4062
atp4063
Rp4064
(dp4065
g46
VCD
p4066
sbatp4067
Rp4068
(dp4069
g46
VNP
p4070
sbatp4071
Rp4072
(dp4073
g46
VPP
p4074
sbatp4075
Rp4076
(dp4077
g46
VNP
p4078
sbatp4079
Rp4080
(dp4081
g46
VVP
p4082
sbag36
(g37
g38
(lp4083
g484
atp4084
Rp4085
(dp4086
g46
g484
sbatp4087
Rp4088
(dp4089
g46
g190
sbatp4090
Rp4091
(dp4092
g46
VROOT
p4093
sbasba(icmyPackage
Sent
p4094
(dp4095
g14
I1
sg29
I5
sg30
S'That doubling in part came from faster hardware, in part from better software, and in part from the use of LOTS more hardware (the year 2000 system used 1,962 processors and 2,168 disks.'
p4096
sg32
I0
sg33
I19
sg34
(lp4097
g36
(g37
g38
(lp4098
g36
(g37
g38
(lp4099
g36
(g37
g38
(lp4100
g36
(g37
g38
(lp4101
g36
(g37
g38
(lp4102
VThat
p4103
atp4104
Rp4105
(dp4106
g46
VDT
p4107
sbag36
(g37
g38
(lp4108
Vdoubling
p4109
atp4110
Rp4111
(dp4112
g46
VNN
p4113
sbatp4114
Rp4115
(dp4116
g46
VNP
p4117
sbag36
(g37
g38
(lp4118
g36
(g37
g38
(lp4119
Vin
p4120
atp4121
Rp4122
(dp4123
g46
VIN
p4124
sbag36
(g37
g38
(lp4125
g36
(g37
g38
(lp4126
Vpart
p4127
atp4128
Rp4129
(dp4130
g46
VNN
p4131
sbatp4132
Rp4133
(dp4134
g46
VNP
p4135
sbatp4136
Rp4137
(dp4138
g46
VPP
p4139
sbatp4140
Rp4141
(dp4142
g46
VNP
p4143
sbag36
(g37
g38
(lp4144
g36
(g37
g38
(lp4145
Vcame
p4146
atp4147
Rp4148
(dp4149
g46
VVBD
p4150
sbag36
(g37
g38
(lp4151
g36
(g37
g38
(lp4152
g36
(g37
g38
(lp4153
Vfrom
p4154
atp4155
Rp4156
(dp4157
g46
VIN
p4158
sbag36
(g37
g38
(lp4159
g36
(g37
g38
(lp4160
Vfaster
p4161
atp4162
Rp4163
(dp4164
g46
VJJR
p4165
sbag36
(g37
g38
(lp4166
Vhardware
p4167
atp4168
Rp4169
(dp4170
g46
VNN
p4171
sbatp4172
Rp4173
(dp4174
g46
VNP
p4175
sbatp4176
Rp4177
(dp4178
g46
VPP
p4179
sbag36
(g37
g38
(lp4180
g286
atp4181
Rp4182
(dp4183
g46
g286
sbag36
(g37
g38
(lp4184
g36
(g37
g38
(lp4185
Vin
p4186
atp4187
Rp4188
(dp4189
g46
VIN
p4190
sbag36
(g37
g38
(lp4191
g36
(g37
g38
(lp4192
g36
(g37
g38
(lp4193
Vpart
p4194
atp4195
Rp4196
(dp4197
g46
VNN
p4198
sbatp4199
Rp4200
(dp4201
g46
VNP
p4202
sbag36
(g37
g38
(lp4203
g36
(g37
g38
(lp4204
Vfrom
p4205
atp4206
Rp4207
(dp4208
g46
VIN
p4209
sbag36
(g37
g38
(lp4210
g36
(g37
g38
(lp4211
Vbetter
p4212
atp4213
Rp4214
(dp4215
g46
VJJR
p4216
sbag36
(g37
g38
(lp4217
Vsoftware
p4218
atp4219
Rp4220
(dp4221
g46
VNN
p4222
sbatp4223
Rp4224
(dp4225
g46
VNP
p4226
sbatp4227
Rp4228
(dp4229
g46
VPP
p4230
sbatp4231
Rp4232
(dp4233
g46
VNP
p4234
sbatp4235
Rp4236
(dp4237
g46
VPP
p4238
sbag36
(g37
g38
(lp4239
g286
atp4240
Rp4241
(dp4242
g46
g286
sbag36
(g37
g38
(lp4243
Vand
p4244
atp4245
Rp4246
(dp4247
g46
VCC
p4248
sbag36
(g37
g38
(lp4249
g36
(g37
g38
(lp4250
Vin
p4251
atp4252
Rp4253
(dp4254
g46
VIN
p4255
sbag36
(g37
g38
(lp4256
g36
(g37
g38
(lp4257
Vpart
p4258
atp4259
Rp4260
(dp4261
g46
VNN
p4262
sbatp4263
Rp4264
(dp4265
g46
VNP
p4266
sbatp4267
Rp4268
(dp4269
g46
VPP
p4270
sbatp4271
Rp4272
(dp4273
g46
VPP
p4274
sbag36
(g37
g38
(lp4275
g36
(g37
g38
(lp4276
Vfrom
p4277
atp4278
Rp4279
(dp4280
g46
VIN
p4281
sbag36
(g37
g38
(lp4282
g36
(g37
g38
(lp4283
g36
(g37
g38
(lp4284
Vthe
p4285
atp4286
Rp4287
(dp4288
g46
VDT
p4289
sbag36
(g37
g38
(lp4290
Vuse
p4291
atp4292
Rp4293
(dp4294
g46
VNN
p4295
sbatp4296
Rp4297
(dp4298
g46
VNP
p4299
sbag36
(g37
g38
(lp4300
g36
(g37
g38
(lp4301
Vof
p4302
atp4303
Rp4304
(dp4305
g46
VIN
p4306
sbag36
(g37
g38
(lp4307
g36
(g37
g38
(lp4308
VLOTS
p4309
atp4310
Rp4311
(dp4312
g46
VNNP
p4313
sbatp4314
Rp4315
(dp4316
g46
VNP
p4317
sbatp4318
Rp4319
(dp4320
g46
VPP
p4321
sbatp4322
Rp4323
(dp4324
g46
VNP
p4325
sbatp4326
Rp4327
(dp4328
g46
VPP
p4329
sbag36
(g37
g38
(lp4330
g36
(g37
g38
(lp4331
g36
(g37
g38
(lp4332
Vmore
p4333
atp4334
Rp4335
(dp4336
g46
VJJR
p4337
sbag36
(g37
g38
(lp4338
Vhardware
p4339
atp4340
Rp4341
(dp4342
g46
VNN
p4343
sbatp4344
Rp4345
(dp4346
g46
VNP
p4347
sbag36
(g37
g38
(lp4348
g36
(g37
g38
(lp4349
g36
(g37
g38
(lp4350
V-LRB-
p4351
atp4352
Rp4353
(dp4354
g46
V-LRB-
p4355
sbag36
(g37
g38
(lp4356
g36
(g37
g38
(lp4357
Vthe
p4358
atp4359
Rp4360
(dp4361
g46
VDT
p4362
sbag36
(g37
g38
(lp4363
Vyear
p4364
atp4365
Rp4366
(dp4367
g46
VNN
p4368
sbag36
(g37
g38
(lp4369
V2000
p4370
atp4371
Rp4372
(dp4373
g46
VCD
p4374
sbag36
(g37
g38
(lp4375
Vsystem
p4376
atp4377
Rp4378
(dp4379
g46
VNN
p4380
sbatp4381
Rp4382
(dp4383
g46
VNP
p4384
sbag36
(g37
g38
(lp4385
g36
(g37
g38
(lp4386
Vused
p4387
atp4388
Rp4389
(dp4390
g46
VVBD
p4391
sbag36
(g37
g38
(lp4392
g36
(g37
g38
(lp4393
g36
(g37
g38
(lp4394
V1,962
p4395
atp4396
Rp4397
(dp4398
g46
VCD
p4399
sbag36
(g37
g38
(lp4400
Vprocessors
p4401
atp4402
Rp4403
(dp4404
g46
VNNS
p4405
sbatp4406
Rp4407
(dp4408
g46
VNP
p4409
sbag36
(g37
g38
(lp4410
Vand
p4411
atp4412
Rp4413
(dp4414
g46
VCC
p4415
sbag36
(g37
g38
(lp4416
g36
(g37
g38
(lp4417
V2,168
p4418
atp4419
Rp4420
(dp4421
g46
VCD
p4422
sbag36
(g37
g38
(lp4423
Vdisks
p4424
atp4425
Rp4426
(dp4427
g46
VNNS
p4428
sbatp4429
Rp4430
(dp4431
g46
VNP
p4432
sbatp4433
Rp4434
(dp4435
g46
VNP
p4436
sbatp4437
Rp4438
(dp4439
g46
VVP
p4440
sbatp4441
Rp4442
(dp4443
g46
g190
sbatp4444
Rp4445
(dp4446
g46
VSBAR
p4447
sbatp4448
Rp4449
(dp4450
g46
VNP
p4451
sbatp4452
Rp4453
(dp4454
g46
VVP
p4455
sbag36
(g37
g38
(lp4456
g484
atp4457
Rp4458
(dp4459
g46
g484
sbatp4460
Rp4461
(dp4462
g46
g190
sbatp4463
Rp4464
(dp4465
g46
VROOT
p4466
sbasba(icmyPackage
Sent
p4467
(dp4468
g14
I1
sg29
I5
sg30
S'In the last 5 years, peak sort speed has only improved 2.4x (about 20%/year improvement).'
p4469
sg32
I0
sg33
I20
sg34
(lp4470
g36
(g37
g38
(lp4471
g36
(g37
g38
(lp4472
g36
(g37
g38
(lp4473
g36
(g37
g38
(lp4474
VIn
p4475
atp4476
Rp4477
(dp4478
g46
VIN
p4479
sbag36
(g37
g38
(lp4480
g36
(g37
g38
(lp4481
Vthe
p4482
atp4483
Rp4484
(dp4485
g46
VDT
p4486
sbag36
(g37
g38
(lp4487
Vlast
p4488
atp4489
Rp4490
(dp4491
g46
VJJ
p4492
sbag36
(g37
g38
(lp4493
g3618
atp4494
Rp4495
(dp4496
g46
VCD
p4497
sbag36
(g37
g38
(lp4498
Vyears
p4499
atp4500
Rp4501
(dp4502
g46
VNNS
p4503
sbatp4504
Rp4505
(dp4506
g46
VNP
p4507
sbatp4508
Rp4509
(dp4510
g46
VPP
p4511
sbag36
(g37
g38
(lp4512
g286
atp4513
Rp4514
(dp4515
g46
g286
sbag36
(g37
g38
(lp4516
g36
(g37
g38
(lp4517
Vpeak
p4518
atp4519
Rp4520
(dp4521
g46
VJJ
p4522
sbag36
(g37
g38
(lp4523
Vsort
p4524
atp4525
Rp4526
(dp4527
g46
VNN
p4528
sbag36
(g37
g38
(lp4529
Vspeed
p4530
atp4531
Rp4532
(dp4533
g46
VNN
p4534
sbatp4535
Rp4536
(dp4537
g46
VNP
p4538
sbag36
(g37
g38
(lp4539
g36
(g37
g38
(lp4540
Vhas
p4541
atp4542
Rp4543
(dp4544
g46
VVBZ
p4545
sbag36
(g37
g38
(lp4546
g36
(g37
g38
(lp4547
Vonly
p4548
atp4549
Rp4550
(dp4551
g46
VRB
p4552
sbatp4553
Rp4554
(dp4555
g46
VADVP
p4556
sbag36
(g37
g38
(lp4557
g36
(g37
g38
(lp4558
Vimproved
p4559
atp4560
Rp4561
(dp4562
g46
VVBN
p4563
sbag36
(g37
g38
(lp4564
g36
(g37
g38
(lp4565
g36
(g37
g38
(lp4566
g36
(g37
g38
(lp4567
V2.4
p4568
atp4569
Rp4570
(dp4571
g46
VCD
p4572
sbag36
(g37
g38
(lp4573
Vx
p4574
atp4575
Rp4576
(dp4577
g46
VCD
p4578
sbatp4579
Rp4580
(dp4581
g46
VQP
p4582
sbatp4583
Rp4584
(dp4585
g46
VNP
p4586
sbag36
(g37
g38
(lp4587
g36
(g37
g38
(lp4588
V-LRB-
p4589
atp4590
Rp4591
(dp4592
g46
V-LRB-
p4593
sbag36
(g37
g38
(lp4594
g36
(g37
g38
(lp4595
Vabout
p4596
atp4597
Rp4598
(dp4599
g46
VRB
p4600
sbag36
(g37
g38
(lp4601
V20
p4602
atp4603
Rp4604
(dp4605
g46
VCD
p4606
sbag36
(g37
g38
(lp4607
g3733
atp4608
Rp4609
(dp4610
g46
VNN
p4611
sbatp4612
Rp4613
(dp4614
g46
VNP
p4615
sbag36
(g37
g38
(lp4616
g3744
atp4617
Rp4618
(dp4619
g46
g183
sbag36
(g37
g38
(lp4620
g36
(g37
g38
(lp4621
g36
(g37
g38
(lp4622
Vyear
p4623
atp4624
Rp4625
(dp4626
g46
VNN
p4627
sbatp4628
Rp4629
(dp4630
g46
VNP
p4631
sbag36
(g37
g38
(lp4632
g36
(g37
g38
(lp4633
Vimprovement
p4634
atp4635
Rp4636
(dp4637
g46
VNN
p4638
sbatp4639
Rp4640
(dp4641
g46
VNP
p4642
sbatp4643
Rp4644
(dp4645
g46
VNP
p4646
sbag36
(g37
g38
(lp4647
V-RRB-
p4648
atp4649
Rp4650
(dp4651
g46
V-RRB-
p4652
sbatp4653
Rp4654
(dp4655
g46
VPRN
p4656
sbatp4657
Rp4658
(dp4659
g46
VNP
p4660
sbatp4661
Rp4662
(dp4663
g46
VVP
p4664
sbatp4665
Rp4666
(dp4667
g46
VVP
p4668
sbag36
(g37
g38
(lp4669
g484
atp4670
Rp4671
(dp4672
g46
g484
sbatp4673
Rp4674
(dp4675
g46
g190
sbatp4676
Rp4677
(dp4678
g46
VROOT
p4679
sbasbasg496
I4
sg29
I5
sg32
I0
sba(icmyPackage
Parag
p4680
(dp4681
g14
I1
sg25
(lp4682
(icmyPackage
Sent
p4683
(dp4684
g14
I1
sg29
I6
sg30
S'Performance improvements have been accomplished with multi-processors (hundreds of them).'
p4685
sg32
I0
sg33
I21
sg34
(lp4686
g36
(g37
g38
(lp4687
g36
(g37
g38
(lp4688
g36
(g37
g38
(lp4689
g36
(g37
g38
(lp4690
VPerformance
p4691
atp4692
Rp4693
(dp4694
g46
VNNP
p4695
sbag36
(g37
g38
(lp4696
Vimprovements
p4697
atp4698
Rp4699
(dp4700
g46
VNNS
p4701
sbatp4702
Rp4703
(dp4704
g46
VNP
p4705
sbag36
(g37
g38
(lp4706
g36
(g37
g38
(lp4707
Vhave
p4708
atp4709
Rp4710
(dp4711
g46
VVBP
p4712
sbag36
(g37
g38
(lp4713
g36
(g37
g38
(lp4714
Vbeen
p4715
atp4716
Rp4717
(dp4718
g46
VVBN
p4719
sbag36
(g37
g38
(lp4720
g36
(g37
g38
(lp4721
Vaccomplished
p4722
atp4723
Rp4724
(dp4725
g46
VVBN
p4726
sbag36
(g37
g38
(lp4727
g36
(g37
g38
(lp4728
Vwith
p4729
atp4730
Rp4731
(dp4732
g46
VIN
p4733
sbag36
(g37
g38
(lp4734
g36
(g37
g38
(lp4735
g36
(g37
g38
(lp4736
Vmulti-processors
p4737
atp4738
Rp4739
(dp4740
g46
VNNS
p4741
sbatp4742
Rp4743
(dp4744
g46
VNP
p4745
sbag36
(g37
g38
(lp4746
g36
(g37
g38
(lp4747
V-LRB-
p4748
atp4749
Rp4750
(dp4751
g46
V-LRB-
p4752
sbag36
(g37
g38
(lp4753
g36
(g37
g38
(lp4754
g36
(g37
g38
(lp4755
Vhundreds
p4756
atp4757
Rp4758
(dp4759
g46
VNNS
p4760
sbatp4761
Rp4762
(dp4763
g46
VNP
p4764
sbag36
(g37
g38
(lp4765
g36
(g37
g38
(lp4766
Vof
p4767
atp4768
Rp4769
(dp4770
g46
VIN
p4771
sbag36
(g37
g38
(lp4772
g36
(g37
g38
(lp4773
Vthem
p4774
atp4775
Rp4776
(dp4777
g46
VPRP
p4778
sbatp4779
Rp4780
(dp4781
g46
VNP
p4782
sbatp4783
Rp4784
(dp4785
g46
VPP
p4786
sbatp4787
Rp4788
(dp4789
g46
VNP
p4790
sbag36
(g37
g38
(lp4791
V-RRB-
p4792
atp4793
Rp4794
(dp4795
g46
V-RRB-
p4796
sbatp4797
Rp4798
(dp4799
g46
VPRN
p4800
sbatp4801
Rp4802
(dp4803
g46
VNP
p4804
sbatp4805
Rp4806
(dp4807
g46
VPP
p4808
sbatp4809
Rp4810
(dp4811
g46
VVP
p4812
sbatp4813
Rp4814
(dp4815
g46
VVP
p4816
sbatp4817
Rp4818
(dp4819
g46
VVP
p4820
sbag36
(g37
g38
(lp4821
g484
atp4822
Rp4823
(dp4824
g46
g484
sbatp4825
Rp4826
(dp4827
g46
g190
sbatp4828
Rp4829
(dp4830
g46
VROOT
p4831
sbasba(icmyPackage
Sent
p4832
(dp4833
g14
I1
sg29
I6
sg30
S'Priceperformance improvements have come from cheaper and faster disks and from cheaper processors.'
p4834
sg32
I0
sg33
I22
sg34
(lp4835
g36
(g37
g38
(lp4836
g36
(g37
g38
(lp4837
g36
(g37
g38
(lp4838
g36
(g37
g38
(lp4839
VPriceperformance
p4840
atp4841
Rp4842
(dp4843
g46
VJJ
p4844
sbag36
(g37
g38
(lp4845
Vimprovements
p4846
atp4847
Rp4848
(dp4849
g46
VNNS
p4850
sbatp4851
Rp4852
(dp4853
g46
VNP
p4854
sbag36
(g37
g38
(lp4855
g36
(g37
g38
(lp4856
Vhave
p4857
atp4858
Rp4859
(dp4860
g46
VVBP
p4861
sbag36
(g37
g38
(lp4862
g36
(g37
g38
(lp4863
Vcome
p4864
atp4865
Rp4866
(dp4867
g46
VVBN
p4868
sbag36
(g37
g38
(lp4869
g36
(g37
g38
(lp4870
g36
(g37
g38
(lp4871
Vfrom
p4872
atp4873
Rp4874
(dp4875
g46
VIN
p4876
sbag36
(g37
g38
(lp4877
g36
(g37
g38
(lp4878
g36
(g37
g38
(lp4879
Vcheaper
p4880
atp4881
Rp4882
(dp4883
g46
VJJR
p4884
sbag36
(g37
g38
(lp4885
Vand
p4886
atp4887
Rp4888
(dp4889
g46
VCC
p4890
sbag36
(g37
g38
(lp4891
Vfaster
p4892
atp4893
Rp4894
(dp4895
g46
VJJR
p4896
sbatp4897
Rp4898
(dp4899
g46
VADJP
p4900
sbag36
(g37
g38
(lp4901
Vdisks
p4902
atp4903
Rp4904
(dp4905
g46
VNNS
p4906
sbatp4907
Rp4908
(dp4909
g46
VNP
p4910
sbatp4911
Rp4912
(dp4913
g46
VPP
p4914
sbag36
(g37
g38
(lp4915
Vand
p4916
atp4917
Rp4918
(dp4919
g46
VCC
p4920
sbag36
(g37
g38
(lp4921
g36
(g37
g38
(lp4922
Vfrom
p4923
atp4924
Rp4925
(dp4926
g46
VIN
p4927
sbag36
(g37
g38
(lp4928
g36
(g37
g38
(lp4929
Vcheaper
p4930
atp4931
Rp4932
(dp4933
g46
VJJR
p4934
sbag36
(g37
g38
(lp4935
Vprocessors
p4936
atp4937
Rp4938
(dp4939
g46
VNNS
p4940
sbatp4941
Rp4942
(dp4943
g46
VNP
p4944
sbatp4945
Rp4946
(dp4947
g46
VPP
p4948
sbatp4949
Rp4950
(dp4951
g46
VPP
p4952
sbatp4953
Rp4954
(dp4955
g46
VVP
p4956
sbatp4957
Rp4958
(dp4959
g46
VVP
p4960
sbag36
(g37
g38
(lp4961
g484
atp4962
Rp4963
(dp4964
g46
g484
sbatp4965
Rp4966
(dp4967
g46
g190
sbatp4968
Rp4969
(dp4970
g46
VROOT
p4971
sbasba(icmyPackage
Sent
p4972
(dp4973
g14
I1
sg29
I6
sg30
S'But as Figure 3 shows, per-processor speeds seem to have plateaued.'
p4974
sg32
I0
sg33
I23
sg34
(lp4975
g36
(g37
g38
(lp4976
g36
(g37
g38
(lp4977
g36
(g37
g38
(lp4978
VBut
p4979
atp4980
Rp4981
(dp4982
g46
VCC
p4983
sbag36
(g37
g38
(lp4984
g36
(g37
g38
(lp4985
Vas
p4986
atp4987
Rp4988
(dp4989
g46
VIN
p4990
sbag36
(g37
g38
(lp4991
g36
(g37
g38
(lp4992
VFigure
p4993
atp4994
Rp4995
(dp4996
g46
VNNP
p4997
sbag36
(g37
g38
(lp4998
g2021
atp4999
Rp5000
(dp5001
g46
VCD
p5002
sbag36
(g37
g38
(lp5003
Vshows
p5004
atp5005
Rp5006
(dp5007
g46
VNNS
p5008
sbatp5009
Rp5010
(dp5011
g46
VNP
p5012
sbatp5013
Rp5014
(dp5015
g46
VPP
p5016
sbag36
(g37
g38
(lp5017
g286
atp5018
Rp5019
(dp5020
g46
g286
sbag36
(g37
g38
(lp5021
g36
(g37
g38
(lp5022
Vper-processor
p5023
atp5024
Rp5025
(dp5026
g46
VJJ
p5027
sbag36
(g37
g38
(lp5028
Vspeeds
p5029
atp5030
Rp5031
(dp5032
g46
VNNS
p5033
sbatp5034
Rp5035
(dp5036
g46
VNP
p5037
sbag36
(g37
g38
(lp5038
g36
(g37
g38
(lp5039
Vseem
p5040
atp5041
Rp5042
(dp5043
g46
VVBP
p5044
sbag36
(g37
g38
(lp5045
g36
(g37
g38
(lp5046
g36
(g37
g38
(lp5047
Vto
p5048
atp5049
Rp5050
(dp5051
g46
VTO
p5052
sbag36
(g37
g38
(lp5053
g36
(g37
g38
(lp5054
Vhave
p5055
atp5056
Rp5057
(dp5058
g46
VVB
p5059
sbag36
(g37
g38
(lp5060
g36
(g37
g38
(lp5061
Vplateaued
p5062
atp5063
Rp5064
(dp5065
g46
VVBN
p5066
sbatp5067
Rp5068
(dp5069
g46
VVP
p5070
sbatp5071
Rp5072
(dp5073
g46
VVP
p5074
sbatp5075
Rp5076
(dp5077
g46
VVP
p5078
sbatp5079
Rp5080
(dp5081
g46
g190
sbatp5082
Rp5083
(dp5084
g46
VVP
p5085
sbag36
(g37
g38
(lp5086
g484
atp5087
Rp5088
(dp5089
g46
g484
sbatp5090
Rp5091
(dp5092
g46
g190
sbatp5093
Rp5094
(dp5095
g46
VROOT
p5096
sbasba(icmyPackage
Sent
p5097
(dp5098
g14
I1
sg29
I6
sg30
S'Sorted-records/second/processor (r/s/p for short) improved ten fold between 1985 and 1995.'
p5099
sg32
I0
sg33
I24
sg34
(lp5100
g36
(g37
g38
(lp5101
g36
(g37
g38
(lp5102
g36
(g37
g38
(lp5103
g36
(g37
g38
(lp5104
VSorted-records/second/processor
p5105
atp5106
Rp5107
(dp5108
g46
VJJ
p5109
sbag36
(g37
g38
(lp5110
g36
(g37
g38
(lp5111
V-LRB-
p5112
atp5113
Rp5114
(dp5115
g46
V-LRB-
p5116
sbag36
(g37
g38
(lp5117
g36
(g37
g38
(lp5118
g36
(g37
g38
(lp5119
Vr/s/p
p5120
atp5121
Rp5122
(dp5123
g46
VNN
p5124
sbatp5125
Rp5126
(dp5127
g46
VNP
p5128
sbag36
(g37
g38
(lp5129
g36
(g37
g38
(lp5130
Vfor
p5131
atp5132
Rp5133
(dp5134
g46
VIN
p5135
sbag36
(g37
g38
(lp5136
g36
(g37
g38
(lp5137
Vshort
p5138
atp5139
Rp5140
(dp5141
g46
VJJ
p5142
sbatp5143
Rp5144
(dp5145
g46
VNP
p5146
sbatp5147
Rp5148
(dp5149
g46
VPP
p5150
sbatp5151
Rp5152
(dp5153
g46
VNP
p5154
sbag36
(g37
g38
(lp5155
V-RRB-
p5156
atp5157
Rp5158
(dp5159
g46
V-RRB-
p5160
sbatp5161
Rp5162
(dp5163
g46
VPRN
p5164
sbag36
(g37
g38
(lp5165
Vimproved
p5166
atp5167
Rp5168
(dp5169
g46
VJJ
p5170
sbag36
(g37
g38
(lp5171
Vten
p5172
atp5173
Rp5174
(dp5175
g46
VNNS
p5176
sbatp5177
Rp5178
(dp5179
g46
VNP
p5180
sbag36
(g37
g38
(lp5181
g36
(g37
g38
(lp5182
Vfold
p5183
atp5184
Rp5185
(dp5186
g46
VVBP
p5187
sbag36
(g37
g38
(lp5188
g36
(g37
g38
(lp5189
Vbetween
p5190
atp5191
Rp5192
(dp5193
g46
VIN
p5194
sbag36
(g37
g38
(lp5195
g36
(g37
g38
(lp5196
V1985
p5197
atp5198
Rp5199
(dp5200
g46
VCD
p5201
sbag36
(g37
g38
(lp5202
Vand
p5203
atp5204
Rp5205
(dp5206
g46
VCC
p5207
sbag36
(g37
g38
(lp5208
V1995
p5209
atp5210
Rp5211
(dp5212
g46
VCD
p5213
sbatp5214
Rp5215
(dp5216
g46
VNP
p5217
sbatp5218
Rp5219
(dp5220
g46
VPP
p5221
sbatp5222
Rp5223
(dp5224
g46
VVP
p5225
sbag36
(g37
g38
(lp5226
g484
atp5227
Rp5228
(dp5229
g46
g484
sbatp5230
Rp5231
(dp5232
g46
g190
sbatp5233
Rp5234
(dp5235
g46
VROOT
p5236
sbasba(icmyPackage
Sent
p5237
(dp5238
g14
I1
sg29
I6
sg30
S'But speed has improved only 2.7 fold in the last decade.'
p5239
sg32
I0
sg33
I25
sg34
(lp5240
g36
(g37
g38
(lp5241
g36
(g37
g38
(lp5242
g36
(g37
g38
(lp5243
VBut
p5244
atp5245
Rp5246
(dp5247
g46
VCC
p5248
sbag36
(g37
g38
(lp5249
g36
(g37
g38
(lp5250
Vspeed
p5251
atp5252
Rp5253
(dp5254
g46
VNN
p5255
sbatp5256
Rp5257
(dp5258
g46
VNP
p5259
sbag36
(g37
g38
(lp5260
g36
(g37
g38
(lp5261
Vhas
p5262
atp5263
Rp5264
(dp5265
g46
VVBZ
p5266
sbag36
(g37
g38
(lp5267
g36
(g37
g38
(lp5268
Vimproved
p5269
atp5270
Rp5271
(dp5272
g46
VVBN
p5273
sbag36
(g37
g38
(lp5274
g36
(g37
g38
(lp5275
g36
(g37
g38
(lp5276
g36
(g37
g38
(lp5277
Vonly
p5278
atp5279
Rp5280
(dp5281
g46
VRB
p5282
sbag36
(g37
g38
(lp5283
V2.7
p5284
atp5285
Rp5286
(dp5287
g46
VCD
p5288
sbag36
(g37
g38
(lp5289
Vfold
p5290
atp5291
Rp5292
(dp5293
g46
VCD
p5294
sbatp5295
Rp5296
(dp5297
g46
VQP
p5298
sbatp5299
Rp5300
(dp5301
g46
VNP
p5302
sbag36
(g37
g38
(lp5303
g36
(g37
g38
(lp5304
Vin
p5305
atp5306
Rp5307
(dp5308
g46
VIN
p5309
sbag36
(g37
g38
(lp5310
g36
(g37
g38
(lp5311
Vthe
p5312
atp5313
Rp5314
(dp5315
g46
VDT
p5316
sbag36
(g37
g38
(lp5317
Vlast
p5318
atp5319
Rp5320
(dp5321
g46
VJJ
p5322
sbag36
(g37
g38
(lp5323
Vdecade
p5324
atp5325
Rp5326
(dp5327
g46
VNN
p5328
sbatp5329
Rp5330
(dp5331
g46
VNP
p5332
sbatp5333
Rp5334
(dp5335
g46
VPP
p5336
sbatp5337
Rp5338
(dp5339
g46
VNP
p5340
sbatp5341
Rp5342
(dp5343
g46
VVP
p5344
sbatp5345
Rp5346
(dp5347
g46
VVP
p5348
sbag36
(g37
g38
(lp5349
g484
atp5350
Rp5351
(dp5352
g46
g484
sbatp5353
Rp5354
(dp5355
g46
g190
sbatp5356
Rp5357
(dp5358
g46
VROOT
p5359
sbasba(icmyPackage
Sent
p5360
(dp5361
g14
I1
sg29
I6
sg30
S"The 1980's saw 200 r/s/p on a minicomputer to 38.5 k r/s/p on a Cray."
p5362
sg32
I0
sg33
I26
sg34
(lp5363
g36
(g37
g38
(lp5364
g36
(g37
g38
(lp5365
g36
(g37
g38
(lp5366
g36
(g37
g38
(lp5367
VThe
p5368
atp5369
Rp5370
(dp5371
g46
VDT
p5372
sbag36
(g37
g38
(lp5373
V1980
p5374
atp5375
Rp5376
(dp5377
g46
VCD
p5378
sbag36
(g37
g38
(lp5379
V's
p5380
atp5381
Rp5382
(dp5383
g46
VNNS
p5384
sbatp5385
Rp5386
(dp5387
g46
VNP
p5388
sbag36
(g37
g38
(lp5389
g36
(g37
g38
(lp5390
Vsaw
p5391
atp5392
Rp5393
(dp5394
g46
VVBD
p5395
sbag36
(g37
g38
(lp5396
g36
(g37
g38
(lp5397
V200
p5398
atp5399
Rp5400
(dp5401
g46
VCD
p5402
sbag36
(g37
g38
(lp5403
Vr/s/p
p5404
atp5405
Rp5406
(dp5407
g46
VNN
p5408
sbatp5409
Rp5410
(dp5411
g46
VNP
p5412
sbag36
(g37
g38
(lp5413
g36
(g37
g38
(lp5414
Von
p5415
atp5416
Rp5417
(dp5418
g46
VIN
p5419
sbag36
(g37
g38
(lp5420
g36
(g37
g38
(lp5421
g227
atp5422
Rp5423
(dp5424
g46
VDT
p5425
sbag36
(g37
g38
(lp5426
Vminicomputer
p5427
atp5428
Rp5429
(dp5430
g46
VNN
p5431
sbatp5432
Rp5433
(dp5434
g46
VNP
p5435
sbatp5436
Rp5437
(dp5438
g46
VPP
p5439
sbag36
(g37
g38
(lp5440
g36
(g37
g38
(lp5441
Vto
p5442
atp5443
Rp5444
(dp5445
g46
VTO
p5446
sbag36
(g37
g38
(lp5447
g36
(g37
g38
(lp5448
g36
(g37
g38
(lp5449
V38.5
p5450
atp5451
Rp5452
(dp5453
g46
VCD
p5454
sbag36
(g37
g38
(lp5455
Vk
p5456
atp5457
Rp5458
(dp5459
g46
VNN
p5460
sbag36
(g37
g38
(lp5461
Vr/s/p
p5462
atp5463
Rp5464
(dp5465
g46
VNN
p5466
sbatp5467
Rp5468
(dp5469
g46
VNP
p5470
sbag36
(g37
g38
(lp5471
g36
(g37
g38
(lp5472
Von
p5473
atp5474
Rp5475
(dp5476
g46
VIN
p5477
sbag36
(g37
g38
(lp5478
g36
(g37
g38
(lp5479
g227
atp5480
Rp5481
(dp5482
g46
VDT
p5483
sbag36
(g37
g38
(lp5484
VCray
p5485
atp5486
Rp5487
(dp5488
g46
VNNP
p5489
sbatp5490
Rp5491
(dp5492
g46
VNP
p5493
sbatp5494
Rp5495
(dp5496
g46
VPP
p5497
sbatp5498
Rp5499
(dp5500
g46
VNP
p5501
sbatp5502
Rp5503
(dp5504
g46
VPP
p5505
sbatp5506
Rp5507
(dp5508
g46
VVP
p5509
sbag36
(g37
g38
(lp5510
g484
atp5511
Rp5512
(dp5513
g46
g484
sbatp5514
Rp5515
(dp5516
g46
g190
sbatp5517
Rp5518
(dp5519
g46
VROOT
p5520
sbasba(icmyPackage
Sent
p5521
(dp5522
g14
I1
sg29
I6
sg30
S'In 1994, AlphaSort showed the importance of cache-conscious sorts and got to 111 k r/s/p.'
p5523
sg32
I0
sg33
I27
sg34
(lp5524
g36
(g37
g38
(lp5525
g36
(g37
g38
(lp5526
g36
(g37
g38
(lp5527
g36
(g37
g38
(lp5528
VIn
p5529
atp5530
Rp5531
(dp5532
g46
VIN
p5533
sbag36
(g37
g38
(lp5534
g36
(g37
g38
(lp5535
V1994
p5536
atp5537
Rp5538
(dp5539
g46
VCD
p5540
sbatp5541
Rp5542
(dp5543
g46
VNP
p5544
sbatp5545
Rp5546
(dp5547
g46
VPP
p5548
sbag36
(g37
g38
(lp5549
g286
atp5550
Rp5551
(dp5552
g46
g286
sbag36
(g37
g38
(lp5553
g36
(g37
g38
(lp5554
VAlphaSort
p5555
atp5556
Rp5557
(dp5558
g46
VNNP
p5559
sbatp5560
Rp5561
(dp5562
g46
VNP
p5563
sbag36
(g37
g38
(lp5564
g36
(g37
g38
(lp5565
g36
(g37
g38
(lp5566
Vshowed
p5567
atp5568
Rp5569
(dp5570
g46
VVBD
p5571
sbag36
(g37
g38
(lp5572
g36
(g37
g38
(lp5573
g36
(g37
g38
(lp5574
Vthe
p5575
atp5576
Rp5577
(dp5578
g46
VDT
p5579
sbag36
(g37
g38
(lp5580
Vimportance
p5581
atp5582
Rp5583
(dp5584
g46
VNN
p5585
sbatp5586
Rp5587
(dp5588
g46
VNP
p5589
sbag36
(g37
g38
(lp5590
g36
(g37
g38
(lp5591
Vof
p5592
atp5593
Rp5594
(dp5595
g46
VIN
p5596
sbag36
(g37
g38
(lp5597
g36
(g37
g38
(lp5598
Vcache-conscious
p5599
atp5600
Rp5601
(dp5602
g46
VJJ
p5603
sbag36
(g37
g38
(lp5604
Vsorts
p5605
atp5606
Rp5607
(dp5608
g46
VNNS
p5609
sbatp5610
Rp5611
(dp5612
g46
VNP
p5613
sbatp5614
Rp5615
(dp5616
g46
VPP
p5617
sbatp5618
Rp5619
(dp5620
g46
VNP
p5621
sbatp5622
Rp5623
(dp5624
g46
VVP
p5625
sbag36
(g37
g38
(lp5626
Vand
p5627
atp5628
Rp5629
(dp5630
g46
VCC
p5631
sbag36
(g37
g38
(lp5632
g36
(g37
g38
(lp5633
Vgot
p5634
atp5635
Rp5636
(dp5637
g46
VVBD
p5638
sbag36
(g37
g38
(lp5639
g36
(g37
g38
(lp5640
Vto
p5641
atp5642
Rp5643
(dp5644
g46
VTO
p5645
sbag36
(g37
g38
(lp5646
g36
(g37
g38
(lp5647
V111
p5648
atp5649
Rp5650
(dp5651
g46
VCD
p5652
sbag36
(g37
g38
(lp5653
g5456
atp5654
Rp5655
(dp5656
g46
VNN
p5657
sbag36
(g37
g38
(lp5658
Vr/s/p
p5659
atp5660
Rp5661
(dp5662
g46
VNN
p5663
sbatp5664
Rp5665
(dp5666
g46
VNP
p5667
sbatp5668
Rp5669
(dp5670
g46
VPP
p5671
sbatp5672
Rp5673
(dp5674
g46
VVP
p5675
sbatp5676
Rp5677
(dp5678
g46
VVP
p5679
sbag36
(g37
g38
(lp5680
g484
atp5681
Rp5682
(dp5683
g46
g484
sbatp5684
Rp5685
(dp5686
g46
g190
sbatp5687
Rp5688
(dp5689
g46
VROOT
p5690
sbasba(icmyPackage
Sent
p5691
(dp5692
g14
I1
sg29
I6
sg30
S"Since then, there has been a slow climb to 280 k r/s/p (e.g., Jim Willey's SCS Itanium TerabyteSort and the Pentium4 SkeenSort."
p5693
sg32
I0
sg33
I28
sg34
(lp5694
g36
(g37
g38
(lp5695
g36
(g37
g38
(lp5696
g36
(g37
g38
(lp5697
g36
(g37
g38
(lp5698
VSince
p5699
atp5700
Rp5701
(dp5702
g46
VIN
p5703
sbag36
(g37
g38
(lp5704
g36
(g37
g38
(lp5705
Vthen
p5706
atp5707
Rp5708
(dp5709
g46
VRB
p5710
sbatp5711
Rp5712
(dp5713
g46
VNP
p5714
sbatp5715
Rp5716
(dp5717
g46
VPP
p5718
sbag36
(g37
g38
(lp5719
g286
atp5720
Rp5721
(dp5722
g46
g286
sbag36
(g37
g38
(lp5723
g36
(g37
g38
(lp5724
Vthere
p5725
atp5726
Rp5727
(dp5728
g46
VEX
p5729
sbatp5730
Rp5731
(dp5732
g46
VNP
p5733
sbag36
(g37
g38
(lp5734
g36
(g37
g38
(lp5735
Vhas
p5736
atp5737
Rp5738
(dp5739
g46
VVBZ
p5740
sbag36
(g37
g38
(lp5741
g36
(g37
g38
(lp5742
Vbeen
p5743
atp5744
Rp5745
(dp5746
g46
VVBN
p5747
sbag36
(g37
g38
(lp5748
g36
(g37
g38
(lp5749
g36
(g37
g38
(lp5750
g36
(g37
g38
(lp5751
g36
(g37
g38
(lp5752
g227
atp5753
Rp5754
(dp5755
g46
VDT
p5756
sbag36
(g37
g38
(lp5757
Vslow
p5758
atp5759
Rp5760
(dp5761
g46
VJJ
p5762
sbag36
(g37
g38
(lp5763
Vclimb
p5764
atp5765
Rp5766
(dp5767
g46
VNN
p5768
sbatp5769
Rp5770
(dp5771
g46
VNP
p5772
sbag36
(g37
g38
(lp5773
g36
(g37
g38
(lp5774
Vto
p5775
atp5776
Rp5777
(dp5778
g46
VTO
p5779
sbag36
(g37
g38
(lp5780
g36
(g37
g38
(lp5781
V280
p5782
atp5783
Rp5784
(dp5785
g46
VCD
p5786
sbag36
(g37
g38
(lp5787
g5456
atp5788
Rp5789
(dp5790
g46
VNN
p5791
sbag36
(g37
g38
(lp5792
Vr/s/p
p5793
atp5794
Rp5795
(dp5796
g46
VNN
p5797
sbatp5798
Rp5799
(dp5800
g46
VNP
p5801
sbatp5802
Rp5803
(dp5804
g46
VPP
p5805
sbatp5806
Rp5807
(dp5808
g46
VNP
p5809
sbag36
(g37
g38
(lp5810
V-LRB-
p5811
atp5812
Rp5813
(dp5814
g46
V-LRB-
p5815
sbag36
(g37
g38
(lp5816
g36
(g37
g38
(lp5817
Ve.g.
p5818
atp5819
Rp5820
(dp5821
g46
VNNP
p5822
sbatp5823
Rp5824
(dp5825
g46
VNP
p5826
sbag36
(g37
g38
(lp5827
g286
atp5828
Rp5829
(dp5830
g46
g286
sbatp5831
Rp5832
(dp5833
g46
VNP
p5834
sbag36
(g37
g38
(lp5835
g36
(g37
g38
(lp5836
g36
(g37
g38
(lp5837
VJim
p5838
atp5839
Rp5840
(dp5841
g46
VNNP
p5842
sbag36
(g37
g38
(lp5843
VWilley
p5844
atp5845
Rp5846
(dp5847
g46
VNNP
p5848
sbag36
(g37
g38
(lp5849
V's
p5850
atp5851
Rp5852
(dp5853
g46
VPOS
p5854
sbatp5855
Rp5856
(dp5857
g46
VNP
p5858
sbag36
(g37
g38
(lp5859
VSCS
p5860
atp5861
Rp5862
(dp5863
g46
VNNP
p5864
sbag36
(g37
g38
(lp5865
VItanium
p5866
atp5867
Rp5868
(dp5869
g46
VNNP
p5870
sbag36
(g37
g38
(lp5871
VTerabyteSort
p5872
atp5873
Rp5874
(dp5875
g46
VNNP
p5876
sbatp5877
Rp5878
(dp5879
g46
VNP
p5880
sbag36
(g37
g38
(lp5881
Vand
p5882
atp5883
Rp5884
(dp5885
g46
VCC
p5886
sbag36
(g37
g38
(lp5887
g36
(g37
g38
(lp5888
Vthe
p5889
atp5890
Rp5891
(dp5892
g46
VDT
p5893
sbag36
(g37
g38
(lp5894
VPentium4
p5895
atp5896
Rp5897
(dp5898
g46
VJJ
p5899
sbag36
(g37
g38
(lp5900
VSkeenSort
p5901
atp5902
Rp5903
(dp5904
g46
VNN
p5905
sbatp5906
Rp5907
(dp5908
g46
VNP
p5909
sbatp5910
Rp5911
(dp5912
g46
VNP
p5913
sbatp5914
Rp5915
(dp5916
g46
VVP
p5917
sbatp5918
Rp5919
(dp5920
g46
VVP
p5921
sbag36
(g37
g38
(lp5922
g484
atp5923
Rp5924
(dp5925
g46
g484
sbatp5926
Rp5927
(dp5928
g46
g190
sbatp5929
Rp5930
(dp5931
g46
VROOT
p5932
sbasbasg496
I8
sg29
I6
sg32
I0
sba(icmyPackage
Parag
p5933
(dp5934
g14
I1
sg25
(lp5935
(icmyPackage
Sent
p5936
(dp5937
g14
I1
sg29
I7
sg30
S'I conjecture that this relatively slow improvement reflects the slow improvement in memory latency.'
p5938
sg32
I0
sg33
I29
sg34
(lp5939
g36
(g37
g38
(lp5940
g36
(g37
g38
(lp5941
g36
(g37
g38
(lp5942
g36
(g37
g38
(lp5943
VI
p5944
atp5945
Rp5946
(dp5947
g46
VPRP
p5948
sbatp5949
Rp5950
(dp5951
g46
VNP
p5952
sbag36
(g37
g38
(lp5953
g36
(g37
g38
(lp5954
Vconjecture
p5955
atp5956
Rp5957
(dp5958
g46
VVBZ
p5959
sbag36
(g37
g38
(lp5960
g36
(g37
g38
(lp5961
Vthat
p5962
atp5963
Rp5964
(dp5965
g46
VIN
p5966
sbag36
(g37
g38
(lp5967
g36
(g37
g38
(lp5968
g36
(g37
g38
(lp5969
Vthis
p5970
atp5971
Rp5972
(dp5973
g46
VDT
p5974
sbag36
(g37
g38
(lp5975
g36
(g37
g38
(lp5976
Vrelatively
p5977
atp5978
Rp5979
(dp5980
g46
VRB
p5981
sbag36
(g37
g38
(lp5982
Vslow
p5983
atp5984
Rp5985
(dp5986
g46
VJJ
p5987
sbatp5988
Rp5989
(dp5990
g46
VADJP
p5991
sbag36
(g37
g38
(lp5992
Vimprovement
p5993
atp5994
Rp5995
(dp5996
g46
VNN
p5997
sbatp5998
Rp5999
(dp6000
g46
VNP
p6001
sbag36
(g37
g38
(lp6002
g36
(g37
g38
(lp6003
Vreflects
p6004
atp6005
Rp6006
(dp6007
g46
VVBZ
p6008
sbag36
(g37
g38
(lp6009
g36
(g37
g38
(lp6010
g36
(g37
g38
(lp6011
Vthe
p6012
atp6013
Rp6014
(dp6015
g46
VDT
p6016
sbag36
(g37
g38
(lp6017
Vslow
p6018
atp6019
Rp6020
(dp6021
g46
VJJ
p6022
sbag36
(g37
g38
(lp6023
Vimprovement
p6024
atp6025
Rp6026
(dp6027
g46
VNN
p6028
sbatp6029
Rp6030
(dp6031
g46
VNP
p6032
sbag36
(g37
g38
(lp6033
g36
(g37
g38
(lp6034
Vin
p6035
atp6036
Rp6037
(dp6038
g46
VIN
p6039
sbag36
(g37
g38
(lp6040
g36
(g37
g38
(lp6041
Vmemory
p6042
atp6043
Rp6044
(dp6045
g46
VNN
p6046
sbag36
(g37
g38
(lp6047
Vlatency
p6048
atp6049
Rp6050
(dp6051
g46
VNN
p6052
sbatp6053
Rp6054
(dp6055
g46
VNP
p6056
sbatp6057
Rp6058
(dp6059
g46
VPP
p6060
sbatp6061
Rp6062
(dp6063
g46
VNP
p6064
sbatp6065
Rp6066
(dp6067
g46
VVP
p6068
sbatp6069
Rp6070
(dp6071
g46
g190
sbatp6072
Rp6073
(dp6074
g46
VSBAR
p6075
sbatp6076
Rp6077
(dp6078
g46
VVP
p6079
sbag36
(g37
g38
(lp6080
g484
atp6081
Rp6082
(dp6083
g46
g484
sbatp6084
Rp6085
(dp6086
g46
g190
sbatp6087
Rp6088
(dp6089
g46
VROOT
p6090
sbasba(icmyPackage
Sent
p6091
(dp6092
g14
I1
sg29
I7
sg30
S'All the algorithms are now cache conscious, so they are all limited by the speed of bulk memory -- processor speed (and even cache speed) is not relevant here since sort cache misses are essentially random during the "comparison" and merge phase.'
p6093
sg32
I0
sg33
I30
sg34
(lp6094
g36
(g37
g38
(lp6095
g36
(g37
g38
(lp6096
g36
(g37
g38
(lp6097
g36
(g37
g38
(lp6098
g36
(g37
g38
(lp6099
VAll
p6100
atp6101
Rp6102
(dp6103
g46
VPDT
p6104
sbag36
(g37
g38
(lp6105
Vthe
p6106
atp6107
Rp6108
(dp6109
g46
VDT
p6110
sbag36
(g37
g38
(lp6111
Valgorithms
p6112
atp6113
Rp6114
(dp6115
g46
VNNS
p6116
sbatp6117
Rp6118
(dp6119
g46
VNP
p6120
sbag36
(g37
g38
(lp6121
g36
(g37
g38
(lp6122
Vare
p6123
atp6124
Rp6125
(dp6126
g46
VVBP
p6127
sbag36
(g37
g38
(lp6128
g36
(g37
g38
(lp6129
Vnow
p6130
atp6131
Rp6132
(dp6133
g46
VRB
p6134
sbatp6135
Rp6136
(dp6137
g46
VADVP
p6138
sbag36
(g37
g38
(lp6139
g36
(g37
g38
(lp6140
Vcache
p6141
atp6142
Rp6143
(dp6144
g46
VRB
p6145
sbag36
(g37
g38
(lp6146
Vconscious
p6147
atp6148
Rp6149
(dp6150
g46
VJJ
p6151
sbatp6152
Rp6153
(dp6154
g46
VADJP
p6155
sbag36
(g37
g38
(lp6156
g286
atp6157
Rp6158
(dp6159
g46
g286
sbag36
(g37
g38
(lp6160
g36
(g37
g38
(lp6161
Vso
p6162
atp6163
Rp6164
(dp6165
g46
VIN
p6166
sbag36
(g37
g38
(lp6167
g36
(g37
g38
(lp6168
g36
(g37
g38
(lp6169
Vthey
p6170
atp6171
Rp6172
(dp6173
g46
VPRP
p6174
sbatp6175
Rp6176
(dp6177
g46
VNP
p6178
sbag36
(g37
g38
(lp6179
g36
(g37
g38
(lp6180
Vare
p6181
atp6182
Rp6183
(dp6184
g46
VVBP
p6185
sbag36
(g37
g38
(lp6186
Vall
p6187
atp6188
Rp6189
(dp6190
g46
VRB
p6191
sbag36
(g37
g38
(lp6192
g36
(g37
g38
(lp6193
Vlimited
p6194
atp6195
Rp6196
(dp6197
g46
VVBN
p6198
sbag36
(g37
g38
(lp6199
g36
(g37
g38
(lp6200
Vby
p6201
atp6202
Rp6203
(dp6204
g46
VIN
p6205
sbag36
(g37
g38
(lp6206
g36
(g37
g38
(lp6207
g36
(g37
g38
(lp6208
Vthe
p6209
atp6210
Rp6211
(dp6212
g46
VDT
p6213
sbag36
(g37
g38
(lp6214
Vspeed
p6215
atp6216
Rp6217
(dp6218
g46
VNN
p6219
sbatp6220
Rp6221
(dp6222
g46
VNP
p6223
sbag36
(g37
g38
(lp6224
g36
(g37
g38
(lp6225
Vof
p6226
atp6227
Rp6228
(dp6229
g46
VIN
p6230
sbag36
(g37
g38
(lp6231
g36
(g37
g38
(lp6232
Vbulk
p6233
atp6234
Rp6235
(dp6236
g46
VJJ
p6237
sbag36
(g37
g38
(lp6238
Vmemory
p6239
atp6240
Rp6241
(dp6242
g46
VNN
p6243
sbatp6244
Rp6245
(dp6246
g46
VNP
p6247
sbatp6248
Rp6249
(dp6250
g46
VPP
p6251
sbatp6252
Rp6253
(dp6254
g46
VNP
p6255
sbatp6256
Rp6257
(dp6258
g46
VPP
p6259
sbatp6260
Rp6261
(dp6262
g46
VVP
p6263
sbatp6264
Rp6265
(dp6266
g46
VVP
p6267
sbatp6268
Rp6269
(dp6270
g46
g190
sbatp6271
Rp6272
(dp6273
g46
VSBAR
p6274
sbatp6275
Rp6276
(dp6277
g46
VVP
p6278
sbatp6279
Rp6280
(dp6281
g46
g190
sbag36
(g37
g38
(lp6282
V--
p6283
atp6284
Rp6285
(dp6286
g46
g183
sbag36
(g37
g38
(lp6287
g36
(g37
g38
(lp6288
g36
(g37
g38
(lp6289
g36
(g37
g38
(lp6290
Vprocessor
p6291
atp6292
Rp6293
(dp6294
g46
VNN
p6295
sbag36
(g37
g38
(lp6296
Vspeed
p6297
atp6298
Rp6299
(dp6300
g46
VNN
p6301
sbatp6302
Rp6303
(dp6304
g46
VNP
p6305
sbag36
(g37
g38
(lp6306
g36
(g37
g38
(lp6307
V-LRB-
p6308
atp6309
Rp6310
(dp6311
g46
V-LRB-
p6312
sbag36
(g37
g38
(lp6313
Vand
p6314
atp6315
Rp6316
(dp6317
g46
VCC
p6318
sbag36
(g37
g38
(lp6319
Veven
p6320
atp6321
Rp6322
(dp6323
g46
VRB
p6324
sbag36
(g37
g38
(lp6325
g36
(g37
g38
(lp6326
Vcache
p6327
atp6328
Rp6329
(dp6330
g46
VNN
p6331
sbag36
(g37
g38
(lp6332
Vspeed
p6333
atp6334
Rp6335
(dp6336
g46
VNN
p6337
sbatp6338
Rp6339
(dp6340
g46
VNP
p6341
sbag36
(g37
g38
(lp6342
V-RRB-
p6343
atp6344
Rp6345
(dp6346
g46
V-RRB-
p6347
sbatp6348
Rp6349
(dp6350
g46
VPRN
p6351
sbatp6352
Rp6353
(dp6354
g46
VNP
p6355
sbag36
(g37
g38
(lp6356
g36
(g37
g38
(lp6357
Vis
p6358
atp6359
Rp6360
(dp6361
g46
VVBZ
p6362
sbag36
(g37
g38
(lp6363
Vnot
p6364
atp6365
Rp6366
(dp6367
g46
VRB
p6368
sbag36
(g37
g38
(lp6369
g36
(g37
g38
(lp6370
Vrelevant
p6371
atp6372
Rp6373
(dp6374
g46
VJJ
p6375
sbatp6376
Rp6377
(dp6378
g46
VADJP
p6379
sbag36
(g37
g38
(lp6380
g36
(g37
g38
(lp6381
g36
(g37
g38
(lp6382
Vhere
p6383
atp6384
Rp6385
(dp6386
g46
VRB
p6387
sbatp6388
Rp6389
(dp6390
g46
VADVP
p6391
sbag36
(g37
g38
(lp6392
Vsince
p6393
atp6394
Rp6395
(dp6396
g46
VIN
p6397
sbag36
(g37
g38
(lp6398
g36
(g37
g38
(lp6399
g36
(g37
g38
(lp6400
Vsort
p6401
atp6402
Rp6403
(dp6404
g46
VNN
p6405
sbag36
(g37
g38
(lp6406
Vcache
p6407
atp6408
Rp6409
(dp6410
g46
VNN
p6411
sbatp6412
Rp6413
(dp6414
g46
VNP
p6415
sbag36
(g37
g38
(lp6416
g36
(g37
g38
(lp6417
Vmisses
p6418
atp6419
Rp6420
(dp6421
g46
VVBZ
p6422
sbag36
(g37
g38
(lp6423
g36
(g37
g38
(lp6424
g36
(g37
g38
(lp6425
g36
(g37
g38
(lp6426
g36
(g37
g38
(lp6427
Vare
p6428
atp6429
Rp6430
(dp6431
g46
VVBP
p6432
sbag36
(g37
g38
(lp6433
g36
(g37
g38
(lp6434
Vessentially
p6435
atp6436
Rp6437
(dp6438
g46
VRB
p6439
sbag36
(g37
g38
(lp6440
Vrandom
p6441
atp6442
Rp6443
(dp6444
g46
VJJ
p6445
sbag36
(g37
g38
(lp6446
g36
(g37
g38
(lp6447
Vduring
p6448
atp6449
Rp6450
(dp6451
g46
VIN
p6452
sbag36
(g37
g38
(lp6453
g36
(g37
g38
(lp6454
Vthe
p6455
atp6456
Rp6457
(dp6458
g46
VDT
p6459
sbag36
(g37
g38
(lp6460
V``
p6461
atp6462
Rp6463
(dp6464
g46
V``
p6465
sbag36
(g37
g38
(lp6466
Vcomparison
p6467
atp6468
Rp6469
(dp6470
g46
VNN
p6471
sbag36
(g37
g38
(lp6472
V''
p6473
atp6474
Rp6475
(dp6476
g46
V''
p6477
sbatp6478
Rp6479
(dp6480
g46
VNP
p6481
sbatp6482
Rp6483
(dp6484
g46
VPP
p6485
sbatp6486
Rp6487
(dp6488
g46
VADJP
p6489
sbatp6490
Rp6491
(dp6492
g46
VVP
p6493
sbag36
(g37
g38
(lp6494
Vand
p6495
atp6496
Rp6497
(dp6498
g46
VCC
p6499
sbag36
(g37
g38
(lp6500
g36
(g37
g38
(lp6501
Vmerge
p6502
atp6503
Rp6504
(dp6505
g46
VVBP
p6506
sbag36
(g37
g38
(lp6507
g36
(g37
g38
(lp6508
Vphase
p6509
atp6510
Rp6511
(dp6512
g46
VNN
p6513
sbatp6514
Rp6515
(dp6516
g46
VNP
p6517
sbatp6518
Rp6519
(dp6520
g46
VVP
p6521
sbatp6522
Rp6523
(dp6524
g46
VVP
p6525
sbatp6526
Rp6527
(dp6528
g46
g190
sbatp6529
Rp6530
(dp6531
g46
VSBAR
p6532
sbatp6533
Rp6534
(dp6535
g46
VVP
p6536
sbatp6537
Rp6538
(dp6539
g46
g190
sbatp6540
Rp6541
(dp6542
g46
VSBAR
p6543
sbatp6544
Rp6545
(dp6546
g46
VVP
p6547
sbatp6548
Rp6549
(dp6550
g46
g190
sbag36
(g37
g38
(lp6551
g484
atp6552
Rp6553
(dp6554
g46
g484
sbatp6555
Rp6556
(dp6557
g46
g190
sbatp6558
Rp6559
(dp6560
g46
VROOT
p6561
sbasba(icmyPackage
Sent
p6562
(dp6563
g14
I1
sg29
I7
sg30
S'But, that is just my guess.'
p6564
sg32
I0
sg33
I31
sg34
(lp6565
g36
(g37
g38
(lp6566
g36
(g37
g38
(lp6567
g36
(g37
g38
(lp6568
VBut
p6569
atp6570
Rp6571
(dp6572
g46
VCC
p6573
sbag36
(g37
g38
(lp6574
g286
atp6575
Rp6576
(dp6577
g46
g286
sbag36
(g37
g38
(lp6578
g36
(g37
g38
(lp6579
Vthat
p6580
atp6581
Rp6582
(dp6583
g46
VDT
p6584
sbatp6585
Rp6586
(dp6587
g46
VNP
p6588
sbag36
(g37
g38
(lp6589
g36
(g37
g38
(lp6590
Vis
p6591
atp6592
Rp6593
(dp6594
g46
VVBZ
p6595
sbag36
(g37
g38
(lp6596
g36
(g37
g38
(lp6597
Vjust
p6598
atp6599
Rp6600
(dp6601
g46
VRB
p6602
sbatp6603
Rp6604
(dp6605
g46
VADVP
p6606
sbag36
(g37
g38
(lp6607
g36
(g37
g38
(lp6608
Vmy
p6609
atp6610
Rp6611
(dp6612
g46
VPRP$
p6613
sbag36
(g37
g38
(lp6614
Vguess
p6615
atp6616
Rp6617
(dp6618
g46
VNN
p6619
sbatp6620
Rp6621
(dp6622
g46
VNP
p6623
sbatp6624
Rp6625
(dp6626
g46
VVP
p6627
sbag36
(g37
g38
(lp6628
g484
atp6629
Rp6630
(dp6631
g46
g484
sbatp6632
Rp6633
(dp6634
g46
g190
sbatp6635
Rp6636
(dp6637
g46
VROOT
p6638
sbasba(icmyPackage
Sent
p6639
(dp6640
g14
I1
sg29
I7
sg30
S'It would make an interesting study for the hardware architects -- speed problems may lie elsewhere.'
p6641
sg32
I0
sg33
I32
sg34
(lp6642
g36
(g37
g38
(lp6643
g36
(g37
g38
(lp6644
g36
(g37
g38
(lp6645
g36
(g37
g38
(lp6646
g36
(g37
g38
(lp6647
VIt
p6648
atp6649
Rp6650
(dp6651
g46
VPRP
p6652
sbatp6653
Rp6654
(dp6655
g46
VNP
p6656
sbag36
(g37
g38
(lp6657
g36
(g37
g38
(lp6658
Vwould
p6659
atp6660
Rp6661
(dp6662
g46
VMD
p6663
sbag36
(g37
g38
(lp6664
g36
(g37
g38
(lp6665
Vmake
p6666
atp6667
Rp6668
(dp6669
g46
VVB
p6670
sbag36
(g37
g38
(lp6671
g36
(g37
g38
(lp6672
g36
(g37
g38
(lp6673
Van
p6674
atp6675
Rp6676
(dp6677
g46
VDT
p6678
sbag36
(g37
g38
(lp6679
Vinteresting
p6680
atp6681
Rp6682
(dp6683
g46
VJJ
p6684
sbag36
(g37
g38
(lp6685
Vstudy
p6686
atp6687
Rp6688
(dp6689
g46
VNN
p6690
sbatp6691
Rp6692
(dp6693
g46
VNP
p6694
sbag36
(g37
g38
(lp6695
g36
(g37
g38
(lp6696
Vfor
p6697
atp6698
Rp6699
(dp6700
g46
VIN
p6701
sbag36
(g37
g38
(lp6702
g36
(g37
g38
(lp6703
Vthe
p6704
atp6705
Rp6706
(dp6707
g46
VDT
p6708
sbag36
(g37
g38
(lp6709
Vhardware
p6710
atp6711
Rp6712
(dp6713
g46
VNN
p6714
sbag36
(g37
g38
(lp6715
Varchitects
p6716
atp6717
Rp6718
(dp6719
g46
VNNS
p6720
sbatp6721
Rp6722
(dp6723
g46
VNP
p6724
sbatp6725
Rp6726
(dp6727
g46
VPP
p6728
sbatp6729
Rp6730
(dp6731
g46
VNP
p6732
sbatp6733
Rp6734
(dp6735
g46
VVP
p6736
sbatp6737
Rp6738
(dp6739
g46
VVP
p6740
sbatp6741
Rp6742
(dp6743
g46
g190
sbag36
(g37
g38
(lp6744
V--
p6745
atp6746
Rp6747
(dp6748
g46
g183
sbag36
(g37
g38
(lp6749
g36
(g37
g38
(lp6750
g36
(g37
g38
(lp6751
Vspeed
p6752
atp6753
Rp6754
(dp6755
g46
VNN
p6756
sbag36
(g37
g38
(lp6757
Vproblems
p6758
atp6759
Rp6760
(dp6761
g46
VNNS
p6762
sbatp6763
Rp6764
(dp6765
g46
VNP
p6766
sbag36
(g37
g38
(lp6767
g36
(g37
g38
(lp6768
Vmay
p6769
atp6770
Rp6771
(dp6772
g46
VMD
p6773
sbag36
(g37
g38
(lp6774
g36
(g37
g38
(lp6775
Vlie
p6776
atp6777
Rp6778
(dp6779
g46
VVB
p6780
sbag36
(g37
g38
(lp6781
g36
(g37
g38
(lp6782
Velsewhere
p6783
atp6784
Rp6785
(dp6786
g46
VRB
p6787
sbatp6788
Rp6789
(dp6790
g46
VADVP
p6791
sbatp6792
Rp6793
(dp6794
g46
VVP
p6795
sbatp6796
Rp6797
(dp6798
g46
VVP
p6799
sbatp6800
Rp6801
(dp6802
g46
g190
sbag36
(g37
g38
(lp6803
g484
atp6804
Rp6805
(dp6806
g46
g484
sbatp6807
Rp6808
(dp6809
g46
g190
sbatp6810
Rp6811
(dp6812
g46
VROOT
p6813
sbasba(icmyPackage
Sent
p6814
(dp6815
g14
I1
sg29
I7
sg30
S'But, my guess is:'
p6816
sg32
I0
sg33
I33
sg34
(lp6817
g36
(g37
g38
(lp6818
g36
(g37
g38
(lp6819
g36
(g37
g38
(lp6820
VBut
p6821
atp6822
Rp6823
(dp6824
g46
VCC
p6825
sbag36
(g37
g38
(lp6826
g286
atp6827
Rp6828
(dp6829
g46
g286
sbag36
(g37
g38
(lp6830
g36
(g37
g38
(lp6831
Vmy
p6832
atp6833
Rp6834
(dp6835
g46
VPRP$
p6836
sbag36
(g37
g38
(lp6837
Vguess
p6838
atp6839
Rp6840
(dp6841
g46
VNN
p6842
sbatp6843
Rp6844
(dp6845
g46
VNP
p6846
sbag36
(g37
g38
(lp6847
g36
(g37
g38
(lp6848
Vis
p6849
atp6850
Rp6851
(dp6852
g46
VVBZ
p6853
sbatp6854
Rp6855
(dp6856
g46
VVP
p6857
sbag36
(g37
g38
(lp6858
g183
atp6859
Rp6860
(dp6861
g46
g183
sbatp6862
Rp6863
(dp6864
g46
g190
sbatp6865
Rp6866
(dp6867
g46
VROOT
p6868
sbasba(icmyPackage
Sent
p6869
(dp6870
g14
I1
sg29
I7
sg30
S'Remember!'
p6871
sg32
I0
sg33
I34
sg34
(lp6872
g36
(g37
g38
(lp6873
g36
(g37
g38
(lp6874
g36
(g37
g38
(lp6875
g36
(g37
g38
(lp6876
VRemember
p6877
atp6878
Rp6879
(dp6880
g46
VVB
p6881
sbatp6882
Rp6883
(dp6884
g46
VVP
p6885
sbag36
(g37
g38
(lp6886
g2871
atp6887
Rp6888
(dp6889
g46
g484
sbatp6890
Rp6891
(dp6892
g46
g190
sbatp6893
Rp6894
(dp6895
g46
VROOT
p6896
sbasba(icmyPackage
Sent
p6897
(dp6898
g14
I1
sg29
I7
sg30
S"It's the memory."
p6899
sg32
I0
sg33
I35
sg34
(lp6900
g36
(g37
g38
(lp6901
g36
(g37
g38
(lp6902
g36
(g37
g38
(lp6903
g36
(g37
g38
(lp6904
VIt
p6905
atp6906
Rp6907
(dp6908
g46
VPRP
p6909
sbatp6910
Rp6911
(dp6912
g46
VNP
p6913
sbag36
(g37
g38
(lp6914
g36
(g37
g38
(lp6915
V's
p6916
atp6917
Rp6918
(dp6919
g46
VVBZ
p6920
sbag36
(g37
g38
(lp6921
g36
(g37
g38
(lp6922
Vthe
p6923
atp6924
Rp6925
(dp6926
g46
VDT
p6927
sbag36
(g37
g38
(lp6928
Vmemory
p6929
atp6930
Rp6931
(dp6932
g46
VNN
p6933
sbatp6934
Rp6935
(dp6936
g46
VNP
p6937
sbatp6938
Rp6939
(dp6940
g46
VVP
p6941
sbag36
(g37
g38
(lp6942
g484
atp6943
Rp6944
(dp6945
g46
g484
sbatp6946
Rp6947
(dp6948
g46
g190
sbatp6949
Rp6950
(dp6951
g46
VROOT
p6952
sbasbasg496
I7
sg29
I7
sg32
I0
sba(icmyPackage
Parag
p6953
(dp6954
g14
I1
sg25
(lp6955
(icmyPackage
Sent
p6956
(dp6957
g14
I1
sg29
I8
sg30
S'The tpcC benchmark defies this conjecture.'
p6958
sg32
I0
sg33
I36
sg34
(lp6959
g36
(g37
g38
(lp6960
g36
(g37
g38
(lp6961
g36
(g37
g38
(lp6962
g36
(g37
g38
(lp6963
VThe
p6964
atp6965
Rp6966
(dp6967
g46
VDT
p6968
sbag36
(g37
g38
(lp6969
VtpcC
p6970
atp6971
Rp6972
(dp6973
g46
VJJ
p6974
sbag36
(g37
g38
(lp6975
Vbenchmark
p6976
atp6977
Rp6978
(dp6979
g46
VNN
p6980
sbatp6981
Rp6982
(dp6983
g46
VNP
p6984
sbag36
(g37
g38
(lp6985
g36
(g37
g38
(lp6986
Vdefies
p6987
atp6988
Rp6989
(dp6990
g46
VVBZ
p6991
sbag36
(g37
g38
(lp6992
g36
(g37
g38
(lp6993
Vthis
p6994
atp6995
Rp6996
(dp6997
g46
VDT
p6998
sbag36
(g37
g38
(lp6999
Vconjecture
p7000
atp7001
Rp7002
(dp7003
g46
VNN
p7004
sbatp7005
Rp7006
(dp7007
g46
VNP
p7008
sbatp7009
Rp7010
(dp7011
g46
VVP
p7012
sbag36
(g37
g38
(lp7013
g484
atp7014
Rp7015
(dp7016
g46
g484
sbatp7017
Rp7018
(dp7019
g46
g190
sbatp7020
Rp7021
(dp7022
g46
VROOT
p7023
sbasba(icmyPackage
Sent
p7024
(dp7025
g14
I1
sg29
I8
sg30
S'Figure 4 plots the SQLserver throughput per cpu and per MHz for Intel/AMD processors (excluding Itanium) on the tpcC benchmark over a ten year period.1'
p7026
sg32
I0
sg33
I37
sg34
(lp7027
g36
(g37
g38
(lp7028
g36
(g37
g38
(lp7029
g36
(g37
g38
(lp7030
g36
(g37
g38
(lp7031
g36
(g37
g38
(lp7032
VFigure
p7033
atp7034
Rp7035
(dp7036
g46
VCD
p7037
sbag36
(g37
g38
(lp7038
g2289
atp7039
Rp7040
(dp7041
g46
VCD
p7042
sbatp7043
Rp7044
(dp7045
g46
VQP
p7046
sbatp7047
Rp7048
(dp7049
g46
VNP
p7050
sbag36
(g37
g38
(lp7051
g36
(g37
g38
(lp7052
g36
(g37
g38
(lp7053
Vplots
p7054
atp7055
Rp7056
(dp7057
g46
VVBG
p7058
sbag36
(g37
g38
(lp7059
g36
(g37
g38
(lp7060
Vthe
p7061
atp7062
Rp7063
(dp7064
g46
VDT
p7065
sbag36
(g37
g38
(lp7066
VSQLserver
p7067
atp7068
Rp7069
(dp7070
g46
VNNP
p7071
sbag36
(g37
g38
(lp7072
Vthroughput
p7073
atp7074
Rp7075
(dp7076
g46
VNN
p7077
sbatp7078
Rp7079
(dp7080
g46
VNP
p7081
sbag36
(g37
g38
(lp7082
g36
(g37
g38
(lp7083
g36
(g37
g38
(lp7084
Vper
p7085
atp7086
Rp7087
(dp7088
g46
VIN
p7089
sbag36
(g37
g38
(lp7090
g36
(g37
g38
(lp7091
Vcpu
p7092
atp7093
Rp7094
(dp7095
g46
VNN
p7096
sbatp7097
Rp7098
(dp7099
g46
VNP
p7100
sbatp7101
Rp7102
(dp7103
g46
VPP
p7104
sbag36
(g37
g38
(lp7105
Vand
p7106
atp7107
Rp7108
(dp7109
g46
VCC
p7110
sbag36
(g37
g38
(lp7111
g36
(g37
g38
(lp7112
Vper
p7113
atp7114
Rp7115
(dp7116
g46
VIN
p7117
sbag36
(g37
g38
(lp7118
g36
(g37
g38
(lp7119
g36
(g37
g38
(lp7120
VMHz
p7121
atp7122
Rp7123
(dp7124
g46
VNNP
p7125
sbatp7126
Rp7127
(dp7128
g46
VNP
p7129
sbag36
(g37
g38
(lp7130
g36
(g37
g38
(lp7131
Vfor
p7132
atp7133
Rp7134
(dp7135
g46
VIN
p7136
sbag36
(g37
g38
(lp7137
g36
(g37
g38
(lp7138
VIntel/AMD
p7139
atp7140
Rp7141
(dp7142
g46
VNNP
p7143
sbag36
(g37
g38
(lp7144
Vprocessors
p7145
atp7146
Rp7147
(dp7148
g46
VNNS
p7149
sbatp7150
Rp7151
(dp7152
g46
VNP
p7153
sbatp7154
Rp7155
(dp7156
g46
VPP
p7157
sbag36
(g37
g38
(lp7158
g36
(g37
g38
(lp7159
V-LRB-
p7160
atp7161
Rp7162
(dp7163
g46
V-LRB-
p7164
sbag36
(g37
g38
(lp7165
g36
(g37
g38
(lp7166
Vexcluding
p7167
atp7168
Rp7169
(dp7170
g46
VVBG
p7171
sbag36
(g37
g38
(lp7172
g36
(g37
g38
(lp7173
VItanium
p7174
atp7175
Rp7176
(dp7177
g46
VNNP
p7178
sbatp7179
Rp7180
(dp7181
g46
VNP
p7182
sbatp7183
Rp7184
(dp7185
g46
VPP
p7186
sbag36
(g37
g38
(lp7187
V-RRB-
p7188
atp7189
Rp7190
(dp7191
g46
V-RRB-
p7192
sbatp7193
Rp7194
(dp7195
g46
VPRN
p7196
sbatp7197
Rp7198
(dp7199
g46
VNP
p7200
sbatp7201
Rp7202
(dp7203
g46
VPP
p7204
sbatp7205
Rp7206
(dp7207
g46
VPP
p7208
sbag36
(g37
g38
(lp7209
g36
(g37
g38
(lp7210
Von
p7211
atp7212
Rp7213
(dp7214
g46
VIN
p7215
sbag36
(g37
g38
(lp7216
g36
(g37
g38
(lp7217
g36
(g37
g38
(lp7218
Vthe
p7219
atp7220
Rp7221
(dp7222
g46
VDT
p7223
sbag36
(g37
g38
(lp7224
VtpcC
p7225
atp7226
Rp7227
(dp7228
g46
VJJ
p7229
sbag36
(g37
g38
(lp7230
Vbenchmark
p7231
atp7232
Rp7233
(dp7234
g46
VNN
p7235
sbatp7236
Rp7237
(dp7238
g46
VNP
p7239
sbag36
(g37
g38
(lp7240
g36
(g37
g38
(lp7241
Vover
p7242
atp7243
Rp7244
(dp7245
g46
VIN
p7246
sbag36
(g37
g38
(lp7247
g36
(g37
g38
(lp7248
g227
atp7249
Rp7250
(dp7251
g46
VDT
p7252
sbag36
(g37
g38
(lp7253
Vten
p7254
atp7255
Rp7256
(dp7257
g46
VCD
p7258
sbag36
(g37
g38
(lp7259
Vyear
p7260
atp7261
Rp7262
(dp7263
g46
VNN
p7264
sbag36
(g37
g38
(lp7265
Vperiod
p7266
atp7267
Rp7268
(dp7269
g46
VNN
p7270
sbatp7271
Rp7272
(dp7273
g46
VNP
p7274
sbatp7275
Rp7276
(dp7277
g46
VPP
p7278
sbatp7279
Rp7280
(dp7281
g46
VNP
p7282
sbatp7283
Rp7284
(dp7285
g46
VPP
p7286
sbatp7287
Rp7288
(dp7289
g46
VVP
p7290
sbatp7291
Rp7292
(dp7293
g46
g190
sbag36
(g37
g38
(lp7294
g36
(g37
g38
(lp7295
V.1
p7296
atp7297
Rp7298
(dp7299
g46
VCD
p7300
sbatp7301
Rp7302
(dp7303
g46
VNP
p7304
sbatp7305
Rp7306
(dp7307
g46
VFRAG
p7308
sbatp7309
Rp7310
(dp7311
g46
VROOT
p7312
sbasbasg496
I2
sg29
I8
sg32
I0
sba(icmyPackage
Parag
p7313
(dp7314
g14
I1
sg25
(lp7315
(icmyPackage
Sent
p7316
(dp7317
g14
I1
sg29
I9
sg30
S'It shows an initial steep 3-year learning curve of rapid improvement.'
p7318
sg32
I0
sg33
I38
sg34
(lp7319
g36
(g37
g38
(lp7320
g36
(g37
g38
(lp7321
g36
(g37
g38
(lp7322
g36
(g37
g38
(lp7323
VIt
p7324
atp7325
Rp7326
(dp7327
g46
VPRP
p7328
sbatp7329
Rp7330
(dp7331
g46
VNP
p7332
sbag36
(g37
g38
(lp7333
g36
(g37
g38
(lp7334
Vshows
p7335
atp7336
Rp7337
(dp7338
g46
VVBZ
p7339
sbag36
(g37
g38
(lp7340
g36
(g37
g38
(lp7341
g36
(g37
g38
(lp7342
Van
p7343
atp7344
Rp7345
(dp7346
g46
VDT
p7347
sbag36
(g37
g38
(lp7348
Vinitial
p7349
atp7350
Rp7351
(dp7352
g46
VJJ
p7353
sbag36
(g37
g38
(lp7354
Vsteep
p7355
atp7356
Rp7357
(dp7358
g46
VJJ
p7359
sbag36
(g37
g38
(lp7360
V3-year
p7361
atp7362
Rp7363
(dp7364
g46
VJJ
p7365
sbag36
(g37
g38
(lp7366
Vlearning
p7367
atp7368
Rp7369
(dp7370
g46
VNN
p7371
sbag36
(g37
g38
(lp7372
Vcurve
p7373
atp7374
Rp7375
(dp7376
g46
VNN
p7377
sbatp7378
Rp7379
(dp7380
g46
VNP
p7381
sbag36
(g37
g38
(lp7382
g36
(g37
g38
(lp7383
Vof
p7384
atp7385
Rp7386
(dp7387
g46
VIN
p7388
sbag36
(g37
g38
(lp7389
g36
(g37
g38
(lp7390
Vrapid
p7391
atp7392
Rp7393
(dp7394
g46
VJJ
p7395
sbag36
(g37
g38
(lp7396
Vimprovement
p7397
atp7398
Rp7399
(dp7400
g46
VNN
p7401
sbatp7402
Rp7403
(dp7404
g46
VNP
p7405
sbatp7406
Rp7407
(dp7408
g46
VPP
p7409
sbatp7410
Rp7411
(dp7412
g46
VNP
p7413
sbatp7414
Rp7415
(dp7416
g46
VVP
p7417
sbag36
(g37
g38
(lp7418
g484
atp7419
Rp7420
(dp7421
g46
g484
sbatp7422
Rp7423
(dp7424
g46
g190
sbatp7425
Rp7426
(dp7427
g46
VROOT
p7428
sbasba(icmyPackage
Sent
p7429
(dp7430
g14
I1
sg29
I9
sg30
S'Starting in 1998, tpmC per MHz began a gradual decline.'
p7431
sg32
I0
sg33
I39
sg34
(lp7432
g36
(g37
g38
(lp7433
g36
(g37
g38
(lp7434
g36
(g37
g38
(lp7435
g36
(g37
g38
(lp7436
VStarting
p7437
atp7438
Rp7439
(dp7440
g46
VVBG
p7441
sbag36
(g37
g38
(lp7442
g36
(g37
g38
(lp7443
Vin
p7444
atp7445
Rp7446
(dp7447
g46
VIN
p7448
sbag36
(g37
g38
(lp7449
g36
(g37
g38
(lp7450
V1998
p7451
atp7452
Rp7453
(dp7454
g46
VCD
p7455
sbatp7456
Rp7457
(dp7458
g46
VNP
p7459
sbatp7460
Rp7461
(dp7462
g46
VPP
p7463
sbatp7464
Rp7465
(dp7466
g46
VPP
p7467
sbag36
(g37
g38
(lp7468
g286
atp7469
Rp7470
(dp7471
g46
g286
sbag36
(g37
g38
(lp7472
g36
(g37
g38
(lp7473
g36
(g37
g38
(lp7474
VtpmC
p7475
atp7476
Rp7477
(dp7478
g46
VNN
p7479
sbatp7480
Rp7481
(dp7482
g46
VNP
p7483
sbag36
(g37
g38
(lp7484
g36
(g37
g38
(lp7485
Vper
p7486
atp7487
Rp7488
(dp7489
g46
VIN
p7490
sbag36
(g37
g38
(lp7491
g36
(g37
g38
(lp7492
VMHz
p7493
atp7494
Rp7495
(dp7496
g46
VNNP
p7497
sbatp7498
Rp7499
(dp7500
g46
VNP
p7501
sbatp7502
Rp7503
(dp7504
g46
VPP
p7505
sbatp7506
Rp7507
(dp7508
g46
VNP
p7509
sbag36
(g37
g38
(lp7510
g36
(g37
g38
(lp7511
Vbegan
p7512
atp7513
Rp7514
(dp7515
g46
VVBD
p7516
sbag36
(g37
g38
(lp7517
g36
(g37
g38
(lp7518
g227
atp7519
Rp7520
(dp7521
g46
VDT
p7522
sbag36
(g37
g38
(lp7523
Vgradual
p7524
atp7525
Rp7526
(dp7527
g46
VJJ
p7528
sbag36
(g37
g38
(lp7529
Vdecline
p7530
atp7531
Rp7532
(dp7533
g46
VNN
p7534
sbatp7535
Rp7536
(dp7537
g46
VNP
p7538
sbatp7539
Rp7540
(dp7541
g46
VVP
p7542
sbag36
(g37
g38
(lp7543
g484
atp7544
Rp7545
(dp7546
g46
g484
sbatp7547
Rp7548
(dp7549
g46
g190
sbatp7550
Rp7551
(dp7552
g46
VROOT
p7553
sbasba(icmyPackage
Sent
p7554
(dp7555
g14
I1
sg29
I9
sg30
S'In 2003 the introduction of AWE, much larger caches and multi-level caches, and then in 2004 the introduction of 64-bit addressing (with 64GB address spaces) allowed the systems more memory and brought the us back to about 10 tpmC per MHz.'
p7556
sg32
I0
sg33
I40
sg34
(lp7557
g36
(g37
g38
(lp7558
g36
(g37
g38
(lp7559
g36
(g37
g38
(lp7560
g36
(g37
g38
(lp7561
VIn
p7562
atp7563
Rp7564
(dp7565
g46
VIN
p7566
sbag36
(g37
g38
(lp7567
g36
(g37
g38
(lp7568
V2003
p7569
atp7570
Rp7571
(dp7572
g46
VCD
p7573
sbatp7574
Rp7575
(dp7576
g46
VNP
p7577
sbatp7578
Rp7579
(dp7580
g46
VPP
p7581
sbag36
(g37
g38
(lp7582
g36
(g37
g38
(lp7583
g36
(g37
g38
(lp7584
g36
(g37
g38
(lp7585
Vthe
p7586
atp7587
Rp7588
(dp7589
g46
VDT
p7590
sbag36
(g37
g38
(lp7591
Vintroduction
p7592
atp7593
Rp7594
(dp7595
g46
VNN
p7596
sbatp7597
Rp7598
(dp7599
g46
VNP
p7600
sbag36
(g37
g38
(lp7601
g36
(g37
g38
(lp7602
Vof
p7603
atp7604
Rp7605
(dp7606
g46
VIN
p7607
sbag36
(g37
g38
(lp7608
g36
(g37
g38
(lp7609
g36
(g37
g38
(lp7610
g36
(g37
g38
(lp7611
VAWE
p7612
atp7613
Rp7614
(dp7615
g46
VNNP
p7616
sbatp7617
Rp7618
(dp7619
g46
VNP
p7620
sbag36
(g37
g38
(lp7621
g286
atp7622
Rp7623
(dp7624
g46
g286
sbag36
(g37
g38
(lp7625
g36
(g37
g38
(lp7626
Vmuch
p7627
atp7628
Rp7629
(dp7630
g46
VRB
p7631
sbag36
(g37
g38
(lp7632
Vlarger
p7633
atp7634
Rp7635
(dp7636
g46
VJJR
p7637
sbag36
(g37
g38
(lp7638
Vcaches
p7639
atp7640
Rp7641
(dp7642
g46
VNNS
p7643
sbatp7644
Rp7645
(dp7646
g46
VNP
p7647
sbag36
(g37
g38
(lp7648
Vand
p7649
atp7650
Rp7651
(dp7652
g46
VCC
p7653
sbag36
(g37
g38
(lp7654
g36
(g37
g38
(lp7655
Vmulti-level
p7656
atp7657
Rp7658
(dp7659
g46
VJJ
p7660
sbag36
(g37
g38
(lp7661
Vcaches
p7662
atp7663
Rp7664
(dp7665
g46
VNNS
p7666
sbatp7667
Rp7668
(dp7669
g46
VNP
p7670
sbatp7671
Rp7672
(dp7673
g46
VNP
p7674
sbag36
(g37
g38
(lp7675
g286
atp7676
Rp7677
(dp7678
g46
g286
sbag36
(g37
g38
(lp7679
Vand
p7680
atp7681
Rp7682
(dp7683
g46
VCC
p7684
sbag36
(g37
g38
(lp7685
g36
(g37
g38
(lp7686
Vthen
p7687
atp7688
Rp7689
(dp7690
g46
VRB
p7691
sbag36
(g37
g38
(lp7692
g36
(g37
g38
(lp7693
Vin
p7694
atp7695
Rp7696
(dp7697
g46
VIN
p7698
sbag36
(g37
g38
(lp7699
g36
(g37
g38
(lp7700
V2004
p7701
atp7702
Rp7703
(dp7704
g46
VCD
p7705
sbatp7706
Rp7707
(dp7708
g46
VNP
p7709
sbatp7710
Rp7711
(dp7712
g46
VPP
p7713
sbatp7714
Rp7715
(dp7716
g46
VADVP
p7717
sbag36
(g37
g38
(lp7718
g36
(g37
g38
(lp7719
g36
(g37
g38
(lp7720
Vthe
p7721
atp7722
Rp7723
(dp7724
g46
VDT
p7725
sbag36
(g37
g38
(lp7726
Vintroduction
p7727
atp7728
Rp7729
(dp7730
g46
VNN
p7731
sbatp7732
Rp7733
(dp7734
g46
VNP
p7735
sbag36
(g37
g38
(lp7736
g36
(g37
g38
(lp7737
Vof
p7738
atp7739
Rp7740
(dp7741
g46
VIN
p7742
sbag36
(g37
g38
(lp7743
g36
(g37
g38
(lp7744
V64-bit
p7745
atp7746
Rp7747
(dp7748
g46
VJJ
p7749
sbag36
(g37
g38
(lp7750
Vaddressing
p7751
atp7752
Rp7753
(dp7754
g46
VNNS
p7755
sbatp7756
Rp7757
(dp7758
g46
VNP
p7759
sbatp7760
Rp7761
(dp7762
g46
VPP
p7763
sbatp7764
Rp7765
(dp7766
g46
VNP
p7767
sbatp7768
Rp7769
(dp7770
g46
VNP
p7771
sbatp7772
Rp7773
(dp7774
g46
VPP
p7775
sbatp7776
Rp7777
(dp7778
g46
VNP
p7779
sbag36
(g37
g38
(lp7780
g36
(g37
g38
(lp7781
V-LRB-
p7782
atp7783
Rp7784
(dp7785
g46
V-LRB-
p7786
sbag36
(g37
g38
(lp7787
g36
(g37
g38
(lp7788
Vwith
p7789
atp7790
Rp7791
(dp7792
g46
VIN
p7793
sbag36
(g37
g38
(lp7794
g36
(g37
g38
(lp7795
V64GB
p7796
atp7797
Rp7798
(dp7799
g46
VCD
p7800
sbag36
(g37
g38
(lp7801
Vaddress
p7802
atp7803
Rp7804
(dp7805
g46
VNN
p7806
sbag36
(g37
g38
(lp7807
Vspaces
p7808
atp7809
Rp7810
(dp7811
g46
VNNS
p7812
sbatp7813
Rp7814
(dp7815
g46
VNP
p7816
sbatp7817
Rp7818
(dp7819
g46
VPP
p7820
sbag36
(g37
g38
(lp7821
V-RRB-
p7822
atp7823
Rp7824
(dp7825
g46
V-RRB-
p7826
sbatp7827
Rp7828
(dp7829
g46
VPRN
p7830
sbatp7831
Rp7832
(dp7833
g46
VNP
p7834
sbag36
(g37
g38
(lp7835
g36
(g37
g38
(lp7836
Vallowed
p7837
atp7838
Rp7839
(dp7840
g46
VVBD
p7841
sbag36
(g37
g38
(lp7842
g36
(g37
g38
(lp7843
Vthe
p7844
atp7845
Rp7846
(dp7847
g46
VDT
p7848
sbag36
(g37
g38
(lp7849
Vsystems
p7850
atp7851
Rp7852
(dp7853
g46
VNNS
p7854
sbatp7855
Rp7856
(dp7857
g46
VNP
p7858
sbag36
(g37
g38
(lp7859
g36
(g37
g38
(lp7860
g36
(g37
g38
(lp7861
Vmore
p7862
atp7863
Rp7864
(dp7865
g46
VJJR
p7866
sbag36
(g37
g38
(lp7867
Vmemory
p7868
atp7869
Rp7870
(dp7871
g46
VNN
p7872
sbatp7873
Rp7874
(dp7875
g46
VNP
p7876
sbag36
(g37
g38
(lp7877
Vand
p7878
atp7879
Rp7880
(dp7881
g46
VCC
p7882
sbag36
(g37
g38
(lp7883
g36
(g37
g38
(lp7884
Vbrought
p7885
atp7886
Rp7887
(dp7888
g46
VVBN
p7889
sbag36
(g37
g38
(lp7890
g36
(g37
g38
(lp7891
g36
(g37
g38
(lp7892
Vthe
p7893
atp7894
Rp7895
(dp7896
g46
VDT
p7897
sbag36
(g37
g38
(lp7898
g36
(g37
g38
(lp7899
g36
(g37
g38
(lp7900
Vus
p7901
atp7902
Rp7903
(dp7904
g46
VPRP
p7905
sbatp7906
Rp7907
(dp7908
g46
VNP
p7909
sbag36
(g37
g38
(lp7910
g36
(g37
g38
(lp7911
Vback
p7912
atp7913
Rp7914
(dp7915
g46
VRB
p7916
sbag36
(g37
g38
(lp7917
g36
(g37
g38
(lp7918
Vto
p7919
atp7920
Rp7921
(dp7922
g46
VTO
p7923
sbag36
(g37
g38
(lp7924
g36
(g37
g38
(lp7925
g36
(g37
g38
(lp7926
Vabout
p7927
atp7928
Rp7929
(dp7930
g46
VRB
p7931
sbag36
(g37
g38
(lp7932
V10
p7933
atp7934
Rp7935
(dp7936
g46
VCD
p7937
sbatp7938
Rp7939
(dp7940
g46
VQP
p7941
sbatp7942
Rp7943
(dp7944
g46
VNP
p7945
sbatp7946
Rp7947
(dp7948
g46
VPP
p7949
sbatp7950
Rp7951
(dp7952
g46
VADVP
p7953
sbatp7954
Rp7955
(dp7956
g46
VNAC
p7957
sbag36
(g37
g38
(lp7958
VtpmC
p7959
atp7960
Rp7961
(dp7962
g46
VNN
p7963
sbatp7964
Rp7965
(dp7966
g46
VNP
p7967
sbag36
(g37
g38
(lp7968
g36
(g37
g38
(lp7969
Vper
p7970
atp7971
Rp7972
(dp7973
g46
VIN
p7974
sbag36
(g37
g38
(lp7975
g36
(g37
g38
(lp7976
VMHz
p7977
atp7978
Rp7979
(dp7980
g46
VNNP
p7981
sbatp7982
Rp7983
(dp7984
g46
VNP
p7985
sbatp7986
Rp7987
(dp7988
g46
VPP
p7989
sbatp7990
Rp7991
(dp7992
g46
VNP
p7993
sbatp7994
Rp7995
(dp7996
g46
VVP
p7997
sbatp7998
Rp7999
(dp8000
g46
VUCP
p8001
sbatp8002
Rp8003
(dp8004
g46
VVP
p8005
sbag36
(g37
g38
(lp8006
g484
atp8007
Rp8008
(dp8009
g46
g484
sbatp8010
Rp8011
(dp8012
g46
g190
sbatp8013
Rp8014
(dp8015
g46
VROOT
p8016
sbasbasg496
I3
sg29
I9
sg32
I0
sbasg32
I0
sbasS'sc_num'
p8017
I1
sS'Ctitle'
p8018
S'Contents'
p8019
sg20
I10
sg21
(lp8020
g23
ag497
ag1175
ag2063
ag3211
ag3655
ag4680
ag5933
ag6953
ag7313
asba(icmyPackage
Sec
p8021
(dp8022
g14
I2
sg15
(lp8023
(icmyPackage
SubSec
p8024
(dp8025
g14
I2
sg19
Nsg20
I1
sg21
(lp8026
(icmyPackage
Parag
p8027
(dp8028
g14
I2
sg25
(lp8029
(icmyPackage
Sent
p8030
(dp8031
g14
I2
sg29
I10
sg30
S'Charles Levine and Brad Waters were enormously helpful in building and understanding Figure4.'
p8032
sg32
I0
sg33
I41
sg34
(lp8033
g36
(g37
g38
(lp8034
g36
(g37
g38
(lp8035
g36
(g37
g38
(lp8036
g36
(g37
g38
(lp8037
VCharles
p8038
atp8039
Rp8040
(dp8041
g46
VNNP
p8042
sbag36
(g37
g38
(lp8043
VLevine
p8044
atp8045
Rp8046
(dp8047
g46
VNNP
p8048
sbag36
(g37
g38
(lp8049
Vand
p8050
atp8051
Rp8052
(dp8053
g46
VCC
p8054
sbag36
(g37
g38
(lp8055
VBrad
p8056
atp8057
Rp8058
(dp8059
g46
VNNP
p8060
sbag36
(g37
g38
(lp8061
VWaters
p8062
atp8063
Rp8064
(dp8065
g46
VNNP
p8066
sbatp8067
Rp8068
(dp8069
g46
VNP
p8070
sbag36
(g37
g38
(lp8071
g36
(g37
g38
(lp8072
Vwere
p8073
atp8074
Rp8075
(dp8076
g46
VVBD
p8077
sbag36
(g37
g38
(lp8078
g36
(g37
g38
(lp8079
Venormously
p8080
atp8081
Rp8082
(dp8083
g46
VRB
p8084
sbag36
(g37
g38
(lp8085
Vhelpful
p8086
atp8087
Rp8088
(dp8089
g46
VJJ
p8090
sbag36
(g37
g38
(lp8091
g36
(g37
g38
(lp8092
Vin
p8093
atp8094
Rp8095
(dp8096
g46
VIN
p8097
sbag36
(g37
g38
(lp8098
g36
(g37
g38
(lp8099
g36
(g37
g38
(lp8100
Vbuilding
p8101
atp8102
Rp8103
(dp8104
g46
VVBG
p8105
sbag36
(g37
g38
(lp8106
Vand
p8107
atp8108
Rp8109
(dp8110
g46
VCC
p8111
sbag36
(g37
g38
(lp8112
Vunderstanding
p8113
atp8114
Rp8115
(dp8116
g46
VVBG
p8117
sbag36
(g37
g38
(lp8118
g36
(g37
g38
(lp8119
VFigure4
p8120
atp8121
Rp8122
(dp8123
g46
VNNS
p8124
sbatp8125
Rp8126
(dp8127
g46
VNP
p8128
sbatp8129
Rp8130
(dp8131
g46
VVP
p8132
sbatp8133
Rp8134
(dp8135
g46
g190
sbatp8136
Rp8137
(dp8138
g46
VPP
p8139
sbatp8140
Rp8141
(dp8142
g46
VADJP
p8143
sbatp8144
Rp8145
(dp8146
g46
VVP
p8147
sbag36
(g37
g38
(lp8148
g484
atp8149
Rp8150
(dp8151
g46
g484
sbatp8152
Rp8153
(dp8154
g46
g190
sbatp8155
Rp8156
(dp8157
g46
VROOT
p8158
sbasbasg496
I1
sg29
I10
sg32
I0
sbasg32
I0
sbasg8017
I1
sg8018
S'Acknowledgments'
p8159
sg20
I1
sg21
(lp8160
g8027
asbasS'Ftitle'
p8161
S'A "Measure of Transaction Processing" 20 Years Later'
p8162
sS's_num'
p8163
I42
sS'S_list'
p8164
(lp8165
g27
ag195
ag219
ag321
ag427
ag500
ag594
ag995
ag1178
ag1257
ag1827
ag2066
ag2576
ag2764
ag2918
ag2937
ag3214
ag3658
ag3922
ag4094
ag4467
ag4683
ag4832
ag4972
ag5097
ag5237
ag5360
ag5521
ag5691
ag5936
ag6091
ag6562
ag6639
ag6814
ag6869
ag6897
ag6956
ag7024
ag7316
ag7429
ag7554
ag8030
asS'P_list'
p8166
(lp8167
g23
ag497
ag1175
ag2063
ag3211
ag3655
ag4680
ag5933
ag6953
ag7313
ag8027
asS'Ftag'
p8168
S'f0032'
p8169
sS'c_num'
p8170
I2
sg20
I11
sS'Abstract'
p8171
(lp8172
sS'Refer'
p8173
(lp8174
(icmyPackage
Refer
p8175
(dp8176
g30
S'[1] Anon et. al.. A Measure of Transaction Processing Power," Datamation, 1 April, 1985, also at: http://research.microsoft.com/~gray/papers/AMeasureOf TransactionProcessingPower.doc'
p8177
sS'Rtag'
p8178
I1
sba(icmyPackage
Refer
p8179
(dp8180
g30
S'[2] Jim Gray; Charles Levine, "Thousands of DebitCredit Transactions per Second: Easy and Inexpensive,\' MSR TR 2005-39, http://research.microsoft.com/research/pubs/view.aspx? msr_tr_id=MSR-TR-2005-39'
p8181
sg8178
I2
sba(icmyPackage
Refer
p8182
(dp8183
g30
S'[3] Sort Benchmark Website http://research.microsoft.com/barc/SortBenchmark/'
p8184
sg8178
I3
sba(icmyPackage
Refer
p8185
(dp8186
g30
S'[4] Jim Wyllie, "Sorting on a Cluster Attached to a Storage Area Network," April, 2000, http://research.microsoft.com/barc/SortBenchmark/ 2005_SCS_Wyllie.pdf'
p8187
sg8178
I4
sba(icmyPackage
Refer
p8188
(dp8189
g30
S'[5] Robert Ramey, "2005 Performance/Price Sort and PennySort," April, 2005 http://research.microsoft.com/barc/SortBenchmark/ 2005_PostMansSort.pdf'
p8190
sg8178
I5
sbasb.