(lp0
(icmyPackage
CELink
p1
(dp2
S'PTreelst'
p3
(lp4
ccopy_reg
_reconstructor
p5
(cnltk.tree
Tree
p6
c__builtin__
list
p7
(lp8
g5
(g6
g7
(lp9
g5
(g6
g7
(lp10
g5
(g6
g7
(lp11
g5
(g6
g7
(lp12
VCoordinating
p13
atp14
Rp15
(dp16
S'_label'
p17
VNN
p18
sbag5
(g6
g7
(lp19
Vand
p20
atp21
Rp22
(dp23
g17
VCC
p24
sbag5
(g6
g7
(lp25
Vfusing
p26
atp27
Rp28
(dp29
g17
VNN
p30
sbag5
(g6
g7
(lp31
Vknowledge
p32
atp33
Rp34
(dp35
g17
VNN
p36
sbag5
(g6
g7
(lp37
Vflows
p38
atp39
Rp40
(dp41
g17
VNNS
p42
sbatp43
Rp44
(dp45
g17
VNP
p46
sbag5
(g6
g7
(lp47
V,
p48
atp49
Rp50
(dp51
g17
g48
sbag5
(g6
g7
(lp52
g5
(g6
g7
(lp53
Vdata
p54
atp55
Rp56
(dp57
g17
VNNS
p58
sbag5
(g6
g7
(lp59
Vflows
p60
atp61
Rp62
(dp63
g17
VNNS
p64
sbag5
(g6
g7
(lp65
g48
atp66
Rp67
(dp68
g17
g48
sbag5
(g6
g7
(lp69
Vand
p70
atp71
Rp72
(dp73
g17
VCC
p74
sbag5
(g6
g7
(lp75
Vcontrol
p76
atp77
Rp78
(dp79
g17
VNN
p80
sbag5
(g6
g7
(lp81
Vflows
p82
atp83
Rp84
(dp85
g17
VNNS
p86
sbag5
(g6
g7
(lp87
g48
atp88
Rp89
(dp90
g17
g48
sbag5
(g6
g7
(lp91
Vand
p92
atp93
Rp94
(dp95
g17
VCC
p96
sbag5
(g6
g7
(lp97
Vintegrating
p98
atp99
Rp100
(dp101
g17
VNNS
p102
sbag5
(g6
g7
(lp103
Vknowledge
p104
atp105
Rp106
(dp107
g17
VNN
p108
sbag5
(g6
g7
(lp109
Vflows
p110
atp111
Rp112
(dp113
g17
VNNS
p114
sbag5
(g6
g7
(lp115
Vand
p116
atp117
Rp118
(dp119
g17
VCC
p120
sbag5
(g6
g7
(lp121
Vworkflows
p122
atp123
Rp124
(dp125
g17
VNNS
p126
sbatp127
Rp128
(dp129
g17
VNP
p130
sbag5
(g6
g7
(lp131
g48
atp132
Rp133
(dp134
g17
g48
sbatp135
Rp136
(dp137
g17
VNP
p138
sbag5
(g6
g7
(lp139
g5
(g6
g7
(lp140
Vare
p141
atp142
Rp143
(dp144
g17
VVBP
p145
sbag5
(g6
g7
(lp146
g5
(g6
g7
(lp147
Vpowerful
p148
atp149
Rp150
(dp151
g17
VJJ
p152
sbag5
(g6
g7
(lp153
g5
(g6
g7
(lp154
g5
(g6
g7
(lp155
g5
(g6
g7
(lp156
Vmeans
p157
atp158
Rp159
(dp160
g17
VVBZ
p161
sbag5
(g6
g7
(lp162
g5
(g6
g7
(lp163
Vfor
p164
atp165
Rp166
(dp167
g17
VIN
p168
sbag5
(g6
g7
(lp169
g5
(g6
g7
(lp170
g5
(g6
g7
(lp171
Vmaking
p172
atp173
Rp174
(dp175
g17
VVBG
p176
sbag5
(g6
g7
(lp177
g5
(g6
g7
(lp178
g5
(g6
g7
(lp179
Vteamwork
p180
atp181
Rp182
(dp183
g17
VNN
p184
sbatp185
Rp186
(dp187
g17
VNP
p188
sbag5
(g6
g7
(lp189
g5
(g6
g7
(lp190
Veffective
p191
atp192
Rp193
(dp194
g17
VJJ
p195
sbatp196
Rp197
(dp198
g17
VADJP
p199
sbatp200
Rp201
(dp202
g17
VS
p203
sbatp204
Rp205
(dp206
g17
VVP
p207
sbatp208
Rp209
(dp210
g17
g203
sbatp211
Rp212
(dp213
g17
VPP
p214
sbatp215
Rp216
(dp217
g17
VVP
p218
sbatp219
Rp220
(dp221
g17
g203
sbatp222
Rp223
(dp224
g17
VSBAR
p225
sbatp226
Rp227
(dp228
g17
VADJP
p229
sbatp230
Rp231
(dp232
g17
VVP
p233
sbag5
(g6
g7
(lp234
V.
p235
atp236
Rp237
(dp238
g17
g235
sbatp239
Rp240
(dp241
g17
g203
sbatp242
Rp243
(dp244
g17
VROOT
p245
sbasS'cause'
p246
(icmyPackage
CorE
p247
(dp248
S'span'
p249
(lp250
(I0
I24
tp251
a(I0
I26
tp252
asS'PTree'
p253
g209
sbsS'effect'
p254
(icmyPackage
CorE
p255
(dp256
g249
(lp257
(I0
I0
tp258
a(I0
I22
tp259
asg253
g5
(g6
g7
(lp260
g136
ag143
ag150
ag159
atp261
Rp262
(dp263
g17
S'ROOT'
p264
sbsbsS'pt'
p265
(icmyPackage
pattern
p266
(dp267
S'pfreq'
p268
I25
sS'moresent'
p269
I0
sS'main_token'
p270
(lp271
(lp272
S'for'
p273
aasS'ptype'
p274
(lp275
I2
aI1
aI1
asS'cases'
p276
(lp277
S'She was angry with him for being late.'
p278
asS'id'
p279
I44
sS'constraints'
p280
(lp281
(lp282
S'&R'
p283
aa(lp284
S'&V-ing@C@'
p285
aasbsS'sInfo'
p286
(lp287
(icmyPackage
Sent
p288
(dp289
S'Ctag'
p290
I0
sS'Ptag'
p291
I3
sS'text'
p292
S'Coordinating and fusing knowledge flows, data flows, and control flows, and integrating knowledge flows and workflows, are powerful means for making teamwork effective.'
p293
sS'SCtag'
p294
I0
sS'Stag'
p295
I4
sg253
(lp296
g243
asbasba(icmyPackage
CELink
p297
(dp298
g3
(lp299
g5
(g6
g7
(lp300
g5
(g6
g7
(lp301
g5
(g6
g7
(lp302
g5
(g6
g7
(lp303
g5
(g6
g7
(lp304
VCitations
p305
atp306
Rp307
(dp308
g17
VNNS
p309
sbatp310
Rp311
(dp312
g17
VNP
p313
sbag5
(g6
g7
(lp314
g5
(g6
g7
(lp315
Vbetween
p316
atp317
Rp318
(dp319
g17
VIN
p320
sbag5
(g6
g7
(lp321
g5
(g6
g7
(lp322
Vscientific
p323
atp324
Rp325
(dp326
g17
VJJ
p327
sbag5
(g6
g7
(lp328
Varticles
p329
atp330
Rp331
(dp332
g17
VNNS
p333
sbatp334
Rp335
(dp336
g17
VNP
p337
sbatp338
Rp339
(dp340
g17
VPP
p341
sbatp342
Rp343
(dp344
g17
VNP
p345
sbag5
(g6
g7
(lp346
g5
(g6
g7
(lp347
Vimply
p348
atp349
Rp350
(dp351
g17
VVBP
p352
sbag5
(g6
g7
(lp353
g5
(g6
g7
(lp354
Va
p355
atp356
Rp357
(dp358
g17
VDT
p359
sbag5
(g6
g7
(lp360
Vknowledge
p361
atp362
Rp363
(dp364
g17
VNN
p365
sbag5
(g6
g7
(lp366
Vflow
p367
atp368
Rp369
(dp370
g17
VNN
p371
sbatp372
Rp373
(dp374
g17
VNP
p375
sbag5
(g6
g7
(lp376
g5
(g6
g7
(lp377
Vfrom
p378
atp379
Rp380
(dp381
g17
VIN
p382
sbag5
(g6
g7
(lp383
g5
(g6
g7
(lp384
g5
(g6
g7
(lp385
Vthe
p386
atp387
Rp388
(dp389
g17
VDT
p390
sbag5
(g6
g7
(lp391
Vauthors
p392
atp393
Rp394
(dp395
g17
VNNS
p396
sbatp397
Rp398
(dp399
g17
VNP
p400
sbag5
(g6
g7
(lp401
g5
(g6
g7
(lp402
Vof
p403
atp404
Rp405
(dp406
g17
VIN
p407
sbag5
(g6
g7
(lp408
g5
(g6
g7
(lp409
g5
(g6
g7
(lp410
Vthe
p411
atp412
Rp413
(dp414
g17
VDT
p415
sbag5
(g6
g7
(lp416
Varticle
p417
atp418
Rp419
(dp420
g17
VNN
p421
sbatp422
Rp423
(dp424
g17
VNP
p425
sbag5
(g6
g7
(lp426
g5
(g6
g7
(lp427
Vbeing
p428
atp429
Rp430
(dp431
g17
VVBG
p432
sbag5
(g6
g7
(lp433
g5
(g6
g7
(lp434
Vcited
p435
atp436
Rp437
(dp438
g17
VVBN
p439
sbag5
(g6
g7
(lp440
g5
(g6
g7
(lp441
Vto
p442
atp443
Rp444
(dp445
g17
VTO
p446
sbag5
(g6
g7
(lp447
g5
(g6
g7
(lp448
g5
(g6
g7
(lp449
Vthe
p450
atp451
Rp452
(dp453
g17
VDT
p454
sbag5
(g6
g7
(lp455
Vauthors
p456
atp457
Rp458
(dp459
g17
VNNS
p460
sbatp461
Rp462
(dp463
g17
VNP
p464
sbag5
(g6
g7
(lp465
g5
(g6
g7
(lp466
Vof
p467
atp468
Rp469
(dp470
g17
VIN
p471
sbag5
(g6
g7
(lp472
g5
(g6
g7
(lp473
g5
(g6
g7
(lp474
Vthe
p475
atp476
Rp477
(dp478
g17
VDT
p479
sbag5
(g6
g7
(lp480
Varticles
p481
atp482
Rp483
(dp484
g17
VNNS
p485
sbatp486
Rp487
(dp488
g17
VNP
p489
sbag5
(g6
g7
(lp490
g5
(g6
g7
(lp491
g5
(g6
g7
(lp492
Vthat
p493
atp494
Rp495
(dp496
g17
VWDT
p497
sbatp498
Rp499
(dp500
g17
VWHNP
p501
sbag5
(g6
g7
(lp502
g5
(g6
g7
(lp503
g5
(g6
g7
(lp504
Vcite
p505
atp506
Rp507
(dp508
g17
VVBP
p509
sbag5
(g6
g7
(lp510
g5
(g6
g7
(lp511
Vit
p512
atp513
Rp514
(dp515
g17
VPRP
p516
sbatp517
Rp518
(dp519
g17
VNP
p520
sbatp521
Rp522
(dp523
g17
VVP
p524
sbatp525
Rp526
(dp527
g17
g203
sbatp528
Rp529
(dp530
g17
VSBAR
p531
sbatp532
Rp533
(dp534
g17
VNP
p535
sbatp536
Rp537
(dp538
g17
VPP
p539
sbatp540
Rp541
(dp542
g17
VNP
p543
sbatp544
Rp545
(dp546
g17
VPP
p547
sbatp548
Rp549
(dp550
g17
VVP
p551
sbatp552
Rp553
(dp554
g17
VVP
p555
sbatp556
Rp557
(dp558
g17
VNP
p559
sbatp560
Rp561
(dp562
g17
VPP
p563
sbatp564
Rp565
(dp566
g17
VNP
p567
sbatp568
Rp569
(dp570
g17
VPP
p571
sbatp572
Rp573
(dp574
g17
VVP
p575
sbag5
(g6
g7
(lp576
g235
atp577
Rp578
(dp579
g17
g235
sbatp580
Rp581
(dp582
g17
g203
sbatp583
Rp584
(dp585
g17
VROOT
p586
sbasg246
(icmyPackage
CorE
p587
(dp588
g249
(lp589
(I0
I0
tp590
a(I0
I3
tp591
asg253
g343
sbsg254
(icmyPackage
CorE
p592
(dp593
g249
(lp594
(I0
I5
tp595
a(I0
I24
tp596
asg253
g5
(g6
g7
(lp597
g373
ag569
atp598
Rp599
(dp600
g17
g264
sbsbsg265
(icmyPackage
pattern
p601
(dp602
g268
I0
sg269
I0
sg270
(lp603
(lp604
(lp605
S'indicate'
p606
aS'indicates'
p607
aS'indicated'
p608
aS'realize'
p609
aS'realizes'
p610
aS'realized'
p611
aS'ensure'
p612
aS'ensures'
p613
aS'ensured'
p614
aS'imply'
p615
aS'implies'
p616
aS'implied'
p617
aaasg274
(lp618
I4
aI1
aI1
asg276
(lp619
S'The basic characteristics and principles of language use and understanding indicate the following dimensions for evaluating a summarization'
p620
asg279
I88
sg280
(lp621
(lp622
S'&NP@C@'
p623
aS'(&Clause@C@)'
p624
aa(lp625
S'&NP@R@'
p626
aS'(&Clause@R@)'
p627
aasbsg286
(lp628
(icmyPackage
Sent
p629
(dp630
g290
I2
sg291
I15
sg292
S'Citations between scientific articles imply a knowledge flow from the authors of the article being cited to the authors of the articles that cite it.'
p631
sg294
I0
sg295
I25
sg253
(lp632
g584
asbasba(icmyPackage
CELink
p633
(dp634
g3
(lp635
g5
(g6
g7
(lp636
g5
(g6
g7
(lp637
g5
(g6
g7
(lp638
g5
(g6
g7
(lp639
g5
(g6
g7
(lp640
VThe
p641
atp642
Rp643
(dp644
g17
VDT
p645
sbag5
(g6
g7
(lp646
Vknowledge
p647
atp648
Rp649
(dp650
g17
VNN
p651
sbag5
(g6
g7
(lp652
Vflow
p653
atp654
Rp655
(dp656
g17
VNN
p657
sbag5
(g6
g7
(lp658
Vnetwork
p659
atp660
Rp661
(dp662
g17
VNN
p663
sbatp664
Rp665
(dp666
g17
VNP
p667
sbag5
(g6
g7
(lp668
g5
(g6
g7
(lp669
Vimplicit
p670
atp671
Rp672
(dp673
g17
VJJ
p674
sbag5
(g6
g7
(lp675
g5
(g6
g7
(lp676
Vin
p677
atp678
Rp679
(dp680
g17
VIN
p681
sbag5
(g6
g7
(lp682
g5
(g6
g7
(lp683
Vthe
p684
atp685
Rp686
(dp687
g17
VDT
p688
sbag5
(g6
g7
(lp689
Vcitation
p690
atp691
Rp692
(dp693
g17
VNN
p694
sbag5
(g6
g7
(lp695
Vnetwork
p696
atp697
Rp698
(dp699
g17
VNN
p700
sbatp701
Rp702
(dp703
g17
VNP
p704
sbatp705
Rp706
(dp707
g17
VPP
p708
sbatp709
Rp710
(dp711
g17
VADJP
p712
sbatp713
Rp714
(dp715
g17
VNP
p716
sbag5
(g6
g7
(lp717
g5
(g6
g7
(lp718
Vconsists
p719
atp720
Rp721
(dp722
g17
VVBZ
p723
sbag5
(g6
g7
(lp724
g5
(g6
g7
(lp725
Vof
p726
atp727
Rp728
(dp729
g17
VIN
p730
sbag5
(g6
g7
(lp731
g5
(g6
g7
(lp732
g5
(g6
g7
(lp733
Vknowledge
p734
atp735
Rp736
(dp737
g17
VNN
p738
sbag5
(g6
g7
(lp739
Vflows
p740
atp741
Rp742
(dp743
g17
VNNS
p744
sbatp745
Rp746
(dp747
g17
VNP
p748
sbag5
(g6
g7
(lp749
g5
(g6
g7
(lp750
Vbetween
p751
atp752
Rp753
(dp754
g17
VIN
p755
sbag5
(g6
g7
(lp756
g5
(g6
g7
(lp757
Vnodes
p758
atp759
Rp760
(dp761
g17
VNNS
p762
sbatp763
Rp764
(dp765
g17
VNP
p766
sbatp767
Rp768
(dp769
g17
VPP
p770
sbatp771
Rp772
(dp773
g17
VNP
p774
sbatp775
Rp776
(dp777
g17
VPP
p778
sbag5
(g6
g7
(lp779
g5
(g6
g7
(lp780
g5
(g6
g7
(lp781
Vthat
p782
atp783
Rp784
(dp785
g17
VDT
p786
sbag5
(g6
g7
(lp787
Vprocess
p788
atp789
Rp790
(dp791
g17
VNN
p792
sbag5
(g6
g7
(lp793
Vknowledge
p794
atp795
Rp796
(dp797
g17
VNN
p798
sbatp799
Rp800
(dp801
g17
VNP
p802
sbag5
(g6
g7
(lp803
g48
atp804
Rp805
(dp806
g17
g48
sbag5
(g6
g7
(lp807
g5
(g6
g7
(lp808
Vincluding
p809
atp810
Rp811
(dp812
g17
VVBG
p813
sbag5
(g6
g7
(lp814
g5
(g6
g7
(lp815
g5
(g6
g7
(lp816
Vreasoning
p817
atp818
Rp819
(dp820
g17
VNN
p821
sbag5
(g6
g7
(lp822
g48
atp823
Rp824
(dp825
g17
g48
sbag5
(g6
g7
(lp826
Vfusing
p827
atp828
Rp829
(dp830
g17
VNN
p831
sbag5
(g6
g7
(lp832
g48
atp833
Rp834
(dp835
g17
g48
sbag5
(g6
g7
(lp836
Vgeneralizing
p837
atp838
Rp839
(dp840
g17
VNN
p841
sbag5
(g6
g7
(lp842
g48
atp843
Rp844
(dp845
g17
g48
sbag5
(g6
g7
(lp846
Vinventing
p847
atp848
Rp849
(dp850
g17
VNN
p851
sbag5
(g6
g7
(lp852
g48
atp853
Rp854
(dp855
g17
g48
sbag5
(g6
g7
(lp856
Vand
p857
atp858
Rp859
(dp860
g17
VCC
p861
sbag5
(g6
g7
(lp862
Vproblem
p863
atp864
Rp865
(dp866
g17
VNN
p867
sbatp868
Rp869
(dp870
g17
VNP
p871
sbag5
(g6
g7
(lp872
g5
(g6
g7
(lp873
Vsolving
p874
atp875
Rp876
(dp877
g17
VVBG
p878
sbag5
(g6
g7
(lp879
g48
atp880
Rp881
(dp882
g17
g48
sbag5
(g6
g7
(lp883
g5
(g6
g7
(lp884
Vby
p885
atp886
Rp887
(dp888
g17
VIN
p889
sbag5
(g6
g7
(lp890
g5
(g6
g7
(lp891
Vauthors
p892
atp893
Rp894
(dp895
g17
VNNS
p896
sbag5
(g6
g7
(lp897
Vand
p898
atp899
Rp900
(dp901
g17
VCC
p902
sbag5
(g6
g7
(lp903
Vco-authors
p904
atp905
Rp906
(dp907
g17
VNNS
p908
sbatp909
Rp910
(dp911
g17
VNP
p912
sbatp913
Rp914
(dp915
g17
VPP
p916
sbatp917
Rp918
(dp919
g17
VVP
p920
sbatp921
Rp922
(dp923
g17
VNP
p924
sbatp925
Rp926
(dp927
g17
VPP
p928
sbatp929
Rp930
(dp931
g17
VNP
p932
sbatp933
Rp934
(dp935
g17
VVP
p936
sbag5
(g6
g7
(lp937
g235
atp938
Rp939
(dp940
g17
g235
sbatp941
Rp942
(dp943
g17
g203
sbatp944
Rp945
(dp946
g17
VROOT
p947
sbag5
(g6
g7
(lp948
g5
(g6
g7
(lp949
g5
(g6
g7
(lp950
g5
(g6
g7
(lp951
VAs
p952
atp953
Rp954
(dp955
g17
VIN
p956
sbag5
(g6
g7
(lp957
g5
(g6
g7
(lp958
g5
(g6
g7
(lp959
g355
atp960
Rp961
(dp962
g17
VDT
p963
sbag5
(g6
g7
(lp964
Vscientific
p965
atp966
Rp967
(dp968
g17
VJJ
p969
sbag5
(g6
g7
(lp970
Vresearch
p971
atp972
Rp973
(dp974
g17
VNN
p975
sbag5
(g6
g7
(lp976
Varea
p977
atp978
Rp979
(dp980
g17
VNN
p981
sbatp982
Rp983
(dp984
g17
VNP
p985
sbag5
(g6
g7
(lp986
g5
(g6
g7
(lp987
Vevolves
p988
atp989
Rp990
(dp991
g17
VVBZ
p992
sbatp993
Rp994
(dp995
g17
VVP
p996
sbatp997
Rp998
(dp999
g17
g203
sbatp1000
Rp1001
(dp1002
g17
VSBAR
p1003
sbag5
(g6
g7
(lp1004
g48
atp1005
Rp1006
(dp1007
g17
g48
sbag5
(g6
g7
(lp1008
g5
(g6
g7
(lp1009
Vthe
p1010
atp1011
Rp1012
(dp1013
g17
VDT
p1014
sbag5
(g6
g7
(lp1015
Vknowledge
p1016
atp1017
Rp1018
(dp1019
g17
VNN
p1020
sbag5
(g6
g7
(lp1021
Vflow
p1022
atp1023
Rp1024
(dp1025
g17
VNN
p1026
sbag5
(g6
g7
(lp1027
Vnetwork
p1028
atp1029
Rp1030
(dp1031
g17
VNN
p1032
sbatp1033
Rp1034
(dp1035
g17
VNP
p1036
sbag5
(g6
g7
(lp1037
g5
(g6
g7
(lp1038
g5
(g6
g7
(lp1039
Vevolves
p1040
atp1041
Rp1042
(dp1043
g17
VVBZ
p1044
sbag5
(g6
g7
(lp1045
g5
(g6
g7
(lp1046
Vwith
p1047
atp1048
Rp1049
(dp1050
g17
VIN
p1051
sbag5
(g6
g7
(lp1052
g5
(g6
g7
(lp1053
Vthe
p1054
atp1055
Rp1056
(dp1057
g17
VDT
p1058
sbag5
(g6
g7
(lp1059
Vcitation
p1060
atp1061
Rp1062
(dp1063
g17
VNN
p1064
sbag5
(g6
g7
(lp1065
Vnetwork
p1066
atp1067
Rp1068
(dp1069
g17
VNN
p1070
sbatp1071
Rp1072
(dp1073
g17
VNP
p1074
sbatp1075
Rp1076
(dp1077
g17
VPP
p1078
sbatp1079
Rp1080
(dp1081
g17
VVP
p1082
sbag5
(g6
g7
(lp1083
Vand
p1084
atp1085
Rp1086
(dp1087
g17
VCC
p1088
sbag5
(g6
g7
(lp1089
g5
(g6
g7
(lp1090
Vbehaves
p1091
atp1092
Rp1093
(dp1094
g17
VVBZ
p1095
sbag5
(g6
g7
(lp1096
g5
(g6
g7
(lp1097
Vdifferently
p1098
atp1099
Rp1100
(dp1101
g17
VRB
p1102
sbatp1103
Rp1104
(dp1105
g17
VADVP
p1106
sbag5
(g6
g7
(lp1107
g5
(g6
g7
(lp1108
Vduring
p1109
atp1110
Rp1111
(dp1112
g17
VIN
p1113
sbag5
(g6
g7
(lp1114
g5
(g6
g7
(lp1115
Vdifferent
p1116
atp1117
Rp1118
(dp1119
g17
VJJ
p1120
sbag5
(g6
g7
(lp1121
Vphases
p1122
atp1123
Rp1124
(dp1125
g17
VNNS
p1126
sbatp1127
Rp1128
(dp1129
g17
VNP
p1130
sbatp1131
Rp1132
(dp1133
g17
VPP
p1134
sbatp1135
Rp1136
(dp1137
g17
VVP
p1138
sbatp1139
Rp1140
(dp1141
g17
VVP
p1142
sbag5
(g6
g7
(lp1143
g235
atp1144
Rp1145
(dp1146
g17
g235
sbatp1147
Rp1148
(dp1149
g17
g203
sbatp1150
Rp1151
(dp1152
g17
VROOT
p1153
sbasg246
(icmyPackage
CorE
p1154
(dp1155
g249
(lp1156
(I1
I1
tp1157
a(I1
I22
tp1158
asg253
g5
(g6
g7
(lp1159
g998
ag1006
ag1034
ag1140
ag1145
atp1160
Rp1161
(dp1162
g17
g264
sbsbsg254
(icmyPackage
CorE
p1163
(dp1164
g249
(lp1165
(I0
I0
tp1166
a(I0
I36
tp1167
asg253
g945
sbsg265
(icmyPackage
pattern
p1168
(dp1169
g268
I26
sg269
I1
sg270
(lp1170
(lp1171
S'as'
p1172
aasg274
(lp1173
I3
aI1
aI1
asg276
(lp1174
S'You do not need to worry about the operation, as the software is very easy to use.'
p1175
asg279
I80
sg280
(lp1176
(lp1177
S'&R@Complete@'
p1178
aS'(,)'
p1179
aS'(-such/-same/-seem/-regard/-regards/-regarded/-view/-views/-viewed/-denote/-denoted/-denotes)'
p1180
aa(lp1181
S'(-if/-follow/-follows/-&adv)'
p1182
aS'&C@Complete@'
p1183
aasbsg286
(lp1184
(icmyPackage
Sent
p1185
(dp1186
g290
I2
sg291
I16
sg292
S'The knowledge flow network implicit in the citation network consists of knowledge flows between nodes that process knowledge, including reasoning, fusing, generalizing, inventing, and problem solving, by authors and co-authors.'
p1187
sg294
I0
sg295
I26
sg253
(lp1188
g945
asba(icmyPackage
Sent
p1189
(dp1190
g290
I2
sg291
I16
sg292
S'As a scientific research area evolves, the knowledge flow network evolves with the citation network and behaves differently during different phases.'
p1191
sg294
I0
sg295
I27
sg253
(lp1192
g1151
asbasba(icmyPackage
CELink
p1193
(dp1194
g3
(lp1195
g5
(g6
g7
(lp1196
g5
(g6
g7
(lp1197
g5
(g6
g7
(lp1198
g5
(g6
g7
(lp1199
VScientists
p1200
atp1201
Rp1202
(dp1203
g17
VNNS
p1204
sbatp1205
Rp1206
(dp1207
g17
VNP
p1208
sbag5
(g6
g7
(lp1209
g5
(g6
g7
(lp1210
Vcan
p1211
atp1212
Rp1213
(dp1214
g17
VMD
p1215
sbag5
(g6
g7
(lp1216
g5
(g6
g7
(lp1217
g5
(g6
g7
(lp1218
Vpublish
p1219
atp1220
Rp1221
(dp1222
g17
VVB
p1223
sbag5
(g6
g7
(lp1224
g5
(g6
g7
(lp1225
Vin
p1226
atp1227
Rp1228
(dp1229
g17
VIN
p1230
sbag5
(g6
g7
(lp1231
g5
(g6
g7
(lp1232
Vseveral
p1233
atp1234
Rp1235
(dp1236
g17
VJJ
p1237
sbag5
(g6
g7
(lp1238
Vareas
p1239
atp1240
Rp1241
(dp1242
g17
VNNS
p1243
sbatp1244
Rp1245
(dp1246
g17
VNP
p1247
sbatp1248
Rp1249
(dp1250
g17
VPP
p1251
sbatp1252
Rp1253
(dp1254
g17
VVP
p1255
sbag5
(g6
g7
(lp1256
g48
atp1257
Rp1258
(dp1259
g17
g48
sbag5
(g6
g7
(lp1260
Vand
p1261
atp1262
Rp1263
(dp1264
g17
VCC
p1265
sbag5
(g6
g7
(lp1266
g5
(g6
g7
(lp1267
Vthus
p1268
atp1269
Rp1270
(dp1271
g17
VRB
p1272
sbatp1273
Rp1274
(dp1275
g17
VADVP
p1276
sbag5
(g6
g7
(lp1277
g5
(g6
g7
(lp1278
Vbe
p1279
atp1280
Rp1281
(dp1282
g17
VVB
p1283
sbag5
(g6
g7
(lp1284
g5
(g6
g7
(lp1285
Vinvolved
p1286
atp1287
Rp1288
(dp1289
g17
VVBN
p1290
sbag5
(g6
g7
(lp1291
g5
(g6
g7
(lp1292
Vin
p1293
atp1294
Rp1295
(dp1296
g17
VIN
p1297
sbag5
(g6
g7
(lp1298
g5
(g6
g7
(lp1299
Vdifferent
p1300
atp1301
Rp1302
(dp1303
g17
VJJ
p1304
sbag5
(g6
g7
(lp1305
Vknowledge
p1306
atp1307
Rp1308
(dp1309
g17
VNN
p1310
sbag5
(g6
g7
(lp1311
Vflow
p1312
atp1313
Rp1314
(dp1315
g17
VNN
p1316
sbag5
(g6
g7
(lp1317
Vnetworks
p1318
atp1319
Rp1320
(dp1321
g17
VNNS
p1322
sbatp1323
Rp1324
(dp1325
g17
VNP
p1326
sbatp1327
Rp1328
(dp1329
g17
VPP
p1330
sbatp1331
Rp1332
(dp1333
g17
VVP
p1334
sbatp1335
Rp1336
(dp1337
g17
VVP
p1338
sbatp1339
Rp1340
(dp1341
g17
VVP
p1342
sbatp1343
Rp1344
(dp1345
g17
VVP
p1346
sbag5
(g6
g7
(lp1347
g235
atp1348
Rp1349
(dp1350
g17
g235
sbatp1351
Rp1352
(dp1353
g17
g203
sbatp1354
Rp1355
(dp1356
g17
VROOT
p1357
sbasg246
(icmyPackage
CorE
p1358
(dp1359
g249
(lp1360
(I0
I0
tp1361
a(I0
I5
tp1362
asg253
g5
(g6
g7
(lp1363
g1206
ag1213
ag1253
atp1364
Rp1365
(dp1366
g17
g264
sbsbsg254
(icmyPackage
CorE
p1367
(dp1368
g249
(lp1369
(I0
I9
tp1370
a(I0
I16
tp1371
asg253
g5
(g6
g7
(lp1372
g1336
ag1349
atp1373
Rp1374
(dp1375
g17
g264
sbsbsg265
(icmyPackage
pattern
p1376
(dp1377
g268
I35
sg269
I1
sg270
(lp1378
(lp1379
S'thus'
p1380
aasg274
(lp1381
I1
aI1
aI1
asg276
(lp1382
S'Japan will be on the dark side of the Earth, and thus will lack the warming influence of the Sun.'
p1383
asg279
I2
sg280
(lp1384
(lp1385
S'&C'
p1386
aS'(,/;/./--)'
p1387
aS'(&AND)'
p1388
aa(lp1389
S'&R'
p1390
aasbsg286
(lp1391
(icmyPackage
Sent
p1392
(dp1393
g290
I2
sg291
I17
sg292
S'Scientists can publish in several areas, and thus be involved in different knowledge flow networks.'
p1394
sg294
I0
sg295
I29
sg253
(lp1395
g1355
asbasba(icmyPackage
CELink
p1396
(dp1397
g3
(lp1398
g1355
ag5
(g6
g7
(lp1399
g5
(g6
g7
(lp1400
g5
(g6
g7
(lp1401
g5
(g6
g7
(lp1402
VThis
p1403
atp1404
Rp1405
(dp1406
g17
VDT
p1407
sbatp1408
Rp1409
(dp1410
g17
VNP
p1411
sbag5
(g6
g7
(lp1412
g5
(g6
g7
(lp1413
Venables
p1414
atp1415
Rp1416
(dp1417
g17
VVBZ
p1418
sbag5
(g6
g7
(lp1419
g5
(g6
g7
(lp1420
Vknowledge
p1421
atp1422
Rp1423
(dp1424
g17
VNN
p1425
sbatp1426
Rp1427
(dp1428
g17
VNP
p1429
sbag5
(g6
g7
(lp1430
g5
(g6
g7
(lp1431
g5
(g6
g7
(lp1432
Vto
p1433
atp1434
Rp1435
(dp1436
g17
VTO
p1437
sbag5
(g6
g7
(lp1438
g5
(g6
g7
(lp1439
Vflow
p1440
atp1441
Rp1442
(dp1443
g17
VVB
p1444
sbag5
(g6
g7
(lp1445
g5
(g6
g7
(lp1446
Vthrough
p1447
atp1448
Rp1449
(dp1450
g17
VIN
p1451
sbag5
(g6
g7
(lp1452
g5
(g6
g7
(lp1453
g5
(g6
g7
(lp1454
Vknowledge
p1455
atp1456
Rp1457
(dp1458
g17
VNN
p1459
sbag5
(g6
g7
(lp1460
Vnetworks
p1461
atp1462
Rp1463
(dp1464
g17
VNNS
p1465
sbatp1466
Rp1467
(dp1468
g17
VNP
p1469
sbag5
(g6
g7
(lp1470
g5
(g6
g7
(lp1471
Vin
p1472
atp1473
Rp1474
(dp1475
g17
VIN
p1476
sbag5
(g6
g7
(lp1477
g5
(g6
g7
(lp1478
Vdifferent
p1479
atp1480
Rp1481
(dp1482
g17
VJJ
p1483
sbag5
(g6
g7
(lp1484
Vareas
p1485
atp1486
Rp1487
(dp1488
g17
VNNS
p1489
sbatp1490
Rp1491
(dp1492
g17
VNP
p1493
sbatp1494
Rp1495
(dp1496
g17
VPP
p1497
sbatp1498
Rp1499
(dp1500
g17
VNP
p1501
sbatp1502
Rp1503
(dp1504
g17
VPP
p1505
sbag5
(g6
g7
(lp1506
g5
(g6
g7
(lp1507
g5
(g6
g7
(lp1508
Vto
p1509
atp1510
Rp1511
(dp1512
g17
VTO
p1513
sbag5
(g6
g7
(lp1514
g5
(g6
g7
(lp1515
Vpromote
p1516
atp1517
Rp1518
(dp1519
g17
VVB
p1520
sbag5
(g6
g7
(lp1521
g5
(g6
g7
(lp1522
Vinterdisciplinary
p1523
atp1524
Rp1525
(dp1526
g17
VJJ
p1527
sbag5
(g6
g7
(lp1528
Vresearch
p1529
atp1530
Rp1531
(dp1532
g17
VNN
p1533
sbatp1534
Rp1535
(dp1536
g17
VNP
p1537
sbatp1538
Rp1539
(dp1540
g17
VVP
p1541
sbatp1542
Rp1543
(dp1544
g17
VVP
p1545
sbatp1546
Rp1547
(dp1548
g17
g203
sbatp1549
Rp1550
(dp1551
g17
VVP
p1552
sbatp1553
Rp1554
(dp1555
g17
VVP
p1556
sbatp1557
Rp1558
(dp1559
g17
g203
sbatp1560
Rp1561
(dp1562
g17
VVP
p1563
sbag5
(g6
g7
(lp1564
g235
atp1565
Rp1566
(dp1567
g17
g235
sbatp1568
Rp1569
(dp1570
g17
g203
sbatp1571
Rp1572
(dp1573
g17
VROOT
p1574
sbasg246
(icmyPackage
CorE
p1575
(dp1576
g249
(lp1577
(I0
I0
tp1578
a(I0
I15
tp1579
asg253
g5
(g6
g7
(lp1580
g1206
ag1344
atp1581
Rp1582
(dp1583
g17
g264
sbsbsg254
(icmyPackage
CorE
p1584
(dp1585
g249
(lp1586
(I1
I2
tp1587
a(I1
I14
tp1588
asg253
g5
(g6
g7
(lp1589
g1427
ag1558
atp1590
Rp1591
(dp1592
g17
g264
sbsbsg265
(icmyPackage
pattern
p1593
(dp1594
g268
I0
sg269
I1
sg270
(lp1595
(lp1596
(lp1597
S'enable'
p1598
aS'enables'
p1599
aS'enabled'
p1600
aaasg274
(lp1601
I4
aI1
aI1
asg276
(lp1602
S'Ontology helps explain representation and establish the links between representations. This enables summarization systems to use more general or specific concepts in summary.'
p1603
asg279
I91
sg280
(lp1604
(lp1605
S'&C'
p1606
aS'(,/./;/--)'
p1607
aS'&this'
p1608
aS'(&adj)'
p1609
aS'(&N)'
p1610
aS'(&CAN/have/has/had)'
p1611
aS'(&ADV)'
p1612
aa(lp1613
S'&NP@R@'
p1614
aS'&TODO@R@'
p1615
aasbsg286
(lp1616
g1392
a(icmyPackage
Sent
p1617
(dp1618
g290
I2
sg291
I17
sg292
S'This enables knowledge to flow through knowledge networks in different areas to promote interdisciplinary research.'
p1619
sg294
I0
sg295
I30
sg253
(lp1620
g1572
asbasba(icmyPackage
CELink
p1621
(dp1622
g3
(lp1623
g5
(g6
g7
(lp1624
g5
(g6
g7
(lp1625
g5
(g6
g7
(lp1626
g5
(g6
g7
(lp1627
VAn
p1628
atp1629
Rp1630
(dp1631
g17
VDT
p1632
sbag5
(g6
g7
(lp1633
Veffective
p1634
atp1635
Rp1636
(dp1637
g17
VJJ
p1638
sbag5
(g6
g7
(lp1639
Vknowledge
p1640
atp1641
Rp1642
(dp1643
g17
VNN
p1644
sbag5
(g6
g7
(lp1645
Vflow
p1646
atp1647
Rp1648
(dp1649
g17
VNN
p1650
sbag5
(g6
g7
(lp1651
Vnetwork
p1652
atp1653
Rp1654
(dp1655
g17
VNN
p1656
sbatp1657
Rp1658
(dp1659
g17
VNP
p1660
sbag5
(g6
g7
(lp1661
g5
(g6
g7
(lp1662
Venables
p1663
atp1664
Rp1665
(dp1666
g17
VVBZ
p1667
sbag5
(g6
g7
(lp1668
g5
(g6
g7
(lp1669
g5
(g6
g7
(lp1670
g355
atp1671
Rp1672
(dp1673
g17
VDT
p1674
sbag5
(g6
g7
(lp1675
Vresearch
p1676
atp1677
Rp1678
(dp1679
g17
VNN
p1680
sbag5
(g6
g7
(lp1681
Vteam
p1682
atp1683
Rp1684
(dp1685
g17
VNN
p1686
sbatp1687
Rp1688
(dp1689
g17
VNP
p1690
sbag5
(g6
g7
(lp1691
g5
(g6
g7
(lp1692
Vto
p1693
atp1694
Rp1695
(dp1696
g17
VTO
p1697
sbag5
(g6
g7
(lp1698
g5
(g6
g7
(lp1699
Vbe
p1700
atp1701
Rp1702
(dp1703
g17
VVB
p1704
sbag5
(g6
g7
(lp1705
g5
(g6
g7
(lp1706
Vvery
p1707
atp1708
Rp1709
(dp1710
g17
VRB
p1711
sbag5
(g6
g7
(lp1712
Vpowerful
p1713
atp1714
Rp1715
(dp1716
g17
VJJ
p1717
sbag5
(g6
g7
(lp1718
g5
(g6
g7
(lp1719
Vin
p1720
atp1721
Rp1722
(dp1723
g17
VIN
p1724
sbag5
(g6
g7
(lp1725
g5
(g6
g7
(lp1726
g5
(g6
g7
(lp1727
Vgenerating
p1728
atp1729
Rp1730
(dp1731
g17
VVBG
p1732
sbag5
(g6
g7
(lp1733
g5
(g6
g7
(lp1734
Vnew
p1735
atp1736
Rp1737
(dp1738
g17
VJJ
p1739
sbag5
(g6
g7
(lp1740
Vknowledge
p1741
atp1742
Rp1743
(dp1744
g17
VNN
p1745
sbatp1746
Rp1747
(dp1748
g17
VNP
p1749
sbatp1750
Rp1751
(dp1752
g17
VVP
p1753
sbatp1754
Rp1755
(dp1756
g17
g203
sbatp1757
Rp1758
(dp1759
g17
VPP
p1760
sbatp1761
Rp1762
(dp1763
g17
VADJP
p1764
sbag5
(g6
g7
(lp1765
g5
(g6
g7
(lp1766
Vif
p1767
atp1768
Rp1769
(dp1770
g17
VIN
p1771
sbag5
(g6
g7
(lp1772
g5
(g6
g7
(lp1773
g5
(g6
g7
(lp1774
Vevery
p1775
atp1776
Rp1777
(dp1778
g17
VDT
p1779
sbag5
(g6
g7
(lp1780
Vnode
p1781
atp1782
Rp1783
(dp1784
g17
VNN
p1785
sbatp1786
Rp1787
(dp1788
g17
VNP
p1789
sbag5
(g6
g7
(lp1790
g5
(g6
g7
(lp1791
Vcan
p1792
atp1793
Rp1794
(dp1795
g17
VMD
p1796
sbag5
(g6
g7
(lp1797
g5
(g6
g7
(lp1798
Vinnovate
p1799
atp1800
Rp1801
(dp1802
g17
VVB
p1803
sbag5
(g6
g7
(lp1804
Vand
p1805
atp1806
Rp1807
(dp1808
g17
VCC
p1809
sbag5
(g6
g7
(lp1810
Voutput
p1811
atp1812
Rp1813
(dp1814
g17
VVB
p1815
sbag5
(g6
g7
(lp1816
g5
(g6
g7
(lp1817
Vnew
p1818
atp1819
Rp1820
(dp1821
g17
VJJ
p1822
sbag5
(g6
g7
(lp1823
Vknowledge
p1824
atp1825
Rp1826
(dp1827
g17
VNN
p1828
sbatp1829
Rp1830
(dp1831
g17
VNP
p1832
sbag5
(g6
g7
(lp1833
g5
(g6
g7
(lp1834
Vto
p1835
atp1836
Rp1837
(dp1838
g17
VTO
p1839
sbag5
(g6
g7
(lp1840
g5
(g6
g7
(lp1841
Vappropriate
p1842
atp1843
Rp1844
(dp1845
g17
VJJ
p1846
sbag5
(g6
g7
(lp1847
Vmembers
p1848
atp1849
Rp1850
(dp1851
g17
VNNS
p1852
sbatp1853
Rp1854
(dp1855
g17
VNP
p1856
sbatp1857
Rp1858
(dp1859
g17
VPP
p1860
sbatp1861
Rp1862
(dp1863
g17
VVP
p1864
sbatp1865
Rp1866
(dp1867
g17
VVP
p1868
sbatp1869
Rp1870
(dp1871
g17
g203
sbatp1872
Rp1873
(dp1874
g17
VSBAR
p1875
sbatp1876
Rp1877
(dp1878
g17
VVP
p1879
sbatp1880
Rp1881
(dp1882
g17
VVP
p1883
sbatp1884
Rp1885
(dp1886
g17
g203
sbatp1887
Rp1888
(dp1889
g17
VVP
p1890
sbag5
(g6
g7
(lp1891
g235
atp1892
Rp1893
(dp1894
g17
g235
sbatp1895
Rp1896
(dp1897
g17
g203
sbatp1898
Rp1899
(dp1900
g17
VROOT
p1901
sbasg246
(icmyPackage
CorE
p1902
(dp1903
g249
(lp1904
(I0
I18
tp1905
a(I0
I29
tp1906
asg253
g5
(g6
g7
(lp1907
g1870
ag1893
atp1908
Rp1909
(dp1910
g17
g264
sbsbsg254
(icmyPackage
CorE
p1911
(dp1912
g249
(lp1913
(I0
I0
tp1914
a(I0
I16
tp1915
asg253
g5
(g6
g7
(lp1916
g1658
ag1665
ag1688
ag1695
ag1702
ag1762
atp1917
Rp1918
(dp1919
g17
g264
sbsbsg265
(icmyPackage
pattern
p1920
(dp1921
g268
I0
sg269
I0
sg270
(lp1922
(lp1923
S'if'
p1924
aasg274
(lp1925
I1
aI1
aI1
asg276
(lp1926
S'An effective knowledge flow network enables a research team to be very powerful in generating new knowledge if every node can innovate and output new knowledge to appropriate members.'
p1927
asg279
I14
sg280
(lp1928
(lp1929
S'&R@Complete@'
p1930
aa(lp1931
S'&C@Complete@'
p1932
aasbsg286
(lp1933
(icmyPackage
Sent
p1934
(dp1935
g290
I3
sg291
I23
sg292
S'An effective knowledge flow network enables a research team to be very powerful in generating new knowledge if every node can innovate and output new knowledge to appropriate members.'
p1936
sg294
I0
sg295
I47
sg253
(lp1937
g1899
asbasba(icmyPackage
CELink
p1938
(dp1939
g3
(lp1940
g5
(g6
g7
(lp1941
g5
(g6
g7
(lp1942
g5
(g6
g7
(lp1943
g5
(g6
g7
(lp1944
g5
(g6
g7
(lp1945
VInvisible
p1946
atp1947
Rp1948
(dp1949
g17
VVB
p1950
sbag5
(g6
g7
(lp1951
g5
(g6
g7
(lp1952
g5
(g6
g7
(lp1953
Vknowledge
p1954
atp1955
Rp1956
(dp1957
g17
VNN
p1958
sbag5
(g6
g7
(lp1959
Vflow
p1960
atp1961
Rp1962
(dp1963
g17
VNN
p1964
sbag5
(g6
g7
(lp1965
Vnetworks
p1966
atp1967
Rp1968
(dp1969
g17
VNNS
p1970
sbatp1971
Rp1972
(dp1973
g17
VNP
p1974
sbag5
(g6
g7
(lp1975
g5
(g6
g7
(lp1976
Vself-organize
p1977
atp1978
Rp1979
(dp1980
g17
VJJ
p1981
sbatp1982
Rp1983
(dp1984
g17
VADJP
p1985
sbatp1986
Rp1987
(dp1988
g17
g203
sbatp1989
Rp1990
(dp1991
g17
VVP
p1992
sbag5
(g6
g7
(lp1993
Vand
p1994
atp1995
Rp1996
(dp1997
g17
VCC
p1998
sbag5
(g6
g7
(lp1999
g5
(g6
g7
(lp2000
Vevolve
p2001
atp2002
Rp2003
(dp2004
g17
VVB
p2005
sbag5
(g6
g7
(lp2006
g5
(g6
g7
(lp2007
Vcontinuously
p2008
atp2009
Rp2010
(dp2011
g17
VRB
p2012
sbatp2013
Rp2014
(dp2015
g17
VADVP
p2016
sbatp2017
Rp2018
(dp2019
g17
VVP
p2020
sbag5
(g6
g7
(lp2021
Vand
p2022
atp2023
Rp2024
(dp2025
g17
VCC
p2026
sbag5
(g6
g7
(lp2027
g5
(g6
g7
(lp2028
Vinteract
p2029
atp2030
Rp2031
(dp2032
g17
VVB
p2033
sbag5
(g6
g7
(lp2034
g5
(g6
g7
(lp2035
Vwith
p2036
atp2037
Rp2038
(dp2039
g17
VIN
p2040
sbag5
(g6
g7
(lp2041
g5
(g6
g7
(lp2042
Veach
p2043
atp2044
Rp2045
(dp2046
g17
VDT
p2047
sbag5
(g6
g7
(lp2048
Vother
p2049
atp2050
Rp2051
(dp2052
g17
VJJ
p2053
sbatp2054
Rp2055
(dp2056
g17
VNP
p2057
sbatp2058
Rp2059
(dp2060
g17
VPP
p2061
sbag5
(g6
g7
(lp2062
g5
(g6
g7
(lp2063
Vthrough
p2064
atp2065
Rp2066
(dp2067
g17
VIN
p2068
sbag5
(g6
g7
(lp2069
g5
(g6
g7
(lp2070
Vflows
p2071
atp2072
Rp2073
(dp2074
g17
VNNS
p2075
sbatp2076
Rp2077
(dp2078
g17
VNP
p2079
sbatp2080
Rp2081
(dp2082
g17
VPP
p2083
sbag5
(g6
g7
(lp2084
g5
(g6
g7
(lp2085
g5
(g6
g7
(lp2086
Vto
p2087
atp2088
Rp2089
(dp2090
g17
VTO
p2091
sbag5
(g6
g7
(lp2092
g5
(g6
g7
(lp2093
Vform
p2094
atp2095
Rp2096
(dp2097
g17
VVB
p2098
sbag5
(g6
g7
(lp2099
g5
(g6
g7
(lp2100
Van
p2101
atp2102
Rp2103
(dp2104
g17
VDT
p2105
sbag5
(g6
g7
(lp2106
g5
(g6
g7
(lp2107
Vautonomous
p2108
atp2109
Rp2110
(dp2111
g17
VJJ
p2112
sbatp2113
Rp2114
(dp2115
g17
VADJP
p2116
sbag5
(g6
g7
(lp2117
Vknowledge
p2118
atp2119
Rp2120
(dp2121
g17
VNN
p2122
sbag5
(g6
g7
(lp2123
Vspace
p2124
atp2125
Rp2126
(dp2127
g17
VNN
p2128
sbatp2129
Rp2130
(dp2131
g17
VNP
p2132
sbag5
(g6
g7
(lp2133
g5
(g6
g7
(lp2134
Vfor
p2135
atp2136
Rp2137
(dp2138
g17
VIN
p2139
sbag5
(g6
g7
(lp2140
g5
(g6
g7
(lp2141
g5
(g6
g7
(lp2142
Vproviding
p2143
atp2144
Rp2145
(dp2146
g17
VVBG
p2147
sbag5
(g6
g7
(lp2148
g5
(g6
g7
(lp2149
Vadvanced
p2150
atp2151
Rp2152
(dp2153
g17
VJJ
p2154
sbag5
(g6
g7
(lp2155
Vknowledge
p2156
atp2157
Rp2158
(dp2159
g17
VNN
p2160
sbag5
(g6
g7
(lp2161
Vservices
p2162
atp2163
Rp2164
(dp2165
g17
VNNS
p2166
sbatp2167
Rp2168
(dp2169
g17
VNP
p2170
sbatp2171
Rp2172
(dp2173
g17
VVP
p2174
sbatp2175
Rp2176
(dp2177
g17
g203
sbatp2178
Rp2179
(dp2180
g17
VPP
p2181
sbatp2182
Rp2183
(dp2184
g17
VVP
p2185
sbatp2186
Rp2187
(dp2188
g17
VVP
p2189
sbatp2190
Rp2191
(dp2192
g17
g203
sbatp2193
Rp2194
(dp2195
g17
VVP
p2196
sbatp2197
Rp2198
(dp2199
g17
VVP
p2200
sbag5
(g6
g7
(lp2201
g235
atp2202
Rp2203
(dp2204
g17
g235
sbatp2205
Rp2206
(dp2207
g17
g203
sbatp2208
Rp2209
(dp2210
g17
VROOT
p2211
sbasg246
(icmyPackage
CorE
p2212
(dp2213
g249
(lp2214
(I0
I22
tp2215
a(I0
I25
tp2216
asg253
g2176
sbsg254
(icmyPackage
CorE
p2217
(dp2218
g249
(lp2219
(I0
I0
tp2220
a(I0
I20
tp2221
asg253
g5
(g6
g7
(lp2222
g1990
ag1996
ag2018
ag2024
ag2031
ag2059
ag2081
ag2089
ag2096
ag2130
atp2223
Rp2224
(dp2225
g17
g264
sbsbsg265
g266
sg286
(lp2226
(icmyPackage
Sent
p2227
(dp2228
g290
I3
sg291
I24
sg292
S'Invisible knowledge flow networks self-organize and evolve continuously and interact with each other through flows to form an autonomous knowledge space for providing advanced knowledge services.'
p2229
sg294
I0
sg295
I54
sg253
(lp2230
g2209
asbasba(icmyPackage
CELink
p2231
(dp2232
g3
(lp2233
g5
(g6
g7
(lp2234
g5
(g6
g7
(lp2235
g5
(g6
g7
(lp2236
g5
(g6
g7
(lp2237
g5
(g6
g7
(lp2238
VReflecting
p2239
atp2240
Rp2241
(dp2242
g17
VVBG
p2243
sbag5
(g6
g7
(lp2244
g5
(g6
g7
(lp2245
g5
(g6
g7
(lp2246
Vthe
p2247
atp2248
Rp2249
(dp2250
g17
VDT
p2251
sbag5
(g6
g7
(lp2252
Vdevelopment
p2253
atp2254
Rp2255
(dp2256
g17
VNN
p2257
sbatp2258
Rp2259
(dp2260
g17
VNP
p2261
sbag5
(g6
g7
(lp2262
g5
(g6
g7
(lp2263
Vof
p2264
atp2265
Rp2266
(dp2267
g17
VIN
p2268
sbag5
(g6
g7
(lp2269
g5
(g6
g7
(lp2270
g355
atp2271
Rp2272
(dp2273
g17
VDT
p2274
sbag5
(g6
g7
(lp2275
Vdiscipline
p2276
atp2277
Rp2278
(dp2279
g17
VNN
p2280
sbatp2281
Rp2282
(dp2283
g17
VNP
p2284
sbatp2285
Rp2286
(dp2287
g17
VPP
p2288
sbatp2289
Rp2290
(dp2291
g17
VNP
p2292
sbatp2293
Rp2294
(dp2295
g17
VVP
p2296
sbatp2297
Rp2298
(dp2299
g17
g203
sbag5
(g6
g7
(lp2300
g48
atp2301
Rp2302
(dp2303
g17
g48
sbag5
(g6
g7
(lp2304
g5
(g6
g7
(lp2305
g5
(g6
g7
(lp2306
Vthe
p2307
atp2308
Rp2309
(dp2310
g17
VDT
p2311
sbag5
(g6
g7
(lp2312
Vdistribution
p2313
atp2314
Rp2315
(dp2316
g17
VNN
p2317
sbatp2318
Rp2319
(dp2320
g17
VNP
p2321
sbag5
(g6
g7
(lp2322
g5
(g6
g7
(lp2323
Vof
p2324
atp2325
Rp2326
(dp2327
g17
VIN
p2328
sbag5
(g6
g7
(lp2329
g5
(g6
g7
(lp2330
g5
(g6
g7
(lp2331
Vknowledge
p2332
atp2333
Rp2334
(dp2335
g17
VNN
p2336
sbag5
(g6
g7
(lp2337
Venergy
p2338
atp2339
Rp2340
(dp2341
g17
VNN
p2342
sbatp2343
Rp2344
(dp2345
g17
VNP
p2346
sbag5
(g6
g7
(lp2347
g5
(g6
g7
(lp2348
Vin
p2349
atp2350
Rp2351
(dp2352
g17
VIN
p2353
sbag5
(g6
g7
(lp2354
g5
(g6
g7
(lp2355
g355
atp2356
Rp2357
(dp2358
g17
VDT
p2359
sbag5
(g6
g7
(lp2360
Vnetwork
p2361
atp2362
Rp2363
(dp2364
g17
VNN
p2365
sbatp2366
Rp2367
(dp2368
g17
VNP
p2369
sbatp2370
Rp2371
(dp2372
g17
VPP
p2373
sbatp2374
Rp2375
(dp2376
g17
VNP
p2377
sbatp2378
Rp2379
(dp2380
g17
VPP
p2381
sbatp2382
Rp2383
(dp2384
g17
VNP
p2385
sbag5
(g6
g7
(lp2386
g5
(g6
g7
(lp2387
Vchanges
p2388
atp2389
Rp2390
(dp2391
g17
VVBZ
p2392
sbag5
(g6
g7
(lp2393
g5
(g6
g7
(lp2394
Vas
p2395
atp2396
Rp2397
(dp2398
g17
VIN
p2399
sbag5
(g6
g7
(lp2400
g5
(g6
g7
(lp2401
Vits
p2402
atp2403
Rp2404
(dp2405
g17
VPRP$
p2406
sbag5
(g6
g7
(lp2407
Vcitation
p2408
atp2409
Rp2410
(dp2411
g17
VNN
p2412
sbag5
(g6
g7
(lp2413
Vnetwork
p2414
atp2415
Rp2416
(dp2417
g17
VNN
p2418
sbag5
(g6
g7
(lp2419
Vevolves
p2420
atp2421
Rp2422
(dp2423
g17
VNNS
p2424
sbatp2425
Rp2426
(dp2427
g17
VNP
p2428
sbatp2429
Rp2430
(dp2431
g17
VPP
p2432
sbatp2433
Rp2434
(dp2435
g17
VVP
p2436
sbag5
(g6
g7
(lp2437
g235
atp2438
Rp2439
(dp2440
g17
g235
sbatp2441
Rp2442
(dp2443
g17
g203
sbatp2444
Rp2445
(dp2446
g17
VROOT
p2447
sbasg246
(icmyPackage
CorE
p2448
(dp2449
g249
(lp2450
(I0
I0
tp2451
a(I0
I5
tp2452
asg253
g2298
sbsg254
(icmyPackage
CorE
p2453
(dp2454
g249
(lp2455
(I0
I7
tp2456
a(I0
I21
tp2457
asg253
g5
(g6
g7
(lp2458
g2383
ag2434
ag2439
atp2459
Rp2460
(dp2461
g17
g264
sbsbsg265
(icmyPackage
pattern
p2462
(dp2463
g268
I30
sg269
I0
sg270
(lp2464
sg274
(lp2465
I3
aI2
aI1
asg276
(lp2466
S'Being over here we tend to be a bit isolated.'
p2467
aS'Not being sure of the word, he turned it up in the dictionary.'
p2468
asg279
I81
sg280
(lp2469
(lp2470
S'&V-ing@C@'
p2471
aS'(,)'
p2472
aS'&R@Complete@'
p2473
aasbsg286
(lp2474
(icmyPackage
Sent
p2475
(dp2476
g290
I3
sg291
I25
sg292
S'Reflecting the development of a discipline, the distribution of knowledge energy in a network changes as its citation network evolves.'
p2477
sg294
I0
sg295
I58
sg253
(lp2478
g2445
asbasba(icmyPackage
CELink
p2479
(dp2480
g3
(lp2481
g5
(g6
g7
(lp2482
g5
(g6
g7
(lp2483
g5
(g6
g7
(lp2484
g5
(g6
g7
(lp2485
VMaintaining
p2486
atp2487
Rp2488
(dp2489
g17
VVBG
p2490
sbag5
(g6
g7
(lp2491
Vopenness
p2492
atp2493
Rp2494
(dp2495
g17
VNN
p2496
sbatp2497
Rp2498
(dp2499
g17
VNP
p2500
sbag5
(g6
g7
(lp2501
g5
(g6
g7
(lp2502
Vis
p2503
atp2504
Rp2505
(dp2506
g17
VVBZ
p2507
sbag5
(g6
g7
(lp2508
g5
(g6
g7
(lp2509
g5
(g6
g7
(lp2510
g355
atp2511
Rp2512
(dp2513
g17
VDT
p2514
sbag5
(g6
g7
(lp2515
Vstrategy
p2516
atp2517
Rp2518
(dp2519
g17
VNN
p2520
sbatp2521
Rp2522
(dp2523
g17
VNP
p2524
sbag5
(g6
g7
(lp2525
g5
(g6
g7
(lp2526
Vfor
p2527
atp2528
Rp2529
(dp2530
g17
VIN
p2531
sbag5
(g6
g7
(lp2532
g5
(g6
g7
(lp2533
g5
(g6
g7
(lp2534
Vthe
p2535
atp2536
Rp2537
(dp2538
g17
VDT
p2539
sbag5
(g6
g7
(lp2540
g5
(g6
g7
(lp2541
Vsustainable
p2542
atp2543
Rp2544
(dp2545
g17
VJJ
p2546
sbatp2547
Rp2548
(dp2549
g17
VADJP
p2550
sbag5
(g6
g7
(lp2551
Vdevelopment
p2552
atp2553
Rp2554
(dp2555
g17
VNN
p2556
sbatp2557
Rp2558
(dp2559
g17
VNP
p2560
sbag5
(g6
g7
(lp2561
g5
(g6
g7
(lp2562
Vof
p2563
atp2564
Rp2565
(dp2566
g17
VIN
p2567
sbag5
(g6
g7
(lp2568
g5
(g6
g7
(lp2569
g5
(g6
g7
(lp2570
Vknowledge
p2571
atp2572
Rp2573
(dp2574
g17
VNN
p2575
sbag5
(g6
g7
(lp2576
Vflow
p2577
atp2578
Rp2579
(dp2580
g17
VNN
p2581
sbatp2582
Rp2583
(dp2584
g17
VNP
p2585
sbag5
(g6
g7
(lp2586
g5
(g6
g7
(lp2587
Vwithin
p2588
atp2589
Rp2590
(dp2591
g17
VIN
p2592
sbag5
(g6
g7
(lp2593
g5
(g6
g7
(lp2594
g355
atp2595
Rp2596
(dp2597
g17
VDT
p2598
sbag5
(g6
g7
(lp2599
Vresearch
p2600
atp2601
Rp2602
(dp2603
g17
VNN
p2604
sbag5
(g6
g7
(lp2605
Vcommunity
p2606
atp2607
Rp2608
(dp2609
g17
VNN
p2610
sbatp2611
Rp2612
(dp2613
g17
VNP
p2614
sbatp2615
Rp2616
(dp2617
g17
VPP
p2618
sbatp2619
Rp2620
(dp2621
g17
VNP
p2622
sbatp2623
Rp2624
(dp2625
g17
VPP
p2626
sbatp2627
Rp2628
(dp2629
g17
VNP
p2630
sbatp2631
Rp2632
(dp2633
g17
VPP
p2634
sbatp2635
Rp2636
(dp2637
g17
VNP
p2638
sbatp2639
Rp2640
(dp2641
g17
VVP
p2642
sbag5
(g6
g7
(lp2643
g235
atp2644
Rp2645
(dp2646
g17
g235
sbatp2647
Rp2648
(dp2649
g17
g203
sbatp2650
Rp2651
(dp2652
g17
VROOT
p2653
sbasg246
(icmyPackage
CorE
p2654
(dp2655
g249
(lp2656
(I0
I6
tp2657
a(I0
I15
tp2658
asg253
g2628
sbsg254
(icmyPackage
CorE
p2659
(dp2660
g249
(lp2661
(I0
I0
tp2662
a(I0
I1
tp2663
asg253
g2498
sbsg265
(icmyPackage
pattern
p2664
(dp2665
g268
I1
sg269
I0
sg270
(lp2666
(lp2667
S'strategy'
p2668
aS'for'
p2669
aasg274
(lp2670
I4
aI1
aI2
asg276
(lp2671
S'Maintaining openness is a strategy for the sustainable development of the knowledge flow within a research community.'
p2672
asg279
I106
sg280
(lp2673
(lp2674
S'&V-ing/&NP@R@'
p2675
aS'&BE'
p2676
aS'(&OF)'
p2677
aS'&ONE'
p2678
aa(lp2679
S'&V-ing/&NP@C@'
p2680
aasbsg286
(lp2681
(icmyPackage
Sent
p2682
(dp2683
g290
I3
sg291
I25
sg292
S'Maintaining openness is a strategy for the sustainable development of knowledge flow within a research community.'
p2684
sg294
I0
sg295
I60
sg253
(lp2685
g2651
asbasba(icmyPackage
CELink
p2686
(dp2687
g3
(lp2688
g5
(g6
g7
(lp2689
g5
(g6
g7
(lp2690
g5
(g6
g7
(lp2691
g5
(g6
g7
(lp2692
VFor
p2693
atp2694
Rp2695
(dp2696
g17
VIN
p2697
sbag5
(g6
g7
(lp2698
g5
(g6
g7
(lp2699
Vthe
p2700
atp2701
Rp2702
(dp2703
g17
VDT
p2704
sbag5
(g6
g7
(lp2705
Vsame
p2706
atp2707
Rp2708
(dp2709
g17
VJJ
p2710
sbag5
(g6
g7
(lp2711
Vreason
p2712
atp2713
Rp2714
(dp2715
g17
VNN
p2716
sbatp2717
Rp2718
(dp2719
g17
VNP
p2720
sbatp2721
Rp2722
(dp2723
g17
VPP
p2724
sbag5
(g6
g7
(lp2725
g48
atp2726
Rp2727
(dp2728
g17
g48
sbag5
(g6
g7
(lp2729
g5
(g6
g7
(lp2730
g5
(g6
g7
(lp2731
Vhighly
p2732
atp2733
Rp2734
(dp2735
g17
VRB
p2736
sbag5
(g6
g7
(lp2737
Vcited
p2738
atp2739
Rp2740
(dp2741
g17
VJJ
p2742
sbatp2743
Rp2744
(dp2745
g17
VADJP
p2746
sbag5
(g6
g7
(lp2747
Varticles
p2748
atp2749
Rp2750
(dp2751
g17
VNNS
p2752
sbatp2753
Rp2754
(dp2755
g17
VNP
p2756
sbag5
(g6
g7
(lp2757
g5
(g6
g7
(lp2758
Vattract
p2759
atp2760
Rp2761
(dp2762
g17
VVBP
p2763
sbag5
(g6
g7
(lp2764
g5
(g6
g7
(lp2765
Vmore
p2766
atp2767
Rp2768
(dp2769
g17
VJJR
p2770
sbag5
(g6
g7
(lp2771
Vcitations
p2772
atp2773
Rp2774
(dp2775
g17
VNNS
p2776
sbatp2777
Rp2778
(dp2779
g17
VNP
p2780
sbag5
(g6
g7
(lp2781
g5
(g6
g7
(lp2782
Vas
p2783
atp2784
Rp2785
(dp2786
g17
VIN
p2787
sbag5
(g6
g7
(lp2788
g5
(g6
g7
(lp2789
g5
(g6
g7
(lp2790
Vthe
p2791
atp2792
Rp2793
(dp2794
g17
VDT
p2795
sbag5
(g6
g7
(lp2796
Vcitation
p2797
atp2798
Rp2799
(dp2800
g17
VNN
p2801
sbag5
(g6
g7
(lp2802
Vnetwork
p2803
atp2804
Rp2805
(dp2806
g17
VNN
p2807
sbatp2808
Rp2809
(dp2810
g17
VNP
p2811
sbag5
(g6
g7
(lp2812
g5
(g6
g7
(lp2813
Vevolves
p2814
atp2815
Rp2816
(dp2817
g17
VVBZ
p2818
sbatp2819
Rp2820
(dp2821
g17
VVP
p2822
sbatp2823
Rp2824
(dp2825
g17
g203
sbatp2826
Rp2827
(dp2828
g17
VSBAR
p2829
sbatp2830
Rp2831
(dp2832
g17
VVP
p2833
sbag5
(g6
g7
(lp2834
g235
atp2835
Rp2836
(dp2837
g17
g235
sbatp2838
Rp2839
(dp2840
g17
g203
sbatp2841
Rp2842
(dp2843
g17
VROOT
p2844
sbasg246
(icmyPackage
CorE
p2845
(dp2846
g249
(lp2847
(I0
I12
tp2848
a(I0
I16
tp2849
asg253
g5
(g6
g7
(lp2850
g2824
ag2836
atp2851
Rp2852
(dp2853
g17
g264
sbsbsg254
(icmyPackage
CorE
p2854
(dp2855
g249
(lp2856
(I0
I1
tp2857
a(I0
I10
tp2858
asg253
g5
(g6
g7
(lp2859
g2718
ag2727
ag2754
ag2761
ag2778
atp2860
Rp2861
(dp2862
g17
g264
sbsbsg265
g1168
sg286
(lp2863
(icmyPackage
Sent
p2864
(dp2865
g290
I3
sg291
I26
sg292
S'For the same reason, highly cited articles attract more citations as the citation network evolves.'
p2866
sg294
I0
sg295
I62
sg253
(lp2867
g2842
asbasba(icmyPackage
CELink
p2868
(dp2869
g3
(lp2870
g5
(g6
g7
(lp2871
g5
(g6
g7
(lp2872
g5
(g6
g7
(lp2873
g5
(g6
g7
(lp2874
VOur
p2875
atp2876
Rp2877
(dp2878
g17
VPRP$
p2879
sbag5
(g6
g7
(lp2880
Vexperiment
p2881
atp2882
Rp2883
(dp2884
g17
VNN
p2885
sbatp2886
Rp2887
(dp2888
g17
VNP
p2889
sbag5
(g6
g7
(lp2890
g5
(g6
g7
(lp2891
Vshows
p2892
atp2893
Rp2894
(dp2895
g17
VVBZ
p2896
sbag5
(g6
g7
(lp2897
g5
(g6
g7
(lp2898
Vthat
p2899
atp2900
Rp2901
(dp2902
g17
VIN
p2903
sbag5
(g6
g7
(lp2904
g5
(g6
g7
(lp2905
g5
(g6
g7
(lp2906
g5
(g6
g7
(lp2907
Vknowledge
p2908
atp2909
Rp2910
(dp2911
g17
VNN
p2912
sbatp2913
Rp2914
(dp2915
g17
VNP
p2916
sbag5
(g6
g7
(lp2917
g5
(g6
g7
(lp2918
Vrouting
p2919
atp2920
Rp2921
(dp2922
g17
VVBG
p2923
sbag5
(g6
g7
(lp2924
g5
(g6
g7
(lp2925
Vin
p2926
atp2927
Rp2928
(dp2929
g17
VIN
p2930
sbag5
(g6
g7
(lp2931
g5
(g6
g7
(lp2932
g355
atp2933
Rp2934
(dp2935
g17
VDT
p2936
sbag5
(g6
g7
(lp2937
g5
(g6
g7
(lp2938
Vpeer-to-peer
p2939
atp2940
Rp2941
(dp2942
g17
VJJ
p2943
sbag5
(g6
g7
(lp2944
Vautonomous
p2945
atp2946
Rp2947
(dp2948
g17
VJJ
p2949
sbatp2950
Rp2951
(dp2952
g17
VADJP
p2953
sbag5
(g6
g7
(lp2954
Vnetwork
p2955
atp2956
Rp2957
(dp2958
g17
VNN
p2959
sbatp2960
Rp2961
(dp2962
g17
VNP
p2963
sbatp2964
Rp2965
(dp2966
g17
VPP
p2967
sbatp2968
Rp2969
(dp2970
g17
VVP
p2971
sbatp2972
Rp2973
(dp2974
g17
VNP
p2975
sbag5
(g6
g7
(lp2976
g5
(g6
g7
(lp2977
Vcan
p2978
atp2979
Rp2980
(dp2981
g17
VMD
p2982
sbag5
(g6
g7
(lp2983
g5
(g6
g7
(lp2984
Vattain
p2985
atp2986
Rp2987
(dp2988
g17
VVB
p2989
sbag5
(g6
g7
(lp2990
g5
(g6
g7
(lp2991
Vhigher
p2992
atp2993
Rp2994
(dp2995
g17
VJJR
p2996
sbag5
(g6
g7
(lp2997
Vefficiency
p2998
atp2999
Rp3000
(dp3001
g17
VNN
p3002
sbatp3003
Rp3004
(dp3005
g17
VNP
p3006
sbag5
(g6
g7
(lp3007
g5
(g6
g7
(lp3008
Vif
p3009
atp3010
Rp3011
(dp3012
g17
VIN
p3013
sbag5
(g6
g7
(lp3014
g5
(g6
g7
(lp3015
g5
(g6
g7
(lp3016
Vhigher
p3017
atp3018
Rp3019
(dp3020
g17
VJJR
p3021
sbag5
(g6
g7
(lp3022
Venergy
p3023
atp3024
Rp3025
(dp3026
g17
VNN
p3027
sbag5
(g6
g7
(lp3028
Vnodes
p3029
atp3030
Rp3031
(dp3032
g17
VNNS
p3033
sbatp3034
Rp3035
(dp3036
g17
VNP
p3037
sbag5
(g6
g7
(lp3038
g5
(g6
g7
(lp3039
Vare
p3040
atp3041
Rp3042
(dp3043
g17
VVBP
p3044
sbag5
(g6
g7
(lp3045
g5
(g6
g7
(lp3046
Vmore
p3047
atp3048
Rp3049
(dp3050
g17
VRBR
p3051
sbag5
(g6
g7
(lp3052
Vlikely
p3053
atp3054
Rp3055
(dp3056
g17
VJJ
p3057
sbag5
(g6
g7
(lp3058
g5
(g6
g7
(lp3059
g5
(g6
g7
(lp3060
Vto
p3061
atp3062
Rp3063
(dp3064
g17
VTO
p3065
sbag5
(g6
g7
(lp3066
g5
(g6
g7
(lp3067
Vbe
p3068
atp3069
Rp3070
(dp3071
g17
VVB
p3072
sbag5
(g6
g7
(lp3073
g5
(g6
g7
(lp3074
Vselected
p3075
atp3076
Rp3077
(dp3078
g17
VVBN
p3079
sbag5
(g6
g7
(lp3080
g5
(g6
g7
(lp3081
Vat
p3082
atp3083
Rp3084
(dp3085
g17
VIN
p3086
sbag5
(g6
g7
(lp3087
g5
(g6
g7
(lp3088
Veach
p3089
atp3090
Rp3091
(dp3092
g17
VDT
p3093
sbag5
(g6
g7
(lp3094
Vhop
p3095
atp3096
Rp3097
(dp3098
g17
VNN
p3099
sbatp3100
Rp3101
(dp3102
g17
VNP
p3103
sbatp3104
Rp3105
(dp3106
g17
VPP
p3107
sbatp3108
Rp3109
(dp3110
g17
VVP
p3111
sbatp3112
Rp3113
(dp3114
g17
VVP
p3115
sbatp3116
Rp3117
(dp3118
g17
VVP
p3119
sbatp3120
Rp3121
(dp3122
g17
g203
sbatp3123
Rp3124
(dp3125
g17
VADJP
p3126
sbatp3127
Rp3128
(dp3129
g17
VVP
p3130
sbatp3131
Rp3132
(dp3133
g17
g203
sbatp3134
Rp3135
(dp3136
g17
VSBAR
p3137
sbatp3138
Rp3139
(dp3140
g17
VVP
p3141
sbatp3142
Rp3143
(dp3144
g17
VVP
p3145
sbatp3146
Rp3147
(dp3148
g17
g203
sbatp3149
Rp3150
(dp3151
g17
VSBAR
p3152
sbatp3153
Rp3154
(dp3155
g17
VVP
p3156
sbag5
(g6
g7
(lp3157
g235
atp3158
Rp3159
(dp3160
g17
g235
sbatp3161
Rp3162
(dp3163
g17
g203
sbatp3164
Rp3165
(dp3166
g17
VROOT
p3167
sbasg246
(icmyPackage
CorE
p3168
(dp3169
g249
(lp3170
(I0
I16
tp3171
a(I0
I28
tp3172
asg253
g5
(g6
g7
(lp3173
g3132
ag3159
atp3174
Rp3175
(dp3176
g17
g264
sbsbsg254
(icmyPackage
CorE
p3177
(dp3178
g249
(lp3179
(I0
I0
tp3180
a(I0
I14
tp3181
asg253
g5
(g6
g7
(lp3182
g2887
ag2894
ag2901
ag2973
ag2980
ag2987
ag3004
atp3183
Rp3184
(dp3185
g17
g264
sbsbsg265
g1920
sg286
(lp3186
(icmyPackage
Sent
p3187
(dp3188
g290
I3
sg291
I27
sg292
S'Our experiment shows that knowledge routing in a peer-to-peer autonomous network can attain higher efficiency if higher energy nodes are more likely to be selected at each hop.'
p3189
sg294
I0
sg295
I69
sg253
(lp3190
g3165
asbasba(icmyPackage
CELink
p3191
(dp3192
g3
(lp3193
g5
(g6
g7
(lp3194
g5
(g6
g7
(lp3195
g5
(g6
g7
(lp3196
g5
(g6
g7
(lp3197
VTrusted
p3198
atp3199
Rp3200
(dp3201
g17
VJJ
p3202
sbag5
(g6
g7
(lp3203
Vteam
p3204
atp3205
Rp3206
(dp3207
g17
VNN
p3208
sbag5
(g6
g7
(lp3209
Vmembers
p3210
atp3211
Rp3212
(dp3213
g17
VNNS
p3214
sbatp3215
Rp3216
(dp3217
g17
VNP
p3218
sbag5
(g6
g7
(lp3219
g5
(g6
g7
(lp3220
Vensure
p3221
atp3222
Rp3223
(dp3224
g17
VVB
p3225
sbag5
(g6
g7
(lp3226
g5
(g6
g7
(lp3227
g5
(g6
g7
(lp3228
Vthe
p3229
atp3230
Rp3231
(dp3232
g17
VDT
p3233
sbag5
(g6
g7
(lp3234
Veffectiveness
p3235
atp3236
Rp3237
(dp3238
g17
VNN
p3239
sbatp3240
Rp3241
(dp3242
g17
VNP
p3243
sbag5
(g6
g7
(lp3244
g5
(g6
g7
(lp3245
Vof
p3246
atp3247
Rp3248
(dp3249
g17
VIN
p3250
sbag5
(g6
g7
(lp3251
g5
(g6
g7
(lp3252
Vknowledge
p3253
atp3254
Rp3255
(dp3256
g17
VNN
p3257
sbag5
(g6
g7
(lp3258
Vsharing
p3259
atp3260
Rp3261
(dp3262
g17
VNN
p3263
sbatp3264
Rp3265
(dp3266
g17
VNP
p3267
sbatp3268
Rp3269
(dp3270
g17
VPP
p3271
sbatp3272
Rp3273
(dp3274
g17
VNP
p3275
sbatp3276
Rp3277
(dp3278
g17
VVP
p3279
sbag5
(g6
g7
(lp3280
g235
atp3281
Rp3282
(dp3283
g17
g235
sbatp3284
Rp3285
(dp3286
g17
g203
sbatp3287
Rp3288
(dp3289
g17
VROOT
p3290
sbasg246
(icmyPackage
CorE
p3291
(dp3292
g249
(lp3293
(I0
I0
tp3294
a(I0
I2
tp3295
asg253
g3216
sbsg254
(icmyPackage
CorE
p3296
(dp3297
g249
(lp3298
(I0
I4
tp3299
a(I0
I8
tp3300
asg253
g3273
sbsg265
g601
sg286
(lp3301
(icmyPackage
Sent
p3302
(dp3303
g290
I3
sg291
I28
sg292
S'Trusted team members ensure the effectiveness of knowledge sharing.'
p3304
sg294
I0
sg295
I70
sg253
(lp3305
g3288
asbasba(icmyPackage
CELink
p3306
(dp3307
g3
(lp3308
g5
(g6
g7
(lp3309
g5
(g6
g7
(lp3310
g5
(g6
g7
(lp3311
g5
(g6
g7
(lp3312
VEveryone
p3313
atp3314
Rp3315
(dp3316
g17
VNN
p3317
sbatp3318
Rp3319
(dp3320
g17
VNP
p3321
sbag5
(g6
g7
(lp3322
g5
(g6
g7
(lp3323
Vcan
p3324
atp3325
Rp3326
(dp3327
g17
VMD
p3328
sbag5
(g6
g7
(lp3329
g5
(g6
g7
(lp3330
Vbenefit
p3331
atp3332
Rp3333
(dp3334
g17
VVB
p3335
sbag5
(g6
g7
(lp3336
g5
(g6
g7
(lp3337
Vfrom
p3338
atp3339
Rp3340
(dp3341
g17
VIN
p3342
sbag5
(g6
g7
(lp3343
g5
(g6
g7
(lp3344
Vthe
p3345
atp3346
Rp3347
(dp3348
g17
VDT
p3349
sbag5
(g6
g7
(lp3350
Vcommunity
p3351
atp3352
Rp3353
(dp3354
g17
VNN
p3355
sbatp3356
Rp3357
(dp3358
g17
VNP
p3359
sbatp3360
Rp3361
(dp3362
g17
VPP
p3363
sbag5
(g6
g7
(lp3364
g5
(g6
g7
(lp3365
Vif
p3366
atp3367
Rp3368
(dp3369
g17
VIN
p3370
sbag5
(g6
g7
(lp3371
g5
(g6
g7
(lp3372
g5
(g6
g7
(lp3373
Vevery
p3374
atp3375
Rp3376
(dp3377
g17
VDT
p3378
sbag5
(g6
g7
(lp3379
Vnode
p3380
atp3381
Rp3382
(dp3383
g17
VNN
p3384
sbatp3385
Rp3386
(dp3387
g17
VNP
p3388
sbag5
(g6
g7
(lp3389
g5
(g6
g7
(lp3390
Vcan
p3391
atp3392
Rp3393
(dp3394
g17
VMD
p3395
sbag5
(g6
g7
(lp3396
g5
(g6
g7
(lp3397
Vgenerously
p3398
atp3399
Rp3400
(dp3401
g17
VRB
p3402
sbatp3403
Rp3404
(dp3405
g17
VADVP
p3406
sbag5
(g6
g7
(lp3407
g5
(g6
g7
(lp3408
Vcontribute
p3409
atp3410
Rp3411
(dp3412
g17
VVB
p3413
sbag5
(g6
g7
(lp3414
g5
(g6
g7
(lp3415
Vknowledge
p3416
atp3417
Rp3418
(dp3419
g17
VNN
p3420
sbatp3421
Rp3422
(dp3423
g17
VNP
p3424
sbatp3425
Rp3426
(dp3427
g17
VVP
p3428
sbatp3429
Rp3430
(dp3431
g17
VVP
p3432
sbatp3433
Rp3434
(dp3435
g17
g203
sbatp3436
Rp3437
(dp3438
g17
VSBAR
p3439
sbatp3440
Rp3441
(dp3442
g17
VVP
p3443
sbatp3444
Rp3445
(dp3446
g17
VVP
p3447
sbag5
(g6
g7
(lp3448
g235
atp3449
Rp3450
(dp3451
g17
g235
sbatp3452
Rp3453
(dp3454
g17
g203
sbatp3455
Rp3456
(dp3457
g17
VROOT
p3458
sbasg246
(icmyPackage
CorE
p3459
(dp3460
g249
(lp3461
(I0
I7
tp3462
a(I0
I13
tp3463
asg253
g5
(g6
g7
(lp3464
g3434
ag3450
atp3465
Rp3466
(dp3467
g17
g264
sbsbsg254
(icmyPackage
CorE
p3468
(dp3469
g249
(lp3470
(I0
I0
tp3471
a(I0
I5
tp3472
asg253
g5
(g6
g7
(lp3473
g3319
ag3326
ag3333
ag3361
atp3474
Rp3475
(dp3476
g17
g264
sbsbsg265
g1920
sg286
(lp3477
(icmyPackage
Sent
p3478
(dp3479
g290
I3
sg291
I28
sg292
S'Everyone can benefit from the community if every node can generously contribute knowledge.'
p3480
sg294
I0
sg295
I72
sg253
(lp3481
g3456
asbasba(icmyPackage
CELink
p3482
(dp3483
g3
(lp3484
g5
(g6
g7
(lp3485
g5
(g6
g7
(lp3486
g5
(g6
g7
(lp3487
g5
(g6
g7
(lp3488
g5
(g6
g7
(lp3489
VEncouraging
p3490
atp3491
Rp3492
(dp3493
g17
VVBG
p3494
sbag5
(g6
g7
(lp3495
g5
(g6
g7
(lp3496
Vunselfish
p3497
atp3498
Rp3499
(dp3500
g17
VJJ
p3501
sbag5
(g6
g7
(lp3502
Vcooperation
p3503
atp3504
Rp3505
(dp3506
g17
VNN
p3507
sbatp3508
Rp3509
(dp3510
g17
VNP
p3511
sbatp3512
Rp3513
(dp3514
g17
VVP
p3515
sbatp3516
Rp3517
(dp3518
g17
g203
sbag5
(g6
g7
(lp3519
g5
(g6
g7
(lp3520
Vis
p3521
atp3522
Rp3523
(dp3524
g17
VVBZ
p3525
sbag5
(g6
g7
(lp3526
g5
(g6
g7
(lp3527
g5
(g6
g7
(lp3528
Vanother
p3529
atp3530
Rp3531
(dp3532
g17
VDT
p3533
sbag5
(g6
g7
(lp3534
Vstrategy
p3535
atp3536
Rp3537
(dp3538
g17
VNN
p3539
sbatp3540
Rp3541
(dp3542
g17
VNP
p3543
sbag5
(g6
g7
(lp3544
g5
(g6
g7
(lp3545
g5
(g6
g7
(lp3546
Vthat
p3547
atp3548
Rp3549
(dp3550
g17
VWDT
p3551
sbatp3552
Rp3553
(dp3554
g17
VWHNP
p3555
sbag5
(g6
g7
(lp3556
g5
(g6
g7
(lp3557
g5
(g6
g7
(lp3558
Vhelps
p3559
atp3560
Rp3561
(dp3562
g17
VVBZ
p3563
sbag5
(g6
g7
(lp3564
g5
(g6
g7
(lp3565
g5
(g6
g7
(lp3566
g355
atp3567
Rp3568
(dp3569
g17
VDT
p3570
sbag5
(g6
g7
(lp3571
Vknowledge
p3572
atp3573
Rp3574
(dp3575
g17
VNN
p3576
sbag5
(g6
g7
(lp3577
Vflow
p3578
atp3579
Rp3580
(dp3581
g17
VNN
p3582
sbag5
(g6
g7
(lp3583
Vnetwork
p3584
atp3585
Rp3586
(dp3587
g17
VNN
p3588
sbatp3589
Rp3590
(dp3591
g17
VNP
p3592
sbag5
(g6
g7
(lp3593
g5
(g6
g7
(lp3594
Vreach
p3595
atp3596
Rp3597
(dp3598
g17
VVB
p3599
sbag5
(g6
g7
(lp3600
g5
(g6
g7
(lp3601
Vits
p3602
atp3603
Rp3604
(dp3605
g17
VPRP$
p3606
sbag5
(g6
g7
(lp3607
Vgreatest
p3608
atp3609
Rp3610
(dp3611
g17
VJJS
p3612
sbag5
(g6
g7
(lp3613
Veffectiveness
p3614
atp3615
Rp3616
(dp3617
g17
VNN
p3618
sbatp3619
Rp3620
(dp3621
g17
VNP
p3622
sbatp3623
Rp3624
(dp3625
g17
VVP
p3626
sbatp3627
Rp3628
(dp3629
g17
g203
sbatp3630
Rp3631
(dp3632
g17
VVP
p3633
sbatp3634
Rp3635
(dp3636
g17
g203
sbatp3637
Rp3638
(dp3639
g17
VSBAR
p3640
sbatp3641
Rp3642
(dp3643
g17
VNP
p3644
sbatp3645
Rp3646
(dp3647
g17
VVP
p3648
sbag5
(g6
g7
(lp3649
g235
atp3650
Rp3651
(dp3652
g17
g235
sbatp3653
Rp3654
(dp3655
g17
g203
sbatp3656
Rp3657
(dp3658
g17
VROOT
p3659
sbasg246
(icmyPackage
CorE
p3660
(dp3661
g249
(lp3662
(I0
I6
tp3663
a(I0
I16
tp3664
asg253
g5
(g6
g7
(lp3665
g3638
ag3651
atp3666
Rp3667
(dp3668
g17
g264
sbsbsg254
(icmyPackage
CorE
p3669
(dp3670
g249
(lp3671
(I0
I0
tp3672
a(I0
I2
tp3673
asg253
g3517
sbsg265
(icmyPackage
pattern
p3674
(dp3675
g268
I1
sg269
I0
sg270
(lp3676
(lp3677
S'strategy'
p3678
aasg274
(lp3679
I4
aI1
aI2
asg276
(lp3680
S'Encouraging unselfish cooperation is another strategy that helps a knowledge flow network reach its greatest effectiveness.'
p3681
asg279
I107
sg280
(lp3682
(lp3683
S'&V-ing/&NP@R@'
p3684
aS'&BE'
p3685
aS'(&OF)'
p3686
aS'&ONE'
p3687
aa(lp3688
S'&C'
p3689
aasbsg286
(lp3690
(icmyPackage
Sent
p3691
(dp3692
g290
I3
sg291
I28
sg292
S'Encouraging unselfish cooperation is another strategy that helps a knowledge flow network reach its greatest effectiveness.'
p3693
sg294
I0
sg295
I73
sg253
(lp3694
g3657
asbasba(icmyPackage
CELink
p3695
(dp3696
g3
(lp3697
g5
(g6
g7
(lp3698
g5
(g6
g7
(lp3699
g5
(g6
g7
(lp3700
g5
(g6
g7
(lp3701
V-LRB-
p3702
atp3703
Rp3704
(dp3705
g17
V-LRB-
p3706
sbag5
(g6
g7
(lp3707
V1
p3708
atp3709
Rp3710
(dp3711
g17
VLS
p3712
sbag5
(g6
g7
(lp3713
V-RRB-
p3714
atp3715
Rp3716
(dp3717
g17
V-RRB-
p3718
sbatp3719
Rp3720
(dp3721
g17
VLST
p3722
sbag5
(g6
g7
(lp3723
g5
(g6
g7
(lp3724
VA
p3725
atp3726
Rp3727
(dp3728
g17
VDT
p3729
sbag5
(g6
g7
(lp3730
Vrising
p3731
atp3732
Rp3733
(dp3734
g17
VJJ
p3735
sbag5
(g6
g7
(lp3736
Vspiral
p3737
atp3738
Rp3739
(dp3740
g17
VNN
p3741
sbatp3742
Rp3743
(dp3744
g17
VNP
p3745
sbag5
(g6
g7
(lp3746
g5
(g6
g7
(lp3747
Vhas
p3748
atp3749
Rp3750
(dp3751
g17
VVBZ
p3752
sbag5
(g6
g7
(lp3753
g5
(g6
g7
(lp3754
g5
(g6
g7
(lp3755
Van
p3756
atp3757
Rp3758
(dp3759
g17
VDT
p3760
sbag5
(g6
g7
(lp3761
Vincreasing
p3762
atp3763
Rp3764
(dp3765
g17
VVBG
p3766
sbag5
(g6
g7
(lp3767
Vrate
p3768
atp3769
Rp3770
(dp3771
g17
VNN
p3772
sbatp3773
Rp3774
(dp3775
g17
VNP
p3776
sbag5
(g6
g7
(lp3777
g5
(g6
g7
(lp3778
Vof
p3779
atp3780
Rp3781
(dp3782
g17
VIN
p3783
sbag5
(g6
g7
(lp3784
g5
(g6
g7
(lp3785
g5
(g6
g7
(lp3786
Vcitations
p3787
atp3788
Rp3789
(dp3790
g17
VNNS
p3791
sbatp3792
Rp3793
(dp3794
g17
VNP
p3795
sbag5
(g6
g7
(lp3796
g5
(g6
g7
(lp3797
Vover
p3798
atp3799
Rp3800
(dp3801
g17
VIN
p3802
sbag5
(g6
g7
(lp3803
g5
(g6
g7
(lp3804
Vtime
p3805
atp3806
Rp3807
(dp3808
g17
VNN
p3809
sbatp3810
Rp3811
(dp3812
g17
VNP
p3813
sbatp3814
Rp3815
(dp3816
g17
VPP
p3817
sbatp3818
Rp3819
(dp3820
g17
VNP
p3821
sbatp3822
Rp3823
(dp3824
g17
VPP
p3825
sbatp3826
Rp3827
(dp3828
g17
VNP
p3829
sbatp3830
Rp3831
(dp3832
g17
VVP
p3833
sbag5
(g6
g7
(lp3834
g235
atp3835
Rp3836
(dp3837
g17
g235
sbatp3838
Rp3839
(dp3840
g17
g203
sbatp3841
Rp3842
(dp3843
g17
VROOT
p3844
sbag5
(g6
g7
(lp3845
g5
(g6
g7
(lp3846
g5
(g6
g7
(lp3847
g5
(g6
g7
(lp3848
VThis
p3849
atp3850
Rp3851
(dp3852
g17
VDT
p3853
sbatp3854
Rp3855
(dp3856
g17
VNP
p3857
sbag5
(g6
g7
(lp3858
g5
(g6
g7
(lp3859
Vimplies
p3860
atp3861
Rp3862
(dp3863
g17
VVBZ
p3864
sbag5
(g6
g7
(lp3865
g5
(g6
g7
(lp3866
g5
(g6
g7
(lp3867
g355
atp3868
Rp3869
(dp3870
g17
VDT
p3871
sbag5
(g6
g7
(lp3872
Vrising
p3873
atp3874
Rp3875
(dp3876
g17
VVBG
p3877
sbag5
(g6
g7
(lp3878
Vresearch
p3879
atp3880
Rp3881
(dp3882
g17
VNN
p3883
sbag5
(g6
g7
(lp3884
Vgroup
p3885
atp3886
Rp3887
(dp3888
g17
VNN
p3889
sbatp3890
Rp3891
(dp3892
g17
VNP
p3893
sbag5
(g6
g7
(lp3894
Vor
p3895
atp3896
Rp3897
(dp3898
g17
VCC
p3899
sbag5
(g6
g7
(lp3900
g5
(g6
g7
(lp3901
Vcommunity
p3902
atp3903
Rp3904
(dp3905
g17
VNN
p3906
sbatp3907
Rp3908
(dp3909
g17
VNP
p3910
sbatp3911
Rp3912
(dp3913
g17
VNP
p3914
sbatp3915
Rp3916
(dp3917
g17
VVP
p3918
sbag5
(g6
g7
(lp3919
g235
atp3920
Rp3921
(dp3922
g17
g235
sbatp3923
Rp3924
(dp3925
g17
g203
sbatp3926
Rp3927
(dp3928
g17
VROOT
p3929
sbasg246
(icmyPackage
CorE
p3930
(dp3931
g249
(lp3932
(I0
I0
tp3933
a(I0
I13
tp3934
asg253
g5
(g6
g7
(lp3935
g3720
ag3743
ag3831
atp3936
Rp3937
(dp3938
g17
g264
sbsbsg254
(icmyPackage
CorE
p3939
(dp3940
g249
(lp3941
(I1
I2
tp3942
a(I1
I7
tp3943
asg253
g3912
sbsg265
(icmyPackage
pattern
p3944
(dp3945
g268
I0
sg269
I1
sg270
(lp3946
(lp3947
(lp3948
S'imply'
p3949
aS'implies'
p3950
aS'implied'
p3951
aS'mean'
p3952
aS'means'
p3953
aS'indicate'
p3954
aS'indicates'
p3955
aS'indicated'
p3956
aaasg274
(lp3957
I4
aI1
aI1
asg276
(lp3958
S' A little interaction helps a lot in understanding since interactions enable individuals to co-experience in multiple spaces. This implies an approach to improving the current research in many areas such as the semantic web, natural language processing, and text understanding by adding a little interaction.'
p3959
asg279
I94
sg280
(lp3960
(lp3961
S'&C'
p3962
aS'(,/./;/--)'
p3963
aS'&this'
p3964
aS'(&adj)'
p3965
aS'(&N)'
p3966
aS'(&CAN/have/has/had)'
p3967
aS'(&ADV)'
p3968
aa(lp3969
S'&NP@R@'
p3970
aasbsg286
(lp3971
(icmyPackage
Sent
p3972
(dp3973
g290
I3
sg291
I30
sg292
S'(1) A rising spiral has an increasing rate of citations over time.'
p3974
sg294
I0
sg295
I76
sg253
(lp3975
g3842
asba(icmyPackage
Sent
p3976
(dp3977
g290
I3
sg291
I30
sg292
S'This implies a rising research group or community.'
p3978
sg294
I0
sg295
I77
sg253
(lp3979
g3927
asbasba(icmyPackage
CELink
p3980
(dp3981
g3
(lp3982
g5
(g6
g7
(lp3983
g5
(g6
g7
(lp3984
g5
(g6
g7
(lp3985
g5
(g6
g7
(lp3986
VIn
p3987
atp3988
Rp3989
(dp3990
g17
VIN
p3991
sbag5
(g6
g7
(lp3992
g5
(g6
g7
(lp3993
Vcontrast
p3994
atp3995
Rp3996
(dp3997
g17
VNN
p3998
sbatp3999
Rp4000
(dp4001
g17
VNP
p4002
sbatp4003
Rp4004
(dp4005
g17
VPP
p4006
sbag5
(g6
g7
(lp4007
g48
atp4008
Rp4009
(dp4010
g17
g48
sbag5
(g6
g7
(lp4011
g5
(g6
g7
(lp4012
g355
atp4013
Rp4014
(dp4015
g17
VDT
p4016
sbag5
(g6
g7
(lp4017
Vdescending
p4018
atp4019
Rp4020
(dp4021
g17
VVBG
p4022
sbag5
(g6
g7
(lp4023
Vspiral
p4024
atp4025
Rp4026
(dp4027
g17
VNN
p4028
sbatp4029
Rp4030
(dp4031
g17
VNP
p4032
sbag5
(g6
g7
(lp4033
g5
(g6
g7
(lp4034
Vhas
p4035
atp4036
Rp4037
(dp4038
g17
VVBZ
p4039
sbag5
(g6
g7
(lp4040
g5
(g6
g7
(lp4041
g5
(g6
g7
(lp4042
g355
atp4043
Rp4044
(dp4045
g17
VDT
p4046
sbag5
(g6
g7
(lp4047
Vdecreasing
p4048
atp4049
Rp4050
(dp4051
g17
VVBG
p4052
sbag5
(g6
g7
(lp4053
Vrate
p4054
atp4055
Rp4056
(dp4057
g17
VNN
p4058
sbatp4059
Rp4060
(dp4061
g17
VNP
p4062
sbag5
(g6
g7
(lp4063
g5
(g6
g7
(lp4064
Vof
p4065
atp4066
Rp4067
(dp4068
g17
VIN
p4069
sbag5
(g6
g7
(lp4070
g5
(g6
g7
(lp4071
Vcitations
p4072
atp4073
Rp4074
(dp4075
g17
VNNS
p4076
sbatp4077
Rp4078
(dp4079
g17
VNP
p4080
sbatp4081
Rp4082
(dp4083
g17
VPP
p4084
sbatp4085
Rp4086
(dp4087
g17
VNP
p4088
sbatp4089
Rp4090
(dp4091
g17
VVP
p4092
sbag5
(g6
g7
(lp4093
g235
atp4094
Rp4095
(dp4096
g17
g235
sbatp4097
Rp4098
(dp4099
g17
g203
sbatp4100
Rp4101
(dp4102
g17
VROOT
p4103
sbag5
(g6
g7
(lp4104
g5
(g6
g7
(lp4105
g5
(g6
g7
(lp4106
g5
(g6
g7
(lp4107
VThis
p4108
atp4109
Rp4110
(dp4111
g17
VDT
p4112
sbatp4113
Rp4114
(dp4115
g17
VNP
p4116
sbag5
(g6
g7
(lp4117
g5
(g6
g7
(lp4118
Vimplies
p4119
atp4120
Rp4121
(dp4122
g17
VVBZ
p4123
sbag5
(g6
g7
(lp4124
g5
(g6
g7
(lp4125
g5
(g6
g7
(lp4126
g355
atp4127
Rp4128
(dp4129
g17
VDT
p4130
sbag5
(g6
g7
(lp4131
Vdeclining
p4132
atp4133
Rp4134
(dp4135
g17
VVBG
p4136
sbag5
(g6
g7
(lp4137
Vresearch
p4138
atp4139
Rp4140
(dp4141
g17
VNN
p4142
sbag5
(g6
g7
(lp4143
Vgroup
p4144
atp4145
Rp4146
(dp4147
g17
VNN
p4148
sbatp4149
Rp4150
(dp4151
g17
VNP
p4152
sbag5
(g6
g7
(lp4153
Vor
p4154
atp4155
Rp4156
(dp4157
g17
VCC
p4158
sbag5
(g6
g7
(lp4159
g5
(g6
g7
(lp4160
Vcommunity
p4161
atp4162
Rp4163
(dp4164
g17
VNN
p4165
sbatp4166
Rp4167
(dp4168
g17
VNP
p4169
sbatp4170
Rp4171
(dp4172
g17
VNP
p4173
sbatp4174
Rp4175
(dp4176
g17
VVP
p4177
sbag5
(g6
g7
(lp4178
g235
atp4179
Rp4180
(dp4181
g17
g235
sbatp4182
Rp4183
(dp4184
g17
g203
sbatp4185
Rp4186
(dp4187
g17
VROOT
p4188
sbasg246
(icmyPackage
CorE
p4189
(dp4190
g249
(lp4191
(I0
I0
tp4192
a(I0
I11
tp4193
asg253
g5
(g6
g7
(lp4194
g4004
ag4009
ag4030
ag4090
atp4195
Rp4196
(dp4197
g17
g264
sbsbsg254
(icmyPackage
CorE
p4198
(dp4199
g249
(lp4200
(I1
I2
tp4201
a(I1
I7
tp4202
asg253
g4171
sbsg265
g3944
sg286
(lp4203
(icmyPackage
Sent
p4204
(dp4205
g290
I3
sg291
I30
sg292
S'In contrast, a descending spiral has a decreasing rate of citations.'
p4206
sg294
I0
sg295
I78
sg253
(lp4207
g4101
asba(icmyPackage
Sent
p4208
(dp4209
g290
I3
sg291
I30
sg292
S'This implies a declining research group or community.'
p4210
sg294
I0
sg295
I79
sg253
(lp4211
g4186
asbasba(icmyPackage
CELink
p4212
(dp4213
g3
(lp4214
g5
(g6
g7
(lp4215
g5
(g6
g7
(lp4216
g5
(g6
g7
(lp4217
g5
(g6
g7
(lp4218
V-LRB-
p4219
atp4220
Rp4221
(dp4222
g17
V-LRB-
p4223
sbag5
(g6
g7
(lp4224
V2
p4225
atp4226
Rp4227
(dp4228
g17
VLS
p4229
sbag5
(g6
g7
(lp4230
V-RRB-
p4231
atp4232
Rp4233
(dp4234
g17
V-RRB-
p4235
sbatp4236
Rp4237
(dp4238
g17
VLST
p4239
sbag5
(g6
g7
(lp4240
g5
(g6
g7
(lp4241
g5
(g6
g7
(lp4242
g3725
atp4243
Rp4244
(dp4245
g17
VNNP
p4246
sbatp4247
Rp4248
(dp4249
g17
VNP
p4250
sbag5
(g6
g7
(lp4251
g5
(g6
g7
(lp4252
Vrising
p4253
atp4254
Rp4255
(dp4256
g17
VVBG
p4257
sbag5
(g6
g7
(lp4258
Vand
p4259
atp4260
Rp4261
(dp4262
g17
VCC
p4263
sbag5
(g6
g7
(lp4264
Vexpanding
p4265
atp4266
Rp4267
(dp4268
g17
VVBG
p4269
sbag5
(g6
g7
(lp4270
g5
(g6
g7
(lp4271
Vspiral
p4272
atp4273
Rp4274
(dp4275
g17
VNN
p4276
sbatp4277
Rp4278
(dp4279
g17
VNP
p4280
sbatp4281
Rp4282
(dp4283
g17
VVP
p4284
sbatp4285
Rp4286
(dp4287
g17
VNP
p4288
sbag5
(g6
g7
(lp4289
g5
(g6
g7
(lp4290
Vis
p4291
atp4292
Rp4293
(dp4294
g17
VVBZ
p4295
sbag5
(g6
g7
(lp4296
g5
(g6
g7
(lp4297
g5
(g6
g7
(lp4298
g355
atp4299
Rp4300
(dp4301
g17
VDT
p4302
sbag5
(g6
g7
(lp4303
Vrising
p4304
atp4305
Rp4306
(dp4307
g17
VVBG
p4308
sbag5
(g6
g7
(lp4309
Vspiral
p4310
atp4311
Rp4312
(dp4313
g17
VNN
p4314
sbatp4315
Rp4316
(dp4317
g17
VNP
p4318
sbag5
(g6
g7
(lp4319
g5
(g6
g7
(lp4320
g5
(g6
g7
(lp4321
Vthat
p4322
atp4323
Rp4324
(dp4325
g17
VWDT
p4326
sbatp4327
Rp4328
(dp4329
g17
VWHNP
p4330
sbag5
(g6
g7
(lp4331
g5
(g6
g7
(lp4332
g5
(g6
g7
(lp4333
Vincludes
p4334
atp4335
Rp4336
(dp4337
g17
VVBZ
p4338
sbag5
(g6
g7
(lp4339
g5
(g6
g7
(lp4340
g5
(g6
g7
(lp4341
Van
p4342
atp4343
Rp4344
(dp4345
g17
VDT
p4346
sbag5
(g6
g7
(lp4347
Vincreasing
p4348
atp4349
Rp4350
(dp4351
g17
VVBG
p4352
sbag5
(g6
g7
(lp4353
Vnumber
p4354
atp4355
Rp4356
(dp4357
g17
VNN
p4358
sbatp4359
Rp4360
(dp4361
g17
VNP
p4362
sbag5
(g6
g7
(lp4363
g5
(g6
g7
(lp4364
Vof
p4365
atp4366
Rp4367
(dp4368
g17
VIN
p4369
sbag5
(g6
g7
(lp4370
g5
(g6
g7
(lp4371
g5
(g6
g7
(lp4372
Vauthors
p4373
atp4374
Rp4375
(dp4376
g17
VNNS
p4377
sbatp4378
Rp4379
(dp4380
g17
VNP
p4381
sbag5
(g6
g7
(lp4382
g5
(g6
g7
(lp4383
Vover
p4384
atp4385
Rp4386
(dp4387
g17
VIN
p4388
sbag5
(g6
g7
(lp4389
g5
(g6
g7
(lp4390
Vtime
p4391
atp4392
Rp4393
(dp4394
g17
VNN
p4395
sbatp4396
Rp4397
(dp4398
g17
VNP
p4399
sbatp4400
Rp4401
(dp4402
g17
VPP
p4403
sbatp4404
Rp4405
(dp4406
g17
VNP
p4407
sbatp4408
Rp4409
(dp4410
g17
VPP
p4411
sbatp4412
Rp4413
(dp4414
g17
VNP
p4415
sbatp4416
Rp4417
(dp4418
g17
VVP
p4419
sbatp4420
Rp4421
(dp4422
g17
g203
sbatp4423
Rp4424
(dp4425
g17
VSBAR
p4426
sbatp4427
Rp4428
(dp4429
g17
VNP
p4430
sbatp4431
Rp4432
(dp4433
g17
VVP
p4434
sbag5
(g6
g7
(lp4435
g235
atp4436
Rp4437
(dp4438
g17
g235
sbatp4439
Rp4440
(dp4441
g17
g203
sbatp4442
Rp4443
(dp4444
g17
VROOT
p4445
sbag5
(g6
g7
(lp4446
g5
(g6
g7
(lp4447
g5
(g6
g7
(lp4448
g5
(g6
g7
(lp4449
VThis
p4450
atp4451
Rp4452
(dp4453
g17
VDT
p4454
sbatp4455
Rp4456
(dp4457
g17
VNP
p4458
sbag5
(g6
g7
(lp4459
g5
(g6
g7
(lp4460
Vimplies
p4461
atp4462
Rp4463
(dp4464
g17
VVBZ
p4465
sbag5
(g6
g7
(lp4466
g5
(g6
g7
(lp4467
g5
(g6
g7
(lp4468
g355
atp4469
Rp4470
(dp4471
g17
VDT
p4472
sbag5
(g6
g7
(lp4473
Vrising
p4474
atp4475
Rp4476
(dp4477
g17
VVBG
p4478
sbatp4479
Rp4480
(dp4481
g17
VNP
p4482
sbag5
(g6
g7
(lp4483
Vand
p4484
atp4485
Rp4486
(dp4487
g17
VCC
p4488
sbag5
(g6
g7
(lp4489
g5
(g6
g7
(lp4490
Vexpanding
p4491
atp4492
Rp4493
(dp4494
g17
VVBG
p4495
sbag5
(g6
g7
(lp4496
Vresearch
p4497
atp4498
Rp4499
(dp4500
g17
VNN
p4501
sbatp4502
Rp4503
(dp4504
g17
VNP
p4505
sbag5
(g6
g7
(lp4506
g5
(g6
g7
(lp4507
g5
(g6
g7
(lp4508
Vgroup
p4509
atp4510
Rp4511
(dp4512
g17
VNN
p4513
sbatp4514
Rp4515
(dp4516
g17
VNX
p4517
sbag5
(g6
g7
(lp4518
Vor
p4519
atp4520
Rp4521
(dp4522
g17
VCC
p4523
sbag5
(g6
g7
(lp4524
g5
(g6
g7
(lp4525
Vcommunity
p4526
atp4527
Rp4528
(dp4529
g17
VNN
p4530
sbatp4531
Rp4532
(dp4533
g17
VNX
p4534
sbatp4535
Rp4536
(dp4537
g17
VNX
p4538
sbatp4539
Rp4540
(dp4541
g17
VNP
p4542
sbatp4543
Rp4544
(dp4545
g17
VVP
p4546
sbag5
(g6
g7
(lp4547
g235
atp4548
Rp4549
(dp4550
g17
g235
sbatp4551
Rp4552
(dp4553
g17
g203
sbatp4554
Rp4555
(dp4556
g17
VROOT
p4557
sbasg246
(icmyPackage
CorE
p4558
(dp4559
g249
(lp4560
(I0
I0
tp4561
a(I0
I20
tp4562
asg253
g5
(g6
g7
(lp4563
g4237
ag4286
ag4432
atp4564
Rp4565
(dp4566
g17
g264
sbsbsg254
(icmyPackage
CorE
p4567
(dp4568
g249
(lp4569
(I1
I2
tp4570
a(I1
I9
tp4571
asg253
g4540
sbsg265
g3944
sg286
(lp4572
(icmyPackage
Sent
p4573
(dp4574
g290
I3
sg291
I31
sg292
S'(2) A rising and expanding spiral is a rising spiral that includes an increasing number of authors over time.'
p4575
sg294
I0
sg295
I80
sg253
(lp4576
g4443
asba(icmyPackage
Sent
p4577
(dp4578
g290
I3
sg291
I31
sg292
S'This implies a rising and expanding research group or community.'
p4579
sg294
I0
sg295
I81
sg253
(lp4580
g4555
asbasba(icmyPackage
CELink
p4581
(dp4582
g3
(lp4583
g5
(g6
g7
(lp4584
g5
(g6
g7
(lp4585
g5
(g6
g7
(lp4586
g5
(g6
g7
(lp4587
V-LRB-
p4588
atp4589
Rp4590
(dp4591
g17
V-LRB-
p4592
sbag5
(g6
g7
(lp4593
V3
p4594
atp4595
Rp4596
(dp4597
g17
VLS
p4598
sbag5
(g6
g7
(lp4599
V-RRB-
p4600
atp4601
Rp4602
(dp4603
g17
V-RRB-
p4604
sbatp4605
Rp4606
(dp4607
g17
VLST
p4608
sbag5
(g6
g7
(lp4609
g5
(g6
g7
(lp4610
g3725
atp4611
Rp4612
(dp4613
g17
VDT
p4614
sbag5
(g6
g7
(lp4615
g5
(g6
g7
(lp4616
Vfalling
p4617
atp4618
Rp4619
(dp4620
g17
VVBG
p4621
sbag5
(g6
g7
(lp4622
Vand
p4623
atp4624
Rp4625
(dp4626
g17
VCC
p4627
sbag5
(g6
g7
(lp4628
Vshrinking
p4629
atp4630
Rp4631
(dp4632
g17
VJJ
p4633
sbatp4634
Rp4635
(dp4636
g17
VADJP
p4637
sbag5
(g6
g7
(lp4638
Vspiral
p4639
atp4640
Rp4641
(dp4642
g17
VNN
p4643
sbatp4644
Rp4645
(dp4646
g17
VNP
p4647
sbag5
(g6
g7
(lp4648
g5
(g6
g7
(lp4649
Vis
p4650
atp4651
Rp4652
(dp4653
g17
VVBZ
p4654
sbag5
(g6
g7
(lp4655
g5
(g6
g7
(lp4656
g5
(g6
g7
(lp4657
g355
atp4658
Rp4659
(dp4660
g17
VDT
p4661
sbag5
(g6
g7
(lp4662
Vdescending
p4663
atp4664
Rp4665
(dp4666
g17
VVBG
p4667
sbag5
(g6
g7
(lp4668
Vspiral
p4669
atp4670
Rp4671
(dp4672
g17
VNN
p4673
sbatp4674
Rp4675
(dp4676
g17
VNP
p4677
sbag5
(g6
g7
(lp4678
g5
(g6
g7
(lp4679
g5
(g6
g7
(lp4680
Vthat
p4681
atp4682
Rp4683
(dp4684
g17
VWDT
p4685
sbatp4686
Rp4687
(dp4688
g17
VWHNP
p4689
sbag5
(g6
g7
(lp4690
g5
(g6
g7
(lp4691
g5
(g6
g7
(lp4692
Vis
p4693
atp4694
Rp4695
(dp4696
g17
VVBZ
p4697
sbag5
(g6
g7
(lp4698
g5
(g6
g7
(lp4699
Vlosing
p4700
atp4701
Rp4702
(dp4703
g17
VVBG
p4704
sbag5
(g6
g7
(lp4705
g5
(g6
g7
(lp4706
Vauthors
p4707
atp4708
Rp4709
(dp4710
g17
VNNS
p4711
sbatp4712
Rp4713
(dp4714
g17
VNP
p4715
sbatp4716
Rp4717
(dp4718
g17
VVP
p4719
sbatp4720
Rp4721
(dp4722
g17
VVP
p4723
sbatp4724
Rp4725
(dp4726
g17
g203
sbatp4727
Rp4728
(dp4729
g17
VSBAR
p4730
sbatp4731
Rp4732
(dp4733
g17
VNP
p4734
sbatp4735
Rp4736
(dp4737
g17
VVP
p4738
sbag5
(g6
g7
(lp4739
g235
atp4740
Rp4741
(dp4742
g17
g235
sbatp4743
Rp4744
(dp4745
g17
g203
sbatp4746
Rp4747
(dp4748
g17
VROOT
p4749
sbag5
(g6
g7
(lp4750
g5
(g6
g7
(lp4751
g5
(g6
g7
(lp4752
g5
(g6
g7
(lp4753
VThis
p4754
atp4755
Rp4756
(dp4757
g17
VDT
p4758
sbatp4759
Rp4760
(dp4761
g17
VNP
p4762
sbag5
(g6
g7
(lp4763
g5
(g6
g7
(lp4764
Vimplies
p4765
atp4766
Rp4767
(dp4768
g17
VVBZ
p4769
sbag5
(g6
g7
(lp4770
g5
(g6
g7
(lp4771
g5
(g6
g7
(lp4772
g355
atp4773
Rp4774
(dp4775
g17
VDT
p4776
sbag5
(g6
g7
(lp4777
Vdeclining
p4778
atp4779
Rp4780
(dp4781
g17
VVBG
p4782
sbag5
(g6
g7
(lp4783
Vand
p4784
atp4785
Rp4786
(dp4787
g17
VCC
p4788
sbag5
(g6
g7
(lp4789
Vshrinking
p4790
atp4791
Rp4792
(dp4793
g17
VVBG
p4794
sbag5
(g6
g7
(lp4795
Vgroup
p4796
atp4797
Rp4798
(dp4799
g17
VNN
p4800
sbatp4801
Rp4802
(dp4803
g17
VNP
p4804
sbag5
(g6
g7
(lp4805
Vor
p4806
atp4807
Rp4808
(dp4809
g17
VCC
p4810
sbag5
(g6
g7
(lp4811
g5
(g6
g7
(lp4812
Vcommunity
p4813
atp4814
Rp4815
(dp4816
g17
VNN
p4817
sbatp4818
Rp4819
(dp4820
g17
VNP
p4821
sbatp4822
Rp4823
(dp4824
g17
VNP
p4825
sbatp4826
Rp4827
(dp4828
g17
VVP
p4829
sbag5
(g6
g7
(lp4830
g235
atp4831
Rp4832
(dp4833
g17
g235
sbatp4834
Rp4835
(dp4836
g17
g203
sbatp4837
Rp4838
(dp4839
g17
VROOT
p4840
sbasg246
(icmyPackage
CorE
p4841
(dp4842
g249
(lp4843
(I0
I0
tp4844
a(I0
I15
tp4845
asg253
g5
(g6
g7
(lp4846
g4606
ag4645
ag4736
atp4847
Rp4848
(dp4849
g17
g264
sbsbsg254
(icmyPackage
CorE
p4850
(dp4851
g249
(lp4852
(I1
I2
tp4853
a(I1
I8
tp4854
asg253
g4823
sbsg265
g3944
sg286
(lp4855
(icmyPackage
Sent
p4856
(dp4857
g290
I3
sg291
I32
sg292
S'(3) A falling and shrinking spiral is a descending spiral that is losing authors.'
p4858
sg294
I0
sg295
I82
sg253
(lp4859
g4747
asba(icmyPackage
Sent
p4860
(dp4861
g290
I3
sg291
I32
sg292
S'This implies a declining and shrinking group or community.'
p4862
sg294
I0
sg295
I83
sg253
(lp4863
g4838
asbasba(icmyPackage
CELink
p4864
(dp4865
g3
(lp4866
g5
(g6
g7
(lp4867
g5
(g6
g7
(lp4868
g5
(g6
g7
(lp4869
g5
(g6
g7
(lp4870
V-LRB-
p4871
atp4872
Rp4873
(dp4874
g17
V-LRB-
p4875
sbag5
(g6
g7
(lp4876
V4
p4877
atp4878
Rp4879
(dp4880
g17
VLS
p4881
sbag5
(g6
g7
(lp4882
V-RRB-
p4883
atp4884
Rp4885
(dp4886
g17
V-RRB-
p4887
sbatp4888
Rp4889
(dp4890
g17
VLST
p4891
sbag5
(g6
g7
(lp4892
g5
(g6
g7
(lp4893
VAn
p4894
atp4895
Rp4896
(dp4897
g17
VDT
p4898
sbag5
(g6
g7
(lp4899
Vauthoritative
p4900
atp4901
Rp4902
(dp4903
g17
VJJ
p4904
sbag5
(g6
g7
(lp4905
Vspiral
p4906
atp4907
Rp4908
(dp4909
g17
VNN
p4910
sbatp4911
Rp4912
(dp4913
g17
VNP
p4914
sbag5
(g6
g7
(lp4915
g5
(g6
g7
(lp4916
Vrequires
p4917
atp4918
Rp4919
(dp4920
g17
VVBZ
p4921
sbag5
(g6
g7
(lp4922
g5
(g6
g7
(lp4923
Vthat
p4924
atp4925
Rp4926
(dp4927
g17
VIN
p4928
sbag5
(g6
g7
(lp4929
g5
(g6
g7
(lp4930
g5
(g6
g7
(lp4931
Vall
p4932
atp4933
Rp4934
(dp4935
g17
VPDT
p4936
sbag5
(g6
g7
(lp4937
Vits
p4938
atp4939
Rp4940
(dp4941
g17
VPRP$
p4942
sbag5
(g6
g7
(lp4943
Vnodes
p4944
atp4945
Rp4946
(dp4947
g17
VNNS
p4948
sbatp4949
Rp4950
(dp4951
g17
VNP
p4952
sbag5
(g6
g7
(lp4953
g5
(g6
g7
(lp4954
Vremain
p4955
atp4956
Rp4957
(dp4958
g17
VVBP
p4959
sbag5
(g6
g7
(lp4960
g5
(g6
g7
(lp4961
Vauthoritative
p4962
atp4963
Rp4964
(dp4965
g17
VJJ
p4966
sbatp4967
Rp4968
(dp4969
g17
VNP
p4970
sbatp4971
Rp4972
(dp4973
g17
VVP
p4974
sbatp4975
Rp4976
(dp4977
g17
g203
sbatp4978
Rp4979
(dp4980
g17
VSBAR
p4981
sbatp4982
Rp4983
(dp4984
g17
VVP
p4985
sbag5
(g6
g7
(lp4986
g235
atp4987
Rp4988
(dp4989
g17
g235
sbatp4990
Rp4991
(dp4992
g17
g203
sbatp4993
Rp4994
(dp4995
g17
VROOT
p4996
sbag5
(g6
g7
(lp4997
g5
(g6
g7
(lp4998
g5
(g6
g7
(lp4999
g5
(g6
g7
(lp5000
VThis
p5001
atp5002
Rp5003
(dp5004
g17
VDT
p5005
sbatp5006
Rp5007
(dp5008
g17
VNP
p5009
sbag5
(g6
g7
(lp5010
g5
(g6
g7
(lp5011
Vimplies
p5012
atp5013
Rp5014
(dp5015
g17
VVBZ
p5016
sbag5
(g6
g7
(lp5017
g5
(g6
g7
(lp5018
Van
p5019
atp5020
Rp5021
(dp5022
g17
VDT
p5023
sbag5
(g6
g7
(lp5024
Vauthoritative
p5025
atp5026
Rp5027
(dp5028
g17
VJJ
p5029
sbag5
(g6
g7
(lp5030
Vresearch
p5031
atp5032
Rp5033
(dp5034
g17
VNN
p5035
sbag5
(g6
g7
(lp5036
Vgroup
p5037
atp5038
Rp5039
(dp5040
g17
VNN
p5041
sbatp5042
Rp5043
(dp5044
g17
VNP
p5045
sbatp5046
Rp5047
(dp5048
g17
VVP
p5049
sbag5
(g6
g7
(lp5050
g235
atp5051
Rp5052
(dp5053
g17
g235
sbatp5054
Rp5055
(dp5056
g17
g203
sbatp5057
Rp5058
(dp5059
g17
VROOT
p5060
sbasg246
(icmyPackage
CorE
p5061
(dp5062
g249
(lp5063
(I0
I0
tp5064
a(I0
I12
tp5065
asg253
g5
(g6
g7
(lp5066
g4889
ag4912
ag4983
atp5067
Rp5068
(dp5069
g17
g264
sbsbsg254
(icmyPackage
CorE
p5070
(dp5071
g249
(lp5072
(I1
I2
tp5073
a(I1
I5
tp5074
asg253
g5043
sbsg265
g3944
sg286
(lp5075
(icmyPackage
Sent
p5076
(dp5077
g290
I3
sg291
I33
sg292
S'(4) An authoritative spiral requires that all its nodes remain authoritative.'
p5078
sg294
I0
sg295
I84
sg253
(lp5079
g4994
asba(icmyPackage
Sent
p5080
(dp5081
g290
I3
sg291
I33
sg292
S'This implies an authoritative research group.'
p5082
sg294
I0
sg295
I85
sg253
(lp5083
g5058
asbasba(icmyPackage
CELink
p5084
(dp5085
g3
(lp5086
g5
(g6
g7
(lp5087
g5
(g6
g7
(lp5088
g5
(g6
g7
(lp5089
g5
(g6
g7
(lp5090
g5
(g6
g7
(lp5091
V-LRB-
p5092
atp5093
Rp5094
(dp5095
g17
V-LRB-
p5096
sbag5
(g6
g7
(lp5097
g5
(g6
g7
(lp5098
V5
p5099
atp5100
Rp5101
(dp5102
g17
VCD
p5103
sbatp5104
Rp5105
(dp5106
g17
VNP
p5107
sbag5
(g6
g7
(lp5108
V-RRB-
p5109
atp5110
Rp5111
(dp5112
g17
V-RRB-
p5113
sbatp5114
Rp5115
(dp5116
g17
VPRN
p5117
sbag5
(g6
g7
(lp5118
g5
(g6
g7
(lp5119
g5
(g6
g7
(lp5120
VAn
p5121
atp5122
Rp5123
(dp5124
g17
VDT
p5125
sbag5
(g6
g7
(lp5126
Voriginal
p5127
atp5128
Rp5129
(dp5130
g17
VJJ
p5131
sbag5
(g6
g7
(lp5132
Vspiral
p5133
atp5134
Rp5135
(dp5136
g17
VNN
p5137
sbatp5138
Rp5139
(dp5140
g17
VNP
p5141
sbag5
(g6
g7
(lp5142
g5
(g6
g7
(lp5143
Vhas
p5144
atp5145
Rp5146
(dp5147
g17
VVBZ
p5148
sbag5
(g6
g7
(lp5149
g5
(g6
g7
(lp5150
g5
(g6
g7
(lp5151
Vat
p5152
atp5153
Rp5154
(dp5155
g17
VIN
p5156
sbag5
(g6
g7
(lp5157
Vleast
p5158
atp5159
Rp5160
(dp5161
g17
VJJS
p5162
sbag5
(g6
g7
(lp5163
Vone
p5164
atp5165
Rp5166
(dp5167
g17
VCD
p5168
sbatp5169
Rp5170
(dp5171
g17
VQP
p5172
sbag5
(g6
g7
(lp5173
Vsource
p5174
atp5175
Rp5176
(dp5177
g17
VNN
p5178
sbatp5179
Rp5180
(dp5181
g17
VNP
p5182
sbatp5183
Rp5184
(dp5185
g17
VVP
p5186
sbatp5187
Rp5188
(dp5189
g17
g203
sbatp5190
Rp5191
(dp5192
g17
VSBAR
p5193
sbag5
(g6
g7
(lp5194
g5
(g6
g7
(lp5195
Vnode
p5196
atp5197
Rp5198
(dp5199
g17
VVBP
p5200
sbatp5201
Rp5202
(dp5203
g17
VVP
p5204
sbag5
(g6
g7
(lp5205
g235
atp5206
Rp5207
(dp5208
g17
g235
sbatp5209
Rp5210
(dp5211
g17
g203
sbatp5212
Rp5213
(dp5214
g17
VROOT
p5215
sbag5
(g6
g7
(lp5216
g5
(g6
g7
(lp5217
g5
(g6
g7
(lp5218
g5
(g6
g7
(lp5219
VThis
p5220
atp5221
Rp5222
(dp5223
g17
VDT
p5224
sbatp5225
Rp5226
(dp5227
g17
VNP
p5228
sbag5
(g6
g7
(lp5229
g5
(g6
g7
(lp5230
Vimplies
p5231
atp5232
Rp5233
(dp5234
g17
VVBZ
p5235
sbag5
(g6
g7
(lp5236
g5
(g6
g7
(lp5237
g5
(g6
g7
(lp5238
Vthe
p5239
atp5240
Rp5241
(dp5242
g17
VDT
p5243
sbag5
(g6
g7
(lp5244
Vpresence
p5245
atp5246
Rp5247
(dp5248
g17
VNN
p5249
sbatp5250
Rp5251
(dp5252
g17
VNP
p5253
sbag5
(g6
g7
(lp5254
g5
(g6
g7
(lp5255
Vof
p5256
atp5257
Rp5258
(dp5259
g17
VIN
p5260
sbag5
(g6
g7
(lp5261
g5
(g6
g7
(lp5262
Van
p5263
atp5264
Rp5265
(dp5266
g17
VDT
p5267
sbag5
(g6
g7
(lp5268
Vinitiator
p5269
atp5270
Rp5271
(dp5272
g17
VNN
p5273
sbatp5274
Rp5275
(dp5276
g17
VNP
p5277
sbatp5278
Rp5279
(dp5280
g17
VPP
p5281
sbatp5282
Rp5283
(dp5284
g17
VNP
p5285
sbatp5286
Rp5287
(dp5288
g17
VVP
p5289
sbag5
(g6
g7
(lp5290
g235
atp5291
Rp5292
(dp5293
g17
g235
sbatp5294
Rp5295
(dp5296
g17
g203
sbatp5297
Rp5298
(dp5299
g17
VROOT
p5300
sbasg246
(icmyPackage
CorE
p5301
(dp5302
g249
(lp5303
(I0
I0
tp5304
a(I0
I11
tp5305
asg253
g5
(g6
g7
(lp5306
g5191
ag5202
atp5307
Rp5308
(dp5309
g17
g264
sbsbsg254
(icmyPackage
CorE
p5310
(dp5311
g249
(lp5312
(I1
I2
tp5313
a(I1
I6
tp5314
asg253
g5283
sbsg265
g3944
sg286
(lp5315
(icmyPackage
Sent
p5316
(dp5317
g290
I3
sg291
I34
sg292
S'(5) An original spiral has at least one source node.'
p5318
sg294
I0
sg295
I86
sg253
(lp5319
g5213
asba(icmyPackage
Sent
p5320
(dp5321
g290
I3
sg291
I34
sg292
S'This implies the presence of an initiator.'
p5322
sg294
I0
sg295
I87
sg253
(lp5323
g5298
asbasba(icmyPackage
CELink
p5324
(dp5325
g3
(lp5326
g5
(g6
g7
(lp5327
g5
(g6
g7
(lp5328
g5
(g6
g7
(lp5329
g5
(g6
g7
(lp5330
VScientists
p5331
atp5332
Rp5333
(dp5334
g17
VNNS
p5335
sbatp5336
Rp5337
(dp5338
g17
VNP
p5339
sbag5
(g6
g7
(lp5340
g5
(g6
g7
(lp5341
Vonly
p5342
atp5343
Rp5344
(dp5345
g17
VRB
p5346
sbatp5347
Rp5348
(dp5349
g17
VADVP
p5350
sbag5
(g6
g7
(lp5351
g5
(g6
g7
(lp5352
Vneed
p5353
atp5354
Rp5355
(dp5356
g17
VVBP
p5357
sbag5
(g6
g7
(lp5358
g5
(g6
g7
(lp5359
g5
(g6
g7
(lp5360
Vto
p5361
atp5362
Rp5363
(dp5364
g17
VTO
p5365
sbag5
(g6
g7
(lp5366
g5
(g6
g7
(lp5367
g5
(g6
g7
(lp5368
Vstart
p5369
atp5370
Rp5371
(dp5372
g17
VVB
p5373
sbag5
(g6
g7
(lp5374
g5
(g6
g7
(lp5375
Vthe
p5376
atp5377
Rp5378
(dp5379
g17
VDT
p5380
sbag5
(g6
g7
(lp5381
Venvironment
p5382
atp5383
Rp5384
(dp5385
g17
VNN
p5386
sbatp5387
Rp5388
(dp5389
g17
VNP
p5390
sbag5
(g6
g7
(lp5391
g5
(g6
g7
(lp5392
Vby
p5393
atp5394
Rp5395
(dp5396
g17
VIN
p5397
sbag5
(g6
g7
(lp5398
g5
(g6
g7
(lp5399
g5
(g6
g7
(lp5400
Vuploading
p5401
atp5402
Rp5403
(dp5404
g17
VVBG
p5405
sbag5
(g6
g7
(lp5406
g5
(g6
g7
(lp5407
Vtheir
p5408
atp5409
Rp5410
(dp5411
g17
VPRP$
p5412
sbag5
(g6
g7
(lp5413
Varticles
p5414
atp5415
Rp5416
(dp5417
g17
VNNS
p5418
sbatp5419
Rp5420
(dp5421
g17
VNP
p5422
sbatp5423
Rp5424
(dp5425
g17
VVP
p5426
sbatp5427
Rp5428
(dp5429
g17
g203
sbatp5430
Rp5431
(dp5432
g17
VPP
p5433
sbatp5434
Rp5435
(dp5436
g17
VVP
p5437
sbag5
(g6
g7
(lp5438
g48
atp5439
Rp5440
(dp5441
g17
g48
sbag5
(g6
g7
(lp5442
Vor
p5443
atp5444
Rp5445
(dp5446
g17
VCC
p5447
sbag5
(g6
g7
(lp5448
g5
(g6
g7
(lp5449
Vstart
p5450
atp5451
Rp5452
(dp5453
g17
VVB
p5454
sbag5
(g6
g7
(lp5455
g5
(g6
g7
(lp5456
Vwith
p5457
atp5458
Rp5459
(dp5460
g17
VIN
p5461
sbag5
(g6
g7
(lp5462
g5
(g6
g7
(lp5463
g5
(g6
g7
(lp5464
g355
atp5465
Rp5466
(dp5467
g17
VDT
p5468
sbag5
(g6
g7
(lp5469
Vdirectory
p5470
atp5471
Rp5472
(dp5473
g17
VNN
p5474
sbag5
(g6
g7
(lp5475
Vor
p5476
atp5477
Rp5478
(dp5479
g17
VCC
p5480
sbag5
(g6
g7
(lp5481
Vonline
p5482
atp5483
Rp5484
(dp5485
g17
VJJ
p5486
sbag5
(g6
g7
(lp5487
Vdatabase
p5488
atp5489
Rp5490
(dp5491
g17
VNN
p5492
sbatp5493
Rp5494
(dp5495
g17
VNP
p5496
sbag5
(g6
g7
(lp5497
g5
(g6
g7
(lp5498
Vof
p5499
atp5500
Rp5501
(dp5502
g17
VIN
p5503
sbag5
(g6
g7
(lp5504
g5
(g6
g7
(lp5505
Varticles
p5506
atp5507
Rp5508
(dp5509
g17
VNNS
p5510
sbatp5511
Rp5512
(dp5513
g17
VNP
p5514
sbatp5515
Rp5516
(dp5517
g17
VPP
p5518
sbatp5519
Rp5520
(dp5521
g17
VNP
p5522
sbatp5523
Rp5524
(dp5525
g17
VPP
p5526
sbatp5527
Rp5528
(dp5529
g17
VVP
p5530
sbatp5531
Rp5532
(dp5533
g17
VVP
p5534
sbatp5535
Rp5536
(dp5537
g17
VVP
p5538
sbatp5539
Rp5540
(dp5541
g17
g203
sbatp5542
Rp5543
(dp5544
g17
VVP
p5545
sbag5
(g6
g7
(lp5546
g235
atp5547
Rp5548
(dp5549
g17
g235
sbatp5550
Rp5551
(dp5552
g17
g203
sbatp5553
Rp5554
(dp5555
g17
VROOT
p5556
sbasg246
(icmyPackage
CorE
p5557
(dp5558
g249
(lp5559
(I0
I8
tp5560
a(I0
I10
tp5561
asg253
g5428
sbsg254
(icmyPackage
CorE
p5562
(dp5563
g249
(lp5564
(I0
I11
tp5565
a(I0
I22
tp5566
asg253
g5
(g6
g7
(lp5567
g5440
ag5445
ag5528
ag5548
atp5568
Rp5569
(dp5570
g17
g264
sbsbsg265
(icmyPackage
pattern
p5571
(dp5572
g268
I0
sg269
I0
sg270
(lp5573
(lp5574
(lp5575
S'by'
p5576
aS'through'
p5577
aaasg274
(lp5578
I2
aI1
aI1
asg276
(lp5579
S'By extracting comments and comparisons of the cited articles and then organizing them according to the time of publication discovers and displays how the area has developed as a research literature.'
p5580
asg279
I67
sg280
(lp5581
(lp5582
a(lp5583
S'&V-ing@C@'
p5584
aS'&R'
p5585
aasbsg286
(lp5586
(icmyPackage
Sent
p5587
(dp5588
g290
I4
sg291
I36
sg292
S'Scientists only need to start the environment by uploading their articles, or start with a directory or online database of articles.'
p5589
sg294
I0
sg295
I90
sg253
(lp5590
g5554
asbasba(icmyPackage
CELink
p5591
(dp5592
g3
(lp5593
g5
(g6
g7
(lp5594
g5
(g6
g7
(lp5595
g5
(g6
g7
(lp5596
g5
(g6
g7
(lp5597
VThey
p5598
atp5599
Rp5600
(dp5601
g17
VPRP
p5602
sbatp5603
Rp5604
(dp5605
g17
VNP
p5606
sbag5
(g6
g7
(lp5607
g5
(g6
g7
(lp5608
Vcan
p5609
atp5610
Rp5611
(dp5612
g17
VMD
p5613
sbag5
(g6
g7
(lp5614
g5
(g6
g7
(lp5615
Vuse
p5616
atp5617
Rp5618
(dp5619
g17
VVB
p5620
sbag5
(g6
g7
(lp5621
g5
(g6
g7
(lp5622
Vthis
p5623
atp5624
Rp5625
(dp5626
g17
VDT
p5627
sbag5
(g6
g7
(lp5628
Vinformation
p5629
atp5630
Rp5631
(dp5632
g17
VNN
p5633
sbag5
(g6
g7
(lp5634
g5
(g6
g7
(lp5635
g5
(g6
g7
(lp5636
Vto
p5637
atp5638
Rp5639
(dp5640
g17
VTO
p5641
sbag5
(g6
g7
(lp5642
g5
(g6
g7
(lp5643
Vplan
p5644
atp5645
Rp5646
(dp5647
g17
VVB
p5648
sbag5
(g6
g7
(lp5649
g5
(g6
g7
(lp5650
Vtheir
p5651
atp5652
Rp5653
(dp5654
g17
VPRP$
p5655
sbag5
(g6
g7
(lp5656
Vresearch
p5657
atp5658
Rp5659
(dp5660
g17
VNN
p5661
sbatp5662
Rp5663
(dp5664
g17
VNP
p5665
sbag5
(g6
g7
(lp5666
g5
(g6
g7
(lp5667
Vby
p5668
atp5669
Rp5670
(dp5671
g17
VIN
p5672
sbag5
(g6
g7
(lp5673
g5
(g6
g7
(lp5674
g5
(g6
g7
(lp5675
Vlooking
p5676
atp5677
Rp5678
(dp5679
g17
VVBG
p5680
sbag5
(g6
g7
(lp5681
g5
(g6
g7
(lp5682
Vat
p5683
atp5684
Rp5685
(dp5686
g17
VIN
p5687
sbag5
(g6
g7
(lp5688
g5
(g6
g7
(lp5689
g5
(g6
g7
(lp5690
Vthe
p5691
atp5692
Rp5693
(dp5694
g17
VDT
p5695
sbag5
(g6
g7
(lp5696
Vdistribution
p5697
atp5698
Rp5699
(dp5700
g17
VNN
p5701
sbag5
(g6
g7
(lp5702
Vand
p5703
atp5704
Rp5705
(dp5706
g17
VCC
p5707
sbag5
(g6
g7
(lp5708
Vevolution
p5709
atp5710
Rp5711
(dp5712
g17
VNN
p5713
sbatp5714
Rp5715
(dp5716
g17
VNP
p5717
sbag5
(g6
g7
(lp5718
g5
(g6
g7
(lp5719
Vof
p5720
atp5721
Rp5722
(dp5723
g17
VIN
p5724
sbag5
(g6
g7
(lp5725
g5
(g6
g7
(lp5726
Vtheir
p5727
atp5728
Rp5729
(dp5730
g17
VPRP$
p5731
sbag5
(g6
g7
(lp5732
Vareas
p5733
atp5734
Rp5735
(dp5736
g17
VNNS
p5737
sbatp5738
Rp5739
(dp5740
g17
VNP
p5741
sbatp5742
Rp5743
(dp5744
g17
VPP
p5745
sbatp5746
Rp5747
(dp5748
g17
VNP
p5749
sbatp5750
Rp5751
(dp5752
g17
VPP
p5753
sbatp5754
Rp5755
(dp5756
g17
VVP
p5757
sbatp5758
Rp5759
(dp5760
g17
g203
sbatp5761
Rp5762
(dp5763
g17
VPP
p5764
sbatp5765
Rp5766
(dp5767
g17
VVP
p5768
sbatp5769
Rp5770
(dp5771
g17
VVP
p5772
sbatp5773
Rp5774
(dp5775
g17
g203
sbatp5776
Rp5777
(dp5778
g17
VNP
p5779
sbatp5780
Rp5781
(dp5782
g17
VVP
p5783
sbatp5784
Rp5785
(dp5786
g17
VVP
p5787
sbag5
(g6
g7
(lp5788
g235
atp5789
Rp5790
(dp5791
g17
g235
sbatp5792
Rp5793
(dp5794
g17
g203
sbatp5795
Rp5796
(dp5797
g17
VROOT
p5798
sbasg246
(icmyPackage
CorE
p5799
(dp5800
g249
(lp5801
(I0
I10
tp5802
a(I0
I18
tp5803
asg253
g5759
sbsg254
(icmyPackage
CorE
p5804
(dp5805
g249
(lp5806
(I0
I0
tp5807
a(I0
I8
tp5808
asg253
g5
(g6
g7
(lp5809
g5604
ag5611
ag5618
ag5625
ag5631
ag5639
ag5646
ag5663
atp5810
Rp5811
(dp5812
g17
g264
sbsbsg265
(icmyPackage
pattern
p5813
(dp5814
g268
I0
sg269
I0
sg270
(lp5815
(lp5816
(lp5817
S'by'
p5818
aS'through'
p5819
aaasg274
(lp5820
I2
aI1
aI1
asg276
(lp5821
S'The similar relation can be detected by analyzing the contents of nodes based on such approaches as the Latent Semantic Analysis (LSA) and the Vector Space Model (VSM)'
p5822
asg279
I68
sg280
(lp5823
(lp5824
S'&R@Complete@'
p5825
aa(lp5826
S'&V-ing@C@'
p5827
aasbsg286
(lp5828
(icmyPackage
Sent
p5829
(dp5830
g290
I4
sg291
I37
sg292
S'They can use this information to plan their research by looking at the distribution and evolution of their areas.'
p5831
sg294
I0
sg295
I97
sg253
(lp5832
g5796
asbasba(icmyPackage
CELink
p5833
(dp5834
g3
(lp5835
g5
(g6
g7
(lp5836
g5
(g6
g7
(lp5837
g5
(g6
g7
(lp5838
g5
(g6
g7
(lp5839
VThe
p5840
atp5841
Rp5842
(dp5843
g17
VDT
p5844
sbag5
(g6
g7
(lp5845
Vsystem
p5846
atp5847
Rp5848
(dp5849
g17
VNN
p5850
sbatp5851
Rp5852
(dp5853
g17
VNP
p5854
sbag5
(g6
g7
(lp5855
g5
(g6
g7
(lp5856
Vcan
p5857
atp5858
Rp5859
(dp5860
g17
VMD
p5861
sbag5
(g6
g7
(lp5862
g5
(g6
g7
(lp5863
Vdisplay
p5864
atp5865
Rp5866
(dp5867
g17
VVB
p5868
sbag5
(g6
g7
(lp5869
g5
(g6
g7
(lp5870
g5
(g6
g7
(lp5871
Vusers
p5872
atp5873
Rp5874
(dp5875
g17
VNNS
p5876
sbag5
(g6
g7
(lp5877
V'
p5878
atp5879
Rp5880
(dp5881
g17
VPOS
p5882
sbatp5883
Rp5884
(dp5885
g17
VNP
p5886
sbag5
(g6
g7
(lp5887
Vpersonal
p5888
atp5889
Rp5890
(dp5891
g17
VJJ
p5892
sbag5
(g6
g7
(lp5893
Vknowledge
p5894
atp5895
Rp5896
(dp5897
g17
VNN
p5898
sbag5
(g6
g7
(lp5899
Vflow
p5900
atp5901
Rp5902
(dp5903
g17
VNN
p5904
sbag5
(g6
g7
(lp5905
Vnetworks
p5906
atp5907
Rp5908
(dp5909
g17
VNNS
p5910
sbatp5911
Rp5912
(dp5913
g17
VNP
p5914
sbag5
(g6
g7
(lp5915
g5
(g6
g7
(lp5916
Vby
p5917
atp5918
Rp5919
(dp5920
g17
VIN
p5921
sbag5
(g6
g7
(lp5922
g5
(g6
g7
(lp5923
g5
(g6
g7
(lp5924
g5
(g6
g7
(lp5925
Vfinding
p5926
atp5927
Rp5928
(dp5929
g17
VVBG
p5930
sbag5
(g6
g7
(lp5931
g5
(g6
g7
(lp5932
g5
(g6
g7
(lp5933
Vtheir
p5934
atp5935
Rp5936
(dp5937
g17
VPRP$
p5938
sbag5
(g6
g7
(lp5939
Vcitations
p5940
atp5941
Rp5942
(dp5943
g17
VNNS
p5944
sbatp5945
Rp5946
(dp5947
g17
VNP
p5948
sbag5
(g6
g7
(lp5949
Vand
p5950
atp5951
Rp5952
(dp5953
g17
VCC
p5954
sbag5
(g6
g7
(lp5955
g5
(g6
g7
(lp5956
g5
(g6
g7
(lp5957
Vtheir
p5958
atp5959
Rp5960
(dp5961
g17
VPRP$
p5962
sbag5
(g6
g7
(lp5963
Vco-authors
p5964
atp5965
Rp5966
(dp5967
g17
VNNS
p5968
sbag5
(g6
g7
(lp5969
g5878
atp5970
Rp5971
(dp5972
g17
VPOS
p5973
sbatp5974
Rp5975
(dp5976
g17
VNP
p5977
sbag5
(g6
g7
(lp5978
Vcitations
p5979
atp5980
Rp5981
(dp5982
g17
VNNS
p5983
sbatp5984
Rp5985
(dp5986
g17
VNP
p5987
sbatp5988
Rp5989
(dp5990
g17
VNP
p5991
sbatp5992
Rp5993
(dp5994
g17
VVP
p5995
sbag5
(g6
g7
(lp5996
g48
atp5997
Rp5998
(dp5999
g17
g48
sbag5
(g6
g7
(lp6000
g5
(g6
g7
(lp6001
Vclassifying
p6002
atp6003
Rp6004
(dp6005
g17
VVBG
p6006
sbag5
(g6
g7
(lp6007
g5
(g6
g7
(lp6008
g5
(g6
g7
(lp6009
Vthe
p6010
atp6011
Rp6012
(dp6013
g17
VDT
p6014
sbag5
(g6
g7
(lp6015
Varticles
p6016
atp6017
Rp6018
(dp6019
g17
VNNS
p6020
sbatp6021
Rp6022
(dp6023
g17
VNP
p6024
sbag5
(g6
g7
(lp6025
g5
(g6
g7
(lp6026
Vinvolved
p6027
atp6028
Rp6029
(dp6030
g17
VVBN
p6031
sbag5
(g6
g7
(lp6032
g5
(g6
g7
(lp6033
Vby
p6034
atp6035
Rp6036
(dp6037
g17
VIN
p6038
sbag5
(g6
g7
(lp6039
g5
(g6
g7
(lp6040
Vdiscipline
p6041
atp6042
Rp6043
(dp6044
g17
VNN
p6045
sbag5
(g6
g7
(lp6046
Vand
p6047
atp6048
Rp6049
(dp6050
g17
VCC
p6051
sbag5
(g6
g7
(lp6052
Vchronology
p6053
atp6054
Rp6055
(dp6056
g17
VNN
p6057
sbatp6058
Rp6059
(dp6060
g17
VNP
p6061
sbatp6062
Rp6063
(dp6064
g17
VPP
p6065
sbatp6066
Rp6067
(dp6068
g17
VVP
p6069
sbatp6070
Rp6071
(dp6072
g17
VNP
p6073
sbatp6074
Rp6075
(dp6076
g17
VVP
p6077
sbag5
(g6
g7
(lp6078
g48
atp6079
Rp6080
(dp6081
g17
g48
sbag5
(g6
g7
(lp6082
g5
(g6
g7
(lp6083
Vexpressing
p6084
atp6085
Rp6086
(dp6087
g17
VVBG
p6088
sbag5
(g6
g7
(lp6089
g5
(g6
g7
(lp6090
Vthe
p6091
atp6092
Rp6093
(dp6094
g17
VDT
p6095
sbag5
(g6
g7
(lp6096
Vcategory
p6097
atp6098
Rp6099
(dp6100
g17
VNN
p6101
sbag5
(g6
g7
(lp6102
Vsemantics
p6103
atp6104
Rp6105
(dp6106
g17
VNNS
p6107
sbatp6108
Rp6109
(dp6110
g17
VNP
p6111
sbag5
(g6
g7
(lp6112
g5
(g6
g7
(lp6113
Vfor
p6114
atp6115
Rp6116
(dp6117
g17
VIN
p6118
sbag5
(g6
g7
(lp6119
g5
(g6
g7
(lp6120
Vadvanced
p6121
atp6122
Rp6123
(dp6124
g17
VJJ
p6125
sbag5
(g6
g7
(lp6126
Vservices
p6127
atp6128
Rp6129
(dp6130
g17
VNNS
p6131
sbatp6132
Rp6133
(dp6134
g17
VNP
p6135
sbatp6136
Rp6137
(dp6138
g17
VPP
p6139
sbatp6140
Rp6141
(dp6142
g17
VVP
p6143
sbag5
(g6
g7
(lp6144
g48
atp6145
Rp6146
(dp6147
g17
g48
sbag5
(g6
g7
(lp6148
g5
(g6
g7
(lp6149
Vlinking
p6150
atp6151
Rp6152
(dp6153
g17
VVBG
p6154
sbag5
(g6
g7
(lp6155
g5
(g6
g7
(lp6156
Vthe
p6157
atp6158
Rp6159
(dp6160
g17
VDT
p6161
sbag5
(g6
g7
(lp6162
Vcategories
p6163
atp6164
Rp6165
(dp6166
g17
VNNS
p6167
sbatp6168
Rp6169
(dp6170
g17
VNP
p6171
sbag5
(g6
g7
(lp6172
g5
(g6
g7
(lp6173
Vwith
p6174
atp6175
Rp6176
(dp6177
g17
VIN
p6178
sbag5
(g6
g7
(lp6179
g5
(g6
g7
(lp6180
Vthe
p6181
atp6182
Rp6183
(dp6184
g17
VDT
p6185
sbag5
(g6
g7
(lp6186
Vcitations
p6187
atp6188
Rp6189
(dp6190
g17
VNNS
p6191
sbatp6192
Rp6193
(dp6194
g17
VNP
p6195
sbatp6196
Rp6197
(dp6198
g17
VPP
p6199
sbatp6200
Rp6201
(dp6202
g17
VVP
p6203
sbag5
(g6
g7
(lp6204
g48
atp6205
Rp6206
(dp6207
g17
g48
sbag5
(g6
g7
(lp6208
Vand
p6209
atp6210
Rp6211
(dp6212
g17
VCC
p6213
sbag5
(g6
g7
(lp6214
g5
(g6
g7
(lp6215
Vrevealing
p6216
atp6217
Rp6218
(dp6219
g17
VVBG
p6220
sbag5
(g6
g7
(lp6221
g5
(g6
g7
(lp6222
Vknowledge
p6223
atp6224
Rp6225
(dp6226
g17
VNN
p6227
sbag5
(g6
g7
(lp6228
Vflows
p6229
atp6230
Rp6231
(dp6232
g17
VNNS
p6233
sbatp6234
Rp6235
(dp6236
g17
VNP
p6237
sbag5
(g6
g7
(lp6238
g5
(g6
g7
(lp6239
g5
(g6
g7
(lp6240
Vusing
p6241
atp6242
Rp6243
(dp6244
g17
VVBG
p6245
sbag5
(g6
g7
(lp6246
g5
(g6
g7
(lp6247
Vthe
p6248
atp6249
Rp6250
(dp6251
g17
VDT
p6252
sbag5
(g6
g7
(lp6253
Vcitation
p6254
atp6255
Rp6256
(dp6257
g17
VNN
p6258
sbag5
(g6
g7
(lp6259
Vnetwork
p6260
atp6261
Rp6262
(dp6263
g17
VNN
p6264
sbatp6265
Rp6266
(dp6267
g17
VNP
p6268
sbatp6269
Rp6270
(dp6271
g17
VVP
p6272
sbatp6273
Rp6274
(dp6275
g17
g203
sbatp6276
Rp6277
(dp6278
g17
VVP
p6279
sbatp6280
Rp6281
(dp6282
g17
VVP
p6283
sbatp6284
Rp6285
(dp6286
g17
g203
sbatp6287
Rp6288
(dp6289
g17
VPP
p6290
sbatp6291
Rp6292
(dp6293
g17
VVP
p6294
sbatp6295
Rp6296
(dp6297
g17
VVP
p6298
sbag5
(g6
g7
(lp6299
g235
atp6300
Rp6301
(dp6302
g17
g235
sbatp6303
Rp6304
(dp6305
g17
g203
sbatp6306
Rp6307
(dp6308
g17
VROOT
p6309
sbasg246
(icmyPackage
CorE
p6310
(dp6311
g249
(lp6312
(I0
I11
tp6313
a(I0
I51
tp6314
asg253
g6285
sbsg254
(icmyPackage
CorE
p6315
(dp6316
g249
(lp6317
(I0
I0
tp6318
a(I0
I9
tp6319
asg253
g5
(g6
g7
(lp6320
g5852
ag5859
ag5866
ag5912
atp6321
Rp6322
(dp6323
g17
g264
sbsbsg265
g5813
sg286
(lp6324
(icmyPackage
Sent
p6325
(dp6326
g290
I4
sg291
I37
sg292
S"The system can display users' personal knowledge flow networks by finding their citations and their co-authors' citations, classifying the articles involved by discipline and chronology, expressing the category semantics for advanced services, linking the categories with the citations, and revealing knowledge flows using the citation network."
p6327
sg294
I0
sg295
I98
sg253
(lp6328
g6307
asbasba(icmyPackage
CELink
p6329
(dp6330
g3
(lp6331
g5
(g6
g7
(lp6332
g5
(g6
g7
(lp6333
g5
(g6
g7
(lp6334
g5
(g6
g7
(lp6335
VThis
p6336
atp6337
Rp6338
(dp6339
g17
VDT
p6340
sbag5
(g6
g7
(lp6341
Vservice
p6342
atp6343
Rp6344
(dp6345
g17
VNN
p6346
sbatp6347
Rp6348
(dp6349
g17
VNP
p6350
sbag5
(g6
g7
(lp6351
g5
(g6
g7
(lp6352
Vcan
p6353
atp6354
Rp6355
(dp6356
g17
VMD
p6357
sbag5
(g6
g7
(lp6358
g5
(g6
g7
(lp6359
Vrecommend
p6360
atp6361
Rp6362
(dp6363
g17
VVB
p6364
sbag5
(g6
g7
(lp6365
g5
(g6
g7
(lp6366
Vreferences
p6367
atp6368
Rp6369
(dp6370
g17
VNNS
p6371
sbatp6372
Rp6373
(dp6374
g17
VNP
p6375
sbag5
(g6
g7
(lp6376
g5
(g6
g7
(lp6377
Vby
p6378
atp6379
Rp6380
(dp6381
g17
VIN
p6382
sbag5
(g6
g7
(lp6383
g5
(g6
g7
(lp6384
g5
(g6
g7
(lp6385
g5
(g6
g7
(lp6386
Vretrieving
p6387
atp6388
Rp6389
(dp6390
g17
VVBG
p6391
sbag5
(g6
g7
(lp6392
g5
(g6
g7
(lp6393
Vdocuments
p6394
atp6395
Rp6396
(dp6397
g17
VNNS
p6398
sbatp6399
Rp6400
(dp6401
g17
VNP
p6402
sbag5
(g6
g7
(lp6403
g5
(g6
g7
(lp6404
Vfrom
p6405
atp6406
Rp6407
(dp6408
g17
VIN
p6409
sbag5
(g6
g7
(lp6410
g5
(g6
g7
(lp6411
g5
(g6
g7
(lp6412
Vthe
p6413
atp6414
Rp6415
(dp6416
g17
VDT
p6417
sbag5
(g6
g7
(lp6418
VWeb
p6419
atp6420
Rp6421
(dp6422
g17
VNN
p6423
sbatp6424
Rp6425
(dp6426
g17
VNP
p6427
sbag5
(g6
g7
(lp6428
Vand
p6429
atp6430
Rp6431
(dp6432
g17
VCC
p6433
sbag5
(g6
g7
(lp6434
g5
(g6
g7
(lp6435
Vdigital
p6436
atp6437
Rp6438
(dp6439
g17
VJJ
p6440
sbag5
(g6
g7
(lp6441
Vlibraries
p6442
atp6443
Rp6444
(dp6445
g17
VNNS
p6446
sbatp6447
Rp6448
(dp6449
g17
VNP
p6450
sbatp6451
Rp6452
(dp6453
g17
VNP
p6454
sbatp6455
Rp6456
(dp6457
g17
VPP
p6458
sbatp6459
Rp6460
(dp6461
g17
VVP
p6462
sbag5
(g6
g7
(lp6463
g48
atp6464
Rp6465
(dp6466
g17
g48
sbag5
(g6
g7
(lp6467
g5
(g6
g7
(lp6468
Vranking
p6469
atp6470
Rp6471
(dp6472
g17
VVBG
p6473
sbag5
(g6
g7
(lp6474
g5
(g6
g7
(lp6475
Vthem
p6476
atp6477
Rp6478
(dp6479
g17
VPRP
p6480
sbatp6481
Rp6482
(dp6483
g17
VNP
p6484
sbag5
(g6
g7
(lp6485
g5
(g6
g7
(lp6486
Vaccording
p6487
atp6488
Rp6489
(dp6490
g17
VVBG
p6491
sbag5
(g6
g7
(lp6492
g5
(g6
g7
(lp6493
Vto
p6494
atp6495
Rp6496
(dp6497
g17
VTO
p6498
sbag5
(g6
g7
(lp6499
g5
(g6
g7
(lp6500
g5
(g6
g7
(lp6501
Vtheir
p6502
atp6503
Rp6504
(dp6505
g17
VPRP$
p6506
sbag5
(g6
g7
(lp6507
Vcitation
p6508
atp6509
Rp6510
(dp6511
g17
VNN
p6512
sbag5
(g6
g7
(lp6513
Vrates
p6514
atp6515
Rp6516
(dp6517
g17
VNNS
p6518
sbatp6519
Rp6520
(dp6521
g17
VNP
p6522
sbag5
(g6
g7
(lp6523
Vand
p6524
atp6525
Rp6526
(dp6527
g17
VCC
p6528
sbag5
(g6
g7
(lp6529
g5
(g6
g7
(lp6530
g5
(g6
g7
(lp6531
Vthe
p6532
atp6533
Rp6534
(dp6535
g17
VDT
p6536
sbag5
(g6
g7
(lp6537
Vroles
p6538
atp6539
Rp6540
(dp6541
g17
VNNS
p6542
sbatp6543
Rp6544
(dp6545
g17
VNP
p6546
sbag5
(g6
g7
(lp6547
g5
(g6
g7
(lp6548
Vof
p6549
atp6550
Rp6551
(dp6552
g17
VIN
p6553
sbag5
(g6
g7
(lp6554
g5
(g6
g7
(lp6555
Vthe
p6556
atp6557
Rp6558
(dp6559
g17
VDT
p6560
sbag5
(g6
g7
(lp6561
Vauthors
p6562
atp6563
Rp6564
(dp6565
g17
VNNS
p6566
sbatp6567
Rp6568
(dp6569
g17
VNP
p6570
sbatp6571
Rp6572
(dp6573
g17
VPP
p6574
sbatp6575
Rp6576
(dp6577
g17
VNP
p6578
sbatp6579
Rp6580
(dp6581
g17
VNP
p6582
sbatp6583
Rp6584
(dp6585
g17
VPP
p6586
sbatp6587
Rp6588
(dp6589
g17
VPP
p6590
sbatp6591
Rp6592
(dp6593
g17
VVP
p6594
sbag5
(g6
g7
(lp6595
g48
atp6596
Rp6597
(dp6598
g17
g48
sbag5
(g6
g7
(lp6599
Vand
p6600
atp6601
Rp6602
(dp6603
g17
VCC
p6604
sbag5
(g6
g7
(lp6605
g5
(g6
g7
(lp6606
g5
(g6
g7
(lp6607
Vtracing
p6608
atp6609
Rp6610
(dp6611
g17
VVBG
p6612
sbatp6613
Rp6614
(dp6615
g17
VVP
p6616
sbag5
(g6
g7
(lp6617
Vand
p6618
atp6619
Rp6620
(dp6621
g17
VCC
p6622
sbag5
(g6
g7
(lp6623
g5
(g6
g7
(lp6624
Vanalyzing
p6625
atp6626
Rp6627
(dp6628
g17
VVBG
p6629
sbag5
(g6
g7
(lp6630
g5
(g6
g7
(lp6631
Vtheir
p6632
atp6633
Rp6634
(dp6635
g17
VPRP$
p6636
sbag5
(g6
g7
(lp6637
Vcitation
p6638
atp6639
Rp6640
(dp6641
g17
VNN
p6642
sbag5
(g6
g7
(lp6643
Vnetworks
p6644
atp6645
Rp6646
(dp6647
g17
VNNS
p6648
sbatp6649
Rp6650
(dp6651
g17
VNP
p6652
sbag5
(g6
g7
(lp6653
g5
(g6
g7
(lp6654
g5
(g6
g7
(lp6655
Vto
p6656
atp6657
Rp6658
(dp6659
g17
VTO
p6660
sbag5
(g6
g7
(lp6661
g5
(g6
g7
(lp6662
Vshow
p6663
atp6664
Rp6665
(dp6666
g17
VVB
p6667
sbag5
(g6
g7
(lp6668
g5
(g6
g7
(lp6669
Vthe
p6670
atp6671
Rp6672
(dp6673
g17
VDT
p6674
sbag5
(g6
g7
(lp6675
Vreferences
p6676
atp6677
Rp6678
(dp6679
g17
VNNS
p6680
sbatp6681
Rp6682
(dp6683
g17
VNP
p6684
sbag5
(g6
g7
(lp6685
g5
(g6
g7
(lp6686
g5
(g6
g7
(lp6687
Vas
p6688
atp6689
Rp6690
(dp6691
g17
VIN
p6692
sbag5
(g6
g7
(lp6693
g5
(g6
g7
(lp6694
g355
atp6695
Rp6696
(dp6697
g17
VDT
p6698
sbag5
(g6
g7
(lp6699
Vnetwork
p6700
atp6701
Rp6702
(dp6703
g17
VNN
p6704
sbatp6705
Rp6706
(dp6707
g17
VNP
p6708
sbatp6709
Rp6710
(dp6711
g17
VPP
p6712
sbag5
(g6
g7
(lp6713
g5
(g6
g7
(lp6714
Vrather
p6715
atp6716
Rp6717
(dp6718
g17
VRB
p6719
sbag5
(g6
g7
(lp6720
Vthan
p6721
atp6722
Rp6723
(dp6724
g17
VIN
p6725
sbatp6726
Rp6727
(dp6728
g17
VCONJP
p6729
sbag5
(g6
g7
(lp6730
g5
(g6
g7
(lp6731
Vas
p6732
atp6733
Rp6734
(dp6735
g17
VIN
p6736
sbag5
(g6
g7
(lp6737
g5
(g6
g7
(lp6738
g355
atp6739
Rp6740
(dp6741
g17
VDT
p6742
sbag5
(g6
g7
(lp6743
Vlist
p6744
atp6745
Rp6746
(dp6747
g17
VNN
p6748
sbatp6749
Rp6750
(dp6751
g17
VNP
p6752
sbatp6753
Rp6754
(dp6755
g17
VPP
p6756
sbatp6757
Rp6758
(dp6759
g17
VPP
p6760
sbatp6761
Rp6762
(dp6763
g17
VVP
p6764
sbatp6765
Rp6766
(dp6767
g17
VVP
p6768
sbatp6769
Rp6770
(dp6771
g17
g203
sbatp6772
Rp6773
(dp6774
g17
VVP
p6775
sbatp6776
Rp6777
(dp6778
g17
VVP
p6779
sbatp6780
Rp6781
(dp6782
g17
VVP
p6783
sbatp6784
Rp6785
(dp6786
g17
g203
sbatp6787
Rp6788
(dp6789
g17
VPP
p6790
sbatp6791
Rp6792
(dp6793
g17
VVP
p6794
sbatp6795
Rp6796
(dp6797
g17
VVP
p6798
sbag5
(g6
g7
(lp6799
g235
atp6800
Rp6801
(dp6802
g17
g235
sbatp6803
Rp6804
(dp6805
g17
g203
sbatp6806
Rp6807
(dp6808
g17
VROOT
p6809
sbasg246
(icmyPackage
CorE
p6810
(dp6811
g249
(lp6812
(I0
I19
tp6813
a(I0
I27
tp6814
asg253
g6580
sbsg254
(icmyPackage
CorE
p6815
(dp6816
g249
(lp6817
(I0
I29
tp6818
a(I0
I48
tp6819
asg253
g5
(g6
g7
(lp6820
g6602
ag6777
ag6801
atp6821
Rp6822
(dp6823
g17
g264
sbsbsg265
(icmyPackage
pattern
p6824
(dp6825
g268
I0
sg269
I0
sg270
(lp6826
(lp6827
S'according'
p6828
aS'to'
p6829
aa(lp6830
S','
p6831
aasg274
(lp6832
I2
aI1
aI1
asg276
(lp6833
S'According to the efficiency principle and regional principle, the radius of the network should be small.'
p6834
asg279
I56
sg280
(lp6835
(lp6836
a(lp6837
S'&NP@C@'
p6838
aa(lp6839
S'&R'
p6840
aasbsg286
(lp6841
(icmyPackage
Sent
p6842
(dp6843
g290
I4
sg291
I38
sg292
S'This service can recommend references by retrieving documents from the Web and digital libraries, ranking them according to their citation rates and the roles of the authors, and tracing and analyzing their citation networks to show the references as a network rather than as a list.'
p6844
sg294
I0
sg295
I100
sg253
(lp6845
g6807
asbasba(icmyPackage
CELink
p6846
(dp6847
g3
(lp6848
g5
(g6
g7
(lp6849
g5
(g6
g7
(lp6850
g5
(g6
g7
(lp6851
g5
(g6
g7
(lp6852
VThe
p6853
atp6854
Rp6855
(dp6856
g17
VDT
p6857
sbag5
(g6
g7
(lp6858
Vnetwork
p6859
atp6860
Rp6861
(dp6862
g17
VNN
p6863
sbatp6864
Rp6865
(dp6866
g17
VNP
p6867
sbag5
(g6
g7
(lp6868
g5
(g6
g7
(lp6869
Vcan
p6870
atp6871
Rp6872
(dp6873
g17
VMD
p6874
sbag5
(g6
g7
(lp6875
g5
(g6
g7
(lp6876
Vbe
p6877
atp6878
Rp6879
(dp6880
g17
VVB
p6881
sbag5
(g6
g7
(lp6882
g5
(g6
g7
(lp6883
g5
(g6
g7
(lp6884
g355
atp6885
Rp6886
(dp6887
g17
VDT
p6888
sbag5
(g6
g7
(lp6889
Vhierarchy
p6890
atp6891
Rp6892
(dp6893
g17
VNN
p6894
sbatp6895
Rp6896
(dp6897
g17
VNP
p6898
sbag5
(g6
g7
(lp6899
g5
(g6
g7
(lp6900
g5
(g6
g7
(lp6901
Vthat
p6902
atp6903
Rp6904
(dp6905
g17
VWDT
p6906
sbatp6907
Rp6908
(dp6909
g17
VWHNP
p6910
sbag5
(g6
g7
(lp6911
g5
(g6
g7
(lp6912
g5
(g6
g7
(lp6913
Venables
p6914
atp6915
Rp6916
(dp6917
g17
VVBZ
p6918
sbag5
(g6
g7
(lp6919
g5
(g6
g7
(lp6920
g5
(g6
g7
(lp6921
Vpeople
p6922
atp6923
Rp6924
(dp6925
g17
VNNS
p6926
sbatp6927
Rp6928
(dp6929
g17
VNP
p6930
sbag5
(g6
g7
(lp6931
g5
(g6
g7
(lp6932
Vto
p6933
atp6934
Rp6935
(dp6936
g17
VTO
p6937
sbag5
(g6
g7
(lp6938
g5
(g6
g7
(lp6939
Vzoom
p6940
atp6941
Rp6942
(dp6943
g17
VVB
p6944
sbag5
(g6
g7
(lp6945
g5
(g6
g7
(lp6946
Vin
p6947
atp6948
Rp6949
(dp6950
g17
VRP
p6951
sbag5
(g6
g7
(lp6952
Vand
p6953
atp6954
Rp6955
(dp6956
g17
VCC
p6957
sbag5
(g6
g7
(lp6958
Vout
p6959
atp6960
Rp6961
(dp6962
g17
VRP
p6963
sbatp6964
Rp6965
(dp6966
g17
VPRT
p6967
sbag5
(g6
g7
(lp6968
g5
(g6
g7
(lp6969
Vof
p6970
atp6971
Rp6972
(dp6973
g17
VIN
p6974
sbag5
(g6
g7
(lp6975
g5
(g6
g7
(lp6976
Vthe
p6977
atp6978
Rp6979
(dp6980
g17
VDT
p6981
sbag5
(g6
g7
(lp6982
Vresearch
p6983
atp6984
Rp6985
(dp6986
g17
VNN
p6987
sbag5
(g6
g7
(lp6988
Varea
p6989
atp6990
Rp6991
(dp6992
g17
VNN
p6993
sbatp6994
Rp6995
(dp6996
g17
VNP
p6997
sbatp6998
Rp6999
(dp7000
g17
VPP
p7001
sbatp7002
Rp7003
(dp7004
g17
VVP
p7005
sbatp7006
Rp7007
(dp7008
g17
VVP
p7009
sbatp7010
Rp7011
(dp7012
g17
g203
sbatp7013
Rp7014
(dp7015
g17
VVP
p7016
sbatp7017
Rp7018
(dp7019
g17
g203
sbatp7020
Rp7021
(dp7022
g17
VSBAR
p7023
sbatp7024
Rp7025
(dp7026
g17
VNP
p7027
sbatp7028
Rp7029
(dp7030
g17
VVP
p7031
sbatp7032
Rp7033
(dp7034
g17
VVP
p7035
sbag5
(g6
g7
(lp7036
g235
atp7037
Rp7038
(dp7039
g17
g235
sbatp7040
Rp7041
(dp7042
g17
g203
sbatp7043
Rp7044
(dp7045
g17
VROOT
p7046
sbasg246
(icmyPackage
CorE
p7047
(dp7048
g249
(lp7049
(I0
I0
tp7050
a(I0
I5
tp7051
asg253
g5
(g6
g7
(lp7052
g6865
ag6872
ag6879
ag6896
atp7053
Rp7054
(dp7055
g17
g264
sbsbsg254
(icmyPackage
CorE
p7056
(dp7057
g249
(lp7058
(I0
I8
tp7059
a(I0
I17
tp7060
asg253
g7011
sbsg265
g1593
sg286
(lp7061
(icmyPackage
Sent
p7062
(dp7063
g290
I4
sg291
I38
sg292
S'The network can be a hierarchy that enables people to zoom in and out of the research area.'
p7064
sg294
I0
sg295
I101
sg253
(lp7065
g7044
asbasba(icmyPackage
CELink
p7066
(dp7067
g3
(lp7068
g5
(g6
g7
(lp7069
g5
(g6
g7
(lp7070
g5
(g6
g7
(lp7071
g5
(g6
g7
(lp7072
VThis
p7073
atp7074
Rp7075
(dp7076
g17
VDT
p7077
sbag5
(g6
g7
(lp7078
Vservice
p7079
atp7080
Rp7081
(dp7082
g17
VNN
p7083
sbatp7084
Rp7085
(dp7086
g17
VNP
p7087
sbag5
(g6
g7
(lp7088
g5
(g6
g7
(lp7089
Vcan
p7090
atp7091
Rp7092
(dp7093
g17
VMD
p7094
sbag5
(g6
g7
(lp7095
g5
(g6
g7
(lp7096
Vhelp
p7097
atp7098
Rp7099
(dp7100
g17
VVB
p7101
sbag5
(g6
g7
(lp7102
g5
(g6
g7
(lp7103
g5
(g6
g7
(lp7104
Vscientists
p7105
atp7106
Rp7107
(dp7108
g17
VNNS
p7109
sbatp7110
Rp7111
(dp7112
g17
VNP
p7113
sbag5
(g6
g7
(lp7114
g5
(g6
g7
(lp7115
Vselect
p7116
atp7117
Rp7118
(dp7119
g17
VVB
p7120
sbag5
(g6
g7
(lp7121
g5
(g6
g7
(lp7122
Vpeers
p7123
atp7124
Rp7125
(dp7126
g17
VNNS
p7127
sbatp7128
Rp7129
(dp7130
g17
VNP
p7131
sbag5
(g6
g7
(lp7132
g5
(g6
g7
(lp7133
Vby
p7134
atp7135
Rp7136
(dp7137
g17
VIN
p7138
sbag5
(g6
g7
(lp7139
g5
(g6
g7
(lp7140
g5
(g6
g7
(lp7141
Vfinding
p7142
atp7143
Rp7144
(dp7145
g17
VVBG
p7146
sbag5
(g6
g7
(lp7147
g5
(g6
g7
(lp7148
g5
(g6
g7
(lp7149
Vthe
p7150
atp7151
Rp7152
(dp7153
g17
VDT
p7154
sbag5
(g6
g7
(lp7155
Vdense
p7156
atp7157
Rp7158
(dp7159
g17
VJJ
p7160
sbag5
(g6
g7
(lp7161
Vcliques
p7162
atp7163
Rp7164
(dp7165
g17
VNNS
p7166
sbatp7167
Rp7168
(dp7169
g17
VNP
p7170
sbag5
(g6
g7
(lp7171
g5
(g6
g7
(lp7172
Vin
p7173
atp7174
Rp7175
(dp7176
g17
VIN
p7177
sbag5
(g6
g7
(lp7178
g5
(g6
g7
(lp7179
Vknowledge
p7180
atp7181
Rp7182
(dp7183
g17
VNN
p7184
sbag5
(g6
g7
(lp7185
Vflow
p7186
atp7187
Rp7188
(dp7189
g17
VNN
p7190
sbag5
(g6
g7
(lp7191
Vnetworks
p7192
atp7193
Rp7194
(dp7195
g17
VNNS
p7196
sbatp7197
Rp7198
(dp7199
g17
VNP
p7200
sbatp7201
Rp7202
(dp7203
g17
VPP
p7204
sbatp7205
Rp7206
(dp7207
g17
VNP
p7208
sbag5
(g6
g7
(lp7209
g5
(g6
g7
(lp7210
Vby
p7211
atp7212
Rp7213
(dp7214
g17
VIN
p7215
sbag5
(g6
g7
(lp7216
g5
(g6
g7
(lp7217
g5
(g6
g7
(lp7218
Vlooking
p7219
atp7220
Rp7221
(dp7222
g17
VVBG
p7223
sbag5
(g6
g7
(lp7224
g5
(g6
g7
(lp7225
Vat
p7226
atp7227
Rp7228
(dp7229
g17
VIN
p7230
sbag5
(g6
g7
(lp7231
g5
(g6
g7
(lp7232
g5
(g6
g7
(lp7233
Vthe
p7234
atp7235
Rp7236
(dp7237
g17
VDT
p7238
sbag5
(g6
g7
(lp7239
Vstatistical
p7240
atp7241
Rp7242
(dp7243
g17
VJJ
p7244
sbag5
(g6
g7
(lp7245
Vresults
p7246
atp7247
Rp7248
(dp7249
g17
VNNS
p7250
sbatp7251
Rp7252
(dp7253
g17
VNP
p7254
sbag5
(g6
g7
(lp7255
Vand
p7256
atp7257
Rp7258
(dp7259
g17
VCC
p7260
sbag5
(g6
g7
(lp7261
g5
(g6
g7
(lp7262
g5
(g6
g7
(lp7263
Vdistribution
p7264
atp7265
Rp7266
(dp7267
g17
VNN
p7268
sbatp7269
Rp7270
(dp7271
g17
VNP
p7272
sbag5
(g6
g7
(lp7273
g5
(g6
g7
(lp7274
Vof
p7275
atp7276
Rp7277
(dp7278
g17
VIN
p7279
sbag5
(g6
g7
(lp7280
g5
(g6
g7
(lp7281
Vauthors
p7282
atp7283
Rp7284
(dp7285
g17
VNNS
p7286
sbag5
(g6
g7
(lp7287
g48
atp7288
Rp7289
(dp7290
g17
g48
sbag5
(g6
g7
(lp7291
Varticles
p7292
atp7293
Rp7294
(dp7295
g17
VNNS
p7296
sbag5
(g6
g7
(lp7297
g48
atp7298
Rp7299
(dp7300
g17
g48
sbag5
(g6
g7
(lp7301
Vand
p7302
atp7303
Rp7304
(dp7305
g17
VCC
p7306
sbag5
(g6
g7
(lp7307
Vcitations
p7308
atp7309
Rp7310
(dp7311
g17
VNNS
p7312
sbatp7313
Rp7314
(dp7315
g17
VNP
p7316
sbatp7317
Rp7318
(dp7319
g17
VPP
p7320
sbatp7321
Rp7322
(dp7323
g17
VNP
p7324
sbatp7325
Rp7326
(dp7327
g17
VNP
p7328
sbatp7329
Rp7330
(dp7331
g17
VPP
p7332
sbatp7333
Rp7334
(dp7335
g17
VVP
p7336
sbatp7337
Rp7338
(dp7339
g17
g203
sbatp7340
Rp7341
(dp7342
g17
VPP
p7343
sbatp7344
Rp7345
(dp7346
g17
VVP
p7347
sbatp7348
Rp7349
(dp7350
g17
g203
sbatp7351
Rp7352
(dp7353
g17
VPP
p7354
sbatp7355
Rp7356
(dp7357
g17
VVP
p7358
sbatp7359
Rp7360
(dp7361
g17
g203
sbatp7362
Rp7363
(dp7364
g17
VVP
p7365
sbatp7366
Rp7367
(dp7368
g17
VVP
p7369
sbag5
(g6
g7
(lp7370
g235
atp7371
Rp7372
(dp7373
g17
g235
sbatp7374
Rp7375
(dp7376
g17
g203
sbatp7377
Rp7378
(dp7379
g17
VROOT
p7380
sbasg246
(icmyPackage
CorE
p7381
(dp7382
g249
(lp7383
(I0
I8
tp7384
a(I0
I30
tp7385
asg253
g7349
sbsg254
(icmyPackage
CorE
p7386
(dp7387
g249
(lp7388
(I0
I0
tp7389
a(I0
I6
tp7390
asg253
g5
(g6
g7
(lp7391
g7085
ag7092
ag7099
ag7111
ag7118
ag7129
atp7392
Rp7393
(dp7394
g17
g264
sbsbsg265
g5813
sg286
(lp7395
(icmyPackage
Sent
p7396
(dp7397
g290
I4
sg291
I39
sg292
S'This service can help scientists select peers by finding the dense cliques in knowledge flow networks by looking at the statistical results and distribution of authors, articles, and citations.'
p7398
sg294
I0
sg295
I103
sg253
(lp7399
g7378
asbasba(icmyPackage
CELink
p7400
(dp7401
g3
(lp7402
g5
(g6
g7
(lp7403
g5
(g6
g7
(lp7404
g5
(g6
g7
(lp7405
g5
(g6
g7
(lp7406
VThis
p7407
atp7408
Rp7409
(dp7410
g17
VDT
p7411
sbag5
(g6
g7
(lp7412
Vservice
p7413
atp7414
Rp7415
(dp7416
g17
VNN
p7417
sbatp7418
Rp7419
(dp7420
g17
VNP
p7421
sbag5
(g6
g7
(lp7422
g5
(g6
g7
(lp7423
Vcan
p7424
atp7425
Rp7426
(dp7427
g17
VMD
p7428
sbag5
(g6
g7
(lp7429
g5
(g6
g7
(lp7430
Vdiscover
p7431
atp7432
Rp7433
(dp7434
g17
VVB
p7435
sbag5
(g6
g7
(lp7436
g5
(g6
g7
(lp7437
Vglobal
p7438
atp7439
Rp7440
(dp7441
g17
VJJ
p7442
sbag5
(g6
g7
(lp7443
Vinterest
p7444
atp7445
Rp7446
(dp7447
g17
VNN
p7448
sbag5
(g6
g7
(lp7449
Vgroups
p7450
atp7451
Rp7452
(dp7453
g17
VNNS
p7454
sbatp7455
Rp7456
(dp7457
g17
VNP
p7458
sbag5
(g6
g7
(lp7459
g5
(g6
g7
(lp7460
Vby
p7461
atp7462
Rp7463
(dp7464
g17
VIN
p7465
sbag5
(g6
g7
(lp7466
g5
(g6
g7
(lp7467
g5
(g6
g7
(lp7468
Vfinding
p7469
atp7470
Rp7471
(dp7472
g17
VVBG
p7473
sbag5
(g6
g7
(lp7474
g5
(g6
g7
(lp7475
g5
(g6
g7
(lp7476
Vtwo
p7477
atp7478
Rp7479
(dp7480
g17
VCD
p7481
sbag5
(g6
g7
(lp7482
Vtypes
p7483
atp7484
Rp7485
(dp7486
g17
VNNS
p7487
sbatp7488
Rp7489
(dp7490
g17
VNP
p7491
sbag5
(g6
g7
(lp7492
g5
(g6
g7
(lp7493
Vof
p7494
atp7495
Rp7496
(dp7497
g17
VIN
p7498
sbag5
(g6
g7
(lp7499
g5
(g6
g7
(lp7500
Vcitation
p7501
atp7502
Rp7503
(dp7504
g17
VNN
p7505
sbag5
(g6
g7
(lp7506
Vrelationship
p7507
atp7508
Rp7509
(dp7510
g17
VNN
p7511
sbatp7512
Rp7513
(dp7514
g17
VNP
p7515
sbatp7516
Rp7517
(dp7518
g17
VPP
p7519
sbatp7520
Rp7521
(dp7522
g17
VNP
p7523
sbatp7524
Rp7525
(dp7526
g17
VVP
p7527
sbatp7528
Rp7529
(dp7530
g17
g203
sbatp7531
Rp7532
(dp7533
g17
VPP
p7534
sbatp7535
Rp7536
(dp7537
g17
VVP
p7538
sbatp7539
Rp7540
(dp7541
g17
VVP
p7542
sbag5
(g6
g7
(lp7543
g235
atp7544
Rp7545
(dp7546
g17
g235
sbatp7547
Rp7548
(dp7549
g17
g203
sbatp7550
Rp7551
(dp7552
g17
VROOT
p7553
sbasg246
(icmyPackage
CorE
p7554
(dp7555
g249
(lp7556
(I0
I8
tp7557
a(I0
I13
tp7558
asg253
g7529
sbsg254
(icmyPackage
CorE
p7559
(dp7560
g249
(lp7561
(I0
I0
tp7562
a(I0
I6
tp7563
asg253
g5
(g6
g7
(lp7564
g7419
ag7426
ag7433
ag7456
atp7565
Rp7566
(dp7567
g17
g264
sbsbsg265
g5813
sg286
(lp7568
(icmyPackage
Sent
p7569
(dp7570
g290
I4
sg291
I40
sg292
S'This service can discover global interest groups by finding two types of citation relationship.'
p7571
sg294
I0
sg295
I105
sg253
(lp7572
g7551
asbasba(icmyPackage
CELink
p7573
(dp7574
g3
(lp7575
g5
(g6
g7
(lp7576
g5
(g6
g7
(lp7577
g5
(g6
g7
(lp7578
g5
(g6
g7
(lp7579
Vif
p7580
atp7581
Rp7582
(dp7583
g17
VIN
p7584
sbag5
(g6
g7
(lp7585
g5
(g6
g7
(lp7586
g5
(g6
g7
(lp7587
Vthere
p7588
atp7589
Rp7590
(dp7591
g17
VEX
p7592
sbatp7593
Rp7594
(dp7595
g17
VNP
p7596
sbag5
(g6
g7
(lp7597
g5
(g6
g7
(lp7598
Vis
p7599
atp7600
Rp7601
(dp7602
g17
VVBZ
p7603
sbag5
(g6
g7
(lp7604
g5
(g6
g7
(lp7605
g5
(g6
g7
(lp7606
g355
atp7607
Rp7608
(dp7609
g17
VDT
p7610
sbag5
(g6
g7
(lp7611
Vcitation
p7612
atp7613
Rp7614
(dp7615
g17
VNN
p7616
sbag5
(g6
g7
(lp7617
Vpath
p7618
atp7619
Rp7620
(dp7621
g17
VNN
p7622
sbatp7623
Rp7624
(dp7625
g17
VNP
p7626
sbag5
(g6
g7
(lp7627
g5
(g6
g7
(lp7628
Vin
p7629
atp7630
Rp7631
(dp7632
g17
VIN
p7633
sbag5
(g6
g7
(lp7634
g5
(g6
g7
(lp7635
g5
(g6
g7
(lp7636
Veach
p7637
atp7638
Rp7639
(dp7640
g17
VDT
p7641
sbag5
(g6
g7
(lp7642
Vdirection
p7643
atp7644
Rp7645
(dp7646
g17
VNN
p7647
sbatp7648
Rp7649
(dp7650
g17
VNP
p7651
sbag5
(g6
g7
(lp7652
g5
(g6
g7
(lp7653
Vbetween
p7654
atp7655
Rp7656
(dp7657
g17
VIN
p7658
sbag5
(g6
g7
(lp7659
g5
(g6
g7
(lp7660
Vtwo
p7661
atp7662
Rp7663
(dp7664
g17
VCD
p7665
sbag5
(g6
g7
(lp7666
Varticles
p7667
atp7668
Rp7669
(dp7670
g17
VNNS
p7671
sbatp7672
Rp7673
(dp7674
g17
VNP
p7675
sbatp7676
Rp7677
(dp7678
g17
VPP
p7679
sbatp7680
Rp7681
(dp7682
g17
VNP
p7683
sbatp7684
Rp7685
(dp7686
g17
VPP
p7687
sbatp7688
Rp7689
(dp7690
g17
VNP
p7691
sbatp7692
Rp7693
(dp7694
g17
VVP
p7695
sbatp7696
Rp7697
(dp7698
g17
g203
sbatp7699
Rp7700
(dp7701
g17
VSBAR
p7702
sbag5
(g6
g7
(lp7703
g48
atp7704
Rp7705
(dp7706
g17
g48
sbag5
(g6
g7
(lp7707
g5
(g6
g7
(lp7708
Vthen
p7709
atp7710
Rp7711
(dp7712
g17
VRB
p7713
sbag5
(g6
g7
(lp7714
Vthe
p7715
atp7716
Rp7717
(dp7718
g17
VDT
p7719
sbag5
(g6
g7
(lp7720
Vauthors
p7721
atp7722
Rp7723
(dp7724
g17
VNNS
p7725
sbatp7726
Rp7727
(dp7728
g17
VNP
p7729
sbag5
(g6
g7
(lp7730
g5
(g6
g7
(lp7731
Vshare
p7732
atp7733
Rp7734
(dp7735
g17
VVBP
p7736
sbag5
(g6
g7
(lp7737
g5
(g6
g7
(lp7738
Vcommon
p7739
atp7740
Rp7741
(dp7742
g17
VJJ
p7743
sbag5
(g6
g7
(lp7744
Vinterest
p7745
atp7746
Rp7747
(dp7748
g17
VNN
p7749
sbag5
(g6
g7
(lp7750
Vand
p7751
atp7752
Rp7753
(dp7754
g17
VCC
p7755
sbag5
(g6
g7
(lp7756
Vknowledge
p7757
atp7758
Rp7759
(dp7760
g17
VNN
p7761
sbatp7762
Rp7763
(dp7764
g17
VNP
p7765
sbatp7766
Rp7767
(dp7768
g17
VVP
p7769
sbag5
(g6
g7
(lp7770
g235
atp7771
Rp7772
(dp7773
g17
g235
sbatp7774
Rp7775
(dp7776
g17
g203
sbatp7777
Rp7778
(dp7779
g17
VROOT
p7780
sbasg246
(icmyPackage
CorE
p7781
(dp7782
g249
(lp7783
(I0
I1
tp7784
a(I0
I11
tp7785
asg253
g7697
sbsg254
(icmyPackage
CorE
p7786
(dp7787
g249
(lp7788
(I0
I13
tp7789
a(I0
I21
tp7790
asg253
g5
(g6
g7
(lp7791
g7727
ag7767
ag7772
atp7792
Rp7793
(dp7794
g17
g264
sbsbsg265
(icmyPackage
pattern
p7795
(dp7796
g268
I0
sg269
I0
sg270
(lp7797
(lp7798
(lp7799
S'if'
p7800
aS'once'
p7801
aaa(lp7802
g6831
aasg274
(lp7803
I1
aI1
aI1
asg276
(lp7804
S'If some light and mobile detection devices can be invented in the future, many new applications can be imagined, for example, people can get some services while thinking.'
p7805
asg279
I15
sg280
(lp7806
(lp7807
a(lp7808
S'&C@Complete@'
p7809
aa(lp7810
S'&R@Complete@'
p7811
aasbsg286
(lp7812
(icmyPackage
Sent
p7813
(dp7814
g290
I4
sg291
I40
sg292
S'if there is a citation path in each direction between two articles, then the authors share common interest and knowledge.'
p7815
sg294
I0
sg295
I110
sg253
(lp7816
g7778
asbasba(icmyPackage
CELink
p7817
(dp7818
g3
(lp7819
g5
(g6
g7
(lp7820
g5
(g6
g7
(lp7821
g5
(g6
g7
(lp7822
g5
(g6
g7
(lp7823
VBased
p7824
atp7825
Rp7826
(dp7827
g17
VVBN
p7828
sbag5
(g6
g7
(lp7829
g5
(g6
g7
(lp7830
Von
p7831
atp7832
Rp7833
(dp7834
g17
VIN
p7835
sbag5
(g6
g7
(lp7836
g5
(g6
g7
(lp7837
g5
(g6
g7
(lp7838
Vthe
p7839
atp7840
Rp7841
(dp7842
g17
VDT
p7843
sbag5
(g6
g7
(lp7844
Vevolution
p7845
atp7846
Rp7847
(dp7848
g17
VNN
p7849
sbatp7850
Rp7851
(dp7852
g17
VNP
p7853
sbag5
(g6
g7
(lp7854
g5
(g6
g7
(lp7855
Vof
p7856
atp7857
Rp7858
(dp7859
g17
VIN
p7860
sbag5
(g6
g7
(lp7861
g5
(g6
g7
(lp7862
Vrelevant
p7863
atp7864
Rp7865
(dp7866
g17
VJJ
p7867
sbag5
(g6
g7
(lp7868
Vknowledge
p7869
atp7870
Rp7871
(dp7872
g17
VNN
p7873
sbag5
(g6
g7
(lp7874
Vflow
p7875
atp7876
Rp7877
(dp7878
g17
VNN
p7879
sbag5
(g6
g7
(lp7880
Vnetworks
p7881
atp7882
Rp7883
(dp7884
g17
VNNS
p7885
sbatp7886
Rp7887
(dp7888
g17
VNP
p7889
sbatp7890
Rp7891
(dp7892
g17
VPP
p7893
sbatp7894
Rp7895
(dp7896
g17
VNP
p7897
sbatp7898
Rp7899
(dp7900
g17
VPP
p7901
sbatp7902
Rp7903
(dp7904
g17
VPP
p7905
sbag5
(g6
g7
(lp7906
g48
atp7907
Rp7908
(dp7909
g17
g48
sbag5
(g6
g7
(lp7910
g5
(g6
g7
(lp7911
Vthis
p7912
atp7913
Rp7914
(dp7915
g17
VDT
p7916
sbag5
(g6
g7
(lp7917
Vservice
p7918
atp7919
Rp7920
(dp7921
g17
VNN
p7922
sbatp7923
Rp7924
(dp7925
g17
VNP
p7926
sbag5
(g6
g7
(lp7927
g5
(g6
g7
(lp7928
g5
(g6
g7
(lp7929
Venables
p7930
atp7931
Rp7932
(dp7933
g17
VVBZ
p7934
sbag5
(g6
g7
(lp7935
g5
(g6
g7
(lp7936
Vscientists
p7937
atp7938
Rp7939
(dp7940
g17
VNNS
p7941
sbatp7942
Rp7943
(dp7944
g17
VNP
p7945
sbag5
(g6
g7
(lp7946
g5
(g6
g7
(lp7947
Vto
p7948
atp7949
Rp7950
(dp7951
g17
VTO
p7952
sbag5
(g6
g7
(lp7953
g5
(g6
g7
(lp7954
Vsimulate
p7955
atp7956
Rp7957
(dp7958
g17
VNNP
p7959
sbatp7960
Rp7961
(dp7962
g17
VNP
p7963
sbatp7964
Rp7965
(dp7966
g17
VPP
p7967
sbatp7968
Rp7969
(dp7970
g17
VVP
p7971
sbag5
(g6
g7
(lp7972
Vand
p7973
atp7974
Rp7975
(dp7976
g17
VCC
p7977
sbag5
(g6
g7
(lp7978
g5
(g6
g7
(lp7979
Vestimate
p7980
atp7981
Rp7982
(dp7983
g17
VVBP
p7984
sbag5
(g6
g7
(lp7985
g5
(g6
g7
(lp7986
g5
(g6
g7
(lp7987
Vthe
p7988
atp7989
Rp7990
(dp7991
g17
VDT
p7992
sbag5
(g6
g7
(lp7993
Vdevelopment
p7994
atp7995
Rp7996
(dp7997
g17
VNN
p7998
sbatp7999
Rp8000
(dp8001
g17
VNP
p8002
sbag5
(g6
g7
(lp8003
g5
(g6
g7
(lp8004
Vof
p8005
atp8006
Rp8007
(dp8008
g17
VIN
p8009
sbag5
(g6
g7
(lp8010
g5
(g6
g7
(lp8011
g355
atp8012
Rp8013
(dp8014
g17
VDT
p8015
sbag5
(g6
g7
(lp8016
Vdiscipline
p8017
atp8018
Rp8019
(dp8020
g17
VNN
p8021
sbatp8022
Rp8023
(dp8024
g17
VNP
p8025
sbatp8026
Rp8027
(dp8028
g17
VPP
p8029
sbatp8030
Rp8031
(dp8032
g17
VNP
p8033
sbatp8034
Rp8035
(dp8036
g17
VVP
p8037
sbag5
(g6
g7
(lp8038
g48
atp8039
Rp8040
(dp8041
g17
g48
sbag5
(g6
g7
(lp8042
Vand
p8043
atp8044
Rp8045
(dp8046
g17
VCC
p8047
sbag5
(g6
g7
(lp8048
g5
(g6
g7
(lp8049
Vthus
p8050
atp8051
Rp8052
(dp8053
g17
VRB
p8054
sbatp8055
Rp8056
(dp8057
g17
VADVP
p8058
sbag5
(g6
g7
(lp8059
g5
(g6
g7
(lp8060
Vhelps
p8061
atp8062
Rp8063
(dp8064
g17
VVBZ
p8065
sbag5
(g6
g7
(lp8066
g5
(g6
g7
(lp8067
g5
(g6
g7
(lp8068
g5
(g6
g7
(lp8069
Vthem
p8070
atp8071
Rp8072
(dp8073
g17
VPRP
p8074
sbatp8075
Rp8076
(dp8077
g17
VNP
p8078
sbag5
(g6
g7
(lp8079
g5
(g6
g7
(lp8080
Vplan
p8081
atp8082
Rp8083
(dp8084
g17
VVBP
p8085
sbag5
(g6
g7
(lp8086
g5
(g6
g7
(lp8087
Vresearch
p8088
atp8089
Rp8090
(dp8091
g17
VNN
p8092
sbatp8093
Rp8094
(dp8095
g17
VNP
p8096
sbatp8097
Rp8098
(dp8099
g17
VVP
p8100
sbatp8101
Rp8102
(dp8103
g17
g203
sbatp8104
Rp8105
(dp8106
g17
VSBAR
p8107
sbatp8108
Rp8109
(dp8110
g17
VVP
p8111
sbatp8112
Rp8113
(dp8114
g17
VVP
p8115
sbag5
(g6
g7
(lp8116
g235
atp8117
Rp8118
(dp8119
g17
g235
sbatp8120
Rp8121
(dp8122
g17
g203
sbatp8123
Rp8124
(dp8125
g17
VROOT
p8126
sbasg246
(icmyPackage
CorE
p8127
(dp8128
g249
(lp8129
(I0
I0
tp8130
a(I0
I22
tp8131
asg253
g5
(g6
g7
(lp8132
g7903
ag7908
ag7924
ag7969
ag7975
ag8035
atp8133
Rp8134
(dp8135
g17
g264
sbsbsg254
(icmyPackage
CorE
p8136
(dp8137
g249
(lp8138
(I0
I26
tp8139
a(I0
I30
tp8140
asg253
g5
(g6
g7
(lp8141
g8109
ag8118
atp8142
Rp8143
(dp8144
g17
g264
sbsbsg265
g1376
sg286
(lp8145
(icmyPackage
Sent
p8146
(dp8147
g290
I4
sg291
I43
sg292
S'Based on the evolution of relevant knowledge flow networks, this service enables scientists to simulate and estimate the development of a discipline, and thus helps them plan research.'
p8148
sg294
I0
sg295
I118
sg253
(lp8149
g8124
asbasba(icmyPackage
CELink
p8150
(dp8151
g3
(lp8152
g8134
asg246
(icmyPackage
CorE
p8153
(dp8154
g249
(lp8155
(I0
I2
tp8156
a(I0
I8
tp8157
asg253
g7895
sbsg254
(icmyPackage
CorE
p8158
(dp8159
g249
(lp8160
(I0
I10
tp8161
a(I0
I22
tp8162
asg253
g5
(g6
g7
(lp8163
g7924
ag7969
ag7975
ag8035
atp8164
Rp8165
(dp8166
g17
g264
sbsbsg265
(icmyPackage
pattern
p8167
(dp8168
g268
I0
sg269
I0
sg270
(lp8169
(lp8170
S'based'
p8171
aS'on'
p8172
aa(lp8173
g6831
aasg274
(lp8174
I2
aI1
aI1
asg276
(lp8175
S"He said that, based on his own experience, more students have been going back in recent years as their home countries' economies heat up."
p8176
asg279
I47
sg280
(lp8177
(lp8178
a(lp8179
S'&V-ing/&NP@C@'
p8180
aS'(&Clause@C@)'
p8181
aa(lp8182
S'&R'
p8183
aasbsg286
(lp8184
g8146
asba(icmyPackage
CELink
p8185
(dp8186
g3
(lp8187
g5
(g6
g7
(lp8188
g5
(g6
g7
(lp8189
g5
(g6
g7
(lp8190
g5
(g6
g7
(lp8191
g5
(g6
g7
(lp8192
V-LRB-
p8193
atp8194
Rp8195
(dp8196
g17
V-LRB-
p8197
sbag5
(g6
g7
(lp8198
g5
(g6
g7
(lp8199
V8
p8200
atp8201
Rp8202
(dp8203
g17
VCD
p8204
sbatp8205
Rp8206
(dp8207
g17
VNP
p8208
sbag5
(g6
g7
(lp8209
V-RRB-
p8210
atp8211
Rp8212
(dp8213
g17
V-RRB-
p8214
sbatp8215
Rp8216
(dp8217
g17
VPRN
p8218
sbatp8219
Rp8220
(dp8221
g17
VNP
p8222
sbag5
(g6
g7
(lp8223
g5
(g6
g7
(lp8224
VDetect
p8225
atp8226
Rp8227
(dp8228
g17
VVBZ
p8229
sbag5
(g6
g7
(lp8230
g5
(g6
g7
(lp8231
Van
p8232
atp8233
Rp8234
(dp8235
g17
VDT
p8236
sbag5
(g6
g7
(lp8237
Vemergent
p8238
atp8239
Rp8240
(dp8241
g17
VJJ
p8242
sbag5
(g6
g7
(lp8243
Vresearch
p8244
atp8245
Rp8246
(dp8247
g17
VNN
p8248
sbag5
(g6
g7
(lp8249
Varea
p8250
atp8251
Rp8252
(dp8253
g17
VNN
p8254
sbatp8255
Rp8256
(dp8257
g17
VNP
p8258
sbatp8259
Rp8260
(dp8261
g17
VVP
p8262
sbag5
(g6
g7
(lp8263
g235
atp8264
Rp8265
(dp8266
g17
g235
sbatp8267
Rp8268
(dp8269
g17
g203
sbatp8270
Rp8271
(dp8272
g17
VROOT
p8273
sbag5
(g6
g7
(lp8274
g5
(g6
g7
(lp8275
g5
(g6
g7
(lp8276
g5
(g6
g7
(lp8277
VThis
p8278
atp8279
Rp8280
(dp8281
g17
VDT
p8282
sbag5
(g6
g7
(lp8283
Vservice
p8284
atp8285
Rp8286
(dp8287
g17
VNN
p8288
sbatp8289
Rp8290
(dp8291
g17
VNP
p8292
sbag5
(g6
g7
(lp8293
g5
(g6
g7
(lp8294
Venables
p8295
atp8296
Rp8297
(dp8298
g17
VVBZ
p8299
sbag5
(g6
g7
(lp8300
g5
(g6
g7
(lp8301
g5
(g6
g7
(lp8302
Vscientists
p8303
atp8304
Rp8305
(dp8306
g17
VNNS
p8307
sbatp8308
Rp8309
(dp8310
g17
VNP
p8311
sbag5
(g6
g7
(lp8312
g5
(g6
g7
(lp8313
Vto
p8314
atp8315
Rp8316
(dp8317
g17
VTO
p8318
sbag5
(g6
g7
(lp8319
g5
(g6
g7
(lp8320
Vdetect
p8321
atp8322
Rp8323
(dp8324
g17
VVB
p8325
sbag5
(g6
g7
(lp8326
g5
(g6
g7
(lp8327
g5
(g6
g7
(lp8328
Vthe
p8329
atp8330
Rp8331
(dp8332
g17
VDT
p8333
sbag5
(g6
g7
(lp8334
Vemergence
p8335
atp8336
Rp8337
(dp8338
g17
VNN
p8339
sbatp8340
Rp8341
(dp8342
g17
VNP
p8343
sbag5
(g6
g7
(lp8344
g5
(g6
g7
(lp8345
Vof
p8346
atp8347
Rp8348
(dp8349
g17
VIN
p8350
sbag5
(g6
g7
(lp8351
g5
(g6
g7
(lp8352
g355
atp8353
Rp8354
(dp8355
g17
VDT
p8356
sbag5
(g6
g7
(lp8357
Vnew
p8358
atp8359
Rp8360
(dp8361
g17
VJJ
p8362
sbag5
(g6
g7
(lp8363
Varea
p8364
atp8365
Rp8366
(dp8367
g17
VNN
p8368
sbatp8369
Rp8370
(dp8371
g17
VNP
p8372
sbatp8373
Rp8374
(dp8375
g17
VPP
p8376
sbatp8377
Rp8378
(dp8379
g17
VNP
p8380
sbag5
(g6
g7
(lp8381
g5
(g6
g7
(lp8382
Vfrom
p8383
atp8384
Rp8385
(dp8386
g17
VIN
p8387
sbag5
(g6
g7
(lp8388
g5
(g6
g7
(lp8389
g5
(g6
g7
(lp8390
Vthe
p8391
atp8392
Rp8393
(dp8394
g17
VDT
p8395
sbag5
(g6
g7
(lp8396
Vconvergence
p8397
atp8398
Rp8399
(dp8400
g17
VNN
p8401
sbatp8402
Rp8403
(dp8404
g17
VNP
p8405
sbag5
(g6
g7
(lp8406
g5
(g6
g7
(lp8407
Vof
p8408
atp8409
Rp8410
(dp8411
g17
VIN
p8412
sbag5
(g6
g7
(lp8413
g5
(g6
g7
(lp8414
g5
(g6
g7
(lp8415
Vtwo
p8416
atp8417
Rp8418
(dp8419
g17
VCD
p8420
sbag5
(g6
g7
(lp8421
Vareas
p8422
atp8423
Rp8424
(dp8425
g17
VNNS
p8426
sbatp8427
Rp8428
(dp8429
g17
VNP
p8430
sbag5
(g6
g7
(lp8431
g48
atp8432
Rp8433
(dp8434
g17
g48
sbag5
(g6
g7
(lp8435
g5
(g6
g7
(lp8436
Vespecially
p8437
atp8438
Rp8439
(dp8440
g17
VRB
p8441
sbag5
(g6
g7
(lp8442
g355
atp8443
Rp8444
(dp8445
g17
VDT
p8446
sbag5
(g6
g7
(lp8447
Vmature
p8448
atp8449
Rp8450
(dp8451
g17
VJJ
p8452
sbag5
(g6
g7
(lp8453
Varea
p8454
atp8455
Rp8456
(dp8457
g17
VNN
p8458
sbatp8459
Rp8460
(dp8461
g17
VNP
p8462
sbag5
(g6
g7
(lp8463
Vand
p8464
atp8465
Rp8466
(dp8467
g17
VCC
p8468
sbag5
(g6
g7
(lp8469
g5
(g6
g7
(lp8470
g355
atp8471
Rp8472
(dp8473
g17
VDT
p8474
sbag5
(g6
g7
(lp8475
Vrelevant
p8476
atp8477
Rp8478
(dp8479
g17
VJJ
p8480
sbag5
(g6
g7
(lp8481
Vnew
p8482
atp8483
Rp8484
(dp8485
g17
VJJ
p8486
sbag5
(g6
g7
(lp8487
Varea
p8488
atp8489
Rp8490
(dp8491
g17
VNN
p8492
sbatp8493
Rp8494
(dp8495
g17
VNP
p8496
sbatp8497
Rp8498
(dp8499
g17
VNP
p8500
sbatp8501
Rp8502
(dp8503
g17
VPP
p8504
sbatp8505
Rp8506
(dp8507
g17
VNP
p8508
sbatp8509
Rp8510
(dp8511
g17
VPP
p8512
sbatp8513
Rp8514
(dp8515
g17
VVP
p8516
sbatp8517
Rp8518
(dp8519
g17
VVP
p8520
sbatp8521
Rp8522
(dp8523
g17
g203
sbatp8524
Rp8525
(dp8526
g17
VVP
p8527
sbag5
(g6
g7
(lp8528
g235
atp8529
Rp8530
(dp8531
g17
g235
sbatp8532
Rp8533
(dp8534
g17
g203
sbatp8535
Rp8536
(dp8537
g17
VROOT
p8538
sbasg246
(icmyPackage
CorE
p8539
(dp8540
g249
(lp8541
(I0
I0
tp8542
a(I0
I7
tp8543
asg253
g5
(g6
g7
(lp8544
g8220
ag8260
atp8545
Rp8546
(dp8547
g17
g264
sbsbsg254
(icmyPackage
CorE
p8548
(dp8549
g249
(lp8550
(I1
I3
tp8551
a(I1
I27
tp8552
asg253
g8522
sbsg265
g1593
sg286
(lp8553
(icmyPackage
Sent
p8554
(dp8555
g290
I4
sg291
I44
sg292
S'(8) Detect an emergent research area.'
p8556
sg294
I0
sg295
I119
sg253
(lp8557
g8271
asba(icmyPackage
Sent
p8558
(dp8559
g290
I4
sg291
I44
sg292
S'This service enables scientists to detect the emergence of a new area from the convergence of two areas, especially a mature area and a relevant new area.'
p8560
sg294
I0
sg295
I120
sg253
(lp8561
g8536
asbasba(icmyPackage
CELink
p8562
(dp8563
g3
(lp8564
g5
(g6
g7
(lp8565
g5
(g6
g7
(lp8566
g5
(g6
g7
(lp8567
g5
(g6
g7
(lp8568
g5
(g6
g7
(lp8569
VExtracting
p8570
atp8571
Rp8572
(dp8573
g17
VVBG
p8574
sbag5
(g6
g7
(lp8575
g5
(g6
g7
(lp8576
g5
(g6
g7
(lp8577
Vdocument
p8578
atp8579
Rp8580
(dp8581
g17
VNN
p8582
sbag5
(g6
g7
(lp8583
Vfragments
p8584
atp8585
Rp8586
(dp8587
g17
VNNS
p8588
sbatp8589
Rp8590
(dp8591
g17
VNP
p8592
sbag5
(g6
g7
(lp8593
g5
(g6
g7
(lp8594
g5
(g6
g7
(lp8595
Vthat
p8596
atp8597
Rp8598
(dp8599
g17
VWDT
p8600
sbatp8601
Rp8602
(dp8603
g17
VWHNP
p8604
sbag5
(g6
g7
(lp8605
g5
(g6
g7
(lp8606
g5
(g6
g7
(lp8607
Vcontain
p8608
atp8609
Rp8610
(dp8611
g17
VVBP
p8612
sbag5
(g6
g7
(lp8613
g5
(g6
g7
(lp8614
g5
(g6
g7
(lp8615
Vauthors
p8616
atp8617
Rp8618
(dp8619
g17
VNNS
p8620
sbatp8621
Rp8622
(dp8623
g17
VNP
p8624
sbag5
(g6
g7
(lp8625
g48
atp8626
Rp8627
(dp8628
g17
g48
sbag5
(g6
g7
(lp8629
g5
(g6
g7
(lp8630
Vaffiliations
p8631
atp8632
Rp8633
(dp8634
g17
VNNS
p8635
sbatp8636
Rp8637
(dp8638
g17
VNP
p8639
sbag5
(g6
g7
(lp8640
g48
atp8641
Rp8642
(dp8643
g17
g48
sbag5
(g6
g7
(lp8644
Vand
p8645
atp8646
Rp8647
(dp8648
g17
VCC
p8649
sbag5
(g6
g7
(lp8650
g5
(g6
g7
(lp8651
Vreferences
p8652
atp8653
Rp8654
(dp8655
g17
VNNS
p8656
sbatp8657
Rp8658
(dp8659
g17
VNP
p8660
sbatp8661
Rp8662
(dp8663
g17
VNP
p8664
sbatp8665
Rp8666
(dp8667
g17
VVP
p8668
sbatp8669
Rp8670
(dp8671
g17
g203
sbatp8672
Rp8673
(dp8674
g17
VSBAR
p8675
sbatp8676
Rp8677
(dp8678
g17
VNP
p8679
sbatp8680
Rp8681
(dp8682
g17
VVP
p8683
sbatp8684
Rp8685
(dp8686
g17
g203
sbag5
(g6
g7
(lp8687
g48
atp8688
Rp8689
(dp8690
g17
g48
sbag5
(g6
g7
(lp8691
g5
(g6
g7
(lp8692
Van
p8693
atp8694
Rp8695
(dp8696
g17
VDT
p8697
sbag5
(g6
g7
(lp8698
Vescience
p8699
atp8700
Rp8701
(dp8702
g17
VJJ
p8703
sbag5
(g6
g7
(lp8704
Vknowledge
p8705
atp8706
Rp8707
(dp8708
g17
VNN
p8709
sbag5
(g6
g7
(lp8710
Vgrid
p8711
atp8712
Rp8713
(dp8714
g17
VNN
p8715
sbag5
(g6
g7
(lp8716
Venvironment
p8717
atp8718
Rp8719
(dp8720
g17
VNN
p8721
sbatp8722
Rp8723
(dp8724
g17
VNP
p8725
sbag5
(g6
g7
(lp8726
g5
(g6
g7
(lp8727
Vcan
p8728
atp8729
Rp8730
(dp8731
g17
VMD
p8732
sbag5
(g6
g7
(lp8733
g5
(g6
g7
(lp8734
Vfind
p8735
atp8736
Rp8737
(dp8738
g17
VVB
p8739
sbag5
(g6
g7
(lp8740
g5
(g6
g7
(lp8741
g5
(g6
g7
(lp8742
Vuseful
p8743
atp8744
Rp8745
(dp8746
g17
VJJ
p8747
sbag5
(g6
g7
(lp8748
Vsemantic
p8749
atp8750
Rp8751
(dp8752
g17
VJJ
p8753
sbag5
(g6
g7
(lp8754
Vrelationships
p8755
atp8756
Rp8757
(dp8758
g17
VNNS
p8759
sbatp8760
Rp8761
(dp8762
g17
VNP
p8763
sbag5
(g6
g7
(lp8764
g5
(g6
g7
(lp8765
Vbetween
p8766
atp8767
Rp8768
(dp8769
g17
VIN
p8770
sbag5
(g6
g7
(lp8771
g5
(g6
g7
(lp8772
Vdocuments
p8773
atp8774
Rp8775
(dp8776
g17
VNNS
p8777
sbag5
(g6
g7
(lp8778
Vor
p8779
atp8780
Rp8781
(dp8782
g17
VCC
p8783
sbag5
(g6
g7
(lp8784
Vdocument
p8785
atp8786
Rp8787
(dp8788
g17
VNN
p8789
sbag5
(g6
g7
(lp8790
Vfragments
p8791
atp8792
Rp8793
(dp8794
g17
VNNS
p8795
sbatp8796
Rp8797
(dp8798
g17
VNP
p8799
sbatp8800
Rp8801
(dp8802
g17
VPP
p8803
sbatp8804
Rp8805
(dp8806
g17
VNP
p8807
sbatp8808
Rp8809
(dp8810
g17
VVP
p8811
sbatp8812
Rp8813
(dp8814
g17
VVP
p8815
sbag5
(g6
g7
(lp8816
g235
atp8817
Rp8818
(dp8819
g17
g235
sbatp8820
Rp8821
(dp8822
g17
g203
sbatp8823
Rp8824
(dp8825
g17
VROOT
p8826
sbasg246
(icmyPackage
CorE
p8827
(dp8828
g249
(lp8829
(I0
I0
tp8830
a(I0
I10
tp8831
asg253
g8685
sbsg254
(icmyPackage
CorE
p8832
(dp8833
g249
(lp8834
(I0
I12
tp8835
a(I0
I27
tp8836
asg253
g5
(g6
g7
(lp8837
g8723
ag8813
ag8818
atp8838
Rp8839
(dp8840
g17
g264
sbsbsg265
g2462
sg286
(lp8841
(icmyPackage
Sent
p8842
(dp8843
g290
I4
sg291
I50
sg292
S'Extracting document fragments that contain authors, affiliations, and references, an escience knowledge grid environment can find useful semantic relationships between documents or document fragments.'
p8844
sg294
I0
sg295
I127
sg253
(lp8845
g8824
asbasba(icmyPackage
CELink
p8846
(dp8847
g3
(lp8848
g5
(g6
g7
(lp8849
g5
(g6
g7
(lp8850
g5
(g6
g7
(lp8851
g5
(g6
g7
(lp8852
g5
(g6
g7
(lp8853
VAnalyzing
p8854
atp8855
Rp8856
(dp8857
g17
VVBG
p8858
sbag5
(g6
g7
(lp8859
g5
(g6
g7
(lp8860
g5
(g6
g7
(lp8861
Vthe
p8862
atp8863
Rp8864
(dp8865
g17
VDT
p8866
sbag5
(g6
g7
(lp8867
Vrelationship
p8868
atp8869
Rp8870
(dp8871
g17
VNN
p8872
sbatp8873
Rp8874
(dp8875
g17
VNP
p8876
sbag5
(g6
g7
(lp8877
g5
(g6
g7
(lp8878
Vbetween
p8879
atp8880
Rp8881
(dp8882
g17
VIN
p8883
sbag5
(g6
g7
(lp8884
g5
(g6
g7
(lp8885
g5
(g6
g7
(lp8886
Vauthors
p8887
atp8888
Rp8889
(dp8890
g17
VNNS
p8891
sbatp8892
Rp8893
(dp8894
g17
VNP
p8895
sbag5
(g6
g7
(lp8896
g48
atp8897
Rp8898
(dp8899
g17
g48
sbag5
(g6
g7
(lp8900
g5
(g6
g7
(lp8901
Varticles
p8902
atp8903
Rp8904
(dp8905
g17
VNNS
p8906
sbatp8907
Rp8908
(dp8909
g17
VNP
p8910
sbag5
(g6
g7
(lp8911
g48
atp8912
Rp8913
(dp8914
g17
g48
sbag5
(g6
g7
(lp8915
Vand
p8916
atp8917
Rp8918
(dp8919
g17
VCC
p8920
sbag5
(g6
g7
(lp8921
g5
(g6
g7
(lp8922
Vtheir
p8923
atp8924
Rp8925
(dp8926
g17
VPRP$
p8927
sbag5
(g6
g7
(lp8928
Vcitation
p8929
atp8930
Rp8931
(dp8932
g17
VNN
p8933
sbag5
(g6
g7
(lp8934
Vnetwork
p8935
atp8936
Rp8937
(dp8938
g17
VNN
p8939
sbatp8940
Rp8941
(dp8942
g17
VNP
p8943
sbatp8944
Rp8945
(dp8946
g17
VNP
p8947
sbatp8948
Rp8949
(dp8950
g17
VPP
p8951
sbatp8952
Rp8953
(dp8954
g17
VNP
p8955
sbatp8956
Rp8957
(dp8958
g17
VVP
p8959
sbatp8960
Rp8961
(dp8962
g17
g203
sbag5
(g6
g7
(lp8963
g48
atp8964
Rp8965
(dp8966
g17
g48
sbag5
(g6
g7
(lp8967
g5
(g6
g7
(lp8968
Vthe
p8969
atp8970
Rp8971
(dp8972
g17
VDT
p8973
sbag5
(g6
g7
(lp8974
Venvironment
p8975
atp8976
Rp8977
(dp8978
g17
VNN
p8979
sbatp8980
Rp8981
(dp8982
g17
VNP
p8983
sbag5
(g6
g7
(lp8984
g5
(g6
g7
(lp8985
g5
(g6
g7
(lp8986
Vcan
p8987
atp8988
Rp8989
(dp8990
g17
VMD
p8991
sbag5
(g6
g7
(lp8992
g5
(g6
g7
(lp8993
Vautomatically
p8994
atp8995
Rp8996
(dp8997
g17
VRB
p8998
sbatp8999
Rp9000
(dp9001
g17
VADVP
p9002
sbag5
(g6
g7
(lp9003
g5
(g6
g7
(lp9004
Vdiscover
p9005
atp9006
Rp9007
(dp9008
g17
VVB
p9009
sbag5
(g6
g7
(lp9010
g5
(g6
g7
(lp9011
Vknowledge
p9012
atp9013
Rp9014
(dp9015
g17
VNN
p9016
sbag5
(g6
g7
(lp9017
Vflow
p9018
atp9019
Rp9020
(dp9021
g17
VNN
p9022
sbag5
(g6
g7
(lp9023
Vnetworks
p9024
atp9025
Rp9026
(dp9027
g17
VNNS
p9028
sbatp9029
Rp9030
(dp9031
g17
VNP
p9032
sbatp9033
Rp9034
(dp9035
g17
VVP
p9036
sbatp9037
Rp9038
(dp9039
g17
VVP
p9040
sbag5
(g6
g7
(lp9041
Vand
p9042
atp9043
Rp9044
(dp9045
g17
VCC
p9046
sbag5
(g6
g7
(lp9047
g5
(g6
g7
(lp9048
Vcan
p9049
atp9050
Rp9051
(dp9052
g17
VMD
p9053
sbag5
(g6
g7
(lp9054
g5
(g6
g7
(lp9055
g5
(g6
g7
(lp9056
Vdistinguish
p9057
atp9058
Rp9059
(dp9060
g17
VVB
p9061
sbag5
(g6
g7
(lp9062
g5
(g6
g7
(lp9063
g5
(g6
g7
(lp9064
Vthe
p9065
atp9066
Rp9067
(dp9068
g17
VDT
p9069
sbag5
(g6
g7
(lp9070
Vtype
p9071
atp9072
Rp9073
(dp9074
g17
VNN
p9075
sbatp9076
Rp9077
(dp9078
g17
VNP
p9079
sbag5
(g6
g7
(lp9080
g5
(g6
g7
(lp9081
Vof
p9082
atp9083
Rp9084
(dp9085
g17
VIN
p9086
sbag5
(g6
g7
(lp9087
g5
(g6
g7
(lp9088
Vknowledge
p9089
atp9090
Rp9091
(dp9092
g17
VNN
p9093
sbag5
(g6
g7
(lp9094
Vnodes
p9095
atp9096
Rp9097
(dp9098
g17
VNNS
p9099
sbatp9100
Rp9101
(dp9102
g17
VNP
p9103
sbatp9104
Rp9105
(dp9106
g17
VPP
p9107
sbatp9108
Rp9109
(dp9110
g17
VNP
p9111
sbag5
(g6
g7
(lp9112
g5
(g6
g7
(lp9113
g5
(g6
g7
(lp9114
Vusing
p9115
atp9116
Rp9117
(dp9118
g17
VVBG
p9119
sbag5
(g6
g7
(lp9120
g5
(g6
g7
(lp9121
Vranking
p9122
atp9123
Rp9124
(dp9125
g17
VJJ
p9126
sbag5
(g6
g7
(lp9127
Valgorithms
p9128
atp9129
Rp9130
(dp9131
g17
VNNS
p9132
sbatp9133
Rp9134
(dp9135
g17
VNP
p9136
sbatp9137
Rp9138
(dp9139
g17
VVP
p9140
sbatp9141
Rp9142
(dp9143
g17
g203
sbatp9144
Rp9145
(dp9146
g17
VVP
p9147
sbag5
(g6
g7
(lp9148
Vand
p9149
atp9150
Rp9151
(dp9152
g17
VCC
p9153
sbag5
(g6
g7
(lp9154
g5
(g6
g7
(lp9155
Vtrace
p9156
atp9157
Rp9158
(dp9159
g17
VVB
p9160
sbag5
(g6
g7
(lp9161
g5
(g6
g7
(lp9162
Vtheir
p9163
atp9164
Rp9165
(dp9166
g17
VPRP$
p9167
sbag5
(g6
g7
(lp9168
Vevolution
p9169
atp9170
Rp9171
(dp9172
g17
VNN
p9173
sbatp9174
Rp9175
(dp9176
g17
VNP
p9177
sbatp9178
Rp9179
(dp9180
g17
VVP
p9181
sbatp9182
Rp9183
(dp9184
g17
VVP
p9185
sbatp9186
Rp9187
(dp9188
g17
VVP
p9189
sbatp9190
Rp9191
(dp9192
g17
VVP
p9193
sbag5
(g6
g7
(lp9194
g235
atp9195
Rp9196
(dp9197
g17
g235
sbatp9198
Rp9199
(dp9200
g17
g203
sbatp9201
Rp9202
(dp9203
g17
VROOT
p9204
sbasg246
(icmyPackage
CorE
p9205
(dp9206
g249
(lp9207
(I0
I0
tp9208
a(I0
I11
tp9209
asg253
g8961
sbsg254
(icmyPackage
CorE
p9210
(dp9211
g249
(lp9212
(I0
I13
tp9213
a(I0
I36
tp9214
asg253
g5
(g6
g7
(lp9215
g8981
ag9191
ag9196
atp9216
Rp9217
(dp9218
g17
g264
sbsbsg265
g2462
sg286
(lp9219
(icmyPackage
Sent
p9220
(dp9221
g290
I4
sg291
I50
sg292
S'Analyzing the relationship between authors, articles, and their citation network, the environment can automatically discover knowledge flow networks and can distinguish the type of knowledge nodes using ranking algorithms and trace their evolution.'
p9222
sg294
I0
sg295
I128
sg253
(lp9223
g9202
asbasba(icmyPackage
CELink
p9224
(dp9225
g3
(lp9226
g5
(g6
g7
(lp9227
g5
(g6
g7
(lp9228
g5
(g6
g7
(lp9229
g5
(g6
g7
(lp9230
VBy
p9231
atp9232
Rp9233
(dp9234
g17
VIN
p9235
sbag5
(g6
g7
(lp9236
g5
(g6
g7
(lp9237
g5
(g6
g7
(lp9238
g5
(g6
g7
(lp9239
Vextracting
p9240
atp9241
Rp9242
(dp9243
g17
VVBG
p9244
sbag5
(g6
g7
(lp9245
g5
(g6
g7
(lp9246
g5
(g6
g7
(lp9247
Vcomments
p9248
atp9249
Rp9250
(dp9251
g17
VNNS
p9252
sbag5
(g6
g7
(lp9253
Vand
p9254
atp9255
Rp9256
(dp9257
g17
VCC
p9258
sbag5
(g6
g7
(lp9259
Vcomparisons
p9260
atp9261
Rp9262
(dp9263
g17
VNNS
p9264
sbatp9265
Rp9266
(dp9267
g17
VNP
p9268
sbag5
(g6
g7
(lp9269
g5
(g6
g7
(lp9270
Vof
p9271
atp9272
Rp9273
(dp9274
g17
VIN
p9275
sbag5
(g6
g7
(lp9276
g5
(g6
g7
(lp9277
Vthe
p9278
atp9279
Rp9280
(dp9281
g17
VDT
p9282
sbag5
(g6
g7
(lp9283
Vcited
p9284
atp9285
Rp9286
(dp9287
g17
VJJ
p9288
sbag5
(g6
g7
(lp9289
Varticles
p9290
atp9291
Rp9292
(dp9293
g17
VNNS
p9294
sbatp9295
Rp9296
(dp9297
g17
VNP
p9298
sbatp9299
Rp9300
(dp9301
g17
VPP
p9302
sbatp9303
Rp9304
(dp9305
g17
VNP
p9306
sbatp9307
Rp9308
(dp9309
g17
VVP
p9310
sbag5
(g6
g7
(lp9311
Vand
p9312
atp9313
Rp9314
(dp9315
g17
VCC
p9316
sbag5
(g6
g7
(lp9317
g5
(g6
g7
(lp9318
Vthen
p9319
atp9320
Rp9321
(dp9322
g17
VRB
p9323
sbatp9324
Rp9325
(dp9326
g17
VADVP
p9327
sbag5
(g6
g7
(lp9328
g5
(g6
g7
(lp9329
Vorganizing
p9330
atp9331
Rp9332
(dp9333
g17
VVBG
p9334
sbag5
(g6
g7
(lp9335
g5
(g6
g7
(lp9336
Vthem
p9337
atp9338
Rp9339
(dp9340
g17
VPRP
p9341
sbatp9342
Rp9343
(dp9344
g17
VNP
p9345
sbag5
(g6
g7
(lp9346
g5
(g6
g7
(lp9347
Vaccording
p9348
atp9349
Rp9350
(dp9351
g17
VVBG
p9352
sbag5
(g6
g7
(lp9353
g5
(g6
g7
(lp9354
Vto
p9355
atp9356
Rp9357
(dp9358
g17
VTO
p9359
sbag5
(g6
g7
(lp9360
g5
(g6
g7
(lp9361
Vthe
p9362
atp9363
Rp9364
(dp9365
g17
VDT
p9366
sbag5
(g6
g7
(lp9367
Vtime
p9368
atp9369
Rp9370
(dp9371
g17
VNN
p9372
sbatp9373
Rp9374
(dp9375
g17
VNP
p9376
sbatp9377
Rp9378
(dp9379
g17
VPP
p9380
sbatp9381
Rp9382
(dp9383
g17
VPP
p9384
sbatp9385
Rp9386
(dp9387
g17
VVP
p9388
sbatp9389
Rp9390
(dp9391
g17
VVP
p9392
sbatp9393
Rp9394
(dp9395
g17
g203
sbatp9396
Rp9397
(dp9398
g17
VPP
p9399
sbag5
(g6
g7
(lp9400
g5
(g6
g7
(lp9401
Vof
p9402
atp9403
Rp9404
(dp9405
g17
VIN
p9406
sbag5
(g6
g7
(lp9407
g5
(g6
g7
(lp9408
Vpublication
p9409
atp9410
Rp9411
(dp9412
g17
VNN
p9413
sbatp9414
Rp9415
(dp9416
g17
VNP
p9417
sbatp9418
Rp9419
(dp9420
g17
VPP
p9421
sbag5
(g6
g7
(lp9422
g48
atp9423
Rp9424
(dp9425
g17
g48
sbag5
(g6
g7
(lp9426
g5
(g6
g7
(lp9427
g5
(g6
g7
(lp9428
Vdiscovers
p9429
atp9430
Rp9431
(dp9432
g17
VVBZ
p9433
sbatp9434
Rp9435
(dp9436
g17
VVP
p9437
sbag5
(g6
g7
(lp9438
Vand
p9439
atp9440
Rp9441
(dp9442
g17
VCC
p9443
sbag5
(g6
g7
(lp9444
g5
(g6
g7
(lp9445
Vdisplays
p9446
atp9447
Rp9448
(dp9449
g17
VVBZ
p9450
sbag5
(g6
g7
(lp9451
g5
(g6
g7
(lp9452
g5
(g6
g7
(lp9453
Vhow
p9454
atp9455
Rp9456
(dp9457
g17
VWRB
p9458
sbatp9459
Rp9460
(dp9461
g17
VWHADVP
p9462
sbag5
(g6
g7
(lp9463
g5
(g6
g7
(lp9464
g5
(g6
g7
(lp9465
Vthe
p9466
atp9467
Rp9468
(dp9469
g17
VDT
p9470
sbag5
(g6
g7
(lp9471
Varea
p9472
atp9473
Rp9474
(dp9475
g17
VNN
p9476
sbatp9477
Rp9478
(dp9479
g17
VNP
p9480
sbag5
(g6
g7
(lp9481
g5
(g6
g7
(lp9482
Vhas
p9483
atp9484
Rp9485
(dp9486
g17
VVBZ
p9487
sbag5
(g6
g7
(lp9488
g5
(g6
g7
(lp9489
Vdeveloped
p9490
atp9491
Rp9492
(dp9493
g17
VVBN
p9494
sbag5
(g6
g7
(lp9495
g5
(g6
g7
(lp9496
Vas
p9497
atp9498
Rp9499
(dp9500
g17
VIN
p9501
sbag5
(g6
g7
(lp9502
g5
(g6
g7
(lp9503
g355
atp9504
Rp9505
(dp9506
g17
VDT
p9507
sbag5
(g6
g7
(lp9508
Vresearch
p9509
atp9510
Rp9511
(dp9512
g17
VNN
p9513
sbag5
(g6
g7
(lp9514
Vliterature
p9515
atp9516
Rp9517
(dp9518
g17
VNN
p9519
sbatp9520
Rp9521
(dp9522
g17
VNP
p9523
sbatp9524
Rp9525
(dp9526
g17
VPP
p9527
sbatp9528
Rp9529
(dp9530
g17
VVP
p9531
sbatp9532
Rp9533
(dp9534
g17
VVP
p9535
sbatp9536
Rp9537
(dp9538
g17
g203
sbatp9539
Rp9540
(dp9541
g17
VSBAR
p9542
sbatp9543
Rp9544
(dp9545
g17
VVP
p9546
sbatp9547
Rp9548
(dp9549
g17
VVP
p9550
sbag5
(g6
g7
(lp9551
g235
atp9552
Rp9553
(dp9554
g17
g235
sbatp9555
Rp9556
(dp9557
g17
g203
sbatp9558
Rp9559
(dp9560
g17
VROOT
p9561
sbasg246
(icmyPackage
CorE
p9562
(dp9563
g249
(lp9564
(I0
I15
tp9565
a(I0
I18
tp9566
asg253
g5
(g6
g7
(lp9567
g9374
ag9419
atp9568
Rp9569
(dp9570
g17
g264
sbsbsg254
(icmyPackage
CorE
p9571
(dp9572
g249
(lp9573
(I0
I20
tp9574
a(I0
I32
tp9575
asg253
g5
(g6
g7
(lp9576
g9548
ag9553
atp9577
Rp9578
(dp9579
g17
g264
sbsbsg265
g6824
sg286
(lp9580
(icmyPackage
Sent
p9581
(dp9582
g290
I4
sg291
I50
sg292
S'By extracting comments and comparisons of the cited articles and then organizing them according to the time of publication, discovers and displays how the area has developed as a research literature.'
p9583
sg294
I0
sg295
I129
sg253
(lp9584
g9559
asbasba(icmyPackage
CELink
p9585
(dp9586
g3
(lp9587
g5
(g6
g7
(lp9588
g5
(g6
g7
(lp9589
g5
(g6
g7
(lp9590
g5
(g6
g7
(lp9591
VFigure
p9592
atp9593
Rp9594
(dp9595
g17
VNN
p9596
sbag5
(g6
g7
(lp9597
g4594
atp9598
Rp9599
(dp9600
g17
VCD
p9601
sbatp9602
Rp9603
(dp9604
g17
VNP
p9605
sbag5
(g6
g7
(lp9606
g5
(g6
g7
(lp9607
Vshows
p9608
atp9609
Rp9610
(dp9611
g17
VVBZ
p9612
sbag5
(g6
g7
(lp9613
g5
(g6
g7
(lp9614
g355
atp9615
Rp9616
(dp9617
g17
VDT
p9618
sbag5
(g6
g7
(lp9619
Vtool
p9620
atp9621
Rp9622
(dp9623
g17
VNN
p9624
sbatp9625
Rp9626
(dp9627
g17
VNP
p9628
sbag5
(g6
g7
(lp9629
g5
(g6
g7
(lp9630
Vfor
p9631
atp9632
Rp9633
(dp9634
g17
VIN
p9635
sbag5
(g6
g7
(lp9636
g5
(g6
g7
(lp9637
g5
(g6
g7
(lp9638
Vvisualizing
p9639
atp9640
Rp9641
(dp9642
g17
VVBG
p9643
sbag5
(g6
g7
(lp9644
g5
(g6
g7
(lp9645
g5
(g6
g7
(lp9646
Vthe
p9647
atp9648
Rp9649
(dp9650
g17
VDT
p9651
sbag5
(g6
g7
(lp9652
Vsemantic
p9653
atp9654
Rp9655
(dp9656
g17
VJJ
p9657
sbag5
(g6
g7
(lp9658
Vmap
p9659
atp9660
Rp9661
(dp9662
g17
VNN
p9663
sbatp9664
Rp9665
(dp9666
g17
VNP
p9667
sbag5
(g6
g7
(lp9668
g5
(g6
g7
(lp9669
g5
(g6
g7
(lp9670
Vwhere
p9671
atp9672
Rp9673
(dp9674
g17
VWRB
p9675
sbatp9676
Rp9677
(dp9678
g17
VWHADVP
p9679
sbag5
(g6
g7
(lp9680
g5
(g6
g7
(lp9681
g5
(g6
g7
(lp9682
Vthe
p9683
atp9684
Rp9685
(dp9686
g17
VDT
p9687
sbag5
(g6
g7
(lp9688
Vcenter
p9689
atp9690
Rp9691
(dp9692
g17
VNN
p9693
sbag5
(g6
g7
(lp9694
Vnodes
p9695
atp9696
Rp9697
(dp9698
g17
VNNS
p9699
sbatp9700
Rp9701
(dp9702
g17
VNP
p9703
sbag5
(g6
g7
(lp9704
g5
(g6
g7
(lp9705
Vcan
p9706
atp9707
Rp9708
(dp9709
g17
VMD
p9710
sbag5
(g6
g7
(lp9711
g5
(g6
g7
(lp9712
Vtrace
p9713
atp9714
Rp9715
(dp9716
g17
VVB
p9717
sbag5
(g6
g7
(lp9718
g5
(g6
g7
(lp9719
g5
(g6
g7
(lp9720
Vthe
p9721
atp9722
Rp9723
(dp9724
g17
VDT
p9725
sbag5
(g6
g7
(lp9726
Vuser
p9727
atp9728
Rp9729
(dp9730
g17
VNN
p9731
sbag5
(g6
g7
(lp9732
V's
p9733
atp9734
Rp9735
(dp9736
g17
VPOS
p9737
sbatp9738
Rp9739
(dp9740
g17
VNP
p9741
sbag5
(g6
g7
(lp9742
Vinterest
p9743
atp9744
Rp9745
(dp9746
g17
VNN
p9747
sbatp9748
Rp9749
(dp9750
g17
VNP
p9751
sbatp9752
Rp9753
(dp9754
g17
VVP
p9755
sbatp9756
Rp9757
(dp9758
g17
VVP
p9759
sbatp9760
Rp9761
(dp9762
g17
g203
sbatp9763
Rp9764
(dp9765
g17
VSBAR
p9766
sbatp9767
Rp9768
(dp9769
g17
VNP
p9770
sbatp9771
Rp9772
(dp9773
g17
VVP
p9774
sbatp9775
Rp9776
(dp9777
g17
g203
sbatp9778
Rp9779
(dp9780
g17
VPP
p9781
sbatp9782
Rp9783
(dp9784
g17
VVP
p9785
sbag5
(g6
g7
(lp9786
g235
atp9787
Rp9788
(dp9789
g17
g235
sbatp9790
Rp9791
(dp9792
g17
g203
sbatp9793
Rp9794
(dp9795
g17
VROOT
p9796
sbasg246
(icmyPackage
CorE
p9797
(dp9798
g249
(lp9799
(I0
I6
tp9800
a(I0
I19
tp9801
asg253
g9776
sbsg254
(icmyPackage
CorE
p9802
(dp9803
g249
(lp9804
(I0
I0
tp9805
a(I0
I4
tp9806
asg253
g5
(g6
g7
(lp9807
g9603
ag9610
ag9626
atp9808
Rp9809
(dp9810
g17
g264
sbsbsg265
g266
sg286
(lp9811
(icmyPackage
Sent
p9812
(dp9813
g290
I5
sg291
I53
sg292
S"Figure 3 shows a tool for visualizing the semantic map where the center nodes can trace the user's interest."
p9814
sg294
I0
sg295
I139
sg253
(lp9815
g9794
asbasba(icmyPackage
CELink
p9816
(dp9817
g3
(lp9818
g5
(g6
g7
(lp9819
g5
(g6
g7
(lp9820
g5
(g6
g7
(lp9821
g5
(g6
g7
(lp9822
g5
(g6
g7
(lp9823
VResearch
p9824
atp9825
Rp9826
(dp9827
g17
VNNP
p9828
sbatp9829
Rp9830
(dp9831
g17
VNP
p9832
sbag5
(g6
g7
(lp9833
g5
(g6
g7
(lp9834
Vhas
p9835
atp9836
Rp9837
(dp9838
g17
VVBZ
p9839
sbag5
(g6
g7
(lp9840
g5
(g6
g7
(lp9841
Vshown
p9842
atp9843
Rp9844
(dp9845
g17
VVBN
p9846
sbag5
(g6
g7
(lp9847
g5
(g6
g7
(lp9848
g5
(g6
g7
(lp9849
g5
(g6
g7
(lp9850
Vthe
p9851
atp9852
Rp9853
(dp9854
g17
VDT
p9855
sbag5
(g6
g7
(lp9856
Vcontact
p9857
atp9858
Rp9859
(dp9860
g17
VNN
p9861
sbag5
(g6
g7
(lp9862
Vnetwork
p9863
atp9864
Rp9865
(dp9866
g17
VNN
p9867
sbatp9868
Rp9869
(dp9870
g17
VNP
p9871
sbag5
(g6
g7
(lp9872
Vand
p9873
atp9874
Rp9875
(dp9876
g17
VCC
p9877
sbag5
(g6
g7
(lp9878
g5
(g6
g7
(lp9879
Vthe
p9880
atp9881
Rp9882
(dp9883
g17
VDT
p9884
sbag5
(g6
g7
(lp9885
Vvirus
p9886
atp9887
Rp9888
(dp9889
g17
VNN
p9890
sbag5
(g6
g7
(lp9891
Vspread
p9892
atp9893
Rp9894
(dp9895
g17
VNN
p9896
sbag5
(g6
g7
(lp9897
Vmodel
p9898
atp9899
Rp9900
(dp9901
g17
VNN
p9902
sbatp9903
Rp9904
(dp9905
g17
VNP
p9906
sbatp9907
Rp9908
(dp9909
g17
VNP
p9910
sbag5
(g6
g7
(lp9911
g5
(g6
g7
(lp9912
Vdetermine
p9913
atp9914
Rp9915
(dp9916
g17
VVB
p9917
sbag5
(g6
g7
(lp9918
g5
(g6
g7
(lp9919
g5
(g6
g7
(lp9920
Vthe
p9921
atp9922
Rp9923
(dp9924
g17
VDT
p9925
sbag5
(g6
g7
(lp9926
Vspread
p9927
atp9928
Rp9929
(dp9930
g17
VNN
p9931
sbatp9932
Rp9933
(dp9934
g17
VNP
p9935
sbag5
(g6
g7
(lp9936
g5
(g6
g7
(lp9937
Vof
p9938
atp9939
Rp9940
(dp9941
g17
VIN
p9942
sbag5
(g6
g7
(lp9943
g5
(g6
g7
(lp9944
g5
(g6
g7
(lp9945
Vepidemics
p9946
atp9947
Rp9948
(dp9949
g17
VNNS
p9950
sbatp9951
Rp9952
(dp9953
g17
VNP
p9954
sbag5
(g6
g7
(lp9955
g5
(g6
g7
(lp9956
V-LSB-
p9957
atp9958
Rp9959
(dp9960
g17
VVBG
p9961
sbag5
(g6
g7
(lp9962
g5
(g6
g7
(lp9963
V11
p9964
atp9965
Rp9966
(dp9967
g17
VCD
p9968
sbag5
(g6
g7
(lp9969
V-RSB-
p9970
atp9971
Rp9972
(dp9973
g17
VNNS
p9974
sbatp9975
Rp9976
(dp9977
g17
VNP
p9978
sbatp9979
Rp9980
(dp9981
g17
VVP
p9982
sbatp9983
Rp9984
(dp9985
g17
VNP
p9986
sbatp9987
Rp9988
(dp9989
g17
VPP
p9990
sbatp9991
Rp9992
(dp9993
g17
VNP
p9994
sbatp9995
Rp9996
(dp9997
g17
VVP
p9998
sbatp9999
Rp10000
(dp10001
g17
g203
sbatp10002
Rp10003
(dp10004
g17
VVP
p10005
sbatp10006
Rp10007
(dp10008
g17
VVP
p10009
sbatp10010
Rp10011
(dp10012
g17
g203
sbag5
(g6
g7
(lp10013
g48
atp10014
Rp10015
(dp10016
g17
g48
sbag5
(g6
g7
(lp10017
Vso
p10018
atp10019
Rp10020
(dp10021
g17
VIN
p10022
sbag5
(g6
g7
(lp10023
g5
(g6
g7
(lp10024
g5
(g6
g7
(lp10025
g5
(g6
g7
(lp10026
Vthe
p10027
atp10028
Rp10029
(dp10030
g17
VDT
p10031
sbag5
(g6
g7
(lp10032
Vevolution
p10033
atp10034
Rp10035
(dp10036
g17
VNN
p10037
sbatp10038
Rp10039
(dp10040
g17
VNP
p10041
sbag5
(g6
g7
(lp10042
g5
(g6
g7
(lp10043
Vof
p10044
atp10045
Rp10046
(dp10047
g17
VIN
p10048
sbag5
(g6
g7
(lp10049
g5
(g6
g7
(lp10050
Vthe
p10051
atp10052
Rp10053
(dp10054
g17
VDT
p10055
sbag5
(g6
g7
(lp10056
Vcontact
p10057
atp10058
Rp10059
(dp10060
g17
VNN
p10061
sbag5
(g6
g7
(lp10062
Vnetwork
p10063
atp10064
Rp10065
(dp10066
g17
VNN
p10067
sbatp10068
Rp10069
(dp10070
g17
VNP
p10071
sbatp10072
Rp10073
(dp10074
g17
VPP
p10075
sbatp10076
Rp10077
(dp10078
g17
VNP
p10079
sbag5
(g6
g7
(lp10080
g5
(g6
g7
(lp10081
Vinfluences
p10082
atp10083
Rp10084
(dp10085
g17
VVBZ
p10086
sbag5
(g6
g7
(lp10087
g5
(g6
g7
(lp10088
Van
p10089
atp10090
Rp10091
(dp10092
g17
VDT
p10093
sbag5
(g6
g7
(lp10094
Vepidemic
p10095
atp10096
Rp10097
(dp10098
g17
VNN
p10099
sbatp10100
Rp10101
(dp10102
g17
VNP
p10103
sbatp10104
Rp10105
(dp10106
g17
VVP
p10107
sbatp10108
Rp10109
(dp10110
g17
g203
sbag5
(g6
g7
(lp10111
g235
atp10112
Rp10113
(dp10114
g17
g235
sbatp10115
Rp10116
(dp10117
g17
g203
sbatp10118
Rp10119
(dp10120
g17
VROOT
p10121
sbasg246
(icmyPackage
CorE
p10122
(dp10123
g249
(lp10124
(I0
I0
tp10125
a(I0
I18
tp10126
asg253
g10011
sbsg254
(icmyPackage
CorE
p10127
(dp10128
g249
(lp10129
(I0
I21
tp10130
a(I0
I30
tp10131
asg253
g5
(g6
g7
(lp10132
g10109
ag10113
atp10133
Rp10134
(dp10135
g17
g264
sbsbsg265
(icmyPackage
pattern
p10136
(dp10137
g268
I265
sg269
I1
sg270
(lp10138
(lp10139
S'so'
p10140
aasg274
(lp10141
I1
aI1
aI1
asg276
(lp10142
S'It was not long before he saw me looking at him, and so he began to move.'
p10143
asg279
I0
sg280
(lp10144
(lp10145
S'&C'
p10146
aS'(,/;/./--)'
p10147
aS'(&AND)'
p10148
aa(lp10149
S'(-far)'
p10150
aS'(,)'
p10151
aS'&R'
p10152
aasbsg286
(lp10153
(icmyPackage
Sent
p10154
(dp10155
g290
I5
sg291
I54
sg292
S'Research has shown the contact network and the virus spread model determine the spread of epidemics [11], so the evolution of the contact network influences an epidemic.'
p10156
sg294
I0
sg295
I142
sg253
(lp10157
g10119
asbasba(icmyPackage
CELink
p10158
(dp10159
g3
(lp10160
g5
(g6
g7
(lp10161
g5
(g6
g7
(lp10162
g5
(g6
g7
(lp10163
g5
(g6
g7
(lp10164
VUnlike
p10165
atp10166
Rp10167
(dp10168
g17
VIN
p10169
sbag5
(g6
g7
(lp10170
g5
(g6
g7
(lp10171
g5
(g6
g7
(lp10172
Vdata
p10173
atp10174
Rp10175
(dp10176
g17
VNN
p10177
sbag5
(g6
g7
(lp10178
Vand
p10179
atp10180
Rp10181
(dp10182
g17
VCC
p10183
sbag5
(g6
g7
(lp10184
Vcontrol
p10185
atp10186
Rp10187
(dp10188
g17
VNN
p10189
sbag5
(g6
g7
(lp10190
Vflows
p10191
atp10192
Rp10193
(dp10194
g17
VNNS
p10195
sbatp10196
Rp10197
(dp10198
g17
VNP
p10199
sbag5
(g6
g7
(lp10200
g5
(g6
g7
(lp10201
Vin
p10202
atp10203
Rp10204
(dp10205
g17
VIN
p10206
sbag5
(g6
g7
(lp10207
g5
(g6
g7
(lp10208
g5
(g6
g7
(lp10209
Vworkflows
p10210
atp10211
Rp10212
(dp10213
g17
VNNS
p10214
sbatp10215
Rp10216
(dp10217
g17
VNP
p10218
sbag5
(g6
g7
(lp10219
g48
atp10220
Rp10221
(dp10222
g17
g48
sbag5
(g6
g7
(lp10223
g5
(g6
g7
(lp10224
g5
(g6
g7
(lp10225
Vwhich
p10226
atp10227
Rp10228
(dp10229
g17
VWDT
p10230
sbatp10231
Rp10232
(dp10233
g17
VWHNP
p10234
sbag5
(g6
g7
(lp10235
g5
(g6
g7
(lp10236
g5
(g6
g7
(lp10237
Vare
p10238
atp10239
Rp10240
(dp10241
g17
VVBP
p10242
sbag5
(g6
g7
(lp10243
g5
(g6
g7
(lp10244
Vpredefined
p10245
atp10246
Rp10247
(dp10248
g17
VVBN
p10249
sbag5
(g6
g7
(lp10250
Vor
p10251
atp10252
Rp10253
(dp10254
g17
VCC
p10255
sbag5
(g6
g7
(lp10256
Vadapted
p10257
atp10258
Rp10259
(dp10260
g17
VVBN
p10261
sbag5
(g6
g7
(lp10262
g5
(g6
g7
(lp10263
Vaccording
p10264
atp10265
Rp10266
(dp10267
g17
VVBG
p10268
sbag5
(g6
g7
(lp10269
g5
(g6
g7
(lp10270
Vto
p10271
atp10272
Rp10273
(dp10274
g17
VTO
p10275
sbag5
(g6
g7
(lp10276
g5
(g6
g7
(lp10277
Vactivities
p10278
atp10279
Rp10280
(dp10281
g17
VNNS
p10282
sbag5
(g6
g7
(lp10283
Vand
p10284
atp10285
Rp10286
(dp10287
g17
VCC
p10288
sbag5
(g6
g7
(lp10289
Vchanges
p10290
atp10291
Rp10292
(dp10293
g17
VNNS
p10294
sbatp10295
Rp10296
(dp10297
g17
VNP
p10298
sbatp10299
Rp10300
(dp10301
g17
VPP
p10302
sbatp10303
Rp10304
(dp10305
g17
VPP
p10306
sbatp10307
Rp10308
(dp10309
g17
VVP
p10310
sbatp10311
Rp10312
(dp10313
g17
VVP
p10314
sbatp10315
Rp10316
(dp10317
g17
g203
sbatp10318
Rp10319
(dp10320
g17
VSBAR
p10321
sbatp10322
Rp10323
(dp10324
g17
VNP
p10325
sbatp10326
Rp10327
(dp10328
g17
VPP
p10329
sbatp10330
Rp10331
(dp10332
g17
VNP
p10333
sbatp10334
Rp10335
(dp10336
g17
VPP
p10337
sbag5
(g6
g7
(lp10338
g48
atp10339
Rp10340
(dp10341
g17
g48
sbag5
(g6
g7
(lp10342
g5
(g6
g7
(lp10343
Vknowledge
p10344
atp10345
Rp10346
(dp10347
g17
VNN
p10348
sbag5
(g6
g7
(lp10349
Vflows
p10350
atp10351
Rp10352
(dp10353
g17
VNNS
p10354
sbatp10355
Rp10356
(dp10357
g17
VNP
p10358
sbag5
(g6
g7
(lp10359
g5
(g6
g7
(lp10360
Vare
p10361
atp10362
Rp10363
(dp10364
g17
VVBP
p10365
sbag5
(g6
g7
(lp10366
g5
(g6
g7
(lp10367
g5
(g6
g7
(lp10368
Vbehind
p10369
atp10370
Rp10371
(dp10372
g17
VIN
p10373
sbag5
(g6
g7
(lp10374
g5
(g6
g7
(lp10375
g5
(g6
g7
(lp10376
Vthe
p10377
atp10378
Rp10379
(dp10380
g17
VDT
p10381
sbag5
(g6
g7
(lp10382
Vinteraction
p10383
atp10384
Rp10385
(dp10386
g17
VNN
p10387
sbatp10388
Rp10389
(dp10390
g17
VNP
p10391
sbag5
(g6
g7
(lp10392
g5
(g6
g7
(lp10393
Vamong
p10394
atp10395
Rp10396
(dp10397
g17
VIN
p10398
sbag5
(g6
g7
(lp10399
g5
(g6
g7
(lp10400
Vteam
p10401
atp10402
Rp10403
(dp10404
g17
VNN
p10405
sbag5
(g6
g7
(lp10406
Vmembers
p10407
atp10408
Rp10409
(dp10410
g17
VNNS
p10411
sbatp10412
Rp10413
(dp10414
g17
VNP
p10415
sbatp10416
Rp10417
(dp10418
g17
VPP
p10419
sbatp10420
Rp10421
(dp10422
g17
VNP
p10423
sbatp10424
Rp10425
(dp10426
g17
VPP
p10427
sbag5
(g6
g7
(lp10428
Vand
p10429
atp10430
Rp10431
(dp10432
g17
VCC
p10433
sbag5
(g6
g7
(lp10434
g5
(g6
g7
(lp10435
Vcome
p10436
atp10437
Rp10438
(dp10439
g17
VVBN
p10440
sbag5
(g6
g7
(lp10441
g5
(g6
g7
(lp10442
Vwith
p10443
atp10444
Rp10445
(dp10446
g17
VIN
p10447
sbag5
(g6
g7
(lp10448
g5
(g6
g7
(lp10449
Vactivity-level
p10450
atp10451
Rp10452
(dp10453
g17
VJJ
p10454
sbag5
(g6
g7
(lp10455
Vcooperation
p10456
atp10457
Rp10458
(dp10459
g17
VNN
p10460
sbatp10461
Rp10462
(dp10463
g17
VNP
p10464
sbatp10465
Rp10466
(dp10467
g17
VPP
p10468
sbatp10469
Rp10470
(dp10471
g17
VVP
p10472
sbatp10473
Rp10474
(dp10475
g17
VUCP
p10476
sbatp10477
Rp10478
(dp10479
g17
VVP
p10480
sbag5
(g6
g7
(lp10481
g235
atp10482
Rp10483
(dp10484
g17
g235
sbatp10485
Rp10486
(dp10487
g17
g203
sbatp10488
Rp10489
(dp10490
g17
VROOT
p10491
sbasg246
(icmyPackage
CorE
p10492
(dp10493
g249
(lp10494
(I0
I15
tp10495
a(I0
I17
tp10496
asg253
g10296
sbsg254
(icmyPackage
CorE
p10497
(dp10498
g249
(lp10499
(I0
I19
tp10500
a(I0
I33
tp10501
asg253
g5
(g6
g7
(lp10502
g10356
ag10478
ag10483
atp10503
Rp10504
(dp10505
g17
g264
sbsbsg265
g6824
sg286
(lp10506
(icmyPackage
Sent
p10507
(dp10508
g290
I5
sg291
I55
sg292
S'Unlike data and control flows in workflows, which are predefined or adapted according to activities and changes, knowledge flows are behind the interaction among team members and come with activity-level cooperation.'
p10509
sg294
I0
sg295
I148
sg253
(lp10510
g10489
asbasba(icmyPackage
CELink
p10511
(dp10512
g3
(lp10513
g5
(g6
g7
(lp10514
g5
(g6
g7
(lp10515
g5
(g6
g7
(lp10516
g5
(g6
g7
(lp10517
g5
(g6
g7
(lp10518
VEffectively
p10519
atp10520
Rp10521
(dp10522
g17
VJJ
p10523
sbag5
(g6
g7
(lp10524
Vmanaging
p10525
atp10526
Rp10527
(dp10528
g17
VVBG
p10529
sbag5
(g6
g7
(lp10530
Vknowledge
p10531
atp10532
Rp10533
(dp10534
g17
VNN
p10535
sbag5
(g6
g7
(lp10536
Vflows
p10537
atp10538
Rp10539
(dp10540
g17
VNNS
p10541
sbatp10542
Rp10543
(dp10544
g17
VNP
p10545
sbag5
(g6
g7
(lp10546
g5
(g6
g7
(lp10547
Vwithin
p10548
atp10549
Rp10550
(dp10551
g17
VIN
p10552
sbag5
(g6
g7
(lp10553
g5
(g6
g7
(lp10554
g355
atp10555
Rp10556
(dp10557
g17
VDT
p10558
sbag5
(g6
g7
(lp10559
Vteam
p10560
atp10561
Rp10562
(dp10563
g17
VNN
p10564
sbatp10565
Rp10566
(dp10567
g17
VNP
p10568
sbatp10569
Rp10570
(dp10571
g17
VPP
p10572
sbatp10573
Rp10574
(dp10575
g17
VNP
p10576
sbag5
(g6
g7
(lp10577
g5
(g6
g7
(lp10578
Vcan
p10579
atp10580
Rp10581
(dp10582
g17
VMD
p10583
sbag5
(g6
g7
(lp10584
g5
(g6
g7
(lp10585
g5
(g6
g7
(lp10586
Vlead
p10587
atp10588
Rp10589
(dp10590
g17
VVB
p10591
sbag5
(g6
g7
(lp10592
g5
(g6
g7
(lp10593
Vto
p10594
atp10595
Rp10596
(dp10597
g17
VTO
p10598
sbag5
(g6
g7
(lp10599
g5
(g6
g7
(lp10600
Veffective
p10601
atp10602
Rp10603
(dp10604
g17
VJJ
p10605
sbag5
(g6
g7
(lp10606
Vteam
p10607
atp10608
Rp10609
(dp10610
g17
VNN
p10611
sbag5
(g6
g7
(lp10612
Vknowledge
p10613
atp10614
Rp10615
(dp10616
g17
VNN
p10617
sbag5
(g6
g7
(lp10618
Vmanagement
p10619
atp10620
Rp10621
(dp10622
g17
VNN
p10623
sbatp10624
Rp10625
(dp10626
g17
VNP
p10627
sbatp10628
Rp10629
(dp10630
g17
VPP
p10631
sbatp10632
Rp10633
(dp10634
g17
VVP
p10635
sbag5
(g6
g7
(lp10636
Vand
p10637
atp10638
Rp10639
(dp10640
g17
VCC
p10641
sbag5
(g6
g7
(lp10642
g5
(g6
g7
(lp10643
g5
(g6
g7
(lp10644
Veventually
p10645
atp10646
Rp10647
(dp10648
g17
VRB
p10649
sbatp10650
Rp10651
(dp10652
g17
VADVP
p10653
sbag5
(g6
g7
(lp10654
Vraise
p10655
atp10656
Rp10657
(dp10658
g17
VVB
p10659
sbag5
(g6
g7
(lp10660
g5
(g6
g7
(lp10661
g5
(g6
g7
(lp10662
Vthe
p10663
atp10664
Rp10665
(dp10666
g17
VDT
p10667
sbag5
(g6
g7
(lp10668
Veffectiveness
p10669
atp10670
Rp10671
(dp10672
g17
VNN
p10673
sbatp10674
Rp10675
(dp10676
g17
VNP
p10677
sbag5
(g6
g7
(lp10678
g5
(g6
g7
(lp10679
Vof
p10680
atp10681
Rp10682
(dp10683
g17
VIN
p10684
sbag5
(g6
g7
(lp10685
g5
(g6
g7
(lp10686
Vteamwork
p10687
atp10688
Rp10689
(dp10690
g17
VNN
p10691
sbatp10692
Rp10693
(dp10694
g17
VNP
p10695
sbatp10696
Rp10697
(dp10698
g17
VPP
p10699
sbatp10700
Rp10701
(dp10702
g17
VNP
p10703
sbatp10704
Rp10705
(dp10706
g17
VVP
p10707
sbatp10708
Rp10709
(dp10710
g17
VVP
p10711
sbatp10712
Rp10713
(dp10714
g17
VVP
p10715
sbag5
(g6
g7
(lp10716
g235
atp10717
Rp10718
(dp10719
g17
g235
sbatp10720
Rp10721
(dp10722
g17
g203
sbatp10723
Rp10724
(dp10725
g17
VROOT
p10726
sbasg246
(icmyPackage
CorE
p10727
(dp10728
g249
(lp10729
(I0
I0
tp10730
a(I0
I6
tp10731
asg253
g10574
sbsg254
(icmyPackage
CorE
p10732
(dp10733
g249
(lp10734
(I0
I10
tp10735
a(I0
I21
tp10736
asg253
g5
(g6
g7
(lp10737
g10625
ag10639
ag10705
ag10718
atp10738
Rp10739
(dp10740
g17
g264
sbsbsg265
(icmyPackage
pattern
p10741
(dp10742
g268
I0
sg269
I0
sg270
(lp10743
(lp10744
(lp10745
S'lead'
p10746
aS'leads'
p10747
aS'led'
p10748
aaS'to'
p10749
aasg274
(lp10750
I4
aI1
aI1
asg276
(lp10751
S'Multi-disciplinary study will lead to breakthrough in sciences, technologies, engineering and philosophy.'
p10752
asg279
I86
sg280
(lp10753
(lp10754
S'&V-ing/&NP@C@'
p10755
aS'(&CAN/have/has/had)'
p10756
aa(lp10757
S'&NP@R@'
p10758
aS'(&Clause@R@)'
p10759
aasbsg286
(lp10760
(icmyPackage
Sent
p10761
(dp10762
g290
I5
sg291
I56
sg292
S'Effectively managing knowledge flows within a team can lead to effective team knowledge management and eventually raise the effectiveness of teamwork.'
p10763
sg294
I0
sg295
I151
sg253
(lp10764
g10724
asbasba(icmyPackage
CELink
p10765
(dp10766
g3
(lp10767
g5
(g6
g7
(lp10768
g5
(g6
g7
(lp10769
g5
(g6
g7
(lp10770
g5
(g6
g7
(lp10771
g5
(g6
g7
(lp10772
VCoordinating
p10773
atp10774
Rp10775
(dp10776
g17
VNN
p10777
sbag5
(g6
g7
(lp10778
Vand
p10779
atp10780
Rp10781
(dp10782
g17
VCC
p10783
sbag5
(g6
g7
(lp10784
Vfusing
p10785
atp10786
Rp10787
(dp10788
g17
VNN
p10789
sbag5
(g6
g7
(lp10790
Vknowledge
p10791
atp10792
Rp10793
(dp10794
g17
VNN
p10795
sbag5
(g6
g7
(lp10796
Vflows
p10797
atp10798
Rp10799
(dp10800
g17
VNNS
p10801
sbatp10802
Rp10803
(dp10804
g17
VNP
p10805
sbag5
(g6
g7
(lp10806
g48
atp10807
Rp10808
(dp10809
g17
g48
sbag5
(g6
g7
(lp10810
g5
(g6
g7
(lp10811
Vdata
p10812
atp10813
Rp10814
(dp10815
g17
VNNS
p10816
sbag5
(g6
g7
(lp10817
Vflows
p10818
atp10819
Rp10820
(dp10821
g17
VNNS
p10822
sbag5
(g6
g7
(lp10823
g48
atp10824
Rp10825
(dp10826
g17
g48
sbag5
(g6
g7
(lp10827
Vand
p10828
atp10829
Rp10830
(dp10831
g17
VCC
p10832
sbag5
(g6
g7
(lp10833
Vcontrol
p10834
atp10835
Rp10836
(dp10837
g17
VNN
p10838
sbag5
(g6
g7
(lp10839
Vflows
p10840
atp10841
Rp10842
(dp10843
g17
VNNS
p10844
sbag5
(g6
g7
(lp10845
g48
atp10846
Rp10847
(dp10848
g17
g48
sbag5
(g6
g7
(lp10849
Vand
p10850
atp10851
Rp10852
(dp10853
g17
VCC
p10854
sbag5
(g6
g7
(lp10855
Vintegrating
p10856
atp10857
Rp10858
(dp10859
g17
VNNS
p10860
sbag5
(g6
g7
(lp10861
Vknowledge
p10862
atp10863
Rp10864
(dp10865
g17
VNN
p10866
sbag5
(g6
g7
(lp10867
Vflows
p10868
atp10869
Rp10870
(dp10871
g17
VNNS
p10872
sbag5
(g6
g7
(lp10873
Vand
p10874
atp10875
Rp10876
(dp10877
g17
VCC
p10878
sbag5
(g6
g7
(lp10879
Vworkflows
p10880
atp10881
Rp10882
(dp10883
g17
VNNS
p10884
sbatp10885
Rp10886
(dp10887
g17
VNP
p10888
sbag5
(g6
g7
(lp10889
g48
atp10890
Rp10891
(dp10892
g17
g48
sbatp10893
Rp10894
(dp10895
g17
VNP
p10896
sbag5
(g6
g7
(lp10897
g5
(g6
g7
(lp10898
Vare
p10899
atp10900
Rp10901
(dp10902
g17
VVBP
p10903
sbag5
(g6
g7
(lp10904
g5
(g6
g7
(lp10905
Vpowerful
p10906
atp10907
Rp10908
(dp10909
g17
VJJ
p10910
sbag5
(g6
g7
(lp10911
g5
(g6
g7
(lp10912
g5
(g6
g7
(lp10913
g5
(g6
g7
(lp10914
Vmeans
p10915
atp10916
Rp10917
(dp10918
g17
VVBZ
p10919
sbag5
(g6
g7
(lp10920
g5
(g6
g7
(lp10921
Vfor
p10922
atp10923
Rp10924
(dp10925
g17
VIN
p10926
sbag5
(g6
g7
(lp10927
g5
(g6
g7
(lp10928
g5
(g6
g7
(lp10929
Vmaking
p10930
atp10931
Rp10932
(dp10933
g17
VVBG
p10934
sbag5
(g6
g7
(lp10935
g5
(g6
g7
(lp10936
g5
(g6
g7
(lp10937
Vteamwork
p10938
atp10939
Rp10940
(dp10941
g17
VNN
p10942
sbatp10943
Rp10944
(dp10945
g17
VNP
p10946
sbag5
(g6
g7
(lp10947
g5
(g6
g7
(lp10948
Veffective
p10949
atp10950
Rp10951
(dp10952
g17
VJJ
p10953
sbatp10954
Rp10955
(dp10956
g17
VADJP
p10957
sbatp10958
Rp10959
(dp10960
g17
g203
sbatp10961
Rp10962
(dp10963
g17
VVP
p10964
sbatp10965
Rp10966
(dp10967
g17
g203
sbatp10968
Rp10969
(dp10970
g17
VPP
p10971
sbatp10972
Rp10973
(dp10974
g17
VVP
p10975
sbatp10976
Rp10977
(dp10978
g17
g203
sbatp10979
Rp10980
(dp10981
g17
VSBAR
p10982
sbatp10983
Rp10984
(dp10985
g17
VADJP
p10986
sbatp10987
Rp10988
(dp10989
g17
VVP
p10990
sbag5
(g6
g7
(lp10991
g235
atp10992
Rp10993
(dp10994
g17
g235
sbatp10995
Rp10996
(dp10997
g17
g203
sbatp10998
Rp10999
(dp11000
g17
VROOT
p11001
sbasg246
(icmyPackage
CorE
p11002
(dp11003
g249
(lp11004
(I0
I24
tp11005
a(I0
I26
tp11006
asg253
g10966
sbsg254
(icmyPackage
CorE
p11007
(dp11008
g249
(lp11009
(I0
I0
tp11010
a(I0
I22
tp11011
asg253
g5
(g6
g7
(lp11012
g10894
ag10901
ag10908
ag10917
atp11013
Rp11014
(dp11015
g17
g264
sbsbsg265
g266
sg286
(lp11016
(icmyPackage
Sent
p11017
(dp11018
g290
I5
sg291
I56
sg292
S'Coordinating and fusing knowledge flows, data flows, and control flows, and integrating knowledge flows and workflows, are powerful means for making teamwork effective.'
p11019
sg294
I0
sg295
I152
sg253
(lp11020
g10999
asbasba(icmyPackage
CELink
p11021
(dp11022
g3
(lp11023
g5
(g6
g7
(lp11024
g5
(g6
g7
(lp11025
g5
(g6
g7
(lp11026
g5
(g6
g7
(lp11027
g5
(g6
g7
(lp11028
VInteracting
p11029
atp11030
Rp11031
(dp11032
g17
VVBG
p11033
sbag5
(g6
g7
(lp11034
g5
(g6
g7
(lp11035
Vwith
p11036
atp11037
Rp11038
(dp11039
g17
VIN
p11040
sbag5
(g6
g7
(lp11041
g5
(g6
g7
(lp11042
g5
(g6
g7
(lp11043
Vscientists
p11044
atp11045
Rp11046
(dp11047
g17
VNNS
p11048
sbatp11049
Rp11050
(dp11051
g17
VNP
p11052
sbag5
(g6
g7
(lp11053
Vand
p11054
atp11055
Rp11056
(dp11057
g17
VCC
p11058
sbag5
(g6
g7
(lp11059
g5
(g6
g7
(lp11060
Vtheir
p11061
atp11062
Rp11063
(dp11064
g17
VPRP$
p11065
sbag5
(g6
g7
(lp11066
Vrecords
p11067
atp11068
Rp11069
(dp11070
g17
VNNS
p11071
sbatp11072
Rp11073
(dp11074
g17
VNP
p11075
sbatp11076
Rp11077
(dp11078
g17
VNP
p11079
sbatp11080
Rp11081
(dp11082
g17
VPP
p11083
sbatp11084
Rp11085
(dp11086
g17
VVP
p11087
sbatp11088
Rp11089
(dp11090
g17
g203
sbag5
(g6
g7
(lp11091
g48
atp11092
Rp11093
(dp11094
g17
g48
sbag5
(g6
g7
(lp11095
g5
(g6
g7
(lp11096
Vthis
p11097
atp11098
Rp11099
(dp11100
g17
VDT
p11101
sbag5
(g6
g7
(lp11102
Venvironment
p11103
atp11104
Rp11105
(dp11106
g17
VNN
p11107
sbatp11108
Rp11109
(dp11110
g17
VNP
p11111
sbag5
(g6
g7
(lp11112
g5
(g6
g7
(lp11113
Vwill
p11114
atp11115
Rp11116
(dp11117
g17
VMD
p11118
sbag5
(g6
g7
(lp11119
g5
(g6
g7
(lp11120
Vevolve
p11121
atp11122
Rp11123
(dp11124
g17
VVB
p11125
sbag5
(g6
g7
(lp11126
g5
(g6
g7
(lp11127
Vin
p11128
atp11129
Rp11130
(dp11131
g17
VIN
p11132
sbag5
(g6
g7
(lp11133
g5
(g6
g7
(lp11134
g355
atp11135
Rp11136
(dp11137
g17
VDT
p11138
sbag5
(g6
g7
(lp11139
Vnovel
p11140
atp11141
Rp11142
(dp11143
g17
VNN
p11144
sbag5
(g6
g7
(lp11145
Vway
p11146
atp11147
Rp11148
(dp11149
g17
VNN
p11150
sbatp11151
Rp11152
(dp11153
g17
VNP
p11154
sbatp11155
Rp11156
(dp11157
g17
VPP
p11158
sbag5
(g6
g7
(lp11159
g5
(g6
g7
(lp11160
g5
(g6
g7
(lp11161
Vto
p11162
atp11163
Rp11164
(dp11165
g17
VTO
p11166
sbag5
(g6
g7
(lp11167
g5
(g6
g7
(lp11168
Vhelp
p11169
atp11170
Rp11171
(dp11172
g17
VVB
p11173
sbag5
(g6
g7
(lp11174
g5
(g6
g7
(lp11175
g5
(g6
g7
(lp11176
Vthe
p11177
atp11178
Rp11179
(dp11180
g17
VDT
p11181
sbag5
(g6
g7
(lp11182
Vdevelopment
p11183
atp11184
Rp11185
(dp11186
g17
VNN
p11187
sbatp11188
Rp11189
(dp11190
g17
VNP
p11191
sbag5
(g6
g7
(lp11192
g5
(g6
g7
(lp11193
Vof
p11194
atp11195
Rp11196
(dp11197
g17
VIN
p11198
sbag5
(g6
g7
(lp11199
g5
(g6
g7
(lp11200
Vscience
p11201
atp11202
Rp11203
(dp11204
g17
VNN
p11205
sbatp11206
Rp11207
(dp11208
g17
VNP
p11209
sbatp11210
Rp11211
(dp11212
g17
VPP
p11213
sbatp11214
Rp11215
(dp11216
g17
VNP
p11217
sbatp11218
Rp11219
(dp11220
g17
VVP
p11221
sbatp11222
Rp11223
(dp11224
g17
VVP
p11225
sbatp11226
Rp11227
(dp11228
g17
g203
sbatp11229
Rp11230
(dp11231
g17
VVP
p11232
sbatp11233
Rp11234
(dp11235
g17
VVP
p11236
sbag5
(g6
g7
(lp11237
g235
atp11238
Rp11239
(dp11240
g17
g235
sbatp11241
Rp11242
(dp11243
g17
g203
sbatp11244
Rp11245
(dp11246
g17
VROOT
p11247
sbasg246
(icmyPackage
CorE
p11248
(dp11249
g249
(lp11250
(I0
I0
tp11251
a(I0
I5
tp11252
asg253
g11089
sbsg254
(icmyPackage
CorE
p11253
(dp11254
g249
(lp11255
(I0
I7
tp11256
a(I0
I21
tp11257
asg253
g5
(g6
g7
(lp11258
g11109
ag11234
ag11239
atp11259
Rp11260
(dp11261
g17
g264
sbsbsg265
g2462
sg286
(lp11262
(icmyPackage
Sent
p11263
(dp11264
g290
I5
sg291
I58
sg292
S'Interacting with scientists and their records, this environment will evolve in a novel way to help the development of science.'
p11265
sg294
I0
sg295
I160
sg253
(lp11266
g11245
asbasba(icmyPackage
CELink
p11267
(dp11268
g3
(lp11269
g5
(g6
g7
(lp11270
g5
(g6
g7
(lp11271
g5
(g6
g7
(lp11272
g5
(g6
g7
(lp11273
g5
(g6
g7
(lp11274
VUsing
p11275
atp11276
Rp11277
(dp11278
g17
VVBG
p11279
sbag5
(g6
g7
(lp11280
g5
(g6
g7
(lp11281
g5
(g6
g7
(lp11282
Vthe
p11283
atp11284
Rp11285
(dp11286
g17
VDT
p11287
sbag5
(g6
g7
(lp11288
Vrules
p11289
atp11290
Rp11291
(dp11292
g17
VNNS
p11293
sbatp11294
Rp11295
(dp11296
g17
VNP
p11297
sbag5
(g6
g7
(lp11298
g5
(g6
g7
(lp11299
Vof
p11300
atp11301
Rp11302
(dp11303
g17
VIN
p11304
sbag5
(g6
g7
(lp11305
g5
(g6
g7
(lp11306
Vknowledge
p11307
atp11308
Rp11309
(dp11310
g17
VNN
p11311
sbag5
(g6
g7
(lp11312
Vflow
p11313
atp11314
Rp11315
(dp11316
g17
VNN
p11317
sbatp11318
Rp11319
(dp11320
g17
VNP
p11321
sbatp11322
Rp11323
(dp11324
g17
VPP
p11325
sbatp11326
Rp11327
(dp11328
g17
VNP
p11329
sbatp11330
Rp11331
(dp11332
g17
VVP
p11333
sbatp11334
Rp11335
(dp11336
g17
g203
sbag5
(g6
g7
(lp11337
g5
(g6
g7
(lp11338
Vmakes
p11339
atp11340
Rp11341
(dp11342
g17
VVBZ
p11343
sbag5
(g6
g7
(lp11344
g5
(g6
g7
(lp11345
g5
(g6
g7
(lp11346
Vteamwork
p11347
atp11348
Rp11349
(dp11350
g17
VNN
p11351
sbatp11352
Rp11353
(dp11354
g17
VNP
p11355
sbag5
(g6
g7
(lp11356
g5
(g6
g7
(lp11357
Vmore
p11358
atp11359
Rp11360
(dp11361
g17
VRBR
p11362
sbag5
(g6
g7
(lp11363
Veffective
p11364
atp11365
Rp11366
(dp11367
g17
VJJ
p11368
sbag5
(g6
g7
(lp11369
Vand
p11370
atp11371
Rp11372
(dp11373
g17
VCC
p11374
sbag5
(g6
g7
(lp11375
Vinnovative
p11376
atp11377
Rp11378
(dp11379
g17
VJJ
p11380
sbatp11381
Rp11382
(dp11383
g17
VADJP
p11384
sbatp11385
Rp11386
(dp11387
g17
g203
sbag5
(g6
g7
(lp11388
g48
atp11389
Rp11390
(dp11391
g17
g48
sbag5
(g6
g7
(lp11392
g5
(g6
g7
(lp11393
g5
(g6
g7
(lp11394
Vnot
p11395
atp11396
Rp11397
(dp11398
g17
VRB
p11399
sbag5
(g6
g7
(lp11400
Vonly
p11401
atp11402
Rp11403
(dp11404
g17
VJJ
p11405
sbatp11406
Rp11407
(dp11408
g17
VCONJP
p11409
sbag5
(g6
g7
(lp11410
g5
(g6
g7
(lp11411
Vin
p11412
atp11413
Rp11414
(dp11415
g17
VIN
p11416
sbag5
(g6
g7
(lp11417
g5
(g6
g7
(lp11418
Van
p11419
atp11420
Rp11421
(dp11422
g17
VDT
p11423
sbag5
(g6
g7
(lp11424
Ve-science
p11425
atp11426
Rp11427
(dp11428
g17
VJJ
p11429
sbag5
(g6
g7
(lp11430
Venvironment
p11431
atp11432
Rp11433
(dp11434
g17
VNN
p11435
sbatp11436
Rp11437
(dp11438
g17
VNP
p11439
sbatp11440
Rp11441
(dp11442
g17
VPP
p11443
sbag5
(g6
g7
(lp11444
Vbut
p11445
atp11446
Rp11447
(dp11448
g17
VCC
p11449
sbag5
(g6
g7
(lp11450
g5
(g6
g7
(lp11451
g5
(g6
g7
(lp11452
Valso
p11453
atp11454
Rp11455
(dp11456
g17
VRB
p11457
sbatp11458
Rp11459
(dp11460
g17
VADVP
p11461
sbag5
(g6
g7
(lp11462
Vin
p11463
atp11464
Rp11465
(dp11466
g17
VIN
p11467
sbag5
(g6
g7
(lp11468
g5
(g6
g7
(lp11469
g5
(g6
g7
(lp11470
Vteam
p11471
atp11472
Rp11473
(dp11474
g17
VNN
p11475
sbag5
(g6
g7
(lp11476
Vmanagement
p11477
atp11478
Rp11479
(dp11480
g17
VNN
p11481
sbatp11482
Rp11483
(dp11484
g17
VNP
p11485
sbag5
(g6
g7
(lp11486
g48
atp11487
Rp11488
(dp11489
g17
g48
sbag5
(g6
g7
(lp11490
g5
(g6
g7
(lp11491
Vas
p11492
atp11493
Rp11494
(dp11495
g17
VIN
p11496
sbag5
(g6
g7
(lp11497
g5
(g6
g7
(lp11498
g5
(g6
g7
(lp11499
Vknowledge
p11500
atp11501
Rp11502
(dp11503
g17
VNN
p11504
sbag5
(g6
g7
(lp11505
Vflow
p11506
atp11507
Rp11508
(dp11509
g17
VNN
p11510
sbag5
(g6
g7
(lp11511
Vnetworking
p11512
atp11513
Rp11514
(dp11515
g17
VNN
p11516
sbatp11517
Rp11518
(dp11519
g17
VNP
p11520
sbag5
(g6
g7
(lp11521
g5
(g6
g7
(lp11522
Vcan
p11523
atp11524
Rp11525
(dp11526
g17
VMD
p11527
sbag5
(g6
g7
(lp11528
g5
(g6
g7
(lp11529
Vgenerate
p11530
atp11531
Rp11532
(dp11533
g17
VVB
p11534
sbag5
(g6
g7
(lp11535
g5
(g6
g7
(lp11536
Vknowledge
p11537
atp11538
Rp11539
(dp11540
g17
VNN
p11541
sbatp11542
Rp11543
(dp11544
g17
VNP
p11545
sbag5
(g6
g7
(lp11546
g5
(g6
g7
(lp11547
Vduring
p11548
atp11549
Rp11550
(dp11551
g17
VIN
p11552
sbag5
(g6
g7
(lp11553
g5
(g6
g7
(lp11554
Voperation
p11555
atp11556
Rp11557
(dp11558
g17
VNN
p11559
sbatp11560
Rp11561
(dp11562
g17
VNP
p11563
sbatp11564
Rp11565
(dp11566
g17
VPP
p11567
sbatp11568
Rp11569
(dp11570
g17
VVP
p11571
sbatp11572
Rp11573
(dp11574
g17
VVP
p11575
sbatp11576
Rp11577
(dp11578
g17
g203
sbatp11579
Rp11580
(dp11581
g17
VSBAR
p11582
sbatp11583
Rp11584
(dp11585
g17
VNP
p11586
sbatp11587
Rp11588
(dp11589
g17
VPP
p11590
sbatp11591
Rp11592
(dp11593
g17
VPP
p11594
sbatp11595
Rp11596
(dp11597
g17
VVP
p11598
sbag5
(g6
g7
(lp11599
g235
atp11600
Rp11601
(dp11602
g17
g235
sbatp11603
Rp11604
(dp11605
g17
g203
sbatp11606
Rp11607
(dp11608
g17
VROOT
p11609
sbasg246
(icmyPackage
CorE
p11610
(dp11611
g249
(lp11612
(I0
I0
tp11613
a(I0
I5
tp11614
asg253
g11335
sbsg254
(icmyPackage
CorE
p11615
(dp11616
g249
(lp11617
(I0
I6
tp11618
a(I0
I34
tp11619
asg253
g5
(g6
g7
(lp11620
g11596
ag11601
atp11621
Rp11622
(dp11623
g17
g264
sbsbsg265
g2462
sg286
(lp11624
(icmyPackage
Sent
p11625
(dp11626
g290
I6
sg291
I59
sg292
S'Using the rules of knowledge flow makes teamwork more effective and innovative, not only in an e-science environment but also in team management, as knowledge flow networking can generate knowledge during operation.'
p11627
sg294
I0
sg295
I165
sg253
(lp11628
g11607
asbasba(icmyPackage
CELink
p11629
(dp11630
g3
(lp11631
g11622
asg246
(icmyPackage
CorE
p11632
(dp11633
g249
(lp11634
(I0
I20
tp11635
a(I0
I28
tp11636
asg253
g5
(g6
g7
(lp11637
g11577
ag11601
atp11638
Rp11639
(dp11640
g17
g264
sbsbsg254
(icmyPackage
CorE
p11641
(dp11642
g249
(lp11643
(I0
I0
tp11644
a(I0
I17
tp11645
asg253
g5
(g6
g7
(lp11646
g11341
ag11386
ag11390
ag11407
ag11441
ag11447
ag11459
ag11465
ag11483
atp11647
Rp11648
(dp11649
g17
g264
sbsbsg265
g1168
sg286
(lp11650
g11625
asba.