(lp0
(icmyPackage
CELink
p1
(dp2
S'PTreelst'
p3
(lp4
ccopy_reg
_reconstructor
p5
(cnltk.tree
Tree
p6
c__builtin__
list
p7
(lp8
g5
(g6
g7
(lp9
g5
(g6
g7
(lp10
g5
(g6
g7
(lp11
VInteresting
p12
atp13
Rp14
(dp15
S'_label'
p16
VVBG
p17
sbag5
(g6
g7
(lp18
Vwork
p19
atp20
Rp21
(dp22
g16
VNN
p23
sbatp24
Rp25
(dp26
g16
VNP
p27
sbag5
(g6
g7
(lp28
g5
(g6
g7
(lp29
Vis
p30
atp31
Rp32
(dp33
g16
VVBZ
p34
sbag5
(g6
g7
(lp35
g5
(g6
g7
(lp36
Vbeing
p37
atp38
Rp39
(dp40
g16
VVBG
p41
sbag5
(g6
g7
(lp42
g5
(g6
g7
(lp43
Vdone
p44
atp45
Rp46
(dp47
g16
VVBN
p48
sbag5
(g6
g7
(lp49
g5
(g6
g7
(lp50
Vin
p51
atp52
Rp53
(dp54
g16
VIN
p55
sbag5
(g6
g7
(lp56
g5
(g6
g7
(lp57
Vprogramming
p58
atp59
Rp60
(dp61
g16
VNN
p62
sbag5
(g6
g7
(lp63
Vcomputers
p64
atp65
Rp66
(dp67
g16
VNNS
p68
sbatp69
Rp70
(dp71
g16
VNP
p72
sbatp73
Rp74
(dp75
g16
VPP
p76
sbag5
(g6
g7
(lp77
g5
(g6
g7
(lp78
g5
(g6
g7
(lp79
Vto
p80
atp81
Rp82
(dp83
g16
VTO
p84
sbag5
(g6
g7
(lp85
g5
(g6
g7
(lp86
Vsolve
p87
atp88
Rp89
(dp90
g16
VVB
p91
sbag5
(g6
g7
(lp92
g5
(g6
g7
(lp93
g5
(g6
g7
(lp94
Vproblems
p95
atp96
Rp97
(dp98
g16
VNNS
p99
sbatp100
Rp101
(dp102
g16
VNP
p103
sbag5
(g6
g7
(lp104
g5
(g6
g7
(lp105
g5
(g6
g7
(lp106
Vwhich
p107
atp108
Rp109
(dp110
g16
VWDT
p111
sbatp112
Rp113
(dp114
g16
VWHNP
p115
sbag5
(g6
g7
(lp116
g5
(g6
g7
(lp117
g5
(g6
g7
(lp118
Vrequire
p119
atp120
Rp121
(dp122
g16
VVBP
p123
sbag5
(g6
g7
(lp124
g5
(g6
g7
(lp125
g5
(g6
g7
(lp126
Va
p127
atp128
Rp129
(dp130
g16
VDT
p131
sbag5
(g6
g7
(lp132
Vhigh
p133
atp134
Rp135
(dp136
g16
VJJ
p137
sbag5
(g6
g7
(lp138
Vdegree
p139
atp140
Rp141
(dp142
g16
VNN
p143
sbatp144
Rp145
(dp146
g16
VNP
p147
sbag5
(g6
g7
(lp148
g5
(g6
g7
(lp149
Vof
p150
atp151
Rp152
(dp153
g16
VIN
p154
sbag5
(g6
g7
(lp155
g5
(g6
g7
(lp156
g5
(g6
g7
(lp157
Vintelligence
p158
atp159
Rp160
(dp161
g16
VNN
p162
sbatp163
Rp164
(dp165
g16
VNP
p166
sbag5
(g6
g7
(lp167
g5
(g6
g7
(lp168
Vin
p169
atp170
Rp171
(dp172
g16
VIN
p173
sbag5
(g6
g7
(lp174
g5
(g6
g7
(lp175
Vhumans
p176
atp177
Rp178
(dp179
g16
VNNS
p180
sbatp181
Rp182
(dp183
g16
VNP
p184
sbatp185
Rp186
(dp187
g16
VPP
p188
sbatp189
Rp190
(dp191
g16
VNP
p192
sbatp193
Rp194
(dp195
g16
VPP
p196
sbatp197
Rp198
(dp199
g16
VNP
p200
sbatp201
Rp202
(dp203
g16
VVP
p204
sbatp205
Rp206
(dp207
g16
VS
p208
sbatp209
Rp210
(dp211
g16
VSBAR
p212
sbatp213
Rp214
(dp215
g16
VNP
p216
sbatp217
Rp218
(dp219
g16
VVP
p220
sbatp221
Rp222
(dp223
g16
VVP
p224
sbatp225
Rp226
(dp227
g16
g208
sbatp228
Rp229
(dp230
g16
VVP
p231
sbatp232
Rp233
(dp234
g16
VVP
p235
sbatp236
Rp237
(dp238
g16
VVP
p239
sbag5
(g6
g7
(lp240
V.
p241
atp242
Rp243
(dp244
g16
g241
sbatp245
Rp246
(dp247
g16
g208
sbatp248
Rp249
(dp250
g16
VROOT
p251
sbag5
(g6
g7
(lp252
g5
(g6
g7
(lp253
g5
(g6
g7
(lp254
g5
(g6
g7
(lp255
VHowever
p256
atp257
Rp258
(dp259
g16
VRB
p260
sbatp261
Rp262
(dp263
g16
VADVP
p264
sbag5
(g6
g7
(lp265
V,
p266
atp267
Rp268
(dp269
g16
g266
sbag5
(g6
g7
(lp270
g5
(g6
g7
(lp271
g5
(g6
g7
(lp272
Vcertain
p273
atp274
Rp275
(dp276
g16
VJJ
p277
sbag5
(g6
g7
(lp278
Velementary
p279
atp280
Rp281
(dp282
g16
VJJ
p283
sbag5
(g6
g7
(lp284
Vverbal
p285
atp286
Rp287
(dp288
g16
VJJ
p289
sbag5
(g6
g7
(lp290
Vreasoning
p291
atp292
Rp293
(dp294
g16
VNN
p295
sbag5
(g6
g7
(lp296
Vprocesses
p297
atp298
Rp299
(dp300
g16
VNNS
p301
sbatp302
Rp303
(dp304
g16
VNP
p305
sbag5
(g6
g7
(lp306
g5
(g6
g7
(lp307
g5
(g6
g7
(lp308
Vso
p309
atp310
Rp311
(dp312
g16
VRB
p313
sbag5
(g6
g7
(lp314
Vsimple
p315
atp316
Rp317
(dp318
g16
VJJ
p319
sbatp320
Rp321
(dp322
g16
VADJP
p323
sbag5
(g6
g7
(lp324
g5
(g6
g7
(lp325
Vthat
p326
atp327
Rp328
(dp329
g16
VIN
p330
sbag5
(g6
g7
(lp331
g5
(g6
g7
(lp332
g5
(g6
g7
(lp333
Vthey
p334
atp335
Rp336
(dp337
g16
VPRP
p338
sbatp339
Rp340
(dp341
g16
VNP
p342
sbag5
(g6
g7
(lp343
g5
(g6
g7
(lp344
Vcan
p345
atp346
Rp347
(dp348
g16
VMD
p349
sbag5
(g6
g7
(lp350
g5
(g6
g7
(lp351
Vbe
p352
atp353
Rp354
(dp355
g16
VVB
p356
sbag5
(g6
g7
(lp357
g5
(g6
g7
(lp358
Vcarried
p359
atp360
Rp361
(dp362
g16
VVBN
p363
sbag5
(g6
g7
(lp364
g5
(g6
g7
(lp365
Vout
p366
atp367
Rp368
(dp369
g16
VRP
p370
sbatp371
Rp372
(dp373
g16
VPRT
p374
sbag5
(g6
g7
(lp375
g5
(g6
g7
(lp376
Vby
p377
atp378
Rp379
(dp380
g16
VIN
p381
sbag5
(g6
g7
(lp382
g5
(g6
g7
(lp383
Vany
p384
atp385
Rp386
(dp387
g16
VDT
p388
sbag5
(g6
g7
(lp389
Vnon-feeble
p390
atp391
Rp392
(dp393
g16
VJJ
p394
sbag5
(g6
g7
(lp395
Vminded
p396
atp397
Rp398
(dp399
g16
VJJ
p400
sbag5
(g6
g7
(lp401
Vhuman
p402
atp403
Rp404
(dp405
g16
VNN
p406
sbatp407
Rp408
(dp409
g16
VNP
p410
sbatp411
Rp412
(dp413
g16
VPP
p414
sbatp415
Rp416
(dp417
g16
VVP
p418
sbatp419
Rp420
(dp421
g16
VVP
p422
sbatp423
Rp424
(dp425
g16
VVP
p426
sbatp427
Rp428
(dp429
g16
g208
sbatp430
Rp431
(dp432
g16
VSBAR
p433
sbatp434
Rp435
(dp436
g16
VADJP
p437
sbatp438
Rp439
(dp440
g16
VNP
p441
sbag5
(g6
g7
(lp442
g5
(g6
g7
(lp443
Vhave
p444
atp445
Rp446
(dp447
g16
VVBP
p448
sbag5
(g6
g7
(lp449
g5
(g6
g7
(lp450
Vyet
p451
atp452
Rp453
(dp454
g16
VRB
p455
sbatp456
Rp457
(dp458
g16
VADVP
p459
sbag5
(g6
g7
(lp460
g5
(g6
g7
(lp461
g5
(g6
g7
(lp462
Vto
p463
atp464
Rp465
(dp466
g16
VTO
p467
sbag5
(g6
g7
(lp468
g5
(g6
g7
(lp469
Vbe
p470
atp471
Rp472
(dp473
g16
VVB
p474
sbag5
(g6
g7
(lp475
g5
(g6
g7
(lp476
Vsimulated
p477
atp478
Rp479
(dp480
g16
VVBN
p481
sbag5
(g6
g7
(lp482
g5
(g6
g7
(lp483
Vby
p484
atp485
Rp486
(dp487
g16
VIN
p488
sbag5
(g6
g7
(lp489
g5
(g6
g7
(lp490
Vmachine
p491
atp492
Rp493
(dp494
g16
VNN
p495
sbag5
(g6
g7
(lp496
Vprograms
p497
atp498
Rp499
(dp500
g16
VNNS
p501
sbatp502
Rp503
(dp504
g16
VNP
p505
sbatp506
Rp507
(dp508
g16
VPP
p509
sbatp510
Rp511
(dp512
g16
VVP
p513
sbatp514
Rp515
(dp516
g16
VVP
p517
sbatp518
Rp519
(dp520
g16
VVP
p521
sbatp522
Rp523
(dp524
g16
g208
sbatp525
Rp526
(dp527
g16
VVP
p528
sbag5
(g6
g7
(lp529
g241
atp530
Rp531
(dp532
g16
g241
sbatp533
Rp534
(dp535
g16
g208
sbatp536
Rp537
(dp538
g16
VROOT
p539
sbasS'cause'
p540
(icmyPackage
CorE
p541
(dp542
S'span'
p543
(lp544
(I0
I1
tp545
a(I1
I6
tp546
asS'PTree'
p547
g5
(g6
g7
(lp548
g21
ag237
ag243
ag262
ag268
ag303
atp549
Rp550
(dp551
g16
S'ROOT'
p552
sbsbsS'effect'
p553
(icmyPackage
CorE
p554
(dp555
g543
(lp556
(I1
I8
tp557
a(I1
I28
tp558
asg547
g5
(g6
g7
(lp559
g317
ag431
ag526
ag531
atp560
Rp561
(dp562
g16
g552
sbsbsS'pt'
p563
(icmyPackage
pattern
p564
(dp565
S'pfreq'
p566
I265
sS'moresent'
p567
I1
sS'main_token'
p568
(lp569
(lp570
S'so'
p571
aasS'ptype'
p572
(lp573
I1
aI1
aI1
asS'cases'
p574
(lp575
S'It was not long before he saw me looking at him, and so he began to move.'
p576
asS'id'
p577
I0
sS'constraints'
p578
(lp579
(lp580
S'&C'
p581
aS'(,/;/./--)'
p582
aS'(&AND)'
p583
aa(lp584
S'(-far)'
p585
aS'(,)'
p586
aS'&R'
p587
aasbsS'sInfo'
p588
(lp589
(icmyPackage
Sent
p590
(dp591
S'Ctag'
p592
I1
sS'Ptag'
p593
I0
sS'text'
p594
S'Interesting work is being done in programming computers to solve problems which require a high degree of intelligence in humans.'
p595
sS'SCtag'
p596
I0
sS'Stag'
p597
I0
sg547
(lp598
g249
asba(icmyPackage
Sent
p599
(dp600
g592
I1
sg593
I0
sg594
S'However, certain elementary verbal reasoning processes so simple that they can be carried out by any non-feeble minded human have yet to be simulated by machine programs.'
p601
sg596
I0
sg597
I1
sg547
(lp602
g537
asbasba(icmyPackage
CELink
p603
(dp604
g3
(lp605
g5
(g6
g7
(lp606
g5
(g6
g7
(lp607
g5
(g6
g7
(lp608
g5
(g6
g7
(lp609
VThe
p610
atp611
Rp612
(dp613
g16
VDT
p614
sbag5
(g6
g7
(lp615
Vadvice
p616
atp617
Rp618
(dp619
g16
VNN
p620
sbag5
(g6
g7
(lp621
Vtaker
p622
atp623
Rp624
(dp625
g16
VNN
p626
sbatp627
Rp628
(dp629
g16
VNP
p630
sbag5
(g6
g7
(lp631
g5
(g6
g7
(lp632
Vis
p633
atp634
Rp635
(dp636
g16
VVBZ
p637
sbag5
(g6
g7
(lp638
g5
(g6
g7
(lp639
g5
(g6
g7
(lp640
g127
atp641
Rp642
(dp643
g16
VDT
p644
sbag5
(g6
g7
(lp645
Vproposed
p646
atp647
Rp648
(dp649
g16
VVBN
p650
sbag5
(g6
g7
(lp651
Vprogram
p652
atp653
Rp654
(dp655
g16
VNN
p656
sbatp657
Rp658
(dp659
g16
VNP
p660
sbag5
(g6
g7
(lp661
g5
(g6
g7
(lp662
Vfor
p663
atp664
Rp665
(dp666
g16
VIN
p667
sbag5
(g6
g7
(lp668
g5
(g6
g7
(lp669
g5
(g6
g7
(lp670
Vsolving
p671
atp672
Rp673
(dp674
g16
VVBG
p675
sbag5
(g6
g7
(lp676
g5
(g6
g7
(lp677
Vproblems
p678
atp679
Rp680
(dp681
g16
VNNS
p682
sbatp683
Rp684
(dp685
g16
VNP
p686
sbag5
(g6
g7
(lp687
g5
(g6
g7
(lp688
Vby
p689
atp690
Rp691
(dp692
g16
VIN
p693
sbag5
(g6
g7
(lp694
g5
(g6
g7
(lp695
g5
(g6
g7
(lp696
Vmanipulating
p697
atp698
Rp699
(dp700
g16
VVBG
p701
sbag5
(g6
g7
(lp702
g5
(g6
g7
(lp703
Vsentences
p704
atp705
Rp706
(dp707
g16
VNNS
p708
sbatp709
Rp710
(dp711
g16
VNP
p712
sbag5
(g6
g7
(lp713
g5
(g6
g7
(lp714
Vin
p715
atp716
Rp717
(dp718
g16
VIN
p719
sbag5
(g6
g7
(lp720
g5
(g6
g7
(lp721
Vformal
p722
atp723
Rp724
(dp725
g16
VJJ
p726
sbag5
(g6
g7
(lp727
Vlanguages
p728
atp729
Rp730
(dp731
g16
VNNS
p732
sbatp733
Rp734
(dp735
g16
VNP
p736
sbatp737
Rp738
(dp739
g16
VPP
p740
sbatp741
Rp742
(dp743
g16
VVP
p744
sbatp745
Rp746
(dp747
g16
g208
sbatp748
Rp749
(dp750
g16
VPP
p751
sbatp752
Rp753
(dp754
g16
VVP
p755
sbatp756
Rp757
(dp758
g16
g208
sbatp759
Rp760
(dp761
g16
VPP
p762
sbatp763
Rp764
(dp765
g16
VNP
p766
sbatp767
Rp768
(dp769
g16
VVP
p770
sbag5
(g6
g7
(lp771
g241
atp772
Rp773
(dp774
g16
g241
sbatp775
Rp776
(dp777
g16
g208
sbatp778
Rp779
(dp780
g16
VROOT
p781
sbasg540
(icmyPackage
CorE
p782
(dp783
g543
(lp784
(I0
I8
tp785
a(I0
I15
tp786
asg547
g757
sbsg553
(icmyPackage
CorE
p787
(dp788
g543
(lp789
(I0
I0
tp790
a(I0
I6
tp791
asg547
g5
(g6
g7
(lp792
g628
ag635
ag658
atp793
Rp794
(dp795
g16
g552
sbsbsg563
(icmyPackage
pattern
p796
(dp797
g566
I25
sg567
I0
sg568
(lp798
(lp799
S'for'
p800
aasg572
(lp801
I2
aI1
aI1
asg574
(lp802
S'She was angry with him for being late.'
p803
asg577
I44
sg578
(lp804
(lp805
S'&R'
p806
aa(lp807
S'&V-ing@C@'
p808
aasbsg588
(lp809
(icmyPackage
Sent
p810
(dp811
g592
I1
sg593
I3
sg594
S'The advice taker is a proposed program for solving problems by manipulating sentences in formal languages.'
p812
sg596
I0
sg597
I8
sg547
(lp813
g779
asbasba(icmyPackage
CELink
p814
(dp815
g3
(lp816
g5
(g6
g7
(lp817
g5
(g6
g7
(lp818
g5
(g6
g7
(lp819
g5
(g6
g7
(lp820
g5
(g6
g7
(lp821
g5
(g6
g7
(lp822
VThe
p823
atp824
Rp825
(dp826
g16
VDT
p827
sbag5
(g6
g7
(lp828
Vmain
p829
atp830
Rp831
(dp832
g16
VJJ
p833
sbag5
(g6
g7
(lp834
Vdifference
p835
atp836
Rp837
(dp838
g16
VNN
p839
sbatp840
Rp841
(dp842
g16
VNP
p843
sbag5
(g6
g7
(lp844
g5
(g6
g7
(lp845
Vbetween
p846
atp847
Rp848
(dp849
g16
VIN
p850
sbag5
(g6
g7
(lp851
g5
(g6
g7
(lp852
Vit
p853
atp854
Rp855
(dp856
g16
VPRP
p857
sbatp858
Rp859
(dp860
g16
VNP
p861
sbatp862
Rp863
(dp864
g16
VPP
p865
sbatp866
Rp867
(dp868
g16
VNP
p869
sbag5
(g6
g7
(lp870
g5
(g6
g7
(lp871
Vandother
p872
atp873
Rp874
(dp875
g16
VVBP
p876
sbag5
(g6
g7
(lp877
g5
(g6
g7
(lp878
g5
(g6
g7
(lp879
g5
(g6
g7
(lp880
g5
(g6
g7
(lp881
Vprograms
p882
atp883
Rp884
(dp885
g16
VNNS
p886
sbatp887
Rp888
(dp889
g16
VNP
p890
sbag5
(g6
g7
(lp891
Vor
p892
atp893
Rp894
(dp895
g16
VCC
p896
sbag5
(g6
g7
(lp897
g5
(g6
g7
(lp898
Vproposed
p899
atp900
Rp901
(dp902
g16
VVBN
p903
sbag5
(g6
g7
(lp904
Vprograms
p905
atp906
Rp907
(dp908
g16
VNNS
p909
sbatp910
Rp911
(dp912
g16
VNP
p913
sbag5
(g6
g7
(lp914
g5
(g6
g7
(lp915
Vfor
p916
atp917
Rp918
(dp919
g16
VIN
p920
sbag5
(g6
g7
(lp921
g5
(g6
g7
(lp922
g5
(g6
g7
(lp923
Vmanipulating
p924
atp925
Rp926
(dp927
g16
VVBG
p928
sbag5
(g6
g7
(lp929
g5
(g6
g7
(lp930
g5
(g6
g7
(lp931
Vformal
p932
atp933
Rp934
(dp935
g16
VJJ
p936
sbag5
(g6
g7
(lp937
Vlanguages
p938
atp939
Rp940
(dp941
g16
VNNS
p942
sbatp943
Rp944
(dp945
g16
VNP
p946
sbag5
(g6
g7
(lp947
g5
(g6
g7
(lp948
V-LRB-
p949
atp950
Rp951
(dp952
g16
V-LRB-
p953
sbag5
(g6
g7
(lp954
g5
(g6
g7
(lp955
g5
(g6
g7
(lp956
g5
(g6
g7
(lp957
Vthe
p958
atp959
Rp960
(dp961
g16
VDT
p962
sbag5
(g6
g7
(lp963
VLogic
p964
atp965
Rp966
(dp967
g16
VNNP
p968
sbag5
(g6
g7
(lp969
VTheory
p970
atp971
Rp972
(dp973
g16
VNNP
p974
sbag5
(g6
g7
(lp975
VMachine
p976
atp977
Rp978
(dp979
g16
VNN
p980
sbatp981
Rp982
(dp983
g16
VNP
p984
sbag5
(g6
g7
(lp985
g5
(g6
g7
(lp986
Vof
p987
atp988
Rp989
(dp990
g16
VIN
p991
sbag5
(g6
g7
(lp992
g5
(g6
g7
(lp993
VNewell
p994
atp995
Rp996
(dp997
g16
VNNP
p998
sbag5
(g6
g7
(lp999
g266
atp1000
Rp1001
(dp1002
g16
g266
sbag5
(g6
g7
(lp1003
VSimon
p1004
atp1005
Rp1006
(dp1007
g16
VNNP
p1008
sbag5
(g6
g7
(lp1009
Vand
p1010
atp1011
Rp1012
(dp1013
g16
VCC
p1014
sbag5
(g6
g7
(lp1015
VShaw
p1016
atp1017
Rp1018
(dp1019
g16
VNNP
p1020
sbatp1021
Rp1022
(dp1023
g16
VNP
p1024
sbatp1025
Rp1026
(dp1027
g16
VPP
p1028
sbatp1029
Rp1030
(dp1031
g16
VNP
p1032
sbag5
(g6
g7
(lp1033
Vand
p1034
atp1035
Rp1036
(dp1037
g16
VCC
p1038
sbag5
(g6
g7
(lp1039
g5
(g6
g7
(lp1040
g5
(g6
g7
(lp1041
Vthe
p1042
atp1043
Rp1044
(dp1045
g16
VDT
p1046
sbag5
(g6
g7
(lp1047
VGeometry
p1048
atp1049
Rp1050
(dp1051
g16
VNNP
p1052
sbag5
(g6
g7
(lp1053
VProgram
p1054
atp1055
Rp1056
(dp1057
g16
VNN
p1058
sbatp1059
Rp1060
(dp1061
g16
VNP
p1062
sbag5
(g6
g7
(lp1063
g5
(g6
g7
(lp1064
Vof
p1065
atp1066
Rp1067
(dp1068
g16
VIN
p1069
sbag5
(g6
g7
(lp1070
g5
(g6
g7
(lp1071
VGelernter
p1072
atp1073
Rp1074
(dp1075
g16
VNNP
p1076
sbatp1077
Rp1078
(dp1079
g16
VNP
p1080
sbatp1081
Rp1082
(dp1083
g16
VPP
p1084
sbatp1085
Rp1086
(dp1087
g16
VNP
p1088
sbatp1089
Rp1090
(dp1091
g16
VNP
p1092
sbag5
(g6
g7
(lp1093
V-RRB-
p1094
atp1095
Rp1096
(dp1097
g16
V-RRB-
p1098
sbatp1099
Rp1100
(dp1101
g16
VPRN
p1102
sbatp1103
Rp1104
(dp1105
g16
VNP
p1106
sbatp1107
Rp1108
(dp1109
g16
VVP
p1110
sbatp1111
Rp1112
(dp1113
g16
g208
sbatp1114
Rp1115
(dp1116
g16
VPP
p1117
sbatp1118
Rp1119
(dp1120
g16
VNP
p1121
sbag5
(g6
g7
(lp1122
g5
(g6
g7
(lp1123
Vis
p1124
atp1125
Rp1126
(dp1127
g16
VVBZ
p1128
sbag5
(g6
g7
(lp1129
g5
(g6
g7
(lp1130
Vthat
p1131
atp1132
Rp1133
(dp1134
g16
VIN
p1135
sbag5
(g6
g7
(lp1136
g5
(g6
g7
(lp1137
g5
(g6
g7
(lp1138
Vin
p1139
atp1140
Rp1141
(dp1142
g16
VIN
p1143
sbag5
(g6
g7
(lp1144
g5
(g6
g7
(lp1145
Vthe
p1146
atp1147
Rp1148
(dp1149
g16
VDT
p1150
sbag5
(g6
g7
(lp1151
Vprevious
p1152
atp1153
Rp1154
(dp1155
g16
VJJ
p1156
sbag5
(g6
g7
(lp1157
Vprograms
p1158
atp1159
Rp1160
(dp1161
g16
VNNS
p1162
sbatp1163
Rp1164
(dp1165
g16
VNP
p1166
sbatp1167
Rp1168
(dp1169
g16
VPP
p1170
sbag5
(g6
g7
(lp1171
g5
(g6
g7
(lp1172
Vthe
p1173
atp1174
Rp1175
(dp1176
g16
VDT
p1177
sbag5
(g6
g7
(lp1178
Vformal
p1179
atp1180
Rp1181
(dp1182
g16
VJJ
p1183
sbag5
(g6
g7
(lp1184
Vsystem
p1185
atp1186
Rp1187
(dp1188
g16
VNN
p1189
sbatp1190
Rp1191
(dp1192
g16
VNP
p1193
sbag5
(g6
g7
(lp1194
g5
(g6
g7
(lp1195
Vwas
p1196
atp1197
Rp1198
(dp1199
g16
VVBD
p1200
sbag5
(g6
g7
(lp1201
g5
(g6
g7
(lp1202
Vthe
p1203
atp1204
Rp1205
(dp1206
g16
VDT
p1207
sbag5
(g6
g7
(lp1208
Vsubject
p1209
atp1210
Rp1211
(dp1212
g16
VNN
p1213
sbag5
(g6
g7
(lp1214
Vmatter
p1215
atp1216
Rp1217
(dp1218
g16
VNN
p1219
sbatp1220
Rp1221
(dp1222
g16
VNP
p1223
sbatp1224
Rp1225
(dp1226
g16
VVP
p1227
sbatp1228
Rp1229
(dp1230
g16
g208
sbatp1231
Rp1232
(dp1233
g16
VSBAR
p1234
sbatp1235
Rp1236
(dp1237
g16
VVP
p1238
sbatp1239
Rp1240
(dp1241
g16
g208
sbatp1242
Rp1243
(dp1244
g16
VSBAR
p1245
sbatp1246
Rp1247
(dp1248
g16
VVP
p1249
sbatp1250
Rp1251
(dp1252
g16
g208
sbag5
(g6
g7
(lp1253
Vbut
p1254
atp1255
Rp1256
(dp1257
g16
VCC
p1258
sbag5
(g6
g7
(lp1259
g5
(g6
g7
(lp1260
g5
(g6
g7
(lp1261
Vthe
p1262
atp1263
Rp1264
(dp1265
g16
VDT
p1266
sbag5
(g6
g7
(lp1267
Vheuristics
p1268
atp1269
Rp1270
(dp1271
g16
VNNS
p1272
sbatp1273
Rp1274
(dp1275
g16
VNP
p1276
sbag5
(g6
g7
(lp1277
g5
(g6
g7
(lp1278
Vwere
p1279
atp1280
Rp1281
(dp1282
g16
VVBD
p1283
sbag5
(g6
g7
(lp1284
Vall
p1285
atp1286
Rp1287
(dp1288
g16
VRB
p1289
sbag5
(g6
g7
(lp1290
g5
(g6
g7
(lp1291
Vembodied
p1292
atp1293
Rp1294
(dp1295
g16
VVBN
p1296
sbag5
(g6
g7
(lp1297
g5
(g6
g7
(lp1298
Vin
p1299
atp1300
Rp1301
(dp1302
g16
VIN
p1303
sbag5
(g6
g7
(lp1304
g5
(g6
g7
(lp1305
Vthe
p1306
atp1307
Rp1308
(dp1309
g16
VDT
p1310
sbag5
(g6
g7
(lp1311
Vprogram
p1312
atp1313
Rp1314
(dp1315
g16
VNN
p1316
sbatp1317
Rp1318
(dp1319
g16
VNP
p1320
sbatp1321
Rp1322
(dp1323
g16
VPP
p1324
sbatp1325
Rp1326
(dp1327
g16
VVP
p1328
sbatp1329
Rp1330
(dp1331
g16
VVP
p1332
sbatp1333
Rp1334
(dp1335
g16
g208
sbag5
(g6
g7
(lp1336
g241
atp1337
Rp1338
(dp1339
g16
g241
sbatp1340
Rp1341
(dp1342
g16
g208
sbatp1343
Rp1344
(dp1345
g16
VROOT
p1346
sbasg540
(icmyPackage
CorE
p1347
(dp1348
g543
(lp1349
(I0
I11
tp1350
a(I0
I31
tp1351
asg547
g1112
sbsg553
(icmyPackage
CorE
p1352
(dp1353
g543
(lp1354
(I0
I0
tp1355
a(I0
I9
tp1356
asg547
g5
(g6
g7
(lp1357
g867
ag874
ag888
ag894
ag911
atp1358
Rp1359
(dp1360
g16
g552
sbsbsg563
g796
sg588
(lp1361
(icmyPackage
Sent
p1362
(dp1363
g592
I1
sg593
I3
sg594
S'The main difference between it andother programs or proposed programs for manipulating formal languages (the Logic Theory Machine of Newell, Simon and Shaw and the Geometry Program of Gelernter) is that in the previous programs the formal system was the subject matter but the heuristics were all embodied in the program.'
p1364
sg596
I0
sg597
I9
sg547
(lp1365
g1344
asbasba(icmyPackage
CELink
p1366
(dp1367
g3
(lp1368
g5
(g6
g7
(lp1369
g5
(g6
g7
(lp1370
g5
(g6
g7
(lp1371
g5
(g6
g7
(lp1372
g5
(g6
g7
(lp1373
VIn
p1374
atp1375
Rp1376
(dp1377
g16
VIN
p1378
sbag5
(g6
g7
(lp1379
g5
(g6
g7
(lp1380
Vthis
p1381
atp1382
Rp1383
(dp1384
g16
VDT
p1385
sbag5
(g6
g7
(lp1386
Vprogram
p1387
atp1388
Rp1389
(dp1390
g16
VNN
p1391
sbatp1392
Rp1393
(dp1394
g16
VNP
p1395
sbatp1396
Rp1397
(dp1398
g16
VPP
p1399
sbag5
(g6
g7
(lp1400
g5
(g6
g7
(lp1401
Vthe
p1402
atp1403
Rp1404
(dp1405
g16
VDT
p1406
sbag5
(g6
g7
(lp1407
Vprocedures
p1408
atp1409
Rp1410
(dp1411
g16
VNNS
p1412
sbatp1413
Rp1414
(dp1415
g16
VNP
p1416
sbag5
(g6
g7
(lp1417
g5
(g6
g7
(lp1418
Vwill
p1419
atp1420
Rp1421
(dp1422
g16
VMD
p1423
sbag5
(g6
g7
(lp1424
g5
(g6
g7
(lp1425
Vbe
p1426
atp1427
Rp1428
(dp1429
g16
VVB
p1430
sbag5
(g6
g7
(lp1431
g5
(g6
g7
(lp1432
Vdescribed
p1433
atp1434
Rp1435
(dp1436
g16
VVBN
p1437
sbag5
(g6
g7
(lp1438
g5
(g6
g7
(lp1439
g5
(g6
g7
(lp1440
Vas
p1441
atp1442
Rp1443
(dp1444
g16
VRB
p1445
sbag5
(g6
g7
(lp1446
Vmuch
p1447
atp1448
Rp1449
(dp1450
g16
VRB
p1451
sbatp1452
Rp1453
(dp1454
g16
VADVP
p1455
sbag5
(g6
g7
(lp1456
g5
(g6
g7
(lp1457
Vas
p1458
atp1459
Rp1460
(dp1461
g16
VIN
p1462
sbag5
(g6
g7
(lp1463
g5
(g6
g7
(lp1464
Vpossible
p1465
atp1466
Rp1467
(dp1468
g16
VJJ
p1469
sbatp1470
Rp1471
(dp1472
g16
VADJP
p1473
sbatp1474
Rp1475
(dp1476
g16
VPP
p1477
sbatp1478
Rp1479
(dp1480
g16
VADVP
p1481
sbag5
(g6
g7
(lp1482
g5
(g6
g7
(lp1483
Vin
p1484
atp1485
Rp1486
(dp1487
g16
VIN
p1488
sbag5
(g6
g7
(lp1489
g5
(g6
g7
(lp1490
g5
(g6
g7
(lp1491
Vthe
p1492
atp1493
Rp1494
(dp1495
g16
VDT
p1496
sbag5
(g6
g7
(lp1497
Vlanguage
p1498
atp1499
Rp1500
(dp1501
g16
VNN
p1502
sbatp1503
Rp1504
(dp1505
g16
VNP
p1506
sbag5
(g6
g7
(lp1507
g5
(g6
g7
(lp1508
Vitself
p1509
atp1510
Rp1511
(dp1512
g16
VPRP
p1513
sbatp1514
Rp1515
(dp1516
g16
VADVP
p1517
sbatp1518
Rp1519
(dp1520
g16
VNP
p1521
sbatp1522
Rp1523
(dp1524
g16
VPP
p1525
sbatp1526
Rp1527
(dp1528
g16
VVP
p1529
sbatp1530
Rp1531
(dp1532
g16
VVP
p1533
sbatp1534
Rp1535
(dp1536
g16
VVP
p1537
sbatp1538
Rp1539
(dp1540
g16
g208
sbag5
(g6
g7
(lp1541
Vand
p1542
atp1543
Rp1544
(dp1545
g16
VCC
p1546
sbag5
(g6
g7
(lp1547
g266
atp1548
Rp1549
(dp1550
g16
g266
sbag5
(g6
g7
(lp1551
g5
(g6
g7
(lp1552
g5
(g6
g7
(lp1553
Vin
p1554
atp1555
Rp1556
(dp1557
g16
VIN
p1558
sbag5
(g6
g7
(lp1559
g5
(g6
g7
(lp1560
Vparticular
p1561
atp1562
Rp1563
(dp1564
g16
VJJ
p1565
sbatp1566
Rp1567
(dp1568
g16
VADJP
p1569
sbatp1570
Rp1571
(dp1572
g16
VPP
p1573
sbag5
(g6
g7
(lp1574
g266
atp1575
Rp1576
(dp1577
g16
g266
sbag5
(g6
g7
(lp1578
g5
(g6
g7
(lp1579
Vthe
p1580
atp1581
Rp1582
(dp1583
g16
VDT
p1584
sbag5
(g6
g7
(lp1585
Vheuristics
p1586
atp1587
Rp1588
(dp1589
g16
VNNS
p1590
sbatp1591
Rp1592
(dp1593
g16
VNP
p1594
sbag5
(g6
g7
(lp1595
g5
(g6
g7
(lp1596
Vare
p1597
atp1598
Rp1599
(dp1600
g16
VVBP
p1601
sbag5
(g6
g7
(lp1602
g5
(g6
g7
(lp1603
Vall
p1604
atp1605
Rp1606
(dp1607
g16
VDT
p1608
sbag5
(g6
g7
(lp1609
Vso
p1610
atp1611
Rp1612
(dp1613
g16
VRB
p1614
sbatp1615
Rp1616
(dp1617
g16
VADVP
p1618
sbag5
(g6
g7
(lp1619
g5
(g6
g7
(lp1620
Vdescribed
p1621
atp1622
Rp1623
(dp1624
g16
VVBN
p1625
sbatp1626
Rp1627
(dp1628
g16
VVP
p1629
sbatp1630
Rp1631
(dp1632
g16
VVP
p1633
sbatp1634
Rp1635
(dp1636
g16
g208
sbag5
(g6
g7
(lp1637
g241
atp1638
Rp1639
(dp1640
g16
g241
sbatp1641
Rp1642
(dp1643
g16
g208
sbatp1644
Rp1645
(dp1646
g16
VROOT
p1647
sbasg540
(icmyPackage
CorE
p1648
(dp1649
g543
(lp1650
(I0
I0
tp1651
a(I0
I24
tp1652
asg547
g5
(g6
g7
(lp1653
g1539
ag1544
ag1549
ag1571
ag1576
ag1592
ag1599
ag1606
atp1654
Rp1655
(dp1656
g16
g552
sbsbsg553
(icmyPackage
CorE
p1657
(dp1658
g543
(lp1659
(I0
I26
tp1660
a(I0
I27
tp1661
asg547
g5
(g6
g7
(lp1662
g1627
ag1639
atp1663
Rp1664
(dp1665
g16
g552
sbsbsg563
g564
sg588
(lp1666
(icmyPackage
Sent
p1667
(dp1668
g592
I1
sg593
I3
sg594
S'In this program the procedures will be described as much as possible in the language itself and, in particular, the heuristics are all so described.'
p1669
sg596
I0
sg597
I10
sg547
(lp1670
g1645
asbasba(icmyPackage
CELink
p1671
(dp1672
g3
(lp1673
g5
(g6
g7
(lp1674
g5
(g6
g7
(lp1675
g5
(g6
g7
(lp1676
g5
(g6
g7
(lp1677
g5
(g6
g7
(lp1678
VThe
p1679
atp1680
Rp1681
(dp1682
g16
VDT
p1683
sbag5
(g6
g7
(lp1684
Vmain
p1685
atp1686
Rp1687
(dp1688
g16
VJJ
p1689
sbag5
(g6
g7
(lp1690
Vadvantages
p1691
atp1692
Rp1693
(dp1694
g16
VNNS
p1695
sbatp1696
Rp1697
(dp1698
g16
VNP
p1699
sbag5
(g6
g7
(lp1700
g5
(g6
g7
(lp1701
g5
(g6
g7
(lp1702
g5
(g6
g7
(lp1703
Vwe
p1704
atp1705
Rp1706
(dp1707
g16
VPRP
p1708
sbatp1709
Rp1710
(dp1711
g16
VNP
p1712
sbag5
(g6
g7
(lp1713
g5
(g6
g7
(lp1714
Vexpect
p1715
atp1716
Rp1717
(dp1718
g16
VVBP
p1719
sbag5
(g6
g7
(lp1720
g5
(g6
g7
(lp1721
g5
(g6
g7
(lp1722
Vthe
p1723
atp1724
Rp1725
(dp1726
g16
VDT
p1727
sbag5
(g6
g7
(lp1728
Vadvice
p1729
atp1730
Rp1731
(dp1732
g16
VNN
p1733
sbag5
(g6
g7
(lp1734
Vtaker
p1735
atp1736
Rp1737
(dp1738
g16
VNN
p1739
sbatp1740
Rp1741
(dp1742
g16
VNP
p1743
sbag5
(g6
g7
(lp1744
g5
(g6
g7
(lp1745
Vto
p1746
atp1747
Rp1748
(dp1749
g16
VTO
p1750
sbag5
(g6
g7
(lp1751
g5
(g6
g7
(lp1752
Vhave
p1753
atp1754
Rp1755
(dp1756
g16
VVB
p1757
sbatp1758
Rp1759
(dp1760
g16
VVP
p1761
sbatp1762
Rp1763
(dp1764
g16
VVP
p1765
sbatp1766
Rp1767
(dp1768
g16
g208
sbatp1769
Rp1770
(dp1771
g16
VVP
p1772
sbatp1773
Rp1774
(dp1775
g16
g208
sbatp1776
Rp1777
(dp1778
g16
VSBAR
p1779
sbatp1780
Rp1781
(dp1782
g16
VNP
p1783
sbag5
(g6
g7
(lp1784
g5
(g6
g7
(lp1785
Vis
p1786
atp1787
Rp1788
(dp1789
g16
VVBZ
p1790
sbag5
(g6
g7
(lp1791
g5
(g6
g7
(lp1792
g5
(g6
g7
(lp1793
Vthat
p1794
atp1795
Rp1796
(dp1797
g16
VIN
p1798
sbag5
(g6
g7
(lp1799
g5
(g6
g7
(lp1800
g5
(g6
g7
(lp1801
Vits
p1802
atp1803
Rp1804
(dp1805
g16
VPRP$
p1806
sbag5
(g6
g7
(lp1807
Vbehavior
p1808
atp1809
Rp1810
(dp1811
g16
VNN
p1812
sbatp1813
Rp1814
(dp1815
g16
VNP
p1816
sbag5
(g6
g7
(lp1817
g5
(g6
g7
(lp1818
Vwill
p1819
atp1820
Rp1821
(dp1822
g16
VMD
p1823
sbag5
(g6
g7
(lp1824
g5
(g6
g7
(lp1825
Vbe
p1826
atp1827
Rp1828
(dp1829
g16
VVB
p1830
sbag5
(g6
g7
(lp1831
g5
(g6
g7
(lp1832
Vimprovable
p1833
atp1834
Rp1835
(dp1836
g16
VJJ
p1837
sbag5
(g6
g7
(lp1838
Vmerely
p1839
atp1840
Rp1841
(dp1842
g16
VRB
p1843
sbag5
(g6
g7
(lp1844
g5
(g6
g7
(lp1845
Vby
p1846
atp1847
Rp1848
(dp1849
g16
VIN
p1850
sbag5
(g6
g7
(lp1851
g5
(g6
g7
(lp1852
g5
(g6
g7
(lp1853
Vmaking
p1854
atp1855
Rp1856
(dp1857
g16
VVBG
p1858
sbag5
(g6
g7
(lp1859
g5
(g6
g7
(lp1860
Vstatements
p1861
atp1862
Rp1863
(dp1864
g16
VNNS
p1865
sbatp1866
Rp1867
(dp1868
g16
VNP
p1869
sbag5
(g6
g7
(lp1870
g5
(g6
g7
(lp1871
Vto
p1872
atp1873
Rp1874
(dp1875
g16
VTO
p1876
sbag5
(g6
g7
(lp1877
g5
(g6
g7
(lp1878
Vit
p1879
atp1880
Rp1881
(dp1882
g16
VPRP
p1883
sbatp1884
Rp1885
(dp1886
g16
VNP
p1887
sbatp1888
Rp1889
(dp1890
g16
VPP
p1891
sbag5
(g6
g7
(lp1892
g266
atp1893
Rp1894
(dp1895
g16
g266
sbag5
(g6
g7
(lp1896
g5
(g6
g7
(lp1897
g5
(g6
g7
(lp1898
Vtelling
p1899
atp1900
Rp1901
(dp1902
g16
VVBG
p1903
sbag5
(g6
g7
(lp1904
g5
(g6
g7
(lp1905
Vit
p1906
atp1907
Rp1908
(dp1909
g16
VPRP
p1910
sbatp1911
Rp1912
(dp1913
g16
VNP
p1914
sbag5
(g6
g7
(lp1915
g5
(g6
g7
(lp1916
Vabout
p1917
atp1918
Rp1919
(dp1920
g16
VIN
p1921
sbag5
(g6
g7
(lp1922
g5
(g6
g7
(lp1923
Vits
p1924
atp1925
Rp1926
(dp1927
g16
VPRP$
p1928
sbag5
(g6
g7
(lp1929
Vsymbolic
p1930
atp1931
Rp1932
(dp1933
g16
VJJ
p1934
sbag5
(g6
g7
(lp1935
Venvironment
p1936
atp1937
Rp1938
(dp1939
g16
VNN
p1940
sbatp1941
Rp1942
(dp1943
g16
VNP
p1944
sbatp1945
Rp1946
(dp1947
g16
VPP
p1948
sbatp1949
Rp1950
(dp1951
g16
VVP
p1952
sbatp1953
Rp1954
(dp1955
g16
g208
sbatp1956
Rp1957
(dp1958
g16
VVP
p1959
sbatp1960
Rp1961
(dp1962
g16
g208
sbatp1963
Rp1964
(dp1965
g16
VPP
p1966
sbatp1967
Rp1968
(dp1969
g16
VADJP
p1970
sbatp1971
Rp1972
(dp1973
g16
VVP
p1974
sbatp1975
Rp1976
(dp1977
g16
VVP
p1978
sbatp1979
Rp1980
(dp1981
g16
g208
sbatp1982
Rp1983
(dp1984
g16
VSBAR
p1985
sbag5
(g6
g7
(lp1986
Vand
p1987
atp1988
Rp1989
(dp1990
g16
VCC
p1991
sbag5
(g6
g7
(lp1992
g5
(g6
g7
(lp1993
g5
(g6
g7
(lp1994
Vwhat
p1995
atp1996
Rp1997
(dp1998
g16
VWP
p1999
sbatp2000
Rp2001
(dp2002
g16
VWHNP
p2003
sbag5
(g6
g7
(lp2004
g5
(g6
g7
(lp2005
g5
(g6
g7
(lp2006
Vis
p2007
atp2008
Rp2009
(dp2010
g16
VVBZ
p2011
sbag5
(g6
g7
(lp2012
g5
(g6
g7
(lp2013
Vwanted
p2014
atp2015
Rp2016
(dp2017
g16
VVBN
p2018
sbag5
(g6
g7
(lp2019
g5
(g6
g7
(lp2020
Vfrom
p2021
atp2022
Rp2023
(dp2024
g16
VIN
p2025
sbag5
(g6
g7
(lp2026
g5
(g6
g7
(lp2027
Vit
p2028
atp2029
Rp2030
(dp2031
g16
VPRP
p2032
sbatp2033
Rp2034
(dp2035
g16
VNP
p2036
sbatp2037
Rp2038
(dp2039
g16
VPP
p2040
sbatp2041
Rp2042
(dp2043
g16
VVP
p2044
sbatp2045
Rp2046
(dp2047
g16
VVP
p2048
sbatp2049
Rp2050
(dp2051
g16
g208
sbatp2052
Rp2053
(dp2054
g16
VSBAR
p2055
sbatp2056
Rp2057
(dp2058
g16
VSBAR
p2059
sbatp2060
Rp2061
(dp2062
g16
VVP
p2063
sbag5
(g6
g7
(lp2064
g241
atp2065
Rp2066
(dp2067
g16
g241
sbatp2068
Rp2069
(dp2070
g16
g208
sbatp2071
Rp2072
(dp2073
g16
VROOT
p2074
sbasg540
(icmyPackage
CorE
p2075
(dp2076
g543
(lp2077
(I0
I19
tp2078
a(I0
I29
tp2079
asg547
g1961
sbsg553
(icmyPackage
CorE
p2080
(dp2081
g543
(lp2082
(I0
I30
tp2083
a(I0
I36
tp2084
asg547
g5
(g6
g7
(lp2085
g1989
ag2053
ag2066
atp2086
Rp2087
(dp2088
g16
g552
sbsbsg563
(icmyPackage
pattern
p2089
(dp2090
g566
I0
sg567
I0
sg568
(lp2091
(lp2092
(lp2093
S'by'
p2094
aS'through'
p2095
aaasg572
(lp2096
I2
aI1
aI1
asg574
(lp2097
S'By extracting comments and comparisons of the cited articles and then organizing them according to the time of publication discovers and displays how the area has developed as a research literature.'
p2098
asg577
I67
sg578
(lp2099
(lp2100
a(lp2101
S'&V-ing@C@'
p2102
aS'&R'
p2103
aasbsg588
(lp2104
(icmyPackage
Sent
p2105
(dp2106
g592
I1
sg593
I4
sg594
S'The main advantages we expect the advice taker to have is that its behavior will be improvable merely by making statements to it, telling it about its symbolic environment and what is wanted from it.'
p2107
sg596
I0
sg597
I11
sg547
(lp2108
g2072
asbasba(icmyPackage
CELink
p2109
(dp2110
g3
(lp2111
g5
(g6
g7
(lp2112
g5
(g6
g7
(lp2113
g5
(g6
g7
(lp2114
g5
(g6
g7
(lp2115
g5
(g6
g7
(lp2116
VTo
p2117
atp2118
Rp2119
(dp2120
g16
VTO
p2121
sbag5
(g6
g7
(lp2122
g5
(g6
g7
(lp2123
Vmake
p2124
atp2125
Rp2126
(dp2127
g16
VVB
p2128
sbag5
(g6
g7
(lp2129
g5
(g6
g7
(lp2130
Vthese
p2131
atp2132
Rp2133
(dp2134
g16
VDT
p2135
sbag5
(g6
g7
(lp2136
Vstatements
p2137
atp2138
Rp2139
(dp2140
g16
VNNS
p2141
sbatp2142
Rp2143
(dp2144
g16
VNP
p2145
sbatp2146
Rp2147
(dp2148
g16
VVP
p2149
sbatp2150
Rp2151
(dp2152
g16
VVP
p2153
sbatp2154
Rp2155
(dp2156
g16
g208
sbag5
(g6
g7
(lp2157
g5
(g6
g7
(lp2158
Vwill
p2159
atp2160
Rp2161
(dp2162
g16
VMD
p2163
sbag5
(g6
g7
(lp2164
g5
(g6
g7
(lp2165
Vrequire
p2166
atp2167
Rp2168
(dp2169
g16
VVB
p2170
sbag5
(g6
g7
(lp2171
g5
(g6
g7
(lp2172
g5
(g6
g7
(lp2173
Vlittle
p2174
atp2175
Rp2176
(dp2177
g16
VRB
p2178
sbag5
(g6
g7
(lp2179
Vif
p2180
atp2181
Rp2182
(dp2183
g16
VIN
p2184
sbag5
(g6
g7
(lp2185
g5
(g6
g7
(lp2186
g5
(g6
g7
(lp2187
Vany
p2188
atp2189
Rp2190
(dp2191
g16
VDT
p2192
sbag5
(g6
g7
(lp2193
Vknowledge
p2194
atp2195
Rp2196
(dp2197
g16
VNN
p2198
sbatp2199
Rp2200
(dp2201
g16
VNP
p2202
sbag5
(g6
g7
(lp2203
g5
(g6
g7
(lp2204
Vof
p2205
atp2206
Rp2207
(dp2208
g16
VIN
p2209
sbag5
(g6
g7
(lp2210
g5
(g6
g7
(lp2211
g5
(g6
g7
(lp2212
Vthe
p2213
atp2214
Rp2215
(dp2216
g16
VDT
p2217
sbag5
(g6
g7
(lp2218
Vprogram
p2219
atp2220
Rp2221
(dp2222
g16
VNN
p2223
sbatp2224
Rp2225
(dp2226
g16
VNP
p2227
sbag5
(g6
g7
(lp2228
Vor
p2229
atp2230
Rp2231
(dp2232
g16
VCC
p2233
sbag5
(g6
g7
(lp2234
g5
(g6
g7
(lp2235
g5
(g6
g7
(lp2236
Vthe
p2237
atp2238
Rp2239
(dp2240
g16
VDT
p2241
sbag5
(g6
g7
(lp2242
Vprevious
p2243
atp2244
Rp2245
(dp2246
g16
VJJ
p2247
sbag5
(g6
g7
(lp2248
Vknowledge
p2249
atp2250
Rp2251
(dp2252
g16
VNN
p2253
sbatp2254
Rp2255
(dp2256
g16
VNP
p2257
sbag5
(g6
g7
(lp2258
g5
(g6
g7
(lp2259
Vof
p2260
atp2261
Rp2262
(dp2263
g16
VIN
p2264
sbag5
(g6
g7
(lp2265
g5
(g6
g7
(lp2266
Vthe
p2267
atp2268
Rp2269
(dp2270
g16
VDT
p2271
sbag5
(g6
g7
(lp2272
Vadvice
p2273
atp2274
Rp2275
(dp2276
g16
VNN
p2277
sbatp2278
Rp2279
(dp2280
g16
VNP
p2281
sbatp2282
Rp2283
(dp2284
g16
VPP
p2285
sbatp2286
Rp2287
(dp2288
g16
VNP
p2289
sbatp2290
Rp2291
(dp2292
g16
VNP
p2293
sbatp2294
Rp2295
(dp2296
g16
VPP
p2297
sbatp2298
Rp2299
(dp2300
g16
VNP
p2301
sbatp2302
Rp2303
(dp2304
g16
VADJP
p2305
sbag5
(g6
g7
(lp2306
Vtaker
p2307
atp2308
Rp2309
(dp2310
g16
VNN
p2311
sbatp2312
Rp2313
(dp2314
g16
VNP
p2315
sbatp2316
Rp2317
(dp2318
g16
VVP
p2319
sbatp2320
Rp2321
(dp2322
g16
VVP
p2323
sbag5
(g6
g7
(lp2324
g241
atp2325
Rp2326
(dp2327
g16
g241
sbatp2328
Rp2329
(dp2330
g16
g208
sbatp2331
Rp2332
(dp2333
g16
VROOT
p2334
sbasg540
(icmyPackage
CorE
p2335
(dp2336
g543
(lp2337
(I0
I6
tp2338
a(I0
I20
tp2339
asg547
g2313
sbsg553
(icmyPackage
CorE
p2340
(dp2341
g543
(lp2342
(I0
I0
tp2343
a(I0
I1
tp2344
asg547
g5
(g6
g7
(lp2345
g2119
ag2126
atp2346
Rp2347
(dp2348
g16
g552
sbsbsg563
(icmyPackage
pattern
p2349
(dp2350
g566
I0
sg567
I1
sg568
(lp2351
(lp2352
(lp2353
S'concern'
p2354
aS'concerns'
p2355
aS'concerned'
p2356
aS'require'
p2357
aS'requires'
p2358
aS'required'
p2359
aS'request'
p2360
aS'requests'
p2361
aS'requested'
p2362
aaasg572
(lp2363
I4
aI1
aI1
asg574
(lp2364
S'For example, this enables e-learning systems to capture student behaviors during studying so that leaning materials and processes can be organized and adapted in real time to raise the effectiveness of study. This concerns the classification on students\xe2\x80\x99 behaviors (including micro expressions) and carrying out real-time analysis and adaptation.'
p2365
asg577
I90
sg578
(lp2366
(lp2367
S'&R'
p2368
aS'(,/./;/--)'
p2369
aS'&this'
p2370
aS'(&adj)'
p2371
aS'(&N)'
p2372
aS'(&CAN/have/has/had)'
p2373
aS'(&ADV)'
p2374
aa(lp2375
S'(about)'
p2376
aS'&V-ing/&NP@C@'
p2377
aasbsg588
(lp2378
(icmyPackage
Sent
p2379
(dp2380
g592
I1
sg593
I4
sg594
S'To make these statements will require little if any knowledge of the program or the previous knowledge of the advice taker.'
p2381
sg596
I0
sg597
I12
sg547
(lp2382
g2332
asbasba(icmyPackage
CELink
p2383
(dp2384
g3
(lp2385
g5
(g6
g7
(lp2386
g5
(g6
g7
(lp2387
g5
(g6
g7
(lp2388
g5
(g6
g7
(lp2389
VThis
p2390
atp2391
Rp2392
(dp2393
g16
VDT
p2394
sbag5
(g6
g7
(lp2395
Vproperty
p2396
atp2397
Rp2398
(dp2399
g16
VNN
p2400
sbatp2401
Rp2402
(dp2403
g16
VNP
p2404
sbag5
(g6
g7
(lp2405
g5
(g6
g7
(lp2406
Vis
p2407
atp2408
Rp2409
(dp2410
g16
VVBZ
p2411
sbag5
(g6
g7
(lp2412
g5
(g6
g7
(lp2413
Vexpected
p2414
atp2415
Rp2416
(dp2417
g16
VVBN
p2418
sbag5
(g6
g7
(lp2419
g5
(g6
g7
(lp2420
g5
(g6
g7
(lp2421
Vto
p2422
atp2423
Rp2424
(dp2425
g16
VTO
p2426
sbag5
(g6
g7
(lp2427
g5
(g6
g7
(lp2428
Vhave
p2429
atp2430
Rp2431
(dp2432
g16
VVB
p2433
sbag5
(g6
g7
(lp2434
g5
(g6
g7
(lp2435
g5
(g6
g7
(lp2436
Vmuch
p2437
atp2438
Rp2439
(dp2440
g16
VRB
p2441
sbatp2442
Rp2443
(dp2444
g16
VNP
p2445
sbag5
(g6
g7
(lp2446
g5
(g6
g7
(lp2447
Vin
p2448
atp2449
Rp2450
(dp2451
g16
VIN
p2452
sbag5
(g6
g7
(lp2453
g5
(g6
g7
(lp2454
g5
(g6
g7
(lp2455
Vcommon
p2456
atp2457
Rp2458
(dp2459
g16
VJJ
p2460
sbatp2461
Rp2462
(dp2463
g16
VNP
p2464
sbag5
(g6
g7
(lp2465
g5
(g6
g7
(lp2466
Vwith
p2467
atp2468
Rp2469
(dp2470
g16
VIN
p2471
sbag5
(g6
g7
(lp2472
g5
(g6
g7
(lp2473
g5
(g6
g7
(lp2474
Vwhat
p2475
atp2476
Rp2477
(dp2478
g16
VWP
p2479
sbatp2480
Rp2481
(dp2482
g16
VWHNP
p2483
sbag5
(g6
g7
(lp2484
g5
(g6
g7
(lp2485
g5
(g6
g7
(lp2486
Vmakes
p2487
atp2488
Rp2489
(dp2490
g16
VVBZ
p2491
sbag5
(g6
g7
(lp2492
g5
(g6
g7
(lp2493
g5
(g6
g7
(lp2494
Vus
p2495
atp2496
Rp2497
(dp2498
g16
VPRP
p2499
sbatp2500
Rp2501
(dp2502
g16
VNP
p2503
sbag5
(g6
g7
(lp2504
g5
(g6
g7
(lp2505
Vdescribe
p2506
atp2507
Rp2508
(dp2509
g16
VVB
p2510
sbag5
(g6
g7
(lp2511
g5
(g6
g7
(lp2512
Vcertain
p2513
atp2514
Rp2515
(dp2516
g16
VJJ
p2517
sbag5
(g6
g7
(lp2518
Vhumans
p2519
atp2520
Rp2521
(dp2522
g16
VNNS
p2523
sbatp2524
Rp2525
(dp2526
g16
VNP
p2527
sbag5
(g6
g7
(lp2528
g5
(g6
g7
(lp2529
Vas
p2530
atp2531
Rp2532
(dp2533
g16
VIN
p2534
sbag5
(g6
g7
(lp2535
g5
(g6
g7
(lp2536
g5
(g6
g7
(lp2537
Vhaving
p2538
atp2539
Rp2540
(dp2541
g16
VVBG
p2542
sbag5
(g6
g7
(lp2543
g5
(g6
g7
(lp2544
Vcommon
p2545
atp2546
Rp2547
(dp2548
g16
VJJ
p2549
sbag5
(g6
g7
(lp2550
Vsense
p2551
atp2552
Rp2553
(dp2554
g16
VNN
p2555
sbatp2556
Rp2557
(dp2558
g16
VNP
p2559
sbatp2560
Rp2561
(dp2562
g16
VVP
p2563
sbatp2564
Rp2565
(dp2566
g16
g208
sbatp2567
Rp2568
(dp2569
g16
VPP
p2570
sbatp2571
Rp2572
(dp2573
g16
VVP
p2574
sbatp2575
Rp2576
(dp2577
g16
g208
sbatp2578
Rp2579
(dp2580
g16
VVP
p2581
sbatp2582
Rp2583
(dp2584
g16
g208
sbatp2585
Rp2586
(dp2587
g16
VSBAR
p2588
sbatp2589
Rp2590
(dp2591
g16
VPP
p2592
sbatp2593
Rp2594
(dp2595
g16
VNP
p2596
sbatp2597
Rp2598
(dp2599
g16
VPP
p2600
sbatp2601
Rp2602
(dp2603
g16
VNP
p2604
sbatp2605
Rp2606
(dp2607
g16
VVP
p2608
sbatp2609
Rp2610
(dp2611
g16
VVP
p2612
sbatp2613
Rp2614
(dp2615
g16
g208
sbatp2616
Rp2617
(dp2618
g16
VVP
p2619
sbatp2620
Rp2621
(dp2622
g16
VVP
p2623
sbag5
(g6
g7
(lp2624
g241
atp2625
Rp2626
(dp2627
g16
g241
sbatp2628
Rp2629
(dp2630
g16
g208
sbatp2631
Rp2632
(dp2633
g16
VROOT
p2634
sbag5
(g6
g7
(lp2635
g5
(g6
g7
(lp2636
g5
(g6
g7
(lp2637
g5
(g6
g7
(lp2638
VWe
p2639
atp2640
Rp2641
(dp2642
g16
VPRP
p2643
sbatp2644
Rp2645
(dp2646
g16
VNP
p2647
sbag5
(g6
g7
(lp2648
g5
(g6
g7
(lp2649
Vshall
p2650
atp2651
Rp2652
(dp2653
g16
VMD
p2654
sbag5
(g6
g7
(lp2655
g5
(g6
g7
(lp2656
Vtherefore
p2657
atp2658
Rp2659
(dp2660
g16
VRB
p2661
sbatp2662
Rp2663
(dp2664
g16
VADVP
p2665
sbag5
(g6
g7
(lp2666
g5
(g6
g7
(lp2667
Vsay
p2668
atp2669
Rp2670
(dp2671
g16
VVB
p2672
sbag5
(g6
g7
(lp2673
g5
(g6
g7
(lp2674
Vthat
p2675
atp2676
Rp2677
(dp2678
g16
VIN
p2679
sbag5
(g6
g7
(lp2680
g5
(g6
g7
(lp2681
g5
(g6
g7
(lp2682
g127
atp2683
Rp2684
(dp2685
g16
VDT
p2686
sbag5
(g6
g7
(lp2687
Vprogram
p2688
atp2689
Rp2690
(dp2691
g16
VNN
p2692
sbatp2693
Rp2694
(dp2695
g16
VNP
p2696
sbag5
(g6
g7
(lp2697
g5
(g6
g7
(lp2698
Vhas
p2699
atp2700
Rp2701
(dp2702
g16
VVBZ
p2703
sbag5
(g6
g7
(lp2704
g5
(g6
g7
(lp2705
g5
(g6
g7
(lp2706
Vcommon
p2707
atp2708
Rp2709
(dp2710
g16
VJJ
p2711
sbag5
(g6
g7
(lp2712
Vsense
p2713
atp2714
Rp2715
(dp2716
g16
VNN
p2717
sbatp2718
Rp2719
(dp2720
g16
VNP
p2721
sbag5
(g6
g7
(lp2722
g5
(g6
g7
(lp2723
g5
(g6
g7
(lp2724
Vif
p2725
atp2726
Rp2727
(dp2728
g16
VIN
p2729
sbag5
(g6
g7
(lp2730
g5
(g6
g7
(lp2731
g5
(g6
g7
(lp2732
Vit
p2733
atp2734
Rp2735
(dp2736
g16
VPRP
p2737
sbatp2738
Rp2739
(dp2740
g16
VNP
p2741
sbag5
(g6
g7
(lp2742
g5
(g6
g7
(lp2743
Vautomatically
p2744
atp2745
Rp2746
(dp2747
g16
VRB
p2748
sbatp2749
Rp2750
(dp2751
g16
VADVP
p2752
sbag5
(g6
g7
(lp2753
g5
(g6
g7
(lp2754
Vdeduces
p2755
atp2756
Rp2757
(dp2758
g16
VVBZ
p2759
sbag5
(g6
g7
(lp2760
g5
(g6
g7
(lp2761
Vfor
p2762
atp2763
Rp2764
(dp2765
g16
VIN
p2766
sbag5
(g6
g7
(lp2767
g5
(g6
g7
(lp2768
Vitself
p2769
atp2770
Rp2771
(dp2772
g16
VPRP
p2773
sbatp2774
Rp2775
(dp2776
g16
VNP
p2777
sbatp2778
Rp2779
(dp2780
g16
VPP
p2781
sbag5
(g6
g7
(lp2782
g5
(g6
g7
(lp2783
g5
(g6
g7
(lp2784
g127
atp2785
Rp2786
(dp2787
g16
VDT
p2788
sbag5
(g6
g7
(lp2789
g5
(g6
g7
(lp2790
Vsufficiently
p2791
atp2792
Rp2793
(dp2794
g16
VRB
p2795
sbag5
(g6
g7
(lp2796
Vwide
p2797
atp2798
Rp2799
(dp2800
g16
VJJ
p2801
sbatp2802
Rp2803
(dp2804
g16
VADJP
p2805
sbag5
(g6
g7
(lp2806
Vclass
p2807
atp2808
Rp2809
(dp2810
g16
VNN
p2811
sbatp2812
Rp2813
(dp2814
g16
VNP
p2815
sbag5
(g6
g7
(lp2816
g5
(g6
g7
(lp2817
Vof
p2818
atp2819
Rp2820
(dp2821
g16
VIN
p2822
sbag5
(g6
g7
(lp2823
g5
(g6
g7
(lp2824
g5
(g6
g7
(lp2825
Vimmediate
p2826
atp2827
Rp2828
(dp2829
g16
VJJ
p2830
sbag5
(g6
g7
(lp2831
Vconsequences
p2832
atp2833
Rp2834
(dp2835
g16
VNNS
p2836
sbatp2837
Rp2838
(dp2839
g16
VNP
p2840
sbag5
(g6
g7
(lp2841
g5
(g6
g7
(lp2842
Vof
p2843
atp2844
Rp2845
(dp2846
g16
VIN
p2847
sbag5
(g6
g7
(lp2848
g5
(g6
g7
(lp2849
Vanything
p2850
atp2851
Rp2852
(dp2853
g16
VNN
p2854
sbatp2855
Rp2856
(dp2857
g16
VNP
p2858
sbatp2859
Rp2860
(dp2861
g16
VPP
p2862
sbatp2863
Rp2864
(dp2865
g16
VNP
p2866
sbatp2867
Rp2868
(dp2869
g16
VPP
p2870
sbag5
(g6
g7
(lp2871
g5
(g6
g7
(lp2872
g5
(g6
g7
(lp2873
g5
(g6
g7
(lp2874
Vit
p2875
atp2876
Rp2877
(dp2878
g16
VPRP
p2879
sbatp2880
Rp2881
(dp2882
g16
VNP
p2883
sbag5
(g6
g7
(lp2884
g5
(g6
g7
(lp2885
Vis
p2886
atp2887
Rp2888
(dp2889
g16
VVBZ
p2890
sbag5
(g6
g7
(lp2891
g5
(g6
g7
(lp2892
Vtold
p2893
atp2894
Rp2895
(dp2896
g16
VVBN
p2897
sbatp2898
Rp2899
(dp2900
g16
VVP
p2901
sbatp2902
Rp2903
(dp2904
g16
VVP
p2905
sbatp2906
Rp2907
(dp2908
g16
g208
sbatp2909
Rp2910
(dp2911
g16
VSBAR
p2912
sbatp2913
Rp2914
(dp2915
g16
VNP
p2916
sbatp2917
Rp2918
(dp2919
g16
VVP
p2920
sbatp2921
Rp2922
(dp2923
g16
g208
sbatp2924
Rp2925
(dp2926
g16
VSBAR
p2927
sbag5
(g6
g7
(lp2928
Vand
p2929
atp2930
Rp2931
(dp2932
g16
VCC
p2933
sbag5
(g6
g7
(lp2934
g5
(g6
g7
(lp2935
g5
(g6
g7
(lp2936
Vwhat
p2937
atp2938
Rp2939
(dp2940
g16
VWP
p2941
sbatp2942
Rp2943
(dp2944
g16
VWHNP
p2945
sbag5
(g6
g7
(lp2946
g5
(g6
g7
(lp2947
g5
(g6
g7
(lp2948
Vit
p2949
atp2950
Rp2951
(dp2952
g16
VPRP
p2953
sbatp2954
Rp2955
(dp2956
g16
VNP
p2957
sbag5
(g6
g7
(lp2958
g5
(g6
g7
(lp2959
Valready
p2960
atp2961
Rp2962
(dp2963
g16
VRB
p2964
sbatp2965
Rp2966
(dp2967
g16
VADVP
p2968
sbag5
(g6
g7
(lp2969
g5
(g6
g7
(lp2970
Vknows
p2971
atp2972
Rp2973
(dp2974
g16
VVBZ
p2975
sbatp2976
Rp2977
(dp2978
g16
VVP
p2979
sbatp2980
Rp2981
(dp2982
g16
g208
sbatp2983
Rp2984
(dp2985
g16
VSBAR
p2986
sbatp2987
Rp2988
(dp2989
g16
VSBAR
p2990
sbatp2991
Rp2992
(dp2993
g16
VNP
p2994
sbatp2995
Rp2996
(dp2997
g16
VVP
p2998
sbatp2999
Rp3000
(dp3001
g16
g208
sbatp3002
Rp3003
(dp3004
g16
VSBAR
p3005
sbatp3006
Rp3007
(dp3008
g16
VVP
p3009
sbatp3010
Rp3011
(dp3012
g16
VVP
p3013
sbag5
(g6
g7
(lp3014
g241
atp3015
Rp3016
(dp3017
g16
g241
sbatp3018
Rp3019
(dp3020
g16
g208
sbatp3021
Rp3022
(dp3023
g16
VROOT
p3024
sbasg540
(icmyPackage
CorE
p3025
(dp3026
g543
(lp3027
(I0
I1
tp3028
a(I1
I1
tp3029
asg547
g5
(g6
g7
(lp3030
g2398
ag2621
ag2626
ag2645
ag2652
atp3031
Rp3032
(dp3033
g16
g552
sbsbsg553
(icmyPackage
CorE
p3034
(dp3035
g543
(lp3036
(I1
I3
tp3037
a(I1
I33
tp3038
asg547
g5
(g6
g7
(lp3039
g3007
ag3016
atp3040
Rp3041
(dp3042
g16
g552
sbsbsg563
(icmyPackage
pattern
p3043
(dp3044
g566
I62
sg567
I1
sg568
(lp3045
(lp3046
S'therefore'
p3047
aasg572
(lp3048
I1
aI1
aI1
asg574
(lp3049
S'He never lies; therefore, everyone likes to make friends with him.'
p3050
asg577
I1
sg578
(lp3051
(lp3052
S'&C'
p3053
aS'(,/;/./--)'
p3054
aS'(&AND)'
p3055
aa(lp3056
S'(,)'
p3057
aS'&R'
p3058
aasbsg588
(lp3059
(icmyPackage
Sent
p3060
(dp3061
g592
I1
sg593
I4
sg594
S'This property is expected to have much in common with what makes us describe certain humans as having common sense.'
p3062
sg596
I0
sg597
I14
sg547
(lp3063
g2632
asba(icmyPackage
Sent
p3064
(dp3065
g592
I1
sg593
I4
sg594
S'We shall therefore say that a program has common sense if it automatically deduces for itself a sufficiently wide class of immediate consequences of anything it is told and what it already knows.'
p3066
sg596
I0
sg597
I15
sg547
(lp3067
g3022
asbasba(icmyPackage
CELink
p3068
(dp3069
g3
(lp3070
g5
(g6
g7
(lp3071
g5
(g6
g7
(lp3072
g5
(g6
g7
(lp3073
g5
(g6
g7
(lp3074
VBefore
p3075
atp3076
Rp3077
(dp3078
g16
VIN
p3079
sbag5
(g6
g7
(lp3080
g5
(g6
g7
(lp3081
g5
(g6
g7
(lp3082
Vdescribing
p3083
atp3084
Rp3085
(dp3086
g16
VVBG
p3087
sbag5
(g6
g7
(lp3088
g5
(g6
g7
(lp3089
Vthe
p3090
atp3091
Rp3092
(dp3093
g16
VDT
p3094
sbag5
(g6
g7
(lp3095
Vadvice
p3096
atp3097
Rp3098
(dp3099
g16
VNN
p3100
sbag5
(g6
g7
(lp3101
Vtaker
p3102
atp3103
Rp3104
(dp3105
g16
VNN
p3106
sbatp3107
Rp3108
(dp3109
g16
VNP
p3110
sbag5
(g6
g7
(lp3111
g5
(g6
g7
(lp3112
Vin
p3113
atp3114
Rp3115
(dp3116
g16
VIN
p3117
sbag5
(g6
g7
(lp3118
g5
(g6
g7
(lp3119
Vany
p3120
atp3121
Rp3122
(dp3123
g16
VDT
p3124
sbag5
(g6
g7
(lp3125
Vdetail
p3126
atp3127
Rp3128
(dp3129
g16
VNN
p3130
sbatp3131
Rp3132
(dp3133
g16
VNP
p3134
sbatp3135
Rp3136
(dp3137
g16
VPP
p3138
sbatp3139
Rp3140
(dp3141
g16
VVP
p3142
sbatp3143
Rp3144
(dp3145
g16
g208
sbatp3146
Rp3147
(dp3148
g16
VPP
p3149
sbag5
(g6
g7
(lp3150
g266
atp3151
Rp3152
(dp3153
g16
g266
sbag5
(g6
g7
(lp3154
g5
(g6
g7
(lp3155
VI
p3156
atp3157
Rp3158
(dp3159
g16
VPRP
p3160
sbatp3161
Rp3162
(dp3163
g16
VNP
p3164
sbag5
(g6
g7
(lp3165
g5
(g6
g7
(lp3166
Vwould
p3167
atp3168
Rp3169
(dp3170
g16
VMD
p3171
sbag5
(g6
g7
(lp3172
g5
(g6
g7
(lp3173
Vlike
p3174
atp3175
Rp3176
(dp3177
g16
VVB
p3178
sbag5
(g6
g7
(lp3179
g5
(g6
g7
(lp3180
g5
(g6
g7
(lp3181
Vto
p3182
atp3183
Rp3184
(dp3185
g16
VTO
p3186
sbag5
(g6
g7
(lp3187
g5
(g6
g7
(lp3188
Vdescribe
p3189
atp3190
Rp3191
(dp3192
g16
VVB
p3193
sbag5
(g6
g7
(lp3194
g5
(g6
g7
(lp3195
Vmore
p3196
atp3197
Rp3198
(dp3199
g16
VRBR
p3200
sbag5
(g6
g7
(lp3201
Vfully
p3202
atp3203
Rp3204
(dp3205
g16
VRB
p3206
sbatp3207
Rp3208
(dp3209
g16
VADVP
p3210
sbag5
(g6
g7
(lp3211
g5
(g6
g7
(lp3212
Vour
p3213
atp3214
Rp3215
(dp3216
g16
VPRP$
p3217
sbag5
(g6
g7
(lp3218
Vmotivation
p3219
atp3220
Rp3221
(dp3222
g16
VNN
p3223
sbatp3224
Rp3225
(dp3226
g16
VNP
p3227
sbag5
(g6
g7
(lp3228
g5
(g6
g7
(lp3229
Vfor
p3230
atp3231
Rp3232
(dp3233
g16
VIN
p3234
sbag5
(g6
g7
(lp3235
g5
(g6
g7
(lp3236
g5
(g6
g7
(lp3237
Vproceeding
p3238
atp3239
Rp3240
(dp3241
g16
VVBG
p3242
sbag5
(g6
g7
(lp3243
g5
(g6
g7
(lp3244
Vin
p3245
atp3246
Rp3247
(dp3248
g16
VIN
p3249
sbag5
(g6
g7
(lp3250
g5
(g6
g7
(lp3251
Vthis
p3252
atp3253
Rp3254
(dp3255
g16
VDT
p3256
sbag5
(g6
g7
(lp3257
Vdirection
p3258
atp3259
Rp3260
(dp3261
g16
VNN
p3262
sbatp3263
Rp3264
(dp3265
g16
VNP
p3266
sbatp3267
Rp3268
(dp3269
g16
VPP
p3270
sbatp3271
Rp3272
(dp3273
g16
VVP
p3274
sbatp3275
Rp3276
(dp3277
g16
g208
sbatp3278
Rp3279
(dp3280
g16
VPP
p3281
sbatp3282
Rp3283
(dp3284
g16
VVP
p3285
sbatp3286
Rp3287
(dp3288
g16
VVP
p3289
sbatp3290
Rp3291
(dp3292
g16
g208
sbatp3293
Rp3294
(dp3295
g16
VVP
p3296
sbatp3297
Rp3298
(dp3299
g16
VVP
p3300
sbag5
(g6
g7
(lp3301
g241
atp3302
Rp3303
(dp3304
g16
g241
sbatp3305
Rp3306
(dp3307
g16
g208
sbatp3308
Rp3309
(dp3310
g16
VROOT
p3311
sbasg540
(icmyPackage
CorE
p3312
(dp3313
g543
(lp3314
(I0
I19
tp3315
a(I0
I22
tp3316
asg547
g3276
sbsg553
(icmyPackage
CorE
p3317
(dp3318
g543
(lp3319
(I0
I0
tp3320
a(I0
I17
tp3321
asg547
g5
(g6
g7
(lp3322
g3147
ag3152
ag3162
ag3169
ag3176
ag3184
ag3191
ag3208
ag3225
atp3323
Rp3324
(dp3325
g16
g552
sbsbsg563
g796
sg588
(lp3326
(icmyPackage
Sent
p3327
(dp3328
g592
I1
sg593
I6
sg594
S'Before describing the advice taker in any detail, I would like to describe more fully our motivation for proceeding in this direction.'
p3329
sg596
I0
sg597
I17
sg547
(lp3330
g3309
asbasba(icmyPackage
CELink
p3331
(dp3332
g3
(lp3333
g5
(g6
g7
(lp3334
g5
(g6
g7
(lp3335
g5
(g6
g7
(lp3336
g5
(g6
g7
(lp3337
VIf
p3338
atp3339
Rp3340
(dp3341
g16
VIN
p3342
sbag5
(g6
g7
(lp3343
g5
(g6
g7
(lp3344
g5
(g6
g7
(lp3345
Vone
p3346
atp3347
Rp3348
(dp3349
g16
VPRP
p3350
sbatp3351
Rp3352
(dp3353
g16
VNP
p3354
sbag5
(g6
g7
(lp3355
g5
(g6
g7
(lp3356
Vwants
p3357
atp3358
Rp3359
(dp3360
g16
VVBZ
p3361
sbag5
(g6
g7
(lp3362
g5
(g6
g7
(lp3363
g127
atp3364
Rp3365
(dp3366
g16
VDT
p3367
sbag5
(g6
g7
(lp3368
Vmachine
p3369
atp3370
Rp3371
(dp3372
g16
VNN
p3373
sbag5
(g6
g7
(lp3374
g5
(g6
g7
(lp3375
g5
(g6
g7
(lp3376
Vto
p3377
atp3378
Rp3379
(dp3380
g16
VTO
p3381
sbag5
(g6
g7
(lp3382
g5
(g6
g7
(lp3383
Vbe
p3384
atp3385
Rp3386
(dp3387
g16
VVB
p3388
sbag5
(g6
g7
(lp3389
g5
(g6
g7
(lp3390
Vable
p3391
atp3392
Rp3393
(dp3394
g16
VJJ
p3395
sbag5
(g6
g7
(lp3396
g5
(g6
g7
(lp3397
g5
(g6
g7
(lp3398
Vto
p3399
atp3400
Rp3401
(dp3402
g16
VTO
p3403
sbag5
(g6
g7
(lp3404
g5
(g6
g7
(lp3405
Vdiscover
p3406
atp3407
Rp3408
(dp3409
g16
VVB
p3410
sbag5
(g6
g7
(lp3411
g5
(g6
g7
(lp3412
Van
p3413
atp3414
Rp3415
(dp3416
g16
VDT
p3417
sbag5
(g6
g7
(lp3418
Vabstraction
p3419
atp3420
Rp3421
(dp3422
g16
VNN
p3423
sbatp3424
Rp3425
(dp3426
g16
VNP
p3427
sbatp3428
Rp3429
(dp3430
g16
VVP
p3431
sbatp3432
Rp3433
(dp3434
g16
VVP
p3435
sbatp3436
Rp3437
(dp3438
g16
g208
sbatp3439
Rp3440
(dp3441
g16
VADJP
p3442
sbatp3443
Rp3444
(dp3445
g16
VVP
p3446
sbatp3447
Rp3448
(dp3449
g16
VVP
p3450
sbatp3451
Rp3452
(dp3453
g16
g208
sbatp3454
Rp3455
(dp3456
g16
VNP
p3457
sbatp3458
Rp3459
(dp3460
g16
VVP
p3461
sbatp3462
Rp3463
(dp3464
g16
g208
sbatp3465
Rp3466
(dp3467
g16
VSBAR
p3468
sbag5
(g6
g7
(lp3469
g266
atp3470
Rp3471
(dp3472
g16
g266
sbag5
(g6
g7
(lp3473
g5
(g6
g7
(lp3474
Vit
p3475
atp3476
Rp3477
(dp3478
g16
VPRP
p3479
sbatp3480
Rp3481
(dp3482
g16
VNP
p3483
sbag5
(g6
g7
(lp3484
g5
(g6
g7
(lp3485
Vseems
p3486
atp3487
Rp3488
(dp3489
g16
VVBZ
p3490
sbag5
(g6
g7
(lp3491
g5
(g6
g7
(lp3492
g5
(g6
g7
(lp3493
Vmost
p3494
atp3495
Rp3496
(dp3497
g16
VRBS
p3498
sbag5
(g6
g7
(lp3499
Vlikely
p3500
atp3501
Rp3502
(dp3503
g16
VJJ
p3504
sbatp3505
Rp3506
(dp3507
g16
VADJP
p3508
sbag5
(g6
g7
(lp3509
g5
(g6
g7
(lp3510
Vthat
p3511
atp3512
Rp3513
(dp3514
g16
VIN
p3515
sbag5
(g6
g7
(lp3516
g5
(g6
g7
(lp3517
g5
(g6
g7
(lp3518
Vthe
p3519
atp3520
Rp3521
(dp3522
g16
VDT
p3523
sbag5
(g6
g7
(lp3524
Vmachine
p3525
atp3526
Rp3527
(dp3528
g16
VNN
p3529
sbatp3530
Rp3531
(dp3532
g16
VNP
p3533
sbag5
(g6
g7
(lp3534
g5
(g6
g7
(lp3535
Vmust
p3536
atp3537
Rp3538
(dp3539
g16
VMD
p3540
sbag5
(g6
g7
(lp3541
g5
(g6
g7
(lp3542
Vbe
p3543
atp3544
Rp3545
(dp3546
g16
VVB
p3547
sbag5
(g6
g7
(lp3548
g5
(g6
g7
(lp3549
Vable
p3550
atp3551
Rp3552
(dp3553
g16
VJJ
p3554
sbag5
(g6
g7
(lp3555
g5
(g6
g7
(lp3556
g5
(g6
g7
(lp3557
Vto
p3558
atp3559
Rp3560
(dp3561
g16
VTO
p3562
sbag5
(g6
g7
(lp3563
g5
(g6
g7
(lp3564
Vrepresent
p3565
atp3566
Rp3567
(dp3568
g16
VVB
p3569
sbag5
(g6
g7
(lp3570
g5
(g6
g7
(lp3571
g5
(g6
g7
(lp3572
Vthis
p3573
atp3574
Rp3575
(dp3576
g16
VDT
p3577
sbag5
(g6
g7
(lp3578
Vabstraction
p3579
atp3580
Rp3581
(dp3582
g16
VNN
p3583
sbatp3584
Rp3585
(dp3586
g16
VNP
p3587
sbag5
(g6
g7
(lp3588
g5
(g6
g7
(lp3589
Vin
p3590
atp3591
Rp3592
(dp3593
g16
VIN
p3594
sbag5
(g6
g7
(lp3595
g5
(g6
g7
(lp3596
Vsome
p3597
atp3598
Rp3599
(dp3600
g16
VDT
p3601
sbag5
(g6
g7
(lp3602
g5
(g6
g7
(lp3603
Vrelatively
p3604
atp3605
Rp3606
(dp3607
g16
VRB
p3608
sbag5
(g6
g7
(lp3609
Vsimple
p3610
atp3611
Rp3612
(dp3613
g16
VJJ
p3614
sbatp3615
Rp3616
(dp3617
g16
VADJP
p3618
sbag5
(g6
g7
(lp3619
Vway
p3620
atp3621
Rp3622
(dp3623
g16
VNN
p3624
sbatp3625
Rp3626
(dp3627
g16
VNP
p3628
sbatp3629
Rp3630
(dp3631
g16
VPP
p3632
sbatp3633
Rp3634
(dp3635
g16
VNP
p3636
sbatp3637
Rp3638
(dp3639
g16
VVP
p3640
sbatp3641
Rp3642
(dp3643
g16
VVP
p3644
sbatp3645
Rp3646
(dp3647
g16
g208
sbatp3648
Rp3649
(dp3650
g16
VADJP
p3651
sbatp3652
Rp3653
(dp3654
g16
VVP
p3655
sbatp3656
Rp3657
(dp3658
g16
VVP
p3659
sbatp3660
Rp3661
(dp3662
g16
g208
sbatp3663
Rp3664
(dp3665
g16
VSBAR
p3666
sbatp3667
Rp3668
(dp3669
g16
VADJP
p3670
sbatp3671
Rp3672
(dp3673
g16
VVP
p3674
sbag5
(g6
g7
(lp3675
g241
atp3676
Rp3677
(dp3678
g16
g241
sbatp3679
Rp3680
(dp3681
g16
g208
sbatp3682
Rp3683
(dp3684
g16
VROOT
p3685
sbasg540
(icmyPackage
CorE
p3686
(dp3687
g543
(lp3688
(I0
I1
tp3689
a(I0
I11
tp3690
asg547
g3463
sbsg553
(icmyPackage
CorE
p3691
(dp3692
g543
(lp3693
(I0
I13
tp3694
a(I0
I32
tp3695
asg547
g5
(g6
g7
(lp3696
g3481
ag3672
ag3677
atp3697
Rp3698
(dp3699
g16
g552
sbsbsg563
(icmyPackage
pattern
p3700
(dp3701
g566
I0
sg567
I0
sg568
(lp3702
(lp3703
(lp3704
S'if'
p3705
aS'once'
p3706
aaa(lp3707
S','
p3708
aasg572
(lp3709
I1
aI1
aI1
asg574
(lp3710
S'If some light and mobile detection devices can be invented in the future, many new applications can be imagined, for example, people can get some services while thinking.'
p3711
asg577
I15
sg578
(lp3712
(lp3713
a(lp3714
S'&C@Complete@'
p3715
aa(lp3716
S'&R@Complete@'
p3717
aasbsg588
(lp3718
(icmyPackage
Sent
p3719
(dp3720
g592
I1
sg593
I7
sg594
S'If one wants a machine to be able to discover an abstraction, it seems most likely that the machine must be able to represent this abstraction in some relatively simple way.'
p3721
sg596
I0
sg597
I25
sg547
(lp3722
g3683
asbasba(icmyPackage
CELink
p3723
(dp3724
g3
(lp3725
g5
(g6
g7
(lp3726
g5
(g6
g7
(lp3727
g5
(g6
g7
(lp3728
g5
(g6
g7
(lp3729
VThere
p3730
atp3731
Rp3732
(dp3733
g16
VEX
p3734
sbatp3735
Rp3736
(dp3737
g16
VNP
p3738
sbag5
(g6
g7
(lp3739
g5
(g6
g7
(lp3740
Vis
p3741
atp3742
Rp3743
(dp3744
g16
VVBZ
p3745
sbag5
(g6
g7
(lp3746
g5
(g6
g7
(lp3747
g5
(g6
g7
(lp3748
Vone
p3749
atp3750
Rp3751
(dp3752
g16
VCD
p3753
sbag5
(g6
g7
(lp3754
Vknown
p3755
atp3756
Rp3757
(dp3758
g16
VVBN
p3759
sbag5
(g6
g7
(lp3760
Vway
p3761
atp3762
Rp3763
(dp3764
g16
VNN
p3765
sbatp3766
Rp3767
(dp3768
g16
VNP
p3769
sbag5
(g6
g7
(lp3770
g5
(g6
g7
(lp3771
Vof
p3772
atp3773
Rp3774
(dp3775
g16
VIN
p3776
sbag5
(g6
g7
(lp3777
g5
(g6
g7
(lp3778
g5
(g6
g7
(lp3779
Vmaking
p3780
atp3781
Rp3782
(dp3783
g16
VVBG
p3784
sbag5
(g6
g7
(lp3785
g5
(g6
g7
(lp3786
g5
(g6
g7
(lp3787
g127
atp3788
Rp3789
(dp3790
g16
VDT
p3791
sbag5
(g6
g7
(lp3792
Vmachine
p3793
atp3794
Rp3795
(dp3796
g16
VNN
p3797
sbatp3798
Rp3799
(dp3800
g16
VNP
p3801
sbag5
(g6
g7
(lp3802
g5
(g6
g7
(lp3803
Vcapable
p3804
atp3805
Rp3806
(dp3807
g16
VJJ
p3808
sbag5
(g6
g7
(lp3809
g5
(g6
g7
(lp3810
Vof
p3811
atp3812
Rp3813
(dp3814
g16
VIN
p3815
sbag5
(g6
g7
(lp3816
g5
(g6
g7
(lp3817
g5
(g6
g7
(lp3818
Vlearning
p3819
atp3820
Rp3821
(dp3822
g16
VVBG
p3823
sbag5
(g6
g7
(lp3824
g5
(g6
g7
(lp3825
g5
(g6
g7
(lp3826
Varbitrary
p3827
atp3828
Rp3829
(dp3830
g16
VJJ
p3831
sbatp3832
Rp3833
(dp3834
g16
VADJP
p3835
sbag5
(g6
g7
(lp3836
Vbehavior
p3837
atp3838
Rp3839
(dp3840
g16
VNN
p3841
sbatp3842
Rp3843
(dp3844
g16
VNP
p3845
sbatp3846
Rp3847
(dp3848
g16
VVP
p3849
sbatp3850
Rp3851
(dp3852
g16
g208
sbatp3853
Rp3854
(dp3855
g16
VPP
p3856
sbatp3857
Rp3858
(dp3859
g16
VADJP
p3860
sbatp3861
Rp3862
(dp3863
g16
g208
sbatp3864
Rp3865
(dp3866
g16
VVP
p3867
sbatp3868
Rp3869
(dp3870
g16
g208
sbatp3871
Rp3872
(dp3873
g16
VPP
p3874
sbatp3875
Rp3876
(dp3877
g16
VNP
p3878
sbatp3879
Rp3880
(dp3881
g16
VVP
p3882
sbag5
(g6
g7
(lp3883
V;
p3884
atp3885
Rp3886
(dp3887
g16
V:
p3888
sbatp3889
Rp3890
(dp3891
g16
g208
sbatp3892
Rp3893
(dp3894
g16
VROOT
p3895
sbag5
(g6
g7
(lp3896
g5
(g6
g7
(lp3897
g5
(g6
g7
(lp3898
Vthus
p3899
atp3900
Rp3901
(dp3902
g16
VRB
p3903
sbag5
(g6
g7
(lp3904
g5
(g6
g7
(lp3905
Vto
p3906
atp3907
Rp3908
(dp3909
g16
VTO
p3910
sbag5
(g6
g7
(lp3911
g5
(g6
g7
(lp3912
Vanticipate
p3913
atp3914
Rp3915
(dp3916
g16
VVB
p3917
sbag5
(g6
g7
(lp3918
g5
(g6
g7
(lp3919
g5
(g6
g7
(lp3920
Vevery
p3921
atp3922
Rp3923
(dp3924
g16
VDT
p3925
sbag5
(g6
g7
(lp3926
Vkind
p3927
atp3928
Rp3929
(dp3930
g16
VNN
p3931
sbatp3932
Rp3933
(dp3934
g16
VNP
p3935
sbag5
(g6
g7
(lp3936
g5
(g6
g7
(lp3937
Vof
p3938
atp3939
Rp3940
(dp3941
g16
VIN
p3942
sbag5
(g6
g7
(lp3943
g5
(g6
g7
(lp3944
Vbehavior
p3945
atp3946
Rp3947
(dp3948
g16
VNN
p3949
sbatp3950
Rp3951
(dp3952
g16
VNP
p3953
sbatp3954
Rp3955
(dp3956
g16
VPP
p3957
sbatp3958
Rp3959
(dp3960
g16
VNP
p3961
sbatp3962
Rp3963
(dp3964
g16
VVP
p3965
sbatp3966
Rp3967
(dp3968
g16
VVP
p3969
sbag5
(g6
g7
(lp3970
g241
atp3971
Rp3972
(dp3973
g16
g241
sbatp3974
Rp3975
(dp3976
g16
g208
sbatp3977
Rp3978
(dp3979
g16
VROOT
p3980
sbasg540
(icmyPackage
CorE
p3981
(dp3982
g543
(lp3983
(I0
I0
tp3984
a(I0
I13
tp3985
asg547
g5
(g6
g7
(lp3986
g3736
ag3880
atp3987
Rp3988
(dp3989
g16
g552
sbsbsg553
(icmyPackage
CorE
p3990
(dp3991
g543
(lp3992
(I1
I1
tp3993
a(I1
I7
tp3994
asg547
g5
(g6
g7
(lp3995
g3967
ag3972
atp3996
Rp3997
(dp3998
g16
g552
sbsbsg563
(icmyPackage
pattern
p3999
(dp4000
g566
I35
sg567
I1
sg568
(lp4001
(lp4002
S'thus'
p4003
aasg572
(lp4004
I1
aI1
aI1
asg574
(lp4005
S'Japan will be on the dark side of the Earth, and thus will lack the warming influence of the Sun.'
p4006
asg577
I2
sg578
(lp4007
(lp4008
S'&C'
p4009
aS'(,/;/./--)'
p4010
aS'(&AND)'
p4011
aa(lp4012
S'&R'
p4013
aasbsg588
(lp4014
(icmyPackage
Sent
p4015
(dp4016
g592
I1
sg593
I8
sg594
S'There is one known way of making a machine capable of learning arbitrary behavior;'
p4017
sg596
I0
sg597
I26
sg547
(lp4018
g3893
asba(icmyPackage
Sent
p4019
(dp4020
g592
I1
sg593
I8
sg594
S'thus to anticipate every kind of behavior.'
p4021
sg596
I0
sg597
I27
sg547
(lp4022
g3978
asbasba(icmyPackage
CELink
p4023
(dp4024
g3
(lp4025
g5
(g6
g7
(lp4026
g5
(g6
g7
(lp4027
g5
(g6
g7
(lp4028
g5
(g6
g7
(lp4029
VIt
p4030
atp4031
Rp4032
(dp4033
g16
VPRP
p4034
sbatp4035
Rp4036
(dp4037
g16
VNP
p4038
sbag5
(g6
g7
(lp4039
g5
(g6
g7
(lp4040
Vis
p4041
atp4042
Rp4043
(dp4044
g16
VVBZ
p4045
sbag5
(g6
g7
(lp4046
g5
(g6
g7
(lp4047
Vvery
p4048
atp4049
Rp4050
(dp4051
g16
VRB
p4052
sbag5
(g6
g7
(lp4053
Vdifficult
p4054
atp4055
Rp4056
(dp4057
g16
VJJ
p4058
sbatp4059
Rp4060
(dp4061
g16
VADJP
p4062
sbag5
(g6
g7
(lp4063
g5
(g6
g7
(lp4064
g5
(g6
g7
(lp4065
Vto
p4066
atp4067
Rp4068
(dp4069
g16
VTO
p4070
sbag5
(g6
g7
(lp4071
g5
(g6
g7
(lp4072
Vsee
p4073
atp4074
Rp4075
(dp4076
g16
VVB
p4077
sbag5
(g6
g7
(lp4078
g5
(g6
g7
(lp4079
g5
(g6
g7
(lp4080
Vhow
p4081
atp4082
Rp4083
(dp4084
g16
VWRB
p4085
sbatp4086
Rp4087
(dp4088
g16
VWHADVP
p4089
sbag5
(g6
g7
(lp4090
g5
(g6
g7
(lp4091
g5
(g6
g7
(lp4092
Vthe
p4093
atp4094
Rp4095
(dp4096
g16
VDT
p4097
sbag5
(g6
g7
(lp4098
Vgenetic
p4099
atp4100
Rp4101
(dp4102
g16
VJJ
p4103
sbag5
(g6
g7
(lp4104
Vrepresentation
p4105
atp4106
Rp4107
(dp4108
g16
VNN
p4109
sbag5
(g6
g7
(lp4110
Vscheme
p4111
atp4112
Rp4113
(dp4114
g16
VNN
p4115
sbatp4116
Rp4117
(dp4118
g16
VNP
p4119
sbag5
(g6
g7
(lp4120
g5
(g6
g7
(lp4121
Vmanages
p4122
atp4123
Rp4124
(dp4125
g16
VVBZ
p4126
sbag5
(g6
g7
(lp4127
g5
(g6
g7
(lp4128
g5
(g6
g7
(lp4129
Vto
p4130
atp4131
Rp4132
(dp4133
g16
VTO
p4134
sbag5
(g6
g7
(lp4135
g5
(g6
g7
(lp4136
Vbe
p4137
atp4138
Rp4139
(dp4140
g16
VVB
p4141
sbag5
(g6
g7
(lp4142
g5
(g6
g7
(lp4143
Vgeneral
p4144
atp4145
Rp4146
(dp4147
g16
VJJ
p4148
sbag5
(g6
g7
(lp4149
Venough
p4150
atp4151
Rp4152
(dp4153
g16
VRB
p4154
sbag5
(g6
g7
(lp4155
g5
(g6
g7
(lp4156
g5
(g6
g7
(lp4157
Vto
p4158
atp4159
Rp4160
(dp4161
g16
VTO
p4162
sbag5
(g6
g7
(lp4163
g5
(g6
g7
(lp4164
g5
(g6
g7
(lp4165
Vrepresent
p4166
atp4167
Rp4168
(dp4169
g16
VVB
p4170
sbag5
(g6
g7
(lp4171
g5
(g6
g7
(lp4172
g5
(g6
g7
(lp4173
Vthe
p4174
atp4175
Rp4176
(dp4177
g16
VDT
p4178
sbag5
(g6
g7
(lp4179
Vgreat
p4180
atp4181
Rp4182
(dp4183
g16
VJJ
p4184
sbag5
(g6
g7
(lp4185
Vvariety
p4186
atp4187
Rp4188
(dp4189
g16
VNN
p4190
sbatp4191
Rp4192
(dp4193
g16
VNP
p4194
sbag5
(g6
g7
(lp4195
g5
(g6
g7
(lp4196
Vof
p4197
atp4198
Rp4199
(dp4200
g16
VIN
p4201
sbag5
(g6
g7
(lp4202
g5
(g6
g7
(lp4203
g5
(g6
g7
(lp4204
Vanimals
p4205
atp4206
Rp4207
(dp4208
g16
VNNS
p4209
sbatp4210
Rp4211
(dp4212
g16
VNP
p4213
sbag5
(g6
g7
(lp4214
g5
(g6
g7
(lp4215
Vobserved
p4216
atp4217
Rp4218
(dp4219
g16
VVBN
p4220
sbatp4221
Rp4222
(dp4223
g16
VVP
p4224
sbatp4225
Rp4226
(dp4227
g16
VNP
p4228
sbatp4229
Rp4230
(dp4231
g16
VPP
p4232
sbatp4233
Rp4234
(dp4235
g16
VNP
p4236
sbatp4237
Rp4238
(dp4239
g16
VVP
p4240
sbag5
(g6
g7
(lp4241
Vand
p4242
atp4243
Rp4244
(dp4245
g16
VCC
p4246
sbag5
(g6
g7
(lp4247
g5
(g6
g7
(lp4248
Vyet
p4249
atp4250
Rp4251
(dp4252
g16
VRB
p4253
sbatp4254
Rp4255
(dp4256
g16
VADVP
p4257
sbag5
(g6
g7
(lp4258
g5
(g6
g7
(lp4259
Vbe
p4260
atp4261
Rp4262
(dp4263
g16
VVB
p4264
sbag5
(g6
g7
(lp4265
g5
(g6
g7
(lp4266
Vsuch
p4267
atp4268
Rp4269
(dp4270
g16
VJJ
p4271
sbatp4272
Rp4273
(dp4274
g16
VADJP
p4275
sbag5
(g6
g7
(lp4276
g5
(g6
g7
(lp4277
Vthat
p4278
atp4279
Rp4280
(dp4281
g16
VIN
p4282
sbag5
(g6
g7
(lp4283
g5
(g6
g7
(lp4284
g5
(g6
g7
(lp4285
g5
(g6
g7
(lp4286
g5
(g6
g7
(lp4287
Vso
p4288
atp4289
Rp4290
(dp4291
g16
VRB
p4292
sbag5
(g6
g7
(lp4293
Vmany
p4294
atp4295
Rp4296
(dp4297
g16
VJJ
p4298
sbatp4299
Rp4300
(dp4301
g16
VADJP
p4302
sbag5
(g6
g7
(lp4303
Vinteresting
p4304
atp4305
Rp4306
(dp4307
g16
VJJ
p4308
sbag5
(g6
g7
(lp4309
Vchanges
p4310
atp4311
Rp4312
(dp4313
g16
VNNS
p4314
sbatp4315
Rp4316
(dp4317
g16
VNP
p4318
sbag5
(g6
g7
(lp4319
g5
(g6
g7
(lp4320
Vin
p4321
atp4322
Rp4323
(dp4324
g16
VIN
p4325
sbag5
(g6
g7
(lp4326
g5
(g6
g7
(lp4327
Vthe
p4328
atp4329
Rp4330
(dp4331
g16
VDT
p4332
sbag5
(g6
g7
(lp4333
Vorganism
p4334
atp4335
Rp4336
(dp4337
g16
VNN
p4338
sbatp4339
Rp4340
(dp4341
g16
VNP
p4342
sbatp4343
Rp4344
(dp4345
g16
VPP
p4346
sbatp4347
Rp4348
(dp4349
g16
VNP
p4350
sbag5
(g6
g7
(lp4351
g5
(g6
g7
(lp4352
Vare
p4353
atp4354
Rp4355
(dp4356
g16
VVBP
p4357
sbag5
(g6
g7
(lp4358
g5
(g6
g7
(lp4359
Vrepresented
p4360
atp4361
Rp4362
(dp4363
g16
VVBN
p4364
sbag5
(g6
g7
(lp4365
g5
(g6
g7
(lp4366
Vby
p4367
atp4368
Rp4369
(dp4370
g16
VIN
p4371
sbag5
(g6
g7
(lp4372
g5
(g6
g7
(lp4373
Vsmall
p4374
atp4375
Rp4376
(dp4377
g16
VJJ
p4378
sbag5
(g6
g7
(lp4379
Vgenetic
p4380
atp4381
Rp4382
(dp4383
g16
VJJ
p4384
sbag5
(g6
g7
(lp4385
Vchanges
p4386
atp4387
Rp4388
(dp4389
g16
VNNS
p4390
sbatp4391
Rp4392
(dp4393
g16
VNP
p4394
sbatp4395
Rp4396
(dp4397
g16
VPP
p4398
sbatp4399
Rp4400
(dp4401
g16
VVP
p4402
sbatp4403
Rp4404
(dp4405
g16
VVP
p4406
sbatp4407
Rp4408
(dp4409
g16
g208
sbatp4410
Rp4411
(dp4412
g16
VSBAR
p4413
sbatp4414
Rp4415
(dp4416
g16
VVP
p4417
sbatp4418
Rp4419
(dp4420
g16
VVP
p4421
sbatp4422
Rp4423
(dp4424
g16
VVP
p4425
sbatp4426
Rp4427
(dp4428
g16
g208
sbatp4429
Rp4430
(dp4431
g16
VADJP
p4432
sbatp4433
Rp4434
(dp4435
g16
VVP
p4436
sbatp4437
Rp4438
(dp4439
g16
VVP
p4440
sbatp4441
Rp4442
(dp4443
g16
g208
sbatp4444
Rp4445
(dp4446
g16
VVP
p4447
sbatp4448
Rp4449
(dp4450
g16
g208
sbatp4451
Rp4452
(dp4453
g16
VSBAR
p4454
sbatp4455
Rp4456
(dp4457
g16
VVP
p4458
sbatp4459
Rp4460
(dp4461
g16
VVP
p4462
sbatp4463
Rp4464
(dp4465
g16
g208
sbatp4466
Rp4467
(dp4468
g16
VVP
p4469
sbag5
(g6
g7
(lp4470
g241
atp4471
Rp4472
(dp4473
g16
g241
sbatp4474
Rp4475
(dp4476
g16
g208
sbatp4477
Rp4478
(dp4479
g16
VROOT
p4480
sbasg540
(icmyPackage
CorE
p4481
(dp4482
g543
(lp4483
(I0
I0
tp4484
a(I0
I28
tp4485
asg547
g5
(g6
g7
(lp4486
g4036
ag4043
ag4060
ag4068
ag4075
ag4087
ag4117
ag4124
ag4132
ag4139
ag4146
ag4152
ag4160
ag4238
ag4244
ag4255
ag4262
ag4273
ag4280
atp4487
Rp4488
(dp4489
g16
g552
sbsbsg553
(icmyPackage
CorE
p4490
(dp4491
g543
(lp4492
(I0
I30
tp4493
a(I0
I42
tp4494
asg547
g5
(g6
g7
(lp4495
g4296
ag4306
ag4312
ag4344
ag4404
ag4472
atp4496
Rp4497
(dp4498
g16
g552
sbsbsg563
g564
sg588
(lp4499
(icmyPackage
Sent
p4500
(dp4501
g592
I1
sg593
I8
sg594
S'It is very difficult to see how the genetic representation scheme manages to be general enough to represent the great variety of animals observed and yet be such that so many interesting changes in the organism are represented by small genetic changes.'
p4502
sg596
I0
sg597
I35
sg547
(lp4503
g4478
asbasba(icmyPackage
CELink
p4504
(dp4505
g3
(lp4506
g5
(g6
g7
(lp4507
g5
(g6
g7
(lp4508
g5
(g6
g7
(lp4509
g5
(g6
g7
(lp4510
V1
p4511
atp4512
Rp4513
(dp4514
g16
VLS
p4515
sbag5
(g6
g7
(lp4516
V-RRB-
p4517
atp4518
Rp4519
(dp4520
g16
V-RRB-
p4521
sbatp4522
Rp4523
(dp4524
g16
VLST
p4525
sbag5
(g6
g7
(lp4526
g5
(g6
g7
(lp4527
VAll
p4528
atp4529
Rp4530
(dp4531
g16
VDT
p4532
sbag5
(g6
g7
(lp4533
Vbehaviors
p4534
atp4535
Rp4536
(dp4537
g16
VNNS
p4538
sbatp4539
Rp4540
(dp4541
g16
VNP
p4542
sbag5
(g6
g7
(lp4543
g5
(g6
g7
(lp4544
Vmust
p4545
atp4546
Rp4547
(dp4548
g16
VMD
p4549
sbag5
(g6
g7
(lp4550
g5
(g6
g7
(lp4551
Vbe
p4552
atp4553
Rp4554
(dp4555
g16
VVB
p4556
sbag5
(g6
g7
(lp4557
g5
(g6
g7
(lp4558
Vrepresentable
p4559
atp4560
Rp4561
(dp4562
g16
VJJ
p4563
sbag5
(g6
g7
(lp4564
g5
(g6
g7
(lp4565
Vin
p4566
atp4567
Rp4568
(dp4569
g16
VIN
p4570
sbag5
(g6
g7
(lp4571
g5
(g6
g7
(lp4572
Vthe
p4573
atp4574
Rp4575
(dp4576
g16
VDT
p4577
sbag5
(g6
g7
(lp4578
Vsystem
p4579
atp4580
Rp4581
(dp4582
g16
VNN
p4583
sbatp4584
Rp4585
(dp4586
g16
VNP
p4587
sbatp4588
Rp4589
(dp4590
g16
VPP
p4591
sbatp4592
Rp4593
(dp4594
g16
VADJP
p4595
sbatp4596
Rp4597
(dp4598
g16
VVP
p4599
sbatp4600
Rp4601
(dp4602
g16
VVP
p4603
sbag5
(g6
g7
(lp4604
g241
atp4605
Rp4606
(dp4607
g16
g241
sbatp4608
Rp4609
(dp4610
g16
g208
sbatp4611
Rp4612
(dp4613
g16
VROOT
p4614
sbag5
(g6
g7
(lp4615
g5
(g6
g7
(lp4616
g5
(g6
g7
(lp4617
g5
(g6
g7
(lp4618
VTherefore
p4619
atp4620
Rp4621
(dp4622
g16
VRB
p4623
sbatp4624
Rp4625
(dp4626
g16
VADVP
p4627
sbag5
(g6
g7
(lp4628
g266
atp4629
Rp4630
(dp4631
g16
g266
sbag5
(g6
g7
(lp4632
g5
(g6
g7
(lp4633
Vthe
p4634
atp4635
Rp4636
(dp4637
g16
VDT
p4638
sbag5
(g6
g7
(lp4639
Vsystem
p4640
atp4641
Rp4642
(dp4643
g16
VNN
p4644
sbatp4645
Rp4646
(dp4647
g16
VNP
p4648
sbag5
(g6
g7
(lp4649
g5
(g6
g7
(lp4650
Vshould
p4651
atp4652
Rp4653
(dp4654
g16
VMD
p4655
sbag5
(g6
g7
(lp4656
Veither
p4657
atp4658
Rp4659
(dp4660
g16
VRB
p4661
sbag5
(g6
g7
(lp4662
g5
(g6
g7
(lp4663
Vbe
p4664
atp4665
Rp4666
(dp4667
g16
VVB
p4668
sbag5
(g6
g7
(lp4669
g5
(g6
g7
(lp4670
Vable
p4671
atp4672
Rp4673
(dp4674
g16
VJJ
p4675
sbag5
(g6
g7
(lp4676
g5
(g6
g7
(lp4677
g5
(g6
g7
(lp4678
g5
(g6
g7
(lp4679
Vto
p4680
atp4681
Rp4682
(dp4683
g16
VTO
p4684
sbag5
(g6
g7
(lp4685
g5
(g6
g7
(lp4686
Vconstruct
p4687
atp4688
Rp4689
(dp4690
g16
VVB
p4691
sbag5
(g6
g7
(lp4692
g5
(g6
g7
(lp4693
g5
(g6
g7
(lp4694
Varbitrary
p4695
atp4696
Rp4697
(dp4698
g16
VJJ
p4699
sbatp4700
Rp4701
(dp4702
g16
VADJP
p4703
sbag5
(g6
g7
(lp4704
Vautomata
p4705
atp4706
Rp4707
(dp4708
g16
VNN
p4709
sbatp4710
Rp4711
(dp4712
g16
VNP
p4713
sbatp4714
Rp4715
(dp4716
g16
VVP
p4717
sbatp4718
Rp4719
(dp4720
g16
VVP
p4721
sbag5
(g6
g7
(lp4722
Vor
p4723
atp4724
Rp4725
(dp4726
g16
VCC
p4727
sbag5
(g6
g7
(lp4728
g5
(g6
g7
(lp4729
Vto
p4730
atp4731
Rp4732
(dp4733
g16
VTO
p4734
sbag5
(g6
g7
(lp4735
g5
(g6
g7
(lp4736
Vprogram
p4737
atp4738
Rp4739
(dp4740
g16
VVB
p4741
sbag5
(g6
g7
(lp4742
g5
(g6
g7
(lp4743
Vin
p4744
atp4745
Rp4746
(dp4747
g16
VIN
p4748
sbag5
(g6
g7
(lp4749
g5
(g6
g7
(lp4750
Vsome
p4751
atp4752
Rp4753
(dp4754
g16
VDT
p4755
sbag5
(g6
g7
(lp4756
Vgeneral
p4757
atp4758
Rp4759
(dp4760
g16
VJJ
p4761
sbag5
(g6
g7
(lp4762
Vpurpose
p4763
atp4764
Rp4765
(dp4766
g16
VNN
p4767
sbag5
(g6
g7
(lp4768
Vprogramming
p4769
atp4770
Rp4771
(dp4772
g16
VNN
p4773
sbag5
(g6
g7
(lp4774
Vlanguage
p4775
atp4776
Rp4777
(dp4778
g16
VNN
p4779
sbatp4780
Rp4781
(dp4782
g16
VNP
p4783
sbatp4784
Rp4785
(dp4786
g16
VPP
p4787
sbatp4788
Rp4789
(dp4790
g16
VVP
p4791
sbatp4792
Rp4793
(dp4794
g16
VVP
p4795
sbatp4796
Rp4797
(dp4798
g16
VVP
p4799
sbatp4800
Rp4801
(dp4802
g16
g208
sbatp4803
Rp4804
(dp4805
g16
VADJP
p4806
sbatp4807
Rp4808
(dp4809
g16
VVP
p4810
sbatp4811
Rp4812
(dp4813
g16
VVP
p4814
sbag5
(g6
g7
(lp4815
g241
atp4816
Rp4817
(dp4818
g16
g241
sbatp4819
Rp4820
(dp4821
g16
g208
sbatp4822
Rp4823
(dp4824
g16
VROOT
p4825
sbasg540
(icmyPackage
CorE
p4826
(dp4827
g543
(lp4828
(I0
I0
tp4829
a(I0
I9
tp4830
asg547
g5
(g6
g7
(lp4831
g4523
ag4540
ag4601
atp4832
Rp4833
(dp4834
g16
g552
sbsbsg553
(icmyPackage
CorE
p4835
(dp4836
g543
(lp4837
(I1
I2
tp4838
a(I1
I21
tp4839
asg547
g5
(g6
g7
(lp4840
g4646
ag4812
ag4817
atp4841
Rp4842
(dp4843
g16
g552
sbsbsg563
g3043
sg588
(lp4844
(icmyPackage
Sent
p4845
(dp4846
g592
I1
sg593
I10
sg594
S'1) All behaviors must be representable in the system.'
p4847
sg596
I0
sg597
I38
sg547
(lp4848
g4612
asba(icmyPackage
Sent
p4849
(dp4850
g592
I1
sg593
I10
sg594
S'Therefore, the system should either be able to construct arbitrary automata or to program in some general purpose programming language.'
p4851
sg596
I0
sg597
I39
sg547
(lp4852
g4823
asbasba(icmyPackage
CELink
p4853
(dp4854
g3
(lp4855
g5
(g6
g7
(lp4856
g5
(g6
g7
(lp4857
g5
(g6
g7
(lp4858
g5
(g6
g7
(lp4859
V4
p4860
atp4861
Rp4862
(dp4863
g16
VLS
p4864
sbag5
(g6
g7
(lp4865
V-RRB-
p4866
atp4867
Rp4868
(dp4869
g16
V-RRB-
p4870
sbatp4871
Rp4872
(dp4873
g16
VLST
p4874
sbag5
(g6
g7
(lp4875
g5
(g6
g7
(lp4876
VThe
p4877
atp4878
Rp4879
(dp4880
g16
VDT
p4881
sbag5
(g6
g7
(lp4882
Vmachine
p4883
atp4884
Rp4885
(dp4886
g16
VNN
p4887
sbatp4888
Rp4889
(dp4890
g16
VNP
p4891
sbag5
(g6
g7
(lp4892
g5
(g6
g7
(lp4893
Vmust
p4894
atp4895
Rp4896
(dp4897
g16
VMD
p4898
sbag5
(g6
g7
(lp4899
g5
(g6
g7
(lp4900
g5
(g6
g7
(lp4901
Vhave
p4902
atp4903
Rp4904
(dp4905
g16
VVB
p4906
sbatp4907
Rp4908
(dp4909
g16
VVP
p4910
sbag5
(g6
g7
(lp4911
Vor
p4912
atp4913
Rp4914
(dp4915
g16
VCC
p4916
sbag5
(g6
g7
(lp4917
g5
(g6
g7
(lp4918
Vevolve
p4919
atp4920
Rp4921
(dp4922
g16
VVB
p4923
sbag5
(g6
g7
(lp4924
g5
(g6
g7
(lp4925
g5
(g6
g7
(lp4926
Vconcepts
p4927
atp4928
Rp4929
(dp4930
g16
VNNS
p4931
sbatp4932
Rp4933
(dp4934
g16
VNP
p4935
sbag5
(g6
g7
(lp4936
g5
(g6
g7
(lp4937
Vof
p4938
atp4939
Rp4940
(dp4941
g16
VIN
p4942
sbag5
(g6
g7
(lp4943
g5
(g6
g7
(lp4944
Vpartial
p4945
atp4946
Rp4947
(dp4948
g16
VJJ
p4949
sbag5
(g6
g7
(lp4950
Vsuccess
p4951
atp4952
Rp4953
(dp4954
g16
VNN
p4955
sbatp4956
Rp4957
(dp4958
g16
VNP
p4959
sbatp4960
Rp4961
(dp4962
g16
VPP
p4963
sbatp4964
Rp4965
(dp4966
g16
VNP
p4967
sbag5
(g6
g7
(lp4968
g5
(g6
g7
(lp4969
Vbecause
p4970
atp4971
Rp4972
(dp4973
g16
VIN
p4974
sbag5
(g6
g7
(lp4975
g5
(g6
g7
(lp4976
g5
(g6
g7
(lp4977
Von
p4978
atp4979
Rp4980
(dp4981
g16
VIN
p4982
sbag5
(g6
g7
(lp4983
g5
(g6
g7
(lp4984
Vdifficult
p4985
atp4986
Rp4987
(dp4988
g16
VJJ
p4989
sbag5
(g6
g7
(lp4990
Vproblems
p4991
atp4992
Rp4993
(dp4994
g16
VNNS
p4995
sbatp4996
Rp4997
(dp4998
g16
VNP
p4999
sbatp5000
Rp5001
(dp5002
g16
VPP
p5003
sbag5
(g6
g7
(lp5004
g5
(g6
g7
(lp5005
Vdecisive
p5006
atp5007
Rp5008
(dp5009
g16
VJJ
p5010
sbag5
(g6
g7
(lp5011
Vsuccesses
p5012
atp5013
Rp5014
(dp5015
g16
VNNS
p5016
sbag5
(g6
g7
(lp5017
Vor
p5018
atp5019
Rp5020
(dp5021
g16
VCC
p5022
sbag5
(g6
g7
(lp5023
Vfailures
p5024
atp5025
Rp5026
(dp5027
g16
VNNS
p5028
sbatp5029
Rp5030
(dp5031
g16
VNP
p5032
sbag5
(g6
g7
(lp5033
g5
(g6
g7
(lp5034
Vcome
p5035
atp5036
Rp5037
(dp5038
g16
VVBP
p5039
sbag5
(g6
g7
(lp5040
g5
(g6
g7
(lp5041
Vtoo
p5042
atp5043
Rp5044
(dp5045
g16
VRB
p5046
sbag5
(g6
g7
(lp5047
Vinfrequently
p5048
atp5049
Rp5050
(dp5051
g16
VJJ
p5052
sbatp5053
Rp5054
(dp5055
g16
VADJP
p5056
sbatp5057
Rp5058
(dp5059
g16
VVP
p5060
sbatp5061
Rp5062
(dp5063
g16
g208
sbatp5064
Rp5065
(dp5066
g16
VSBAR
p5067
sbatp5068
Rp5069
(dp5070
g16
VVP
p5071
sbatp5072
Rp5073
(dp5074
g16
VVP
p5075
sbatp5076
Rp5077
(dp5078
g16
VVP
p5079
sbag5
(g6
g7
(lp5080
g241
atp5081
Rp5082
(dp5083
g16
g241
sbatp5084
Rp5085
(dp5086
g16
g208
sbatp5087
Rp5088
(dp5089
g16
VROOT
p5090
sbasg540
(icmyPackage
CorE
p5091
(dp5092
g543
(lp5093
(I0
I13
tp5094
a(I0
I23
tp5095
asg547
g5
(g6
g7
(lp5096
g5062
ag5082
atp5097
Rp5098
(dp5099
g16
g552
sbsbsg553
(icmyPackage
CorE
p5100
(dp5101
g543
(lp5102
(I0
I0
tp5103
a(I0
I11
tp5104
asg547
g5
(g6
g7
(lp5105
g4872
ag4889
ag4896
ag4908
ag4914
ag4921
ag4965
atp5106
Rp5107
(dp5108
g16
g552
sbsbsg563
(icmyPackage
pattern
p5109
(dp5110
g566
I407
sg567
I1
sg568
(lp5111
(lp5112
S'because'
p5113
aasg572
(lp5114
I3
aI1
aI1
asg574
(lp5115
S'It ends up in burnout and less production, because we inevitably run out of energy.'
p5116
asg577
I76
sg578
(lp5117
(lp5118
S'&R'
p5119
aS'(,)'
p5120
aS'(&ADV)'
p5121
aa(lp5122
S'&C'
p5123
aasbsg588
(lp5124
(icmyPackage
Sent
p5125
(dp5126
g592
I1
sg593
I13
sg594
S'4) The machine must have or evolve concepts of partial success because on difficult problems decisive successes or failures come too infrequently.'
p5127
sg596
I0
sg597
I43
sg547
(lp5128
g5088
asbasba(icmyPackage
CELink
p5129
(dp5130
g3
(lp5131
g5
(g6
g7
(lp5132
g5
(g6
g7
(lp5133
g5
(g6
g7
(lp5134
g5
(g6
g7
(lp5135
g5
(g6
g7
(lp5136
VThe
p5137
atp5138
Rp5139
(dp5140
g16
VDT
p5141
sbag5
(g6
g7
(lp5142
Vlearning
p5143
atp5144
Rp5145
(dp5146
g16
VNN
p5147
sbatp5148
Rp5149
(dp5150
g16
VNP
p5151
sbag5
(g6
g7
(lp5152
g5
(g6
g7
(lp5153
Vof
p5154
atp5155
Rp5156
(dp5157
g16
VIN
p5158
sbag5
(g6
g7
(lp5159
g5
(g6
g7
(lp5160
Vsubroutines
p5161
atp5162
Rp5163
(dp5164
g16
VNNS
p5165
sbatp5166
Rp5167
(dp5168
g16
VNP
p5169
sbatp5170
Rp5171
(dp5172
g16
VPP
p5173
sbatp5174
Rp5175
(dp5176
g16
VNP
p5177
sbag5
(g6
g7
(lp5178
g5
(g6
g7
(lp5179
Vis
p5180
atp5181
Rp5182
(dp5183
g16
VVBZ
p5184
sbag5
(g6
g7
(lp5185
g5
(g6
g7
(lp5186
Vcomplicated
p5187
atp5188
Rp5189
(dp5190
g16
VJJ
p5191
sbag5
(g6
g7
(lp5192
g5
(g6
g7
(lp5193
Vby
p5194
atp5195
Rp5196
(dp5197
g16
VIN
p5198
sbag5
(g6
g7
(lp5199
g5
(g6
g7
(lp5200
Vthe
p5201
atp5202
Rp5203
(dp5204
g16
VDT
p5205
sbag5
(g6
g7
(lp5206
Vfact
p5207
atp5208
Rp5209
(dp5210
g16
VNN
p5211
sbatp5212
Rp5213
(dp5214
g16
VNP
p5215
sbatp5216
Rp5217
(dp5218
g16
VPP
p5219
sbatp5220
Rp5221
(dp5222
g16
VADJP
p5223
sbag5
(g6
g7
(lp5224
g5
(g6
g7
(lp5225
Vthat
p5226
atp5227
Rp5228
(dp5229
g16
VIN
p5230
sbag5
(g6
g7
(lp5231
g5
(g6
g7
(lp5232
g5
(g6
g7
(lp5233
g5
(g6
g7
(lp5234
Vthe
p5235
atp5236
Rp5237
(dp5238
g16
VDT
p5239
sbag5
(g6
g7
(lp5240
Veffect
p5241
atp5242
Rp5243
(dp5244
g16
VNN
p5245
sbatp5246
Rp5247
(dp5248
g16
VNP
p5249
sbag5
(g6
g7
(lp5250
g5
(g6
g7
(lp5251
Vof
p5252
atp5253
Rp5254
(dp5255
g16
VIN
p5256
sbag5
(g6
g7
(lp5257
g5
(g6
g7
(lp5258
g127
atp5259
Rp5260
(dp5261
g16
VDT
p5262
sbag5
(g6
g7
(lp5263
Vsubroutine
p5264
atp5265
Rp5266
(dp5267
g16
VNN
p5268
sbatp5269
Rp5270
(dp5271
g16
VNP
p5272
sbatp5273
Rp5274
(dp5275
g16
VPP
p5276
sbatp5277
Rp5278
(dp5279
g16
VNP
p5280
sbag5
(g6
g7
(lp5281
g5
(g6
g7
(lp5282
Vis
p5283
atp5284
Rp5285
(dp5286
g16
VVBZ
p5287
sbag5
(g6
g7
(lp5288
Vnot
p5289
atp5290
Rp5291
(dp5292
g16
VRB
p5293
sbag5
(g6
g7
(lp5294
g5
(g6
g7
(lp5295
Vusually
p5296
atp5297
Rp5298
(dp5299
g16
VRB
p5300
sbatp5301
Rp5302
(dp5303
g16
VADVP
p5304
sbag5
(g6
g7
(lp5305
g5
(g6
g7
(lp5306
Vgood
p5307
atp5308
Rp5309
(dp5310
g16
VJJ
p5311
sbag5
(g6
g7
(lp5312
Vor
p5313
atp5314
Rp5315
(dp5316
g16
VCC
p5317
sbag5
(g6
g7
(lp5318
Vbad
p5319
atp5320
Rp5321
(dp5322
g16
VJJ
p5323
sbatp5324
Rp5325
(dp5326
g16
VADJP
p5327
sbag5
(g6
g7
(lp5328
g5
(g6
g7
(lp5329
Vin
p5330
atp5331
Rp5332
(dp5333
g16
VIN
p5334
sbag5
(g6
g7
(lp5335
g5
(g6
g7
(lp5336
Vitself
p5337
atp5338
Rp5339
(dp5340
g16
VPRP
p5341
sbatp5342
Rp5343
(dp5344
g16
VNP
p5345
sbatp5346
Rp5347
(dp5348
g16
VPP
p5349
sbatp5350
Rp5351
(dp5352
g16
VVP
p5353
sbatp5354
Rp5355
(dp5356
g16
g208
sbatp5357
Rp5358
(dp5359
g16
VSBAR
p5360
sbatp5361
Rp5362
(dp5363
g16
VVP
p5364
sbag5
(g6
g7
(lp5365
g241
atp5366
Rp5367
(dp5368
g16
g241
sbatp5369
Rp5370
(dp5371
g16
g208
sbatp5372
Rp5373
(dp5374
g16
VROOT
p5375
sbag5
(g6
g7
(lp5376
g5
(g6
g7
(lp5377
g5
(g6
g7
(lp5378
g5
(g6
g7
(lp5379
VTherefore
p5380
atp5381
Rp5382
(dp5383
g16
VRB
p5384
sbatp5385
Rp5386
(dp5387
g16
VADVP
p5388
sbag5
(g6
g7
(lp5389
g266
atp5390
Rp5391
(dp5392
g16
g266
sbag5
(g6
g7
(lp5393
g5
(g6
g7
(lp5394
g5
(g6
g7
(lp5395
Vthe
p5396
atp5397
Rp5398
(dp5399
g16
VDT
p5400
sbag5
(g6
g7
(lp5401
Vmechanism
p5402
atp5403
Rp5404
(dp5405
g16
VNN
p5406
sbatp5407
Rp5408
(dp5409
g16
VNP
p5410
sbag5
(g6
g7
(lp5411
g5
(g6
g7
(lp5412
g5
(g6
g7
(lp5413
Vthat
p5414
atp5415
Rp5416
(dp5417
g16
VWDT
p5418
sbatp5419
Rp5420
(dp5421
g16
VWHNP
p5422
sbag5
(g6
g7
(lp5423
g5
(g6
g7
(lp5424
g5
(g6
g7
(lp5425
Vselects
p5426
atp5427
Rp5428
(dp5429
g16
VVBZ
p5430
sbag5
(g6
g7
(lp5431
g5
(g6
g7
(lp5432
Vsubroutines
p5433
atp5434
Rp5435
(dp5436
g16
VNNS
p5437
sbatp5438
Rp5439
(dp5440
g16
VNP
p5441
sbatp5442
Rp5443
(dp5444
g16
VVP
p5445
sbatp5446
Rp5447
(dp5448
g16
g208
sbatp5449
Rp5450
(dp5451
g16
VSBAR
p5452
sbatp5453
Rp5454
(dp5455
g16
VNP
p5456
sbag5
(g6
g7
(lp5457
g5
(g6
g7
(lp5458
Vshould
p5459
atp5460
Rp5461
(dp5462
g16
VMD
p5463
sbag5
(g6
g7
(lp5464
g5
(g6
g7
(lp5465
Vhave
p5466
atp5467
Rp5468
(dp5469
g16
VVB
p5470
sbag5
(g6
g7
(lp5471
g5
(g6
g7
(lp5472
g5
(g6
g7
(lp5473
Vconcepts
p5474
atp5475
Rp5476
(dp5477
g16
VNNS
p5478
sbatp5479
Rp5480
(dp5481
g16
VNP
p5482
sbag5
(g6
g7
(lp5483
g5
(g6
g7
(lp5484
Vof
p5485
atp5486
Rp5487
(dp5488
g16
VIN
p5489
sbag5
(g6
g7
(lp5490
g5
(g6
g7
(lp5491
g5
(g6
g7
(lp5492
Vinteresting
p5493
atp5494
Rp5495
(dp5496
g16
VJJ
p5497
sbag5
(g6
g7
(lp5498
Vor
p5499
atp5500
Rp5501
(dp5502
g16
VCC
p5503
sbag5
(g6
g7
(lp5504
Vpowerful
p5505
atp5506
Rp5507
(dp5508
g16
VJJ
p5509
sbatp5510
Rp5511
(dp5512
g16
VADJP
p5513
sbag5
(g6
g7
(lp5514
Vsubroutine
p5515
atp5516
Rp5517
(dp5518
g16
VNN
p5519
sbatp5520
Rp5521
(dp5522
g16
VNP
p5523
sbatp5524
Rp5525
(dp5526
g16
VPP
p5527
sbag5
(g6
g7
(lp5528
g5
(g6
g7
(lp5529
g5
(g6
g7
(lp5530
Vwhose
p5531
atp5532
Rp5533
(dp5534
g16
VWP$
p5535
sbag5
(g6
g7
(lp5536
Vapplication
p5537
atp5538
Rp5539
(dp5540
g16
VNNS
p5541
sbatp5542
Rp5543
(dp5544
g16
VWHNP
p5545
sbag5
(g6
g7
(lp5546
g5
(g6
g7
(lp5547
g5
(g6
g7
(lp5548
Vmay
p5549
atp5550
Rp5551
(dp5552
g16
VMD
p5553
sbag5
(g6
g7
(lp5554
g5
(g6
g7
(lp5555
Vbe
p5556
atp5557
Rp5558
(dp5559
g16
VVB
p5560
sbag5
(g6
g7
(lp5561
g5
(g6
g7
(lp5562
Vgood
p5563
atp5564
Rp5565
(dp5566
g16
VJJ
p5567
sbag5
(g6
g7
(lp5568
g5
(g6
g7
(lp5569
Vunder
p5570
atp5571
Rp5572
(dp5573
g16
VIN
p5574
sbag5
(g6
g7
(lp5575
g5
(g6
g7
(lp5576
Vsuitable
p5577
atp5578
Rp5579
(dp5580
g16
VJJ
p5581
sbag5
(g6
g7
(lp5582
Vconditions
p5583
atp5584
Rp5585
(dp5586
g16
VNNS
p5587
sbatp5588
Rp5589
(dp5590
g16
VNP
p5591
sbatp5592
Rp5593
(dp5594
g16
VPP
p5595
sbatp5596
Rp5597
(dp5598
g16
VADJP
p5599
sbatp5600
Rp5601
(dp5602
g16
VVP
p5603
sbatp5604
Rp5605
(dp5606
g16
VVP
p5607
sbatp5608
Rp5609
(dp5610
g16
g208
sbatp5611
Rp5612
(dp5613
g16
VSBAR
p5614
sbatp5615
Rp5616
(dp5617
g16
VNP
p5618
sbatp5619
Rp5620
(dp5621
g16
VVP
p5622
sbatp5623
Rp5624
(dp5625
g16
VVP
p5626
sbag5
(g6
g7
(lp5627
g241
atp5628
Rp5629
(dp5630
g16
g241
sbatp5631
Rp5632
(dp5633
g16
g208
sbatp5634
Rp5635
(dp5636
g16
VROOT
p5637
sbasg540
(icmyPackage
CorE
p5638
(dp5639
g543
(lp5640
(I0
I0
tp5641
a(I0
I22
tp5642
asg547
g5
(g6
g7
(lp5643
g5175
ag5362
atp5644
Rp5645
(dp5646
g16
g552
sbsbsg553
(icmyPackage
CorE
p5647
(dp5648
g543
(lp5649
(I1
I2
tp5650
a(I1
I23
tp5651
asg547
g5
(g6
g7
(lp5652
g5454
ag5624
ag5629
atp5653
Rp5654
(dp5655
g16
g552
sbsbsg563
g3043
sg588
(lp5656
(icmyPackage
Sent
p5657
(dp5658
g592
I1
sg593
I14
sg594
S'The learning of subroutines is complicated by the fact that the effect of a subroutine is not usually good or bad in itself.'
p5659
sg596
I0
sg597
I45
sg547
(lp5660
g5373
asba(icmyPackage
Sent
p5661
(dp5662
g592
I1
sg593
I14
sg594
S'Therefore, the mechanism that selects subroutines should have concepts of interesting or powerful subroutine whose application may be good under suitable conditions.'
p5663
sg596
I0
sg597
I46
sg547
(lp5664
g5635
asbasba(icmyPackage
CELink
p5665
(dp5666
g3
(lp5667
g5
(g6
g7
(lp5668
g5
(g6
g7
(lp5669
g5
(g6
g7
(lp5670
g5
(g6
g7
(lp5671
VOnce
p5672
atp5673
Rp5674
(dp5675
g16
VIN
p5676
sbag5
(g6
g7
(lp5677
g5
(g6
g7
(lp5678
g5
(g6
g7
(lp5679
Vthis
p5680
atp5681
Rp5682
(dp5683
g16
VDT
p5684
sbatp5685
Rp5686
(dp5687
g16
VNP
p5688
sbag5
(g6
g7
(lp5689
g5
(g6
g7
(lp5690
Vis
p5691
atp5692
Rp5693
(dp5694
g16
VVBZ
p5695
sbag5
(g6
g7
(lp5696
g5
(g6
g7
(lp5697
Vachieved
p5698
atp5699
Rp5700
(dp5701
g16
VVBN
p5702
sbatp5703
Rp5704
(dp5705
g16
VVP
p5706
sbatp5707
Rp5708
(dp5709
g16
VVP
p5710
sbatp5711
Rp5712
(dp5713
g16
g208
sbatp5714
Rp5715
(dp5716
g16
VSBAR
p5717
sbag5
(g6
g7
(lp5718
g266
atp5719
Rp5720
(dp5721
g16
g266
sbag5
(g6
g7
(lp5722
g5
(g6
g7
(lp5723
Vwe
p5724
atp5725
Rp5726
(dp5727
g16
VPRP
p5728
sbatp5729
Rp5730
(dp5731
g16
VNP
p5732
sbag5
(g6
g7
(lp5733
g5
(g6
g7
(lp5734
Vmay
p5735
atp5736
Rp5737
(dp5738
g16
VMD
p5739
sbag5
(g6
g7
(lp5740
g5
(g6
g7
(lp5741
Vbe
p5742
atp5743
Rp5744
(dp5745
g16
VVB
p5746
sbag5
(g6
g7
(lp5747
g5
(g6
g7
(lp5748
Vable
p5749
atp5750
Rp5751
(dp5752
g16
VJJ
p5753
sbag5
(g6
g7
(lp5754
g5
(g6
g7
(lp5755
g5
(g6
g7
(lp5756
Vto
p5757
atp5758
Rp5759
(dp5760
g16
VTO
p5761
sbag5
(g6
g7
(lp5762
g5
(g6
g7
(lp5763
Vtell
p5764
atp5765
Rp5766
(dp5767
g16
VVB
p5768
sbag5
(g6
g7
(lp5769
g5
(g6
g7
(lp5770
Vthe
p5771
atp5772
Rp5773
(dp5774
g16
VDT
p5775
sbag5
(g6
g7
(lp5776
Vadvice
p5777
atp5778
Rp5779
(dp5780
g16
VNN
p5781
sbag5
(g6
g7
(lp5782
Vtaker
p5783
atp5784
Rp5785
(dp5786
g16
VNN
p5787
sbatp5788
Rp5789
(dp5790
g16
VNP
p5791
sbag5
(g6
g7
(lp5792
g5
(g6
g7
(lp5793
g5
(g6
g7
(lp5794
Vhow
p5795
atp5796
Rp5797
(dp5798
g16
VWRB
p5799
sbatp5800
Rp5801
(dp5802
g16
VWHADVP
p5803
sbag5
(g6
g7
(lp5804
g5
(g6
g7
(lp5805
g5
(g6
g7
(lp5806
Vto
p5807
atp5808
Rp5809
(dp5810
g16
VTO
p5811
sbag5
(g6
g7
(lp5812
g5
(g6
g7
(lp5813
Vlearn
p5814
atp5815
Rp5816
(dp5817
g16
VVB
p5818
sbag5
(g6
g7
(lp5819
g5
(g6
g7
(lp5820
Vfrom
p5821
atp5822
Rp5823
(dp5824
g16
VIN
p5825
sbag5
(g6
g7
(lp5826
g5
(g6
g7
(lp5827
Vexperience
p5828
atp5829
Rp5830
(dp5831
g16
VNN
p5832
sbatp5833
Rp5834
(dp5835
g16
VNP
p5836
sbatp5837
Rp5838
(dp5839
g16
VPP
p5840
sbatp5841
Rp5842
(dp5843
g16
VVP
p5844
sbatp5845
Rp5846
(dp5847
g16
VVP
p5848
sbatp5849
Rp5850
(dp5851
g16
g208
sbatp5852
Rp5853
(dp5854
g16
VSBAR
p5855
sbatp5856
Rp5857
(dp5858
g16
VVP
p5859
sbatp5860
Rp5861
(dp5862
g16
VVP
p5863
sbatp5864
Rp5865
(dp5866
g16
g208
sbatp5867
Rp5868
(dp5869
g16
VADJP
p5870
sbatp5871
Rp5872
(dp5873
g16
VVP
p5874
sbatp5875
Rp5876
(dp5877
g16
VVP
p5878
sbag5
(g6
g7
(lp5879
g241
atp5880
Rp5881
(dp5882
g16
g241
sbatp5883
Rp5884
(dp5885
g16
g208
sbatp5886
Rp5887
(dp5888
g16
VROOT
p5889
sbasg540
(icmyPackage
CorE
p5890
(dp5891
g543
(lp5892
(I0
I1
tp5893
a(I0
I3
tp5894
asg547
g5712
sbsg553
(icmyPackage
CorE
p5895
(dp5896
g543
(lp5897
(I0
I5
tp5898
a(I0
I19
tp5899
asg547
g5
(g6
g7
(lp5900
g5730
ag5876
ag5881
atp5901
Rp5902
(dp5903
g16
g552
sbsbsg563
g3700
sg588
(lp5904
(icmyPackage
Sent
p5905
(dp5906
g592
I1
sg593
I15
sg594
S'Once this is achieved, we may be able to tell the advice taker how to learn from experience.'
p5907
sg596
I0
sg597
I51
sg547
(lp5908
g5887
asbasba(icmyPackage
CELink
p5909
(dp5910
g3
(lp5911
g5
(g6
g7
(lp5912
g5
(g6
g7
(lp5913
g5
(g6
g7
(lp5914
g5
(g6
g7
(lp5915
g4860
atp5916
Rp5917
(dp5918
g16
VLS
p5919
sbag5
(g6
g7
(lp5920
V-RRB-
p5921
atp5922
Rp5923
(dp5924
g16
V-RRB-
p5925
sbatp5926
Rp5927
(dp5928
g16
VLST
p5929
sbag5
(g6
g7
(lp5930
g5
(g6
g7
(lp5931
g5
(g6
g7
(lp5932
g5
(g6
g7
(lp5933
VThe
p5934
atp5935
Rp5936
(dp5937
g16
VDT
p5938
sbag5
(g6
g7
(lp5939
Veffect
p5940
atp5941
Rp5942
(dp5943
g16
VNN
p5944
sbatp5945
Rp5946
(dp5947
g16
VNP
p5948
sbag5
(g6
g7
(lp5949
g5
(g6
g7
(lp5950
Vof
p5951
atp5952
Rp5953
(dp5954
g16
VIN
p5955
sbag5
(g6
g7
(lp5956
g5
(g6
g7
(lp5957
g127
atp5958
Rp5959
(dp5960
g16
VDT
p5961
sbag5
(g6
g7
(lp5962
Vdeclarative
p5963
atp5964
Rp5965
(dp5966
g16
VNN
p5967
sbatp5968
Rp5969
(dp5970
g16
VNP
p5971
sbatp5972
Rp5973
(dp5974
g16
VPP
p5975
sbatp5976
Rp5977
(dp5978
g16
VNP
p5979
sbag5
(g6
g7
(lp5980
g5
(g6
g7
(lp5981
Vis
p5982
atp5983
Rp5984
(dp5985
g16
VVBZ
p5986
sbag5
(g6
g7
(lp5987
g5
(g6
g7
(lp5988
Vless
p5989
atp5990
Rp5991
(dp5992
g16
VRBR
p5993
sbag5
(g6
g7
(lp5994
Vdependent
p5995
atp5996
Rp5997
(dp5998
g16
VJJ
p5999
sbag5
(g6
g7
(lp6000
g5
(g6
g7
(lp6001
Von
p6002
atp6003
Rp6004
(dp6005
g16
VIN
p6006
sbag5
(g6
g7
(lp6007
g5
(g6
g7
(lp6008
g5
(g6
g7
(lp6009
Vthe
p6010
atp6011
Rp6012
(dp6013
g16
VDT
p6014
sbag5
(g6
g7
(lp6015
Vprevious
p6016
atp6017
Rp6018
(dp6019
g16
VJJ
p6020
sbag5
(g6
g7
(lp6021
Vstate
p6022
atp6023
Rp6024
(dp6025
g16
VNN
p6026
sbatp6027
Rp6028
(dp6029
g16
VNP
p6030
sbag5
(g6
g7
(lp6031
g5
(g6
g7
(lp6032
Vof
p6033
atp6034
Rp6035
(dp6036
g16
VIN
p6037
sbag5
(g6
g7
(lp6038
g5
(g6
g7
(lp6039
Vthe
p6040
atp6041
Rp6042
(dp6043
g16
VDT
p6044
sbag5
(g6
g7
(lp6045
Vsystem
p6046
atp6047
Rp6048
(dp6049
g16
VNN
p6050
sbatp6051
Rp6052
(dp6053
g16
VNP
p6054
sbatp6055
Rp6056
(dp6057
g16
VPP
p6058
sbatp6059
Rp6060
(dp6061
g16
VNP
p6062
sbatp6063
Rp6064
(dp6065
g16
VPP
p6066
sbatp6067
Rp6068
(dp6069
g16
VADJP
p6070
sbatp6071
Rp6072
(dp6073
g16
VVP
p6074
sbatp6075
Rp6076
(dp6077
g16
g208
sbag5
(g6
g7
(lp6078
Vso
p6079
atp6080
Rp6081
(dp6082
g16
VIN
p6083
sbag5
(g6
g7
(lp6084
g5
(g6
g7
(lp6085
g5
(g6
g7
(lp6086
g5
(g6
g7
(lp6087
Vthat
p6088
atp6089
Rp6090
(dp6091
g16
VDT
p6092
sbag5
(g6
g7
(lp6093
Vless
p6094
atp6095
Rp6096
(dp6097
g16
VJJR
p6098
sbag5
(g6
g7
(lp6099
Vknowledge
p6100
atp6101
Rp6102
(dp6103
g16
VNN
p6104
sbatp6105
Rp6106
(dp6107
g16
VNP
p6108
sbag5
(g6
g7
(lp6109
g5
(g6
g7
(lp6110
Vof
p6111
atp6112
Rp6113
(dp6114
g16
VIN
p6115
sbag5
(g6
g7
(lp6116
g5
(g6
g7
(lp6117
Vthis
p6118
atp6119
Rp6120
(dp6121
g16
VDT
p6122
sbag5
(g6
g7
(lp6123
Vstate
p6124
atp6125
Rp6126
(dp6127
g16
VNN
p6128
sbatp6129
Rp6130
(dp6131
g16
VNP
p6132
sbatp6133
Rp6134
(dp6135
g16
VPP
p6136
sbatp6137
Rp6138
(dp6139
g16
VNP
p6140
sbag5
(g6
g7
(lp6141
g5
(g6
g7
(lp6142
Vis
p6143
atp6144
Rp6145
(dp6146
g16
VVBZ
p6147
sbag5
(g6
g7
(lp6148
g5
(g6
g7
(lp6149
Vrequired
p6150
atp6151
Rp6152
(dp6153
g16
VVBN
p6154
sbag5
(g6
g7
(lp6155
g5
(g6
g7
(lp6156
Von
p6157
atp6158
Rp6159
(dp6160
g16
VIN
p6161
sbag5
(g6
g7
(lp6162
g5
(g6
g7
(lp6163
g5
(g6
g7
(lp6164
Vthe
p6165
atp6166
Rp6167
(dp6168
g16
VDT
p6169
sbag5
(g6
g7
(lp6170
Vpart
p6171
atp6172
Rp6173
(dp6174
g16
VNN
p6175
sbatp6176
Rp6177
(dp6178
g16
VNP
p6179
sbag5
(g6
g7
(lp6180
g5
(g6
g7
(lp6181
Vof
p6182
atp6183
Rp6184
(dp6185
g16
VIN
p6186
sbag5
(g6
g7
(lp6187
g5
(g6
g7
(lp6188
Vthe
p6189
atp6190
Rp6191
(dp6192
g16
VDT
p6193
sbag5
(g6
g7
(lp6194
Vinstructor
p6195
atp6196
Rp6197
(dp6198
g16
VNN
p6199
sbatp6200
Rp6201
(dp6202
g16
VNP
p6203
sbatp6204
Rp6205
(dp6206
g16
VPP
p6207
sbatp6208
Rp6209
(dp6210
g16
VNP
p6211
sbatp6212
Rp6213
(dp6214
g16
VPP
p6215
sbatp6216
Rp6217
(dp6218
g16
VVP
p6219
sbatp6220
Rp6221
(dp6222
g16
VVP
p6223
sbatp6224
Rp6225
(dp6226
g16
g208
sbag5
(g6
g7
(lp6227
g241
atp6228
Rp6229
(dp6230
g16
g241
sbatp6231
Rp6232
(dp6233
g16
g208
sbatp6234
Rp6235
(dp6236
g16
VROOT
p6237
sbasg540
(icmyPackage
CorE
p6238
(dp6239
g543
(lp6240
(I0
I2
tp6241
a(I0
I16
tp6242
asg547
g6076
sbsg553
(icmyPackage
CorE
p6243
(dp6244
g543
(lp6245
(I0
I19
tp6246
a(I0
I32
tp6247
asg547
g5
(g6
g7
(lp6248
g6096
ag6102
ag6134
ag6221
ag6229
atp6249
Rp6250
(dp6251
g16
g552
sbsbsg563
(icmyPackage
pattern
p6252
(dp6253
g566
I45
sg567
I0
sg568
(lp6254
(lp6255
S'so'
p6256
aS'that'
p6257
aasg572
(lp6258
I3
aI1
aI1
asg574
(lp6259
S'The teacher then decided to ask him some very easy questions so that he could get a few right.'
p6260
asg577
I77
sg578
(lp6261
(lp6262
S'&C'
p6263
aa(lp6264
S'&R'
p6265
aasbsg588
(lp6266
(icmyPackage
Sent
p6267
(dp6268
g592
I1
sg593
I23
sg594
S'4) The effect of a declarative is less dependent on the previous state of the system so that less knowledge of this state is required on the part of the instructor.'
p6269
sg596
I0
sg597
I64
sg547
(lp6270
g6235
asbasba(icmyPackage
CELink
p6271
(dp6272
g3
(lp6273
g5
(g6
g7
(lp6274
g5
(g6
g7
(lp6275
g5
(g6
g7
(lp6276
g5
(g6
g7
(lp6277
g5
(g6
g7
(lp6278
VThe
p6279
atp6280
Rp6281
(dp6282
g16
VDT
p6283
sbag5
(g6
g7
(lp6284
Vonly
p6285
atp6286
Rp6287
(dp6288
g16
VJJ
p6289
sbag5
(g6
g7
(lp6290
Vway
p6291
atp6292
Rp6293
(dp6294
g16
VNN
p6295
sbatp6296
Rp6297
(dp6298
g16
VNP
p6299
sbag5
(g6
g7
(lp6300
g5
(g6
g7
(lp6301
g5
(g6
g7
(lp6302
g5
(g6
g7
(lp6303
Vwe
p6304
atp6305
Rp6306
(dp6307
g16
VPRP
p6308
sbatp6309
Rp6310
(dp6311
g16
VNP
p6312
sbag5
(g6
g7
(lp6313
g5
(g6
g7
(lp6314
Vknow
p6315
atp6316
Rp6317
(dp6318
g16
VVBP
p6319
sbag5
(g6
g7
(lp6320
g5
(g6
g7
(lp6321
Vof
p6322
atp6323
Rp6324
(dp6325
g16
VIN
p6326
sbag5
(g6
g7
(lp6327
g5
(g6
g7
(lp6328
g5
(g6
g7
(lp6329
Vexpressing
p6330
atp6331
Rp6332
(dp6333
g16
VVBG
p6334
sbag5
(g6
g7
(lp6335
g5
(g6
g7
(lp6336
Vabstractions
p6337
atp6338
Rp6339
(dp6340
g16
VNNS
p6341
sbatp6342
Rp6343
(dp6344
g16
VNP
p6345
sbatp6346
Rp6347
(dp6348
g16
VVP
p6349
sbatp6350
Rp6351
(dp6352
g16
g208
sbatp6353
Rp6354
(dp6355
g16
VPP
p6356
sbatp6357
Rp6358
(dp6359
g16
VVP
p6360
sbatp6361
Rp6362
(dp6363
g16
g208
sbatp6364
Rp6365
(dp6366
g16
VSBAR
p6367
sbag5
(g6
g7
(lp6368
g5
(g6
g7
(lp6369
V-LRB-
p6370
atp6371
Rp6372
(dp6373
g16
V-LRB-
p6374
sbag5
(g6
g7
(lp6375
g5
(g6
g7
(lp6376
Vsuch
p6377
atp6378
Rp6379
(dp6380
g16
VJJ
p6381
sbag5
(g6
g7
(lp6382
Vas
p6383
atp6384
Rp6385
(dp6386
g16
VIN
p6387
sbag5
(g6
g7
(lp6388
g5
(g6
g7
(lp6389
g5
(g6
g7
(lp6390
Vthe
p6391
atp6392
Rp6393
(dp6394
g16
VDT
p6395
sbag5
(g6
g7
(lp6396
Vprevious
p6397
atp6398
Rp6399
(dp6400
g16
VJJ
p6401
sbag5
(g6
g7
(lp6402
Vexample
p6403
atp6404
Rp6405
(dp6406
g16
VNN
p6407
sbatp6408
Rp6409
(dp6410
g16
VNP
p6411
sbag5
(g6
g7
(lp6412
g5
(g6
g7
(lp6413
Vof
p6414
atp6415
Rp6416
(dp6417
g16
VIN
p6418
sbag5
(g6
g7
(lp6419
g5
(g6
g7
(lp6420
g5
(g6
g7
(lp6421
Vthe
p6422
atp6423
Rp6424
(dp6425
g16
VDT
p6426
sbag5
(g6
g7
(lp6427
Vopposition
p6428
atp6429
Rp6430
(dp6431
g16
VNN
p6432
sbatp6433
Rp6434
(dp6435
g16
VNP
p6436
sbag5
(g6
g7
(lp6437
g5
(g6
g7
(lp6438
Vin
p6439
atp6440
Rp6441
(dp6442
g16
VIN
p6443
sbag5
(g6
g7
(lp6444
g5
(g6
g7
(lp6445
Vcheckers
p6446
atp6447
Rp6448
(dp6449
g16
VNNS
p6450
sbatp6451
Rp6452
(dp6453
g16
VNP
p6454
sbatp6455
Rp6456
(dp6457
g16
VPP
p6458
sbatp6459
Rp6460
(dp6461
g16
VNP
p6462
sbatp6463
Rp6464
(dp6465
g16
VPP
p6466
sbatp6467
Rp6468
(dp6469
g16
VNP
p6470
sbatp6471
Rp6472
(dp6473
g16
VPP
p6474
sbag5
(g6
g7
(lp6475
V-RRB-
p6476
atp6477
Rp6478
(dp6479
g16
V-RRB-
p6480
sbatp6481
Rp6482
(dp6483
g16
VPRN
p6484
sbatp6485
Rp6486
(dp6487
g16
VNP
p6488
sbag5
(g6
g7
(lp6489
g5
(g6
g7
(lp6490
Vis
p6491
atp6492
Rp6493
(dp6494
g16
VVBZ
p6495
sbag5
(g6
g7
(lp6496
g5
(g6
g7
(lp6497
Vin
p6498
atp6499
Rp6500
(dp6501
g16
VIN
p6502
sbag5
(g6
g7
(lp6503
g5
(g6
g7
(lp6504
Vlanguage
p6505
atp6506
Rp6507
(dp6508
g16
VNN
p6509
sbatp6510
Rp6511
(dp6512
g16
VNP
p6513
sbatp6514
Rp6515
(dp6516
g16
VPP
p6517
sbatp6518
Rp6519
(dp6520
g16
VVP
p6521
sbag5
(g6
g7
(lp6522
g241
atp6523
Rp6524
(dp6525
g16
g241
sbatp6526
Rp6527
(dp6528
g16
g208
sbatp6529
Rp6530
(dp6531
g16
VROOT
p6532
sbag5
(g6
g7
(lp6533
g5
(g6
g7
(lp6534
g5
(g6
g7
(lp6535
g5
(g6
g7
(lp6536
VThat
p6537
atp6538
Rp6539
(dp6540
g16
VDT
p6541
sbatp6542
Rp6543
(dp6544
g16
VNP
p6545
sbag5
(g6
g7
(lp6546
g5
(g6
g7
(lp6547
Vis
p6548
atp6549
Rp6550
(dp6551
g16
VVBZ
p6552
sbag5
(g6
g7
(lp6553
g5
(g6
g7
(lp6554
g5
(g6
g7
(lp6555
Vwhy
p6556
atp6557
Rp6558
(dp6559
g16
VWRB
p6560
sbatp6561
Rp6562
(dp6563
g16
VWHADVP
p6564
sbag5
(g6
g7
(lp6565
g5
(g6
g7
(lp6566
g5
(g6
g7
(lp6567
Vwe
p6568
atp6569
Rp6570
(dp6571
g16
VPRP
p6572
sbatp6573
Rp6574
(dp6575
g16
VNP
p6576
sbag5
(g6
g7
(lp6577
g5
(g6
g7
(lp6578
Vhave
p6579
atp6580
Rp6581
(dp6582
g16
VVBP
p6583
sbag5
(g6
g7
(lp6584
g5
(g6
g7
(lp6585
Vdecided
p6586
atp6587
Rp6588
(dp6589
g16
VVBN
p6590
sbag5
(g6
g7
(lp6591
g5
(g6
g7
(lp6592
g5
(g6
g7
(lp6593
Vto
p6594
atp6595
Rp6596
(dp6597
g16
VTO
p6598
sbag5
(g6
g7
(lp6599
g5
(g6
g7
(lp6600
Vprogram
p6601
atp6602
Rp6603
(dp6604
g16
VVB
p6605
sbag5
(g6
g7
(lp6606
g5
(g6
g7
(lp6607
g5
(g6
g7
(lp6608
g127
atp6609
Rp6610
(dp6611
g16
VDT
p6612
sbag5
(g6
g7
(lp6613
Vsystem
p6614
atp6615
Rp6616
(dp6617
g16
VNN
p6618
sbatp6619
Rp6620
(dp6621
g16
VNP
p6622
sbag5
(g6
g7
(lp6623
g5
(g6
g7
(lp6624
g5
(g6
g7
(lp6625
Vwhich
p6626
atp6627
Rp6628
(dp6629
g16
VWDT
p6630
sbatp6631
Rp6632
(dp6633
g16
VWHNP
p6634
sbag5
(g6
g7
(lp6635
g5
(g6
g7
(lp6636
g5
(g6
g7
(lp6637
Vreasons
p6638
atp6639
Rp6640
(dp6641
g16
VVBZ
p6642
sbag5
(g6
g7
(lp6643
g5
(g6
g7
(lp6644
Vverbally
p6645
atp6646
Rp6647
(dp6648
g16
VRB
p6649
sbatp6650
Rp6651
(dp6652
g16
VADVP
p6653
sbatp6654
Rp6655
(dp6656
g16
VVP
p6657
sbatp6658
Rp6659
(dp6660
g16
g208
sbatp6661
Rp6662
(dp6663
g16
VSBAR
p6664
sbatp6665
Rp6666
(dp6667
g16
VNP
p6668
sbatp6669
Rp6670
(dp6671
g16
VVP
p6672
sbatp6673
Rp6674
(dp6675
g16
VVP
p6676
sbatp6677
Rp6678
(dp6679
g16
g208
sbatp6680
Rp6681
(dp6682
g16
VVP
p6683
sbatp6684
Rp6685
(dp6686
g16
VVP
p6687
sbatp6688
Rp6689
(dp6690
g16
g208
sbatp6691
Rp6692
(dp6693
g16
VSBAR
p6694
sbatp6695
Rp6696
(dp6697
g16
VVP
p6698
sbag5
(g6
g7
(lp6699
g241
atp6700
Rp6701
(dp6702
g16
g241
sbatp6703
Rp6704
(dp6705
g16
g208
sbatp6706
Rp6707
(dp6708
g16
VROOT
p6709
sbasg540
(icmyPackage
CorE
p6710
(dp6711
g543
(lp6712
(I0
I0
tp6713
a(I0
I22
tp6714
asg547
g5
(g6
g7
(lp6715
g6486
ag6519
atp6716
Rp6717
(dp6718
g16
g552
sbsbsg553
(icmyPackage
CorE
p6719
(dp6720
g543
(lp6721
(I1
I3
tp6722
a(I1
I13
tp6723
asg547
g5
(g6
g7
(lp6724
g6689
ag6701
atp6725
Rp6726
(dp6727
g16
g552
sbsbsg563
(icmyPackage
pattern
p6728
(dp6729
g566
I0
sg567
I1
sg568
(lp6730
(lp6731
S'that'
p6732
aS'is'
p6733
aS'why'
p6734
aasg572
(lp6735
I4
aI2
aI1
asg574
(lp6736
S'Amazing things will happen. That is why it is so irritating when public figures apologize, and then act like the matter is finished.'
p6737
asg577
I143
sg578
(lp6738
(lp6739
S'&C'
p6740
aS'(,/./;/--)'
p6741
aS'(&AND)'
p6742
aS'(&adv)'
p6743
aa(lp6744
S'&R'
p6745
aasbsg588
(lp6746
(icmyPackage
Sent
p6747
(dp6748
g592
I1
sg593
I24
sg594
S'The only way we know of expressing abstractions (such as the previous example of the opposition in checkers) is in language.'
p6749
sg596
I0
sg597
I65
sg547
(lp6750
g6530
asba(icmyPackage
Sent
p6751
(dp6752
g592
I1
sg593
I24
sg594
S'That is why we have decided to program a system which reasons verbally.'
p6753
sg596
I0
sg597
I66
sg547
(lp6754
g6707
asbasba(icmyPackage
CELink
p6755
(dp6756
g3
(lp6757
g5
(g6
g7
(lp6758
g5
(g6
g7
(lp6759
g5
(g6
g7
(lp6760
g5
(g6
g7
(lp6761
VLater
p6762
atp6763
Rp6764
(dp6765
g16
VRB
p6766
sbatp6767
Rp6768
(dp6769
g16
VADVP
p6770
sbag5
(g6
g7
(lp6771
g266
atp6772
Rp6773
(dp6774
g16
g266
sbag5
(g6
g7
(lp6775
g5
(g6
g7
(lp6776
Vthis
p6777
atp6778
Rp6779
(dp6780
g16
VDT
p6781
sbatp6782
Rp6783
(dp6784
g16
VNP
p6785
sbag5
(g6
g7
(lp6786
g5
(g6
g7
(lp6787
Vmay
p6788
atp6789
Rp6790
(dp6791
g16
VMD
p6792
sbag5
(g6
g7
(lp6793
g5
(g6
g7
(lp6794
Vbe
p6795
atp6796
Rp6797
(dp6798
g16
VVB
p6799
sbag5
(g6
g7
(lp6800
g5
(g6
g7
(lp6801
Velaborated
p6802
atp6803
Rp6804
(dp6805
g16
VVBN
p6806
sbag5
(g6
g7
(lp6807
g5
(g6
g7
(lp6808
Vso
p6809
atp6810
Rp6811
(dp6812
g16
VRB
p6813
sbag5
(g6
g7
(lp6814
Vthat
p6815
atp6816
Rp6817
(dp6818
g16
VIN
p6819
sbag5
(g6
g7
(lp6820
g5
(g6
g7
(lp6821
g5
(g6
g7
(lp6822
Vthe
p6823
atp6824
Rp6825
(dp6826
g16
VDT
p6827
sbag5
(g6
g7
(lp6828
Vroutine
p6829
atp6830
Rp6831
(dp6832
g16
VNN
p6833
sbatp6834
Rp6835
(dp6836
g16
VNP
p6837
sbag5
(g6
g7
(lp6838
g5
(g6
g7
(lp6839
Vwill
p6840
atp6841
Rp6842
(dp6843
g16
VMD
p6844
sbag5
(g6
g7
(lp6845
g5
(g6
g7
(lp6846
Vproduce
p6847
atp6848
Rp6849
(dp6850
g16
VVB
p6851
sbag5
(g6
g7
(lp6852
g5
(g6
g7
(lp6853
g5
(g6
g7
(lp6854
Vsome
p6855
atp6856
Rp6857
(dp6858
g16
VDT
p6859
sbag5
(g6
g7
(lp6860
Vother
p6861
atp6862
Rp6863
(dp6864
g16
VJJ
p6865
sbag5
(g6
g7
(lp6866
Vconclusions
p6867
atp6868
Rp6869
(dp6870
g16
VNNS
p6871
sbatp6872
Rp6873
(dp6874
g16
VNP
p6875
sbag5
(g6
g7
(lp6876
g5
(g6
g7
(lp6877
g5
(g6
g7
(lp6878
Vwhich
p6879
atp6880
Rp6881
(dp6882
g16
VWDT
p6883
sbatp6884
Rp6885
(dp6886
g16
VWHNP
p6887
sbag5
(g6
g7
(lp6888
g5
(g6
g7
(lp6889
g5
(g6
g7
(lp6890
Vmay
p6891
atp6892
Rp6893
(dp6894
g16
VMD
p6895
sbag5
(g6
g7
(lp6896
g5
(g6
g7
(lp6897
Vbe
p6898
atp6899
Rp6900
(dp6901
g16
VVB
p6902
sbag5
(g6
g7
(lp6903
g5
(g6
g7
(lp6904
Vof
p6905
atp6906
Rp6907
(dp6908
g16
VIN
p6909
sbag5
(g6
g7
(lp6910
g5
(g6
g7
(lp6911
Vinterest
p6912
atp6913
Rp6914
(dp6915
g16
VNN
p6916
sbatp6917
Rp6918
(dp6919
g16
VNP
p6920
sbatp6921
Rp6922
(dp6923
g16
VPP
p6924
sbatp6925
Rp6926
(dp6927
g16
VVP
p6928
sbatp6929
Rp6930
(dp6931
g16
VVP
p6932
sbatp6933
Rp6934
(dp6935
g16
g208
sbatp6936
Rp6937
(dp6938
g16
VSBAR
p6939
sbatp6940
Rp6941
(dp6942
g16
VNP
p6943
sbatp6944
Rp6945
(dp6946
g16
VVP
p6947
sbatp6948
Rp6949
(dp6950
g16
VVP
p6951
sbatp6952
Rp6953
(dp6954
g16
g208
sbatp6955
Rp6956
(dp6957
g16
VSBAR
p6958
sbatp6959
Rp6960
(dp6961
g16
VVP
p6962
sbatp6963
Rp6964
(dp6965
g16
VVP
p6966
sbatp6967
Rp6968
(dp6969
g16
VVP
p6970
sbag5
(g6
g7
(lp6971
g241
atp6972
Rp6973
(dp6974
g16
g241
sbatp6975
Rp6976
(dp6977
g16
g208
sbatp6978
Rp6979
(dp6980
g16
VROOT
p6981
sbasg540
(icmyPackage
CorE
p6982
(dp6983
g543
(lp6984
(I0
I0
tp6985
a(I0
I5
tp6986
asg547
g5
(g6
g7
(lp6987
g6768
ag6773
ag6783
ag6790
ag6797
ag6804
atp6988
Rp6989
(dp6990
g16
g552
sbsbsg553
(icmyPackage
CorE
p6991
(dp6992
g543
(lp6993
(I0
I8
tp6994
a(I0
I20
tp6995
asg547
g5
(g6
g7
(lp6996
g6953
ag6973
atp6997
Rp6998
(dp6999
g16
g552
sbsbsg563
g6252
sg588
(lp7000
(icmyPackage
Sent
p7001
(dp7002
g592
I2
sg593
I28
sg594
S'Later, this may be elaborated so that the routine will produce some other conclusions which may be of interest.'
p7003
sg596
I0
sg597
I78
sg547
(lp7004
g6979
asbasba(icmyPackage
CELink
p7005
(dp7006
g3
(lp7007
g5
(g6
g7
(lp7008
g5
(g6
g7
(lp7009
g5
(g6
g7
(lp7010
g5
(g6
g7
(lp7011
g4860
atp7012
Rp7013
(dp7014
g16
VLS
p7015
sbag5
(g6
g7
(lp7016
V-RRB-
p7017
atp7018
Rp7019
(dp7020
g16
V-RRB-
p7021
sbatp7022
Rp7023
(dp7024
g16
VLST
p7025
sbag5
(g6
g7
(lp7026
g5
(g6
g7
(lp7027
VNot
p7028
atp7029
Rp7030
(dp7031
g16
VRB
p7032
sbag5
(g6
g7
(lp7033
Vall
p7034
atp7035
Rp7036
(dp7037
g16
VDT
p7038
sbag5
(g6
g7
(lp7039
Vexpressions
p7040
atp7041
Rp7042
(dp7043
g16
VNNS
p7044
sbatp7045
Rp7046
(dp7047
g16
VNP
p7048
sbag5
(g6
g7
(lp7049
g5
(g6
g7
(lp7050
Vare
p7051
atp7052
Rp7053
(dp7054
g16
VVBP
p7055
sbag5
(g6
g7
(lp7056
g5
(g6
g7
(lp7057
Vinterpreted
p7058
atp7059
Rp7060
(dp7061
g16
VVBN
p7062
sbag5
(g6
g7
(lp7063
g5
(g6
g7
(lp7064
Vby
p7065
atp7066
Rp7067
(dp7068
g16
VIN
p7069
sbag5
(g6
g7
(lp7070
g5
(g6
g7
(lp7071
Vthe
p7072
atp7073
Rp7074
(dp7075
g16
VDT
p7076
sbag5
(g6
g7
(lp7077
Vsystem
p7078
atp7079
Rp7080
(dp7081
g16
VNN
p7082
sbatp7083
Rp7084
(dp7085
g16
VNP
p7086
sbatp7087
Rp7088
(dp7089
g16
VPP
p7090
sbag5
(g6
g7
(lp7091
g5
(g6
g7
(lp7092
Vas
p7093
atp7094
Rp7095
(dp7096
g16
VIN
p7097
sbag5
(g6
g7
(lp7098
g5
(g6
g7
(lp7099
g5
(g6
g7
(lp7100
Vdeclarative
p7101
atp7102
Rp7103
(dp7104
g16
VJJ
p7105
sbag5
(g6
g7
(lp7106
Vsentences.Some
p7107
atp7108
Rp7109
(dp7110
g16
VNN
p7111
sbatp7112
Rp7113
(dp7114
g16
VNP
p7115
sbag5
(g6
g7
(lp7116
g5
(g6
g7
(lp7117
Vare
p7118
atp7119
Rp7120
(dp7121
g16
VVBP
p7122
sbag5
(g6
g7
(lp7123
g5
(g6
g7
(lp7124
g5
(g6
g7
(lp7125
Vthe
p7126
atp7127
Rp7128
(dp7129
g16
VDT
p7130
sbag5
(g6
g7
(lp7131
Vnames
p7132
atp7133
Rp7134
(dp7135
g16
VNNS
p7136
sbatp7137
Rp7138
(dp7139
g16
VNP
p7140
sbag5
(g6
g7
(lp7141
g5
(g6
g7
(lp7142
Vof
p7143
atp7144
Rp7145
(dp7146
g16
VIN
p7147
sbag5
(g6
g7
(lp7148
g5
(g6
g7
(lp7149
g5
(g6
g7
(lp7150
Ventities
p7151
atp7152
Rp7153
(dp7154
g16
VNNS
p7155
sbatp7156
Rp7157
(dp7158
g16
VNP
p7159
sbag5
(g6
g7
(lp7160
g5
(g6
g7
(lp7161
Vof
p7162
atp7163
Rp7164
(dp7165
g16
VIN
p7166
sbag5
(g6
g7
(lp7167
g5
(g6
g7
(lp7168
Vvarious
p7169
atp7170
Rp7171
(dp7172
g16
VJJ
p7173
sbag5
(g6
g7
(lp7174
Vkinds
p7175
atp7176
Rp7177
(dp7178
g16
VNNS
p7179
sbatp7180
Rp7181
(dp7182
g16
VNP
p7183
sbatp7184
Rp7185
(dp7186
g16
VPP
p7187
sbatp7188
Rp7189
(dp7190
g16
VNP
p7191
sbatp7192
Rp7193
(dp7194
g16
VPP
p7195
sbatp7196
Rp7197
(dp7198
g16
VNP
p7199
sbatp7200
Rp7201
(dp7202
g16
VVP
p7203
sbatp7204
Rp7205
(dp7206
g16
g208
sbatp7207
Rp7208
(dp7209
g16
VSBAR
p7210
sbatp7211
Rp7212
(dp7213
g16
VVP
p7214
sbatp7215
Rp7216
(dp7217
g16
VVP
p7218
sbag5
(g6
g7
(lp7219
g241
atp7220
Rp7221
(dp7222
g16
g241
sbatp7223
Rp7224
(dp7225
g16
g208
sbatp7226
Rp7227
(dp7228
g16
VROOT
p7229
sbasg540
(icmyPackage
CorE
p7230
(dp7231
g543
(lp7232
(I0
I11
tp7233
a(I0
I21
tp7234
asg547
g5
(g6
g7
(lp7235
g7205
ag7221
atp7236
Rp7237
(dp7238
g16
g552
sbsbsg553
(icmyPackage
CorE
p7239
(dp7240
g543
(lp7241
(I0
I1
tp7242
a(I0
I9
tp7243
asg547
g5
(g6
g7
(lp7244
g7019
ag7046
ag7053
ag7060
ag7088
atp7245
Rp7246
(dp7247
g16
g552
sbsbsg563
(icmyPackage
pattern
p7248
(dp7249
g566
I26
sg567
I1
sg568
(lp7250
(lp7251
S'as'
p7252
aasg572
(lp7253
I3
aI1
aI1
asg574
(lp7254
S'You do not need to worry about the operation, as the software is very easy to use.'
p7255
asg577
I80
sg578
(lp7256
(lp7257
S'&R@Complete@'
p7258
aS'(,)'
p7259
aS'(-such/-same/-seem/-regard/-regards/-regarded/-view/-views/-viewed/-denote/-denoted/-denotes)'
p7260
aa(lp7261
S'(-if/-follow/-follows/-&adv)'
p7262
aS'&C@Complete@'
p7263
aasbsg588
(lp7264
(icmyPackage
Sent
p7265
(dp7266
g592
I2
sg593
I30
sg594
S'4) Not all expressions are interpreted by the system as declarative sentences.Some are the names of entities of various kinds.'
p7267
sg596
I0
sg597
I85
sg547
(lp7268
g7227
asbasba(icmyPackage
CELink
p7269
(dp7270
g3
(lp7271
g5
(g6
g7
(lp7272
g5
(g6
g7
(lp7273
g5
(g6
g7
(lp7274
g5
(g6
g7
(lp7275
VFor
p7276
atp7277
Rp7278
(dp7279
g16
VIN
p7280
sbag5
(g6
g7
(lp7281
g5
(g6
g7
(lp7282
Vour
p7283
atp7284
Rp7285
(dp7286
g16
VPRP$
p7287
sbag5
(g6
g7
(lp7288
Vpurposes
p7289
atp7290
Rp7291
(dp7292
g16
VNNS
p7293
sbatp7294
Rp7295
(dp7296
g16
VNP
p7297
sbatp7298
Rp7299
(dp7300
g16
VPP
p7301
sbag5
(g6
g7
(lp7302
g266
atp7303
Rp7304
(dp7305
g16
g266
sbag5
(g6
g7
(lp7306
g5
(g6
g7
(lp7307
Van
p7308
atp7309
Rp7310
(dp7311
g16
VDT
p7312
sbag5
(g6
g7
(lp7313
Ventity
p7314
atp7315
Rp7316
(dp7317
g16
VNN
p7318
sbatp7319
Rp7320
(dp7321
g16
VNP
p7322
sbag5
(g6
g7
(lp7323
g5
(g6
g7
(lp7324
Vis
p7325
atp7326
Rp7327
(dp7328
g16
VVBZ
p7329
sbag5
(g6
g7
(lp7330
g5
(g6
g7
(lp7331
Van
p7332
atp7333
Rp7334
(dp7335
g16
VDT
p7336
sbag5
(g6
g7
(lp7337
Vobject
p7338
atp7339
Rp7340
(dp7341
g16
VNN
p7342
sbatp7343
Rp7344
(dp7345
g16
VNP
p7346
sbag5
(g6
g7
(lp7347
g5
(g6
g7
(lp7348
Vif
p7349
atp7350
Rp7351
(dp7352
g16
VIN
p7353
sbag5
(g6
g7
(lp7354
g5
(g6
g7
(lp7355
g5
(g6
g7
(lp7356
Vwe
p7357
atp7358
Rp7359
(dp7360
g16
VPRP
p7361
sbatp7362
Rp7363
(dp7364
g16
VNP
p7365
sbag5
(g6
g7
(lp7366
g5
(g6
g7
(lp7367
Vhave
p7368
atp7369
Rp7370
(dp7371
g16
VVBP
p7372
sbag5
(g6
g7
(lp7373
g5
(g6
g7
(lp7374
Vsomething
p7375
atp7376
Rp7377
(dp7378
g16
VNN
p7379
sbag5
(g6
g7
(lp7380
g5
(g6
g7
(lp7381
g5
(g6
g7
(lp7382
Vto
p7383
atp7384
Rp7385
(dp7386
g16
VTO
p7387
sbag5
(g6
g7
(lp7388
g5
(g6
g7
(lp7389
Vsay
p7390
atp7391
Rp7392
(dp7393
g16
VVB
p7394
sbag5
(g6
g7
(lp7395
g5
(g6
g7
(lp7396
Vabout
p7397
atp7398
Rp7399
(dp7400
g16
VRP
p7401
sbatp7402
Rp7403
(dp7404
g16
VPRT
p7405
sbag5
(g6
g7
(lp7406
g5
(g6
g7
(lp7407
Vit
p7408
atp7409
Rp7410
(dp7411
g16
VPRP
p7412
sbatp7413
Rp7414
(dp7415
g16
VNP
p7416
sbag5
(g6
g7
(lp7417
g5
(g6
g7
(lp7418
Vother
p7419
atp7420
Rp7421
(dp7422
g16
VJJ
p7423
sbag5
(g6
g7
(lp7424
g5
(g6
g7
(lp7425
Vthan
p7426
atp7427
Rp7428
(dp7429
g16
VIN
p7430
sbag5
(g6
g7
(lp7431
g5
(g6
g7
(lp7432
g5
(g6
g7
(lp7433
Vthe
p7434
atp7435
Rp7436
(dp7437
g16
VDT
p7438
sbag5
(g6
g7
(lp7439
Vthings
p7440
atp7441
Rp7442
(dp7443
g16
VNNS
p7444
sbatp7445
Rp7446
(dp7447
g16
VNP
p7448
sbag5
(g6
g7
(lp7449
g5
(g6
g7
(lp7450
g5
(g6
g7
(lp7451
Vwhich
p7452
atp7453
Rp7454
(dp7455
g16
VWDT
p7456
sbatp7457
Rp7458
(dp7459
g16
VWHNP
p7460
sbag5
(g6
g7
(lp7461
g5
(g6
g7
(lp7462
g5
(g6
g7
(lp7463
Vmay
p7464
atp7465
Rp7466
(dp7467
g16
VMD
p7468
sbag5
(g6
g7
(lp7469
g5
(g6
g7
(lp7470
Vbe
p7471
atp7472
Rp7473
(dp7474
g16
VVB
p7475
sbag5
(g6
g7
(lp7476
g5
(g6
g7
(lp7477
Vdeduced
p7478
atp7479
Rp7480
(dp7481
g16
VVBN
p7482
sbag5
(g6
g7
(lp7483
g5
(g6
g7
(lp7484
Vfrom
p7485
atp7486
Rp7487
(dp7488
g16
VIN
p7489
sbag5
(g6
g7
(lp7490
g5
(g6
g7
(lp7491
g5
(g6
g7
(lp7492
Vthe
p7493
atp7494
Rp7495
(dp7496
g16
VDT
p7497
sbag5
(g6
g7
(lp7498
Vform
p7499
atp7500
Rp7501
(dp7502
g16
VNN
p7503
sbatp7504
Rp7505
(dp7506
g16
VNP
p7507
sbag5
(g6
g7
(lp7508
g5
(g6
g7
(lp7509
Vof
p7510
atp7511
Rp7512
(dp7513
g16
VIN
p7514
sbag5
(g6
g7
(lp7515
g5
(g6
g7
(lp7516
Vits
p7517
atp7518
Rp7519
(dp7520
g16
VPRP$
p7521
sbag5
(g6
g7
(lp7522
Vname
p7523
atp7524
Rp7525
(dp7526
g16
VNN
p7527
sbatp7528
Rp7529
(dp7530
g16
VNP
p7531
sbatp7532
Rp7533
(dp7534
g16
VPP
p7535
sbatp7536
Rp7537
(dp7538
g16
VNP
p7539
sbatp7540
Rp7541
(dp7542
g16
VPP
p7543
sbatp7544
Rp7545
(dp7546
g16
VVP
p7547
sbatp7548
Rp7549
(dp7550
g16
VVP
p7551
sbatp7552
Rp7553
(dp7554
g16
VVP
p7555
sbatp7556
Rp7557
(dp7558
g16
g208
sbatp7559
Rp7560
(dp7561
g16
VSBAR
p7562
sbatp7563
Rp7564
(dp7565
g16
VNP
p7566
sbatp7567
Rp7568
(dp7569
g16
VPP
p7570
sbatp7571
Rp7572
(dp7573
g16
VADVP
p7574
sbatp7575
Rp7576
(dp7577
g16
VVP
p7578
sbatp7579
Rp7580
(dp7581
g16
VVP
p7582
sbatp7583
Rp7584
(dp7585
g16
g208
sbatp7586
Rp7587
(dp7588
g16
VNP
p7589
sbatp7590
Rp7591
(dp7592
g16
VVP
p7593
sbatp7594
Rp7595
(dp7596
g16
g208
sbatp7597
Rp7598
(dp7599
g16
VSBAR
p7600
sbatp7601
Rp7602
(dp7603
g16
VVP
p7604
sbag5
(g6
g7
(lp7605
g241
atp7606
Rp7607
(dp7608
g16
g241
sbatp7609
Rp7610
(dp7611
g16
g208
sbatp7612
Rp7613
(dp7614
g16
VROOT
p7615
sbasg540
(icmyPackage
CorE
p7616
(dp7617
g543
(lp7618
(I0
I10
tp7619
a(I0
I31
tp7620
asg547
g5
(g6
g7
(lp7621
g7595
ag7607
atp7622
Rp7623
(dp7624
g16
g552
sbsbsg553
(icmyPackage
CorE
p7625
(dp7626
g543
(lp7627
(I0
I0
tp7628
a(I0
I8
tp7629
asg547
g5
(g6
g7
(lp7630
g7299
ag7304
ag7320
ag7327
ag7344
atp7631
Rp7632
(dp7633
g16
g552
sbsbsg563
(icmyPackage
pattern
p7634
(dp7635
g566
I0
sg567
I0
sg568
(lp7636
(lp7637
S'if'
p7638
aasg572
(lp7639
I1
aI1
aI1
asg574
(lp7640
S'An effective knowledge flow network enables a research team to be very powerful in generating new knowledge if every node can innovate and output new knowledge to appropriate members.'
p7641
asg577
I14
sg578
(lp7642
(lp7643
S'&R@Complete@'
p7644
aa(lp7645
S'&C@Complete@'
p7646
aasbsg588
(lp7647
(icmyPackage
Sent
p7648
(dp7649
g592
I2
sg593
I30
sg594
S'For our purposes, an entity is an object if we have something to say about it other than the things which may be deduced from the form of its name.'
p7650
sg596
I0
sg597
I87
sg547
(lp7651
g7613
asbasba(icmyPackage
CELink
p7652
(dp7653
g3
(lp7654
g5
(g6
g7
(lp7655
g5
(g6
g7
(lp7656
g5
(g6
g7
(lp7657
g5
(g6
g7
(lp7658
VOn
p7659
atp7660
Rp7661
(dp7662
g16
VIN
p7663
sbag5
(g6
g7
(lp7664
g5
(g6
g7
(lp7665
Vthe
p7666
atp7667
Rp7668
(dp7669
g16
VDT
p7670
sbag5
(g6
g7
(lp7671
Vother
p7672
atp7673
Rp7674
(dp7675
g16
VJJ
p7676
sbag5
(g6
g7
(lp7677
Vhand
p7678
atp7679
Rp7680
(dp7681
g16
VNN
p7682
sbatp7683
Rp7684
(dp7685
g16
VNP
p7686
sbatp7687
Rp7688
(dp7689
g16
VPP
p7690
sbag5
(g6
g7
(lp7691
g266
atp7692
Rp7693
(dp7694
g16
g266
sbag5
(g6
g7
(lp7695
g5
(g6
g7
(lp7696
Vto
p7697
atp7698
Rp7699
(dp7700
g16
VTO
p7701
sbag5
(g6
g7
(lp7702
g5
(g6
g7
(lp7703
Vmost
p7704
atp7705
Rp7706
(dp7707
g16
VJJS
p7708
sbag5
(g6
g7
(lp7709
VAmericans
p7710
atp7711
Rp7712
(dp7713
g16
VNNS
p7714
sbatp7715
Rp7716
(dp7717
g16
VNP
p7718
sbatp7719
Rp7720
(dp7721
g16
VPP
p7722
sbag5
(g6
g7
(lp7723
g5
(g6
g7
(lp7724
Vthe
p7725
atp7726
Rp7727
(dp7728
g16
VDT
p7729
sbag5
(g6
g7
(lp7730
Vnumber
p7731
atp7732
Rp7733
(dp7734
g16
VNN
p7735
sbag5
(g6
g7
(lp7736
V1776
p7737
atp7738
Rp7739
(dp7740
g16
VNNS
p7741
sbatp7742
Rp7743
(dp7744
g16
VNP
p7745
sbag5
(g6
g7
(lp7746
g5
(g6
g7
(lp7747
Vis
p7748
atp7749
Rp7750
(dp7751
g16
VVBZ
p7752
sbag5
(g6
g7
(lp7753
g5
(g6
g7
(lp7754
Van
p7755
atp7756
Rp7757
(dp7758
g16
VDT
p7759
sbag5
(g6
g7
(lp7760
Vobject
p7761
atp7762
Rp7763
(dp7764
g16
VNN
p7765
sbatp7766
Rp7767
(dp7768
g16
VNP
p7769
sbag5
(g6
g7
(lp7770
g5
(g6
g7
(lp7771
Vbecause
p7772
atp7773
Rp7774
(dp7775
g16
VIN
p7776
sbag5
(g6
g7
(lp7777
g5
(g6
g7
(lp7778
g5
(g6
g7
(lp7779
Vthey
p7780
atp7781
Rp7782
(dp7783
g16
VPRP
p7784
sbatp7785
Rp7786
(dp7787
g16
VNP
p7788
sbag5
(g6
g7
(lp7789
g5
(g6
g7
(lp7790
Vhave
p7791
atp7792
Rp7793
(dp7794
g16
VVBP
p7795
sbag5
(g6
g7
(lp7796
g5
(g6
g7
(lp7797
Vfiled
p7798
atp7799
Rp7800
(dp7801
g16
VVBN
p7802
sbag5
(g6
g7
(lp7803
g5
(g6
g7
(lp7804
Vsomewhere
p7805
atp7806
Rp7807
(dp7808
g16
VRB
p7809
sbag5
(g6
g7
(lp7810
g5
(g6
g7
(lp7811
Vthe
p7812
atp7813
Rp7814
(dp7815
g16
VDT
p7816
sbag5
(g6
g7
(lp7817
Vfact
p7818
atp7819
Rp7820
(dp7821
g16
VNN
p7822
sbatp7823
Rp7824
(dp7825
g16
VNP
p7826
sbatp7827
Rp7828
(dp7829
g16
VADVP
p7830
sbag5
(g6
g7
(lp7831
g5
(g6
g7
(lp7832
Vthat
p7833
atp7834
Rp7835
(dp7836
g16
VIN
p7837
sbag5
(g6
g7
(lp7838
g5
(g6
g7
(lp7839
g5
(g6
g7
(lp7840
Vit
p7841
atp7842
Rp7843
(dp7844
g16
VPRP
p7845
sbatp7846
Rp7847
(dp7848
g16
VNP
p7849
sbag5
(g6
g7
(lp7850
g5
(g6
g7
(lp7851
Vrepresents
p7852
atp7853
Rp7854
(dp7855
g16
VVBZ
p7856
sbag5
(g6
g7
(lp7857
g5
(g6
g7
(lp7858
g5
(g6
g7
(lp7859
Vthe
p7860
atp7861
Rp7862
(dp7863
g16
VDT
p7864
sbag5
(g6
g7
(lp7865
Vyear
p7866
atp7867
Rp7868
(dp7869
g16
VNN
p7870
sbatp7871
Rp7872
(dp7873
g16
VNP
p7874
sbag5
(g6
g7
(lp7875
g5
(g6
g7
(lp7876
g5
(g6
g7
(lp7877
Vwhen
p7878
atp7879
Rp7880
(dp7881
g16
VWRB
p7882
sbatp7883
Rp7884
(dp7885
g16
VWHADVP
p7886
sbag5
(g6
g7
(lp7887
g5
(g6
g7
(lp7888
g5
(g6
g7
(lp7889
Vthe
p7890
atp7891
Rp7892
(dp7893
g16
VDT
p7894
sbag5
(g6
g7
(lp7895
VAmerican
p7896
atp7897
Rp7898
(dp7899
g16
VJJ
p7900
sbag5
(g6
g7
(lp7901
VRevolution
p7902
atp7903
Rp7904
(dp7905
g16
VNN
p7906
sbatp7907
Rp7908
(dp7909
g16
VNP
p7910
sbag5
(g6
g7
(lp7911
g5
(g6
g7
(lp7912
Vstarted
p7913
atp7914
Rp7915
(dp7916
g16
VVBD
p7917
sbatp7918
Rp7919
(dp7920
g16
VVP
p7921
sbatp7922
Rp7923
(dp7924
g16
g208
sbatp7925
Rp7926
(dp7927
g16
VSBAR
p7928
sbatp7929
Rp7930
(dp7931
g16
VNP
p7932
sbatp7933
Rp7934
(dp7935
g16
VVP
p7936
sbatp7937
Rp7938
(dp7939
g16
g208
sbatp7940
Rp7941
(dp7942
g16
VSBAR
p7943
sbatp7944
Rp7945
(dp7946
g16
VVP
p7947
sbatp7948
Rp7949
(dp7950
g16
VVP
p7951
sbatp7952
Rp7953
(dp7954
g16
g208
sbatp7955
Rp7956
(dp7957
g16
VSBAR
p7958
sbatp7959
Rp7960
(dp7961
g16
VVP
p7962
sbag5
(g6
g7
(lp7963
g241
atp7964
Rp7965
(dp7966
g16
g241
sbatp7967
Rp7968
(dp7969
g16
g208
sbatp7970
Rp7971
(dp7972
g16
VROOT
p7973
sbasg540
(icmyPackage
CorE
p7974
(dp7975
g543
(lp7976
(I0
I15
tp7977
a(I0
I31
tp7978
asg547
g5
(g6
g7
(lp7979
g7953
ag7965
atp7980
Rp7981
(dp7982
g16
g552
sbsbsg553
(icmyPackage
CorE
p7983
(dp7984
g543
(lp7985
(I0
I0
tp7986
a(I0
I13
tp7987
asg547
g5
(g6
g7
(lp7988
g7688
ag7693
ag7720
ag7743
ag7750
ag7767
atp7989
Rp7990
(dp7991
g16
g552
sbsbsg563
g5109
sg588
(lp7992
(icmyPackage
Sent
p7993
(dp7994
g592
I2
sg593
I30
sg594
S'On the other hand, to most Americans the number 1776 is an object because they have filed somewhere the fact that it represents the year when the American Revolution started.'
p7995
sg596
I0
sg597
I90
sg547
(lp7996
g7971
asbasba(icmyPackage
CELink
p7997
(dp7998
g3
(lp7999
g5
(g6
g7
(lp8000
g5
(g6
g7
(lp8001
g5
(g6
g7
(lp8002
g5
(g6
g7
(lp8003
g5
(g6
g7
(lp8004
VSome
p8005
atp8006
Rp8007
(dp8008
g16
VDT
p8009
sbag5
(g6
g7
(lp8010
Vthings
p8011
atp8012
Rp8013
(dp8014
g16
VNNS
p8015
sbatp8016
Rp8017
(dp8018
g16
VNP
p8019
sbag5
(g6
g7
(lp8020
g5
(g6
g7
(lp8021
g5
(g6
g7
(lp8022
Vwhich
p8023
atp8024
Rp8025
(dp8026
g16
VWDT
p8027
sbatp8028
Rp8029
(dp8030
g16
VWHNP
p8031
sbag5
(g6
g7
(lp8032
g5
(g6
g7
(lp8033
g5
(g6
g7
(lp8034
Vcan
p8035
atp8036
Rp8037
(dp8038
g16
VMD
p8039
sbag5
(g6
g7
(lp8040
g5
(g6
g7
(lp8041
Vbe
p8042
atp8043
Rp8044
(dp8045
g16
VVB
p8046
sbag5
(g6
g7
(lp8047
g5
(g6
g7
(lp8048
Vdeduced
p8049
atp8050
Rp8051
(dp8052
g16
VVBN
p8053
sbag5
(g6
g7
(lp8054
g5
(g6
g7
(lp8055
Vfrom
p8056
atp8057
Rp8058
(dp8059
g16
VIN
p8060
sbag5
(g6
g7
(lp8061
g5
(g6
g7
(lp8062
g5
(g6
g7
(lp8063
Vthe
p8064
atp8065
Rp8066
(dp8067
g16
VDT
p8068
sbag5
(g6
g7
(lp8069
Vname
p8070
atp8071
Rp8072
(dp8073
g16
VNN
p8074
sbatp8075
Rp8076
(dp8077
g16
VNP
p8078
sbag5
(g6
g7
(lp8079
g5
(g6
g7
(lp8080
Vof
p8081
atp8082
Rp8083
(dp8084
g16
VIN
p8085
sbag5
(g6
g7
(lp8086
g5
(g6
g7
(lp8087
Vthe
p8088
atp8089
Rp8090
(dp8091
g16
VDT
p8092
sbag5
(g6
g7
(lp8093
Vobject
p8094
atp8095
Rp8096
(dp8097
g16
VNN
p8098
sbatp8099
Rp8100
(dp8101
g16
VNP
p8102
sbatp8103
Rp8104
(dp8105
g16
VPP
p8106
sbatp8107
Rp8108
(dp8109
g16
VNP
p8110
sbatp8111
Rp8112
(dp8113
g16
VPP
p8114
sbatp8115
Rp8116
(dp8117
g16
VVP
p8118
sbatp8119
Rp8120
(dp8121
g16
VVP
p8122
sbatp8123
Rp8124
(dp8125
g16
VVP
p8126
sbatp8127
Rp8128
(dp8129
g16
g208
sbatp8130
Rp8131
(dp8132
g16
VSBAR
p8133
sbatp8134
Rp8135
(dp8136
g16
VNP
p8137
sbag5
(g6
g7
(lp8138
g5
(g6
g7
(lp8139
g5
(g6
g7
(lp8140
Vmay
p8141
atp8142
Rp8143
(dp8144
g16
VMD
p8145
sbag5
(g6
g7
(lp8146
g5
(g6
g7
(lp8147
Vbe
p8148
atp8149
Rp8150
(dp8151
g16
VVB
p8152
sbag5
(g6
g7
(lp8153
g5
(g6
g7
(lp8154
Vincluded
p8155
atp8156
Rp8157
(dp8158
g16
VVBN
p8159
sbag5
(g6
g7
(lp8160
g5
(g6
g7
(lp8161
Vin
p8162
atp8163
Rp8164
(dp8165
g16
VIN
p8166
sbag5
(g6
g7
(lp8167
g5
(g6
g7
(lp8168
Vthe
p8169
atp8170
Rp8171
(dp8172
g16
VDT
p8173
sbag5
(g6
g7
(lp8174
Vproperty
p8175
atp8176
Rp8177
(dp8178
g16
VNN
p8179
sbag5
(g6
g7
(lp8180
Vlist
p8181
atp8182
Rp8183
(dp8184
g16
VNN
p8185
sbag5
(g6
g7
(lp8186
Vanyhow
p8187
atp8188
Rp8189
(dp8190
g16
VNN
p8191
sbatp8192
Rp8193
(dp8194
g16
VNP
p8195
sbatp8196
Rp8197
(dp8198
g16
VPP
p8199
sbag5
(g6
g7
(lp8200
g5
(g6
g7
(lp8201
Vif
p8202
atp8203
Rp8204
(dp8205
g16
VIN
p8206
sbag5
(g6
g7
(lp8207
g5
(g6
g7
(lp8208
g5
(g6
g7
(lp8209
Vthe
p8210
atp8211
Rp8212
(dp8213
g16
VDT
p8214
sbag5
(g6
g7
(lp8215
Vdeduction
p8216
atp8217
Rp8218
(dp8219
g16
VNN
p8220
sbatp8221
Rp8222
(dp8223
g16
VNP
p8224
sbag5
(g6
g7
(lp8225
g5
(g6
g7
(lp8226
Vwas
p8227
atp8228
Rp8229
(dp8230
g16
VVBD
p8231
sbag5
(g6
g7
(lp8232
g5
(g6
g7
(lp8233
Vactually
p8234
atp8235
Rp8236
(dp8237
g16
VRB
p8238
sbatp8239
Rp8240
(dp8241
g16
VADVP
p8242
sbag5
(g6
g7
(lp8243
g5
(g6
g7
(lp8244
Vcarried
p8245
atp8246
Rp8247
(dp8248
g16
VVBN
p8249
sbag5
(g6
g7
(lp8250
g5
(g6
g7
(lp8251
Vout
p8252
atp8253
Rp8254
(dp8255
g16
VRP
p8256
sbatp8257
Rp8258
(dp8259
g16
VPRT
p8260
sbatp8261
Rp8262
(dp8263
g16
VVP
p8264
sbatp8265
Rp8266
(dp8267
g16
VVP
p8268
sbatp8269
Rp8270
(dp8271
g16
g208
sbatp8272
Rp8273
(dp8274
g16
VSBAR
p8275
sbatp8276
Rp8277
(dp8278
g16
VVP
p8279
sbatp8280
Rp8281
(dp8282
g16
VVP
p8283
sbatp8284
Rp8285
(dp8286
g16
VVP
p8287
sbag5
(g6
g7
(lp8288
Vand
p8289
atp8290
Rp8291
(dp8292
g16
VCC
p8293
sbag5
(g6
g7
(lp8294
g5
(g6
g7
(lp8295
Vwas
p8296
atp8297
Rp8298
(dp8299
g16
VVBD
p8300
sbag5
(g6
g7
(lp8301
g5
(g6
g7
(lp8302
Vdifficult
p8303
atp8304
Rp8305
(dp8306
g16
VJJ
p8307
sbatp8308
Rp8309
(dp8310
g16
VADJP
p8311
sbag5
(g6
g7
(lp8312
g5
(g6
g7
(lp8313
g5
(g6
g7
(lp8314
Venough
p8315
atp8316
Rp8317
(dp8318
g16
VRB
p8319
sbag5
(g6
g7
(lp8320
Vso
p8321
atp8322
Rp8323
(dp8324
g16
VRB
p8325
sbatp8326
Rp8327
(dp8328
g16
VADVP
p8329
sbag5
(g6
g7
(lp8330
Vthat
p8331
atp8332
Rp8333
(dp8334
g16
VIN
p8335
sbag5
(g6
g7
(lp8336
g5
(g6
g7
(lp8337
g5
(g6
g7
(lp8338
Vthe
p8339
atp8340
Rp8341
(dp8342
g16
VDT
p8343
sbag5
(g6
g7
(lp8344
Vsystem
p8345
atp8346
Rp8347
(dp8348
g16
VNN
p8349
sbatp8350
Rp8351
(dp8352
g16
VNP
p8353
sbag5
(g6
g7
(lp8354
g5
(g6
g7
(lp8355
Vdoes
p8356
atp8357
Rp8358
(dp8359
g16
VVBZ
p8360
sbag5
(g6
g7
(lp8361
Vnot
p8362
atp8363
Rp8364
(dp8365
g16
VRB
p8366
sbag5
(g6
g7
(lp8367
g5
(g6
g7
(lp8368
Vwant
p8369
atp8370
Rp8371
(dp8372
g16
VVB
p8373
sbag5
(g6
g7
(lp8374
g5
(g6
g7
(lp8375
g5
(g6
g7
(lp8376
Vto
p8377
atp8378
Rp8379
(dp8380
g16
VTO
p8381
sbag5
(g6
g7
(lp8382
g5
(g6
g7
(lp8383
Vcarry
p8384
atp8385
Rp8386
(dp8387
g16
VVB
p8388
sbag5
(g6
g7
(lp8389
g5
(g6
g7
(lp8390
Vit
p8391
atp8392
Rp8393
(dp8394
g16
VPRP
p8395
sbatp8396
Rp8397
(dp8398
g16
VNP
p8399
sbag5
(g6
g7
(lp8400
g5
(g6
g7
(lp8401
Vout
p8402
atp8403
Rp8404
(dp8405
g16
VRP
p8406
sbatp8407
Rp8408
(dp8409
g16
VPRT
p8410
sbag5
(g6
g7
(lp8411
g5
(g6
g7
(lp8412
Vagain
p8413
atp8414
Rp8415
(dp8416
g16
VRB
p8417
sbatp8418
Rp8419
(dp8420
g16
VADVP
p8421
sbatp8422
Rp8423
(dp8424
g16
VVP
p8425
sbatp8426
Rp8427
(dp8428
g16
VVP
p8429
sbatp8430
Rp8431
(dp8432
g16
g208
sbatp8433
Rp8434
(dp8435
g16
VVP
p8436
sbatp8437
Rp8438
(dp8439
g16
VVP
p8440
sbatp8441
Rp8442
(dp8443
g16
g208
sbatp8444
Rp8445
(dp8446
g16
VSBAR
p8447
sbatp8448
Rp8449
(dp8450
g16
VVP
p8451
sbatp8452
Rp8453
(dp8454
g16
VVP
p8455
sbag5
(g6
g7
(lp8456
g241
atp8457
Rp8458
(dp8459
g16
g241
sbatp8460
Rp8461
(dp8462
g16
g208
sbatp8463
Rp8464
(dp8465
g16
VROOT
p8466
sbasg540
(icmyPackage
CorE
p8467
(dp8468
g543
(lp8469
(I0
I0
tp8470
a(I0
I30
tp8471
asg547
g5
(g6
g7
(lp8472
g8135
ag8285
ag8291
ag8298
ag8309
ag8317
atp8473
Rp8474
(dp8475
g16
g552
sbsbsg553
(icmyPackage
CorE
p8476
(dp8477
g543
(lp8478
(I0
I33
tp8479
a(I0
I43
tp8480
asg547
g5
(g6
g7
(lp8481
g8442
ag8458
atp8482
Rp8483
(dp8484
g16
g552
sbsbsg563
g6252
sg588
(lp8485
(icmyPackage
Sent
p8486
(dp8487
g592
I2
sg593
I30
sg594
S'Some things which can be deduced from the name of the object may be included in the property list anyhow if the deduction was actually carried out and was difficult enough so that the system does not want to carry it out again.'
p8488
sg596
I0
sg597
I92
sg547
(lp8489
g8464
asbasba(icmyPackage
CELink
p8490
(dp8491
g3
(lp8492
g8474
asg540
(icmyPackage
CorE
p8493
(dp8494
g543
(lp8495
(I0
I21
tp8496
a(I0
I30
tp8497
asg547
g5
(g6
g7
(lp8498
g8270
ag8291
ag8298
ag8309
ag8317
atp8499
Rp8500
(dp8501
g16
g552
sbsbsg553
(icmyPackage
CorE
p8502
(dp8503
g543
(lp8504
(I0
I0
tp8505
a(I0
I19
tp8506
asg547
g5
(g6
g7
(lp8507
g8135
ag8143
ag8150
ag8157
ag8197
atp8508
Rp8509
(dp8510
g16
g552
sbsbsg563
g7634
sg588
(lp8511
g8486
asba(icmyPackage
CELink
p8512
(dp8513
g3
(lp8514
g5
(g6
g7
(lp8515
g5
(g6
g7
(lp8516
g5
(g6
g7
(lp8517
g5
(g6
g7
(lp8518
Vthey
p8519
atp8520
Rp8521
(dp8522
g16
VPRP
p8523
sbatp8524
Rp8525
(dp8526
g16
VNP
p8527
sbag5
(g6
g7
(lp8528
g5
(g6
g7
(lp8529
Vare
p8530
atp8531
Rp8532
(dp8533
g16
VVBP
p8534
sbag5
(g6
g7
(lp8535
g5
(g6
g7
(lp8536
Vobviously
p8537
atp8538
Rp8539
(dp8540
g16
VRB
p8541
sbatp8542
Rp8543
(dp8544
g16
VADVP
p8545
sbag5
(g6
g7
(lp8546
Vnot
p8547
atp8548
Rp8549
(dp8550
g16
VRB
p8551
sbag5
(g6
g7
(lp8552
g5
(g6
g7
(lp8553
Vcompletely
p8554
atp8555
Rp8556
(dp8557
g16
VRB
p8558
sbag5
(g6
g7
(lp8559
Vseparate
p8560
atp8561
Rp8562
(dp8563
g16
VJJ
p8564
sbag5
(g6
g7
(lp8565
g5
(g6
g7
(lp8566
Vsince
p8567
atp8568
Rp8569
(dp8570
g16
VIN
p8571
sbag5
(g6
g7
(lp8572
g5
(g6
g7
(lp8573
g5
(g6
g7
(lp8574
g5
(g6
g7
(lp8575
Vsome
p8576
atp8577
Rp8578
(dp8579
g16
VDT
p8580
sbatp8581
Rp8582
(dp8583
g16
VNP
p8584
sbag5
(g6
g7
(lp8585
g5
(g6
g7
(lp8586
Vof
p8587
atp8588
Rp8589
(dp8590
g16
VIN
p8591
sbag5
(g6
g7
(lp8592
g5
(g6
g7
(lp8593
Vthe
p8594
atp8595
Rp8596
(dp8597
g16
VDT
p8598
sbag5
(g6
g7
(lp8599
Vdeductions
p8600
atp8601
Rp8602
(dp8603
g16
VNNS
p8604
sbatp8605
Rp8606
(dp8607
g16
VNP
p8608
sbatp8609
Rp8610
(dp8611
g16
VPP
p8612
sbatp8613
Rp8614
(dp8615
g16
VNP
p8616
sbag5
(g6
g7
(lp8617
g5
(g6
g7
(lp8618
Vmight
p8619
atp8620
Rp8621
(dp8622
g16
VMD
p8623
sbag5
(g6
g7
(lp8624
g5
(g6
g7
(lp8625
Vbe
p8626
atp8627
Rp8628
(dp8629
g16
VVB
p8630
sbag5
(g6
g7
(lp8631
g5
(g6
g7
(lp8632
Vmade
p8633
atp8634
Rp8635
(dp8636
g16
VVBN
p8637
sbag5
(g6
g7
(lp8638
g5
(g6
g7
(lp8639
Vbefore
p8640
atp8641
Rp8642
(dp8643
g16
VIN
p8644
sbag5
(g6
g7
(lp8645
g5
(g6
g7
(lp8646
g5
(g6
g7
(lp8647
g5
(g6
g7
(lp8648
Vsome
p8649
atp8650
Rp8651
(dp8652
g16
VDT
p8653
sbatp8654
Rp8655
(dp8656
g16
VNP
p8657
sbag5
(g6
g7
(lp8658
g5
(g6
g7
(lp8659
Vof
p8660
atp8661
Rp8662
(dp8663
g16
VIN
p8664
sbag5
(g6
g7
(lp8665
g5
(g6
g7
(lp8666
Vthe
p8667
atp8668
Rp8669
(dp8670
g16
VDT
p8671
sbag5
(g6
g7
(lp8672
Vpremises
p8673
atp8674
Rp8675
(dp8676
g16
VNNS
p8677
sbatp8678
Rp8679
(dp8680
g16
VNP
p8681
sbatp8682
Rp8683
(dp8684
g16
VPP
p8685
sbatp8686
Rp8687
(dp8688
g16
VNP
p8689
sbag5
(g6
g7
(lp8690
g5
(g6
g7
(lp8691
Vare
p8692
atp8693
Rp8694
(dp8695
g16
VVBP
p8696
sbag5
(g6
g7
(lp8697
g5
(g6
g7
(lp8698
Vcollected
p8699
atp8700
Rp8701
(dp8702
g16
VVBN
p8703
sbatp8704
Rp8705
(dp8706
g16
VVP
p8707
sbatp8708
Rp8709
(dp8710
g16
VVP
p8711
sbatp8712
Rp8713
(dp8714
g16
g208
sbatp8715
Rp8716
(dp8717
g16
VSBAR
p8718
sbatp8719
Rp8720
(dp8721
g16
VVP
p8722
sbatp8723
Rp8724
(dp8725
g16
VVP
p8726
sbatp8727
Rp8728
(dp8729
g16
VVP
p8730
sbatp8731
Rp8732
(dp8733
g16
g208
sbatp8734
Rp8735
(dp8736
g16
VSBAR
p8737
sbatp8738
Rp8739
(dp8740
g16
VADJP
p8741
sbatp8742
Rp8743
(dp8744
g16
VVP
p8745
sbag5
(g6
g7
(lp8746
g241
atp8747
Rp8748
(dp8749
g16
g241
sbatp8750
Rp8751
(dp8752
g16
g208
sbatp8753
Rp8754
(dp8755
g16
VROOT
p8756
sbasg540
(icmyPackage
CorE
p8757
(dp8758
g543
(lp8759
(I0
I7
tp8760
a(I0
I21
tp8761
asg547
g5
(g6
g7
(lp8762
g8732
ag8748
atp8763
Rp8764
(dp8765
g16
g552
sbsbsg553
(icmyPackage
CorE
p8766
(dp8767
g543
(lp8768
(I0
I0
tp8769
a(I0
I5
tp8770
asg547
g5
(g6
g7
(lp8771
g8525
ag8532
ag8543
ag8549
ag8556
ag8562
atp8772
Rp8773
(dp8774
g16
g552
sbsbsg563
(icmyPackage
pattern
p8775
(dp8776
g566
I23
sg567
I1
sg568
(lp8777
(lp8778
S'since'
p8779
aasg572
(lp8780
I3
aI1
aI1
asg574
(lp8781
S'This is one of the simplest cases since the surface is so thin.'
p8782
aS'He could not answer the question, since he had not made up his mind.'
p8783
aS'That manager has been a basket case here since his wife left him.'
p8784
asg577
I79
sg578
(lp8785
(lp8786
S'&R@NCTime@'
p8787
aS'(,)'
p8788
aa(lp8789
S'&C@NCTime@'
p8790
aasbsg588
(lp8791
(icmyPackage
Sent
p8792
(dp8793
g592
I2
sg593
I73
sg594
S'they are obviously not completely separate since some of the deductions might be made before some of the premises are collected.'
p8794
sg596
I0
sg597
I155
sg547
(lp8795
g8754
asbasba(icmyPackage
CELink
p8796
(dp8797
g3
(lp8798
g5
(g6
g7
(lp8799
g5
(g6
g7
(lp8800
g5
(g6
g7
(lp8801
g5
(g6
g7
(lp8802
VThat
p8803
atp8804
Rp8805
(dp8806
g16
VDT
p8807
sbag5
(g6
g7
(lp8808
Vis
p8809
atp8810
Rp8811
(dp8812
g16
VVBZ
p8813
sbatp8814
Rp8815
(dp8816
g16
VINTJ
p8817
sbag5
(g6
g7
(lp8818
g266
atp8819
Rp8820
(dp8821
g16
g266
sbag5
(g6
g7
(lp8822
g5
(g6
g7
(lp8823
g5
(g6
g7
(lp8824
g5
(g6
g7
(lp8825
Vnone
p8826
atp8827
Rp8828
(dp8829
g16
VNN
p8830
sbatp8831
Rp8832
(dp8833
g16
VNP
p8834
sbag5
(g6
g7
(lp8835
g5
(g6
g7
(lp8836
Vof
p8837
atp8838
Rp8839
(dp8840
g16
VIN
p8841
sbag5
(g6
g7
(lp8842
g5
(g6
g7
(lp8843
Vthem
p8844
atp8845
Rp8846
(dp8847
g16
VPRP
p8848
sbatp8849
Rp8850
(dp8851
g16
VNP
p8852
sbatp8853
Rp8854
(dp8855
g16
VPP
p8856
sbatp8857
Rp8858
(dp8859
g16
VNP
p8860
sbag5
(g6
g7
(lp8861
g5
(g6
g7
(lp8862
Vare
p8863
atp8864
Rp8865
(dp8866
g16
VVBP
p8867
sbag5
(g6
g7
(lp8868
g5
(g6
g7
(lp8869
Vso
p8870
atp8871
Rp8872
(dp8873
g16
VRB
p8874
sbag5
(g6
g7
(lp8875
Vspecific
p8876
atp8877
Rp8878
(dp8879
g16
VJJ
p8880
sbag5
(g6
g7
(lp8881
g5
(g6
g7
(lp8882
Vto
p8883
atp8884
Rp8885
(dp8886
g16
VTO
p8887
sbag5
(g6
g7
(lp8888
g5
(g6
g7
(lp8889
g5
(g6
g7
(lp8890
Vthe
p8891
atp8892
Rp8893
(dp8894
g16
VDT
p8895
sbag5
(g6
g7
(lp8896
Vproblem
p8897
atp8898
Rp8899
(dp8900
g16
VNN
p8901
sbatp8902
Rp8903
(dp8904
g16
VNP
p8905
sbag5
(g6
g7
(lp8906
g5
(g6
g7
(lp8907
Vat
p8908
atp8909
Rp8910
(dp8911
g16
VIN
p8912
sbag5
(g6
g7
(lp8913
g5
(g6
g7
(lp8914
Vhand
p8915
atp8916
Rp8917
(dp8918
g16
VNN
p8919
sbatp8920
Rp8921
(dp8922
g16
VNP
p8923
sbatp8924
Rp8925
(dp8926
g16
VPP
p8927
sbatp8928
Rp8929
(dp8930
g16
VNP
p8931
sbatp8932
Rp8933
(dp8934
g16
VPP
p8935
sbatp8936
Rp8937
(dp8938
g16
VADJP
p8939
sbag5
(g6
g7
(lp8940
g5
(g6
g7
(lp8941
Vthat
p8942
atp8943
Rp8944
(dp8945
g16
VIN
p8946
sbag5
(g6
g7
(lp8947
g5
(g6
g7
(lp8948
g5
(g6
g7
(lp8949
g5
(g6
g7
(lp8950
Vassuming
p8951
atp8952
Rp8953
(dp8954
g16
VVBG
p8955
sbag5
(g6
g7
(lp8956
g5
(g6
g7
(lp8957
Vtheir
p8958
atp8959
Rp8960
(dp8961
g16
VPRP$
p8962
sbag5
(g6
g7
(lp8963
Vpresence
p8964
atp8965
Rp8966
(dp8967
g16
VNN
p8968
sbatp8969
Rp8970
(dp8971
g16
VNP
p8972
sbag5
(g6
g7
(lp8973
g5
(g6
g7
(lp8974
Vin
p8975
atp8976
Rp8977
(dp8978
g16
VIN
p8979
sbag5
(g6
g7
(lp8980
g5
(g6
g7
(lp8981
Vmemory
p8982
atp8983
Rp8984
(dp8985
g16
VNN
p8986
sbatp8987
Rp8988
(dp8989
g16
VNP
p8990
sbatp8991
Rp8992
(dp8993
g16
VPP
p8994
sbatp8995
Rp8996
(dp8997
g16
VVP
p8998
sbatp8999
Rp9000
(dp9001
g16
g208
sbag5
(g6
g7
(lp9002
g5
(g6
g7
(lp9003
Vconstitutes
p9004
atp9005
Rp9006
(dp9007
g16
VVBZ
p9008
sbag5
(g6
g7
(lp9009
g5
(g6
g7
(lp9010
g5
(g6
g7
(lp9011
Van
p9012
atp9013
Rp9014
(dp9015
g16
VDT
p9016
sbag5
(g6
g7
(lp9017
Vanticipation
p9018
atp9019
Rp9020
(dp9021
g16
VNN
p9022
sbatp9023
Rp9024
(dp9025
g16
VNP
p9026
sbag5
(g6
g7
(lp9027
g5
(g6
g7
(lp9028
Vof
p9029
atp9030
Rp9031
(dp9032
g16
VIN
p9033
sbag5
(g6
g7
(lp9034
g5
(g6
g7
(lp9035
g5
(g6
g7
(lp9036
Vthis
p9037
atp9038
Rp9039
(dp9040
g16
VDT
p9041
sbag5
(g6
g7
(lp9042
Vparticular
p9043
atp9044
Rp9045
(dp9046
g16
VJJ
p9047
sbag5
(g6
g7
(lp9048
Vproblem
p9049
atp9050
Rp9051
(dp9052
g16
VNN
p9053
sbatp9054
Rp9055
(dp9056
g16
VNP
p9057
sbag5
(g6
g7
(lp9058
Vor
p9059
atp9060
Rp9061
(dp9062
g16
VCC
p9063
sbag5
(g6
g7
(lp9064
g5
(g6
g7
(lp9065
g5
(g6
g7
(lp9066
Vof
p9067
atp9068
Rp9069
(dp9070
g16
VIN
p9071
sbag5
(g6
g7
(lp9072
g5
(g6
g7
(lp9073
g5
(g6
g7
(lp9074
g127
atp9075
Rp9076
(dp9077
g16
VDT
p9078
sbag5
(g6
g7
(lp9079
Vclass
p9080
atp9081
Rp9082
(dp9083
g16
VNN
p9084
sbatp9085
Rp9086
(dp9087
g16
VNP
p9088
sbag5
(g6
g7
(lp9089
g5
(g6
g7
(lp9090
Vof
p9091
atp9092
Rp9093
(dp9094
g16
VIN
p9095
sbag5
(g6
g7
(lp9096
g5
(g6
g7
(lp9097
Vproblems
p9098
atp9099
Rp9100
(dp9101
g16
VNNS
p9102
sbatp9103
Rp9104
(dp9105
g16
VNP
p9106
sbatp9107
Rp9108
(dp9109
g16
VPP
p9110
sbatp9111
Rp9112
(dp9113
g16
VNP
p9114
sbatp9115
Rp9116
(dp9117
g16
VPP
p9118
sbag5
(g6
g7
(lp9119
g5
(g6
g7
(lp9120
Vnarrower
p9121
atp9122
Rp9123
(dp9124
g16
VJJR
p9125
sbatp9126
Rp9127
(dp9128
g16
VNP
p9129
sbag5
(g6
g7
(lp9130
g5
(g6
g7
(lp9131
Vthan
p9132
atp9133
Rp9134
(dp9135
g16
VIN
p9136
sbag5
(g6
g7
(lp9137
g5
(g6
g7
(lp9138
g5
(g6
g7
(lp9139
Vthose
p9140
atp9141
Rp9142
(dp9143
g16
VDT
p9144
sbatp9145
Rp9146
(dp9147
g16
VNP
p9148
sbag5
(g6
g7
(lp9149
g5
(g6
g7
(lp9150
g5
(g6
g7
(lp9151
Vwhich
p9152
atp9153
Rp9154
(dp9155
g16
VWDT
p9156
sbatp9157
Rp9158
(dp9159
g16
VWHNP
p9160
sbag5
(g6
g7
(lp9161
g5
(g6
g7
(lp9162
g5
(g6
g7
(lp9163
Vany
p9164
atp9165
Rp9166
(dp9167
g16
VDT
p9168
sbag5
(g6
g7
(lp9169
Vhuman
p9170
atp9171
Rp9172
(dp9173
g16
VNN
p9174
sbatp9175
Rp9176
(dp9177
g16
VNP
p9178
sbag5
(g6
g7
(lp9179
g5
(g6
g7
(lp9180
Vcan
p9181
atp9182
Rp9183
(dp9184
g16
VMD
p9185
sbag5
(g6
g7
(lp9186
g5
(g6
g7
(lp9187
Vexpect
p9188
atp9189
Rp9190
(dp9191
g16
VVB
p9192
sbag5
(g6
g7
(lp9193
g5
(g6
g7
(lp9194
g5
(g6
g7
(lp9195
Vto
p9196
atp9197
Rp9198
(dp9199
g16
VTO
p9200
sbag5
(g6
g7
(lp9201
g5
(g6
g7
(lp9202
Vhave
p9203
atp9204
Rp9205
(dp9206
g16
VVB
p9207
sbag5
(g6
g7
(lp9208
g5
(g6
g7
(lp9209
g5
(g6
g7
(lp9210
Vpreviously
p9211
atp9212
Rp9213
(dp9214
g16
VRB
p9215
sbatp9216
Rp9217
(dp9218
g16
VADVP
p9219
sbag5
(g6
g7
(lp9220
Vsolved
p9221
atp9222
Rp9223
(dp9224
g16
VVBN
p9225
sbatp9226
Rp9227
(dp9228
g16
VVP
p9229
sbatp9230
Rp9231
(dp9232
g16
VVP
p9233
sbatp9234
Rp9235
(dp9236
g16
VVP
p9237
sbatp9238
Rp9239
(dp9240
g16
g208
sbatp9241
Rp9242
(dp9243
g16
VVP
p9244
sbatp9245
Rp9246
(dp9247
g16
VVP
p9248
sbatp9249
Rp9250
(dp9251
g16
g208
sbatp9252
Rp9253
(dp9254
g16
VSBAR
p9255
sbatp9256
Rp9257
(dp9258
g16
VNP
p9259
sbatp9260
Rp9261
(dp9262
g16
VPP
p9263
sbatp9264
Rp9265
(dp9266
g16
VNP
p9267
sbatp9268
Rp9269
(dp9270
g16
VNP
p9271
sbatp9272
Rp9273
(dp9274
g16
VPP
p9275
sbatp9276
Rp9277
(dp9278
g16
VNP
p9279
sbatp9280
Rp9281
(dp9282
g16
VVP
p9283
sbatp9284
Rp9285
(dp9286
g16
g208
sbatp9287
Rp9288
(dp9289
g16
VSBAR
p9290
sbatp9291
Rp9292
(dp9293
g16
VVP
p9294
sbatp9295
Rp9296
(dp9297
g16
g208
sbag5
(g6
g7
(lp9298
g241
atp9299
Rp9300
(dp9301
g16
g241
sbatp9302
Rp9303
(dp9304
g16
g208
sbatp9305
Rp9306
(dp9307
g16
VROOT
p9308
sbasg540
(icmyPackage
CorE
p9309
(dp9310
g543
(lp9311
(I0
I0
tp9312
a(I0
I8
tp9313
asg547
g5
(g6
g7
(lp9314
g8815
ag8820
ag8858
ag8865
ag8872
ag8878
atp9315
Rp9316
(dp9317
g16
g552
sbsbsg553
(icmyPackage
CorE
p9318
(dp9319
g543
(lp9320
(I0
I15
tp9321
a(I0
I45
tp9322
asg547
g5
(g6
g7
(lp9323
g9285
ag9300
atp9324
Rp9325
(dp9326
g16
g552
sbsbsg563
(icmyPackage
pattern
p9327
(dp9328
g566
I47
sg567
I0
sg568
(lp9329
(lp9330
S'so'
p9331
aa(lp9332
S'that'
p9333
aasg572
(lp9334
I3
aI3
aI1
asg574
(lp9335
S'She got so angry that she ran after them.'
p9336
aS'My tooth was aching so much that I had to have it out.'
p9337
aS'She found them so overwhelming that she burst into tears.'
p9338
asg577
I82
sg578
(lp9339
(lp9340
S'&C'
p9341
aa(lp9342
S'&adj/&adv@C@'
p9343
aa(lp9344
S'&R'
p9345
aasbsg588
(lp9346
(icmyPackage
Sent
p9347
(dp9348
g592
I2
sg593
I74
sg594
S'That is, none of them are so specific to the problem at hand that assuming their presence in memory constitutes an anticipation of this particular problem or of a class of problems narrower than those which any human can expect to have previously solved.'
p9349
sg596
I0
sg597
I158
sg547
(lp9350
g9306
asbasba(icmyPackage
CELink
p9351
(dp9352
g3
(lp9353
g5
(g6
g7
(lp9354
g5
(g6
g7
(lp9355
g5
(g6
g7
(lp9356
g5
(g6
g7
(lp9357
VWe
p9358
atp9359
Rp9360
(dp9361
g16
VPRP
p9362
sbatp9363
Rp9364
(dp9365
g16
VNP
p9366
sbag5
(g6
g7
(lp9367
g5
(g6
g7
(lp9368
Vmust
p9369
atp9370
Rp9371
(dp9372
g16
VMD
p9373
sbag5
(g6
g7
(lp9374
g5
(g6
g7
(lp9375
Vimpose
p9376
atp9377
Rp9378
(dp9379
g16
VVB
p9380
sbag5
(g6
g7
(lp9381
g5
(g6
g7
(lp9382
Vthis
p9383
atp9384
Rp9385
(dp9386
g16
VDT
p9387
sbag5
(g6
g7
(lp9388
Vrequirement
p9389
atp9390
Rp9391
(dp9392
g16
VNN
p9393
sbatp9394
Rp9395
(dp9396
g16
VNP
p9397
sbag5
(g6
g7
(lp9398
g5
(g6
g7
(lp9399
Vif
p9400
atp9401
Rp9402
(dp9403
g16
VIN
p9404
sbag5
(g6
g7
(lp9405
g5
(g6
g7
(lp9406
g5
(g6
g7
(lp9407
Vwe
p9408
atp9409
Rp9410
(dp9411
g16
VPRP
p9412
sbatp9413
Rp9414
(dp9415
g16
VNP
p9416
sbag5
(g6
g7
(lp9417
g5
(g6
g7
(lp9418
Vare
p9419
atp9420
Rp9421
(dp9422
g16
VVBP
p9423
sbag5
(g6
g7
(lp9424
g5
(g6
g7
(lp9425
g5
(g6
g7
(lp9426
Vto
p9427
atp9428
Rp9429
(dp9430
g16
VTO
p9431
sbag5
(g6
g7
(lp9432
g5
(g6
g7
(lp9433
Vbe
p9434
atp9435
Rp9436
(dp9437
g16
VVB
p9438
sbag5
(g6
g7
(lp9439
g5
(g6
g7
(lp9440
Vable
p9441
atp9442
Rp9443
(dp9444
g16
VJJ
p9445
sbag5
(g6
g7
(lp9446
g5
(g6
g7
(lp9447
g5
(g6
g7
(lp9448
Vto
p9449
atp9450
Rp9451
(dp9452
g16
VTO
p9453
sbag5
(g6
g7
(lp9454
g5
(g6
g7
(lp9455
Vsay
p9456
atp9457
Rp9458
(dp9459
g16
VVB
p9460
sbag5
(g6
g7
(lp9461
g5
(g6
g7
(lp9462
Vthat
p9463
atp9464
Rp9465
(dp9466
g16
VIN
p9467
sbag5
(g6
g7
(lp9468
g5
(g6
g7
(lp9469
g5
(g6
g7
(lp9470
Vthe
p9471
atp9472
Rp9473
(dp9474
g16
VDT
p9475
sbag5
(g6
g7
(lp9476
Vadvice
p9477
atp9478
Rp9479
(dp9480
g16
VNN
p9481
sbag5
(g6
g7
(lp9482
Vtaker
p9483
atp9484
Rp9485
(dp9486
g16
VNN
p9487
sbatp9488
Rp9489
(dp9490
g16
VNP
p9491
sbag5
(g6
g7
(lp9492
g5
(g6
g7
(lp9493
Vexhibits
p9494
atp9495
Rp9496
(dp9497
g16
VVBZ
p9498
sbag5
(g6
g7
(lp9499
g5
(g6
g7
(lp9500
Vcommon
p9501
atp9502
Rp9503
(dp9504
g16
VJJ
p9505
sbag5
(g6
g7
(lp9506
Vsense
p9507
atp9508
Rp9509
(dp9510
g16
VNN
p9511
sbatp9512
Rp9513
(dp9514
g16
VNP
p9515
sbatp9516
Rp9517
(dp9518
g16
VVP
p9519
sbatp9520
Rp9521
(dp9522
g16
g208
sbatp9523
Rp9524
(dp9525
g16
VSBAR
p9526
sbatp9527
Rp9528
(dp9529
g16
VVP
p9530
sbatp9531
Rp9532
(dp9533
g16
VVP
p9534
sbatp9535
Rp9536
(dp9537
g16
g208
sbatp9538
Rp9539
(dp9540
g16
VADJP
p9541
sbatp9542
Rp9543
(dp9544
g16
VVP
p9545
sbatp9546
Rp9547
(dp9548
g16
VVP
p9549
sbatp9550
Rp9551
(dp9552
g16
g208
sbatp9553
Rp9554
(dp9555
g16
VVP
p9556
sbatp9557
Rp9558
(dp9559
g16
g208
sbatp9560
Rp9561
(dp9562
g16
VSBAR
p9563
sbatp9564
Rp9565
(dp9566
g16
VVP
p9567
sbatp9568
Rp9569
(dp9570
g16
VVP
p9571
sbag5
(g6
g7
(lp9572
g241
atp9573
Rp9574
(dp9575
g16
g241
sbatp9576
Rp9577
(dp9578
g16
g208
sbatp9579
Rp9580
(dp9581
g16
VROOT
p9582
sbasg540
(icmyPackage
CorE
p9583
(dp9584
g543
(lp9585
(I0
I6
tp9586
a(I0
I20
tp9587
asg547
g5
(g6
g7
(lp9588
g9558
ag9574
atp9589
Rp9590
(dp9591
g16
g552
sbsbsg553
(icmyPackage
CorE
p9592
(dp9593
g543
(lp9594
(I0
I0
tp9595
a(I0
I4
tp9596
asg547
g5
(g6
g7
(lp9597
g9364
ag9371
ag9378
ag9395
atp9598
Rp9599
(dp9600
g16
g552
sbsbsg563
g7634
sg588
(lp9601
(icmyPackage
Sent
p9602
(dp9603
g592
I2
sg593
I74
sg594
S'We must impose this requirement if we are to be able to say that the advice taker exhibits common sense.'
p9604
sg596
I0
sg597
I159
sg547
(lp9605
g9580
asbasba(icmyPackage
CELink
p9606
(dp9607
g3
(lp9608
g5
(g6
g7
(lp9609
g5
(g6
g7
(lp9610
g5
(g6
g7
(lp9611
V-LRB-
p9612
atp9613
Rp9614
(dp9615
g16
V-LRB-
p9616
sbag5
(g6
g7
(lp9617
g5
(g6
g7
(lp9618
VWe
p9619
atp9620
Rp9621
(dp9622
g16
VPRP
p9623
sbatp9624
Rp9625
(dp9626
g16
VNP
p9627
sbag5
(g6
g7
(lp9628
g5
(g6
g7
(lp9629
Vwrite
p9630
atp9631
Rp9632
(dp9633
g16
VVBP
p9634
sbag5
(g6
g7
(lp9635
g5
(g6
g7
(lp9636
Vthis
p9637
atp9638
Rp9639
(dp9640
g16
VDT
p9641
sbag5
(g6
g7
(lp9642
Vout
p9643
atp9644
Rp9645
(dp9646
g16
VIN
p9647
sbatp9648
Rp9649
(dp9650
g16
VADVP
p9651
sbag5
(g6
g7
(lp9652
g5
(g6
g7
(lp9653
Vin
p9654
atp9655
Rp9656
(dp9657
g16
VIN
p9658
sbag5
(g6
g7
(lp9659
g5
(g6
g7
(lp9660
VEnglish
p9661
atp9662
Rp9663
(dp9664
g16
VNNP
p9665
sbatp9666
Rp9667
(dp9668
g16
VNP
p9669
sbatp9670
Rp9671
(dp9672
g16
VPP
p9673
sbag5
(g6
g7
(lp9674
g5
(g6
g7
(lp9675
Vbecause
p9676
atp9677
Rp9678
(dp9679
g16
VIN
p9680
sbag5
(g6
g7
(lp9681
g5
(g6
g7
(lp9682
g5
(g6
g7
(lp9683
Vwe
p9684
atp9685
Rp9686
(dp9687
g16
VPRP
p9688
sbatp9689
Rp9690
(dp9691
g16
VNP
p9692
sbag5
(g6
g7
(lp9693
g5
(g6
g7
(lp9694
Vhave
p9695
atp9696
Rp9697
(dp9698
g16
VVBP
p9699
sbag5
(g6
g7
(lp9700
Vnot
p9701
atp9702
Rp9703
(dp9704
g16
VRB
p9705
sbag5
(g6
g7
(lp9706
g5
(g6
g7
(lp9707
Vyet
p9708
atp9709
Rp9710
(dp9711
g16
VRB
p9712
sbatp9713
Rp9714
(dp9715
g16
VADVP
p9716
sbag5
(g6
g7
(lp9717
g5
(g6
g7
(lp9718
Vsettled
p9719
atp9720
Rp9721
(dp9722
g16
VVBN
p9723
sbag5
(g6
g7
(lp9724
g5
(g6
g7
(lp9725
Von
p9726
atp9727
Rp9728
(dp9729
g16
VIN
p9730
sbag5
(g6
g7
(lp9731
g5
(g6
g7
(lp9732
g127
atp9733
Rp9734
(dp9735
g16
VDT
p9736
sbag5
(g6
g7
(lp9737
Vformalism
p9738
atp9739
Rp9740
(dp9741
g16
VNN
p9742
sbatp9743
Rp9744
(dp9745
g16
VNP
p9746
sbatp9747
Rp9748
(dp9749
g16
VPP
p9750
sbag5
(g6
g7
(lp9751
g5
(g6
g7
(lp9752
Vfor
p9753
atp9754
Rp9755
(dp9756
g16
VIN
p9757
sbag5
(g6
g7
(lp9758
g5
(g6
g7
(lp9759
g5
(g6
g7
(lp9760
Vrepresenting
p9761
atp9762
Rp9763
(dp9764
g16
VVBG
p9765
sbag5
(g6
g7
(lp9766
g5
(g6
g7
(lp9767
g5
(g6
g7
(lp9768
Vstatements
p9769
atp9770
Rp9771
(dp9772
g16
VNNS
p9773
sbatp9774
Rp9775
(dp9776
g16
VNP
p9777
sbag5
(g6
g7
(lp9778
g5
(g6
g7
(lp9779
Vof
p9780
atp9781
Rp9782
(dp9783
g16
VIN
p9784
sbag5
(g6
g7
(lp9785
g5
(g6
g7
(lp9786
Vthis
p9787
atp9788
Rp9789
(dp9790
g16
VDT
p9791
sbag5
(g6
g7
(lp9792
Vkind
p9793
atp9794
Rp9795
(dp9796
g16
VNN
p9797
sbatp9798
Rp9799
(dp9800
g16
VNP
p9801
sbatp9802
Rp9803
(dp9804
g16
VPP
p9805
sbatp9806
Rp9807
(dp9808
g16
VNP
p9809
sbatp9810
Rp9811
(dp9812
g16
VVP
p9813
sbatp9814
Rp9815
(dp9816
g16
g208
sbatp9817
Rp9818
(dp9819
g16
VPP
p9820
sbatp9821
Rp9822
(dp9823
g16
VVP
p9824
sbatp9825
Rp9826
(dp9827
g16
VVP
p9828
sbatp9829
Rp9830
(dp9831
g16
g208
sbatp9832
Rp9833
(dp9834
g16
VSBAR
p9835
sbatp9836
Rp9837
(dp9838
g16
VVP
p9839
sbag5
(g6
g7
(lp9840
V-RRB-
p9841
atp9842
Rp9843
(dp9844
g16
V-RRB-
p9845
sbag5
(g6
g7
(lp9846
g241
atp9847
Rp9848
(dp9849
g16
g241
sbatp9850
Rp9851
(dp9852
g16
g208
sbatp9853
Rp9854
(dp9855
g16
VROOT
p9856
sbasg540
(icmyPackage
CorE
p9857
(dp9858
g543
(lp9859
(I0
I8
tp9860
a(I0
I21
tp9861
asg547
g9830
sbsg553
(icmyPackage
CorE
p9862
(dp9863
g543
(lp9864
(I0
I0
tp9865
a(I0
I6
tp9866
asg547
g5
(g6
g7
(lp9867
g9614
ag9625
ag9632
ag9649
ag9671
atp9868
Rp9869
(dp9870
g16
g552
sbsbsg563
g5109
sg588
(lp9871
(icmyPackage
Sent
p9872
(dp9873
g592
I2
sg593
I75
sg594
S'(We write this out in English because we have not yet settled on a formalism for representing statements of this kind).'
p9874
sg596
I0
sg597
I165
sg547
(lp9875
g9854
asbasba(icmyPackage
CELink
p9876
(dp9877
g3
(lp9878
g9830
asg540
(icmyPackage
CorE
p9879
(dp9880
g543
(lp9881
(I0
I9
tp9882
a(I0
I13
tp9883
asg547
g9815
sbsg553
(icmyPackage
CorE
p9884
(dp9885
g543
(lp9886
(I0
I0
tp9887
a(I0
I7
tp9888
asg547
g5
(g6
g7
(lp9889
g9690
ag9697
ag9703
ag9714
ag9721
ag9748
atp9890
Rp9891
(dp9892
g16
g552
sbsbsg563
g796
sg588
(lp9893
g9872
asba(icmyPackage
CELink
p9894
(dp9895
g3
(lp9896
g5
(g6
g7
(lp9897
g5
(g6
g7
(lp9898
g5
(g6
g7
(lp9899
g5
(g6
g7
(lp9900
g5
(g6
g7
(lp9901
g5
(g6
g7
(lp9902
VLet
p9903
atp9904
Rp9905
(dp9906
g16
VVB
p9907
sbag5
(g6
g7
(lp9908
g5
(g6
g7
(lp9909
Vus
p9910
atp9911
Rp9912
(dp9913
g16
VPRP
p9914
sbatp9915
Rp9916
(dp9917
g16
VNP
p9918
sbatp9919
Rp9920
(dp9921
g16
VVP
p9922
sbatp9923
Rp9924
(dp9925
g16
g208
sbag5
(g6
g7
(lp9926
g5
(g6
g7
(lp9927
Vassume
p9928
atp9929
Rp9930
(dp9931
g16
VVBP
p9932
sbag5
(g6
g7
(lp9933
g5
(g6
g7
(lp9934
Vthat
p9935
atp9936
Rp9937
(dp9938
g16
VIN
p9939
sbag5
(g6
g7
(lp9940
g5
(g6
g7
(lp9941
g5
(g6
g7
(lp9942
Vit
p9943
atp9944
Rp9945
(dp9946
g16
VPRP
p9947
sbatp9948
Rp9949
(dp9950
g16
VNP
p9951
sbag5
(g6
g7
(lp9952
g5
(g6
g7
(lp9953
Vfails
p9954
atp9955
Rp9956
(dp9957
g16
VVBZ
p9958
sbag5
(g6
g7
(lp9959
g5
(g6
g7
(lp9960
g5
(g6
g7
(lp9961
Vin
p9962
atp9963
Rp9964
(dp9965
g16
VIN
p9966
sbatp9967
Rp9968
(dp9969
g16
VPP
p9970
sbatp9971
Rp9972
(dp9973
g16
VFRAG
p9974
sbag5
(g6
g7
(lp9975
g5
(g6
g7
(lp9976
g5
(g6
g7
(lp9977
g5
(g6
g7
(lp9978
Vthis
p9979
atp9980
Rp9981
(dp9982
g16
VDT
p9983
sbatp9984
Rp9985
(dp9986
g16
VNP
p9987
sbag5
(g6
g7
(lp9988
g5
(g6
g7
(lp9989
Vattempt
p9990
atp9991
Rp9992
(dp9993
g16
VVBP
p9994
sbag5
(g6
g7
(lp9995
g5
(g6
g7
(lp9996
Vbecause
p9997
atp9998
Rp9999
(dp10000
g16
VIN
p10001
sbag5
(g6
g7
(lp10002
g5
(g6
g7
(lp10003
g5
(g6
g7
(lp10004
V``
p10005
atp10006
Rp10007
(dp10008
g16
V``
p10009
sbag5
(g6
g7
(lp10010
Vwant
p10011
atp10012
Rp10013
(dp10014
g16
VVB
p10015
sbag5
(g6
g7
(lp10016
V-LRB-
p10017
atp10018
Rp10019
(dp10020
g16
V-LRB-
p10021
sbag5
(g6
g7
(lp10022
g5
(g6
g7
(lp10023
Vat
p10024
atp10025
Rp10026
(dp10027
g16
VIN
p10028
sbag5
(g6
g7
(lp10029
g5
(g6
g7
(lp10030
V-LRB-
p10031
atp10032
Rp10033
(dp10034
g16
V-LRB-
p10035
sbag5
(g6
g7
(lp10036
g5
(g6
g7
(lp10037
g3156
atp10038
Rp10039
(dp10040
g16
VPRP
p10041
sbatp10042
Rp10043
(dp10044
g16
VNP
p10045
sbag5
(g6
g7
(lp10046
g266
atp10047
Rp10048
(dp10049
g16
g266
sbag5
(g6
g7
(lp10050
g5
(g6
g7
(lp10051
Vairport
p10052
atp10053
Rp10054
(dp10055
g16
VNN
p10056
sbatp10057
Rp10058
(dp10059
g16
VNP
p10060
sbag5
(g6
g7
(lp10061
V-RRB-
p10062
atp10063
Rp10064
(dp10065
g16
V-RRB-
p10066
sbatp10067
Rp10068
(dp10069
g16
VPRN
p10070
sbatp10071
Rp10072
(dp10073
g16
VPP
p10074
sbatp10075
Rp10076
(dp10077
g16
VVP
p10078
sbatp10079
Rp10080
(dp10081
g16
VFRAG
p10082
sbatp10083
Rp10084
(dp10085
g16
VSBAR
p10086
sbatp10087
Rp10088
(dp10089
g16
VVP
p10090
sbatp10091
Rp10092
(dp10093
g16
g208
sbag5
(g6
g7
(lp10094
V-RRB-
p10095
atp10096
Rp10097
(dp10098
g16
V-RRB-
p10099
sbatp10100
Rp10101
(dp10102
g16
VPRN
p10103
sbatp10104
Rp10105
(dp10106
g16
VVP
p10107
sbatp10108
Rp10109
(dp10110
g16
g208
sbatp10111
Rp10112
(dp10113
g16
VSBAR
p10114
sbatp10115
Rp10116
(dp10117
g16
VVP
p10118
sbatp10119
Rp10120
(dp10121
g16
g208
sbag5
(g6
g7
(lp10122
V''
p10123
atp10124
Rp10125
(dp10126
g16
V''
p10127
sbag5
(g6
g7
(lp10128
g5
(g6
g7
(lp10129
g5
(g6
g7
(lp10130
Vdoes
p10131
atp10132
Rp10133
(dp10134
g16
VVBZ
p10135
sbag5
(g6
g7
(lp10136
Vnot
p10137
atp10138
Rp10139
(dp10140
g16
VRB
p10141
sbag5
(g6
g7
(lp10142
g5
(g6
g7
(lp10143
Vhave
p10144
atp10145
Rp10146
(dp10147
g16
VVB
p10148
sbag5
(g6
g7
(lp10149
g5
(g6
g7
(lp10150
g5
(g6
g7
(lp10151
Vthe
p10152
atp10153
Rp10154
(dp10155
g16
VDT
p10156
sbag5
(g6
g7
(lp10157
Vstatus
p10158
atp10159
Rp10160
(dp10161
g16
VNN
p10162
sbatp10163
Rp10164
(dp10165
g16
VNP
p10166
sbag5
(g6
g7
(lp10167
g5
(g6
g7
(lp10168
Vof
p10169
atp10170
Rp10171
(dp10172
g16
VIN
p10173
sbag5
(g6
g7
(lp10174
g5
(g6
g7
(lp10175
Van
p10176
atp10177
Rp10178
(dp10179
g16
VDT
p10180
sbag5
(g6
g7
(lp10181
Vobject
p10182
atp10183
Rp10184
(dp10185
g16
VNN
p10186
sbatp10187
Rp10188
(dp10189
g16
VNP
p10190
sbatp10191
Rp10192
(dp10193
g16
VPP
p10194
sbatp10195
Rp10196
(dp10197
g16
VNP
p10198
sbatp10199
Rp10200
(dp10201
g16
VVP
p10202
sbatp10203
Rp10204
(dp10205
g16
VVP
p10206
sbag5
(g6
g7
(lp10207
Vand
p10208
atp10209
Rp10210
(dp10211
g16
VCC
p10212
sbag5
(g6
g7
(lp10213
g5
(g6
g7
(lp10214
g5
(g6
g7
(lp10215
Vhence
p10216
atp10217
Rp10218
(dp10219
g16
VRB
p10220
sbatp10221
Rp10222
(dp10223
g16
VADVP
p10224
sbag5
(g6
g7
(lp10225
Vhas
p10226
atp10227
Rp10228
(dp10229
g16
VVBZ
p10230
sbag5
(g6
g7
(lp10231
g5
(g6
g7
(lp10232
Vno
p10233
atp10234
Rp10235
(dp10236
g16
VDT
p10237
sbag5
(g6
g7
(lp10238
Vproperty
p10239
atp10240
Rp10241
(dp10242
g16
VNN
p10243
sbag5
(g6
g7
(lp10244
Vlist
p10245
atp10246
Rp10247
(dp10248
g16
VNN
p10249
sbatp10250
Rp10251
(dp10252
g16
VNP
p10253
sbatp10254
Rp10255
(dp10256
g16
VVP
p10257
sbatp10258
Rp10259
(dp10260
g16
VVP
p10261
sbag5
(g6
g7
(lp10262
g241
atp10263
Rp10264
(dp10265
g16
g241
sbatp10266
Rp10267
(dp10268
g16
g208
sbatp10269
Rp10270
(dp10271
g16
VROOT
p10272
sbasg540
(icmyPackage
CorE
p10273
(dp10274
g543
(lp10275
(I0
I10
tp10276
a(I0
I15
tp10277
asg547
g5
(g6
g7
(lp10278
g10007
ag10013
ag10019
ag10026
ag10033
ag10043
atp10279
Rp10280
(dp10281
g16
g552
sbsbsg553
(icmyPackage
CorE
p10282
(dp10283
g543
(lp10284
(I0
I17
tp10285
a(I0
I35
tp10286
asg547
g5
(g6
g7
(lp10287
g10058
ag10064
ag10097
ag10125
ag10259
ag10264
atp10288
Rp10289
(dp10290
g16
g552
sbsbsg563
(icmyPackage
pattern
p10291
(dp10292
g566
I18
sg567
I0
sg568
(lp10293
(lp10294
S'because'
p10295
aa(lp10296
g3708
aasg572
(lp10297
I3
aI1
aI1
asg574
(lp10298
S'Because he was absent for two weeks, the other students in his class are ahead of him.'
p10299
asg577
I75
sg578
(lp10300
(lp10301
a(lp10302
S'&C'
p10303
aa(lp10304
S'&R'
p10305
aasbsg588
(lp10306
(icmyPackage
Sent
p10307
(dp10308
g592
I2
sg593
I75
sg594
S'Let us assume that it fails in this attempt because "want(at(I,airport))" does not have the status of an object and hence has no property list.'
p10309
sg596
I0
sg597
I170
sg547
(lp10310
g10270
asbasba(icmyPackage
CELink
p10311
(dp10312
g3
(lp10313
g10289
asg540
(icmyPackage
CorE
p10314
(dp10315
g543
(lp10316
(I0
I0
tp10317
a(I0
I11
tp10318
asg547
g5
(g6
g7
(lp10319
g10058
ag10064
ag10097
ag10125
ag10204
atp10320
Rp10321
(dp10322
g16
g552
sbsbsg553
(icmyPackage
CorE
p10323
(dp10324
g543
(lp10325
(I0
I14
tp10326
a(I0
I18
tp10327
asg547
g5
(g6
g7
(lp10328
g10228
ag10251
ag10264
atp10329
Rp10330
(dp10331
g16
g552
sbsbsg563
(icmyPackage
pattern
p10332
(dp10333
g566
I7
sg567
I1
sg568
(lp10334
(lp10335
S'hence'
p10336
aasg572
(lp10337
I1
aI1
aI1
asg574
(lp10338
S'Increase in temperature increases the rate of deposition and hence the heat loss to the surroundings should be prevented.'
p10339
asg577
I4
sg578
(lp10340
(lp10341
S'&C'
p10342
aS'(,/;/./--)'
p10343
aS'(&AND)'
p10344
aa(lp10345
S'(,)'
p10346
aS'&R'
p10347
aasbsg588
(lp10348
g10307
asba(icmyPackage
CELink
p10349
(dp10350
g3
(lp10351
g5
(g6
g7
(lp10352
g5
(g6
g7
(lp10353
g5
(g6
g7
(lp10354
g5
(g6
g7
(lp10355
V-LRB-
p10356
atp10357
Rp10358
(dp10359
g16
V-LRB-
p10360
sbag5
(g6
g7
(lp10361
g5
(g6
g7
(lp10362
VOne
p10363
atp10364
Rp10365
(dp10366
g16
VPRP
p10367
sbatp10368
Rp10369
(dp10370
g16
VNP
p10371
sbag5
(g6
g7
(lp10372
g5
(g6
g7
(lp10373
Vmight
p10374
atp10375
Rp10376
(dp10377
g16
VMD
p10378
sbag5
(g6
g7
(lp10379
g5
(g6
g7
(lp10380
g5
(g6
g7
(lp10381
Vexpect
p10382
atp10383
Rp10384
(dp10385
g16
VVB
p10386
sbag5
(g6
g7
(lp10387
g5
(g6
g7
(lp10388
Vthat
p10389
atp10390
Rp10391
(dp10392
g16
VIN
p10393
sbag5
(g6
g7
(lp10394
Vif
p10395
atp10396
Rp10397
(dp10398
g16
VIN
p10399
sbag5
(g6
g7
(lp10400
g5
(g6
g7
(lp10401
g5
(g6
g7
(lp10402
g5
(g6
g7
(lp10403
Vthe
p10404
atp10405
Rp10406
(dp10407
g16
VDT
p10408
sbag5
(g6
g7
(lp10409
Vproblem
p10410
atp10411
Rp10412
(dp10413
g16
VNN
p10414
sbatp10415
Rp10416
(dp10417
g16
VNP
p10418
sbag5
(g6
g7
(lp10419
g5
(g6
g7
(lp10420
Vof
p10421
atp10422
Rp10423
(dp10424
g16
VIN
p10425
sbag5
(g6
g7
(lp10426
g5
(g6
g7
(lp10427
g5
(g6
g7
(lp10428
Vgoing
p10429
atp10430
Rp10431
(dp10432
g16
VVBG
p10433
sbag5
(g6
g7
(lp10434
g5
(g6
g7
(lp10435
Vto
p10436
atp10437
Rp10438
(dp10439
g16
VTO
p10440
sbag5
(g6
g7
(lp10441
g5
(g6
g7
(lp10442
Vthe
p10443
atp10444
Rp10445
(dp10446
g16
VDT
p10447
sbag5
(g6
g7
(lp10448
Vairport
p10449
atp10450
Rp10451
(dp10452
g16
VNN
p10453
sbatp10454
Rp10455
(dp10456
g16
VNP
p10457
sbatp10458
Rp10459
(dp10460
g16
VPP
p10461
sbatp10462
Rp10463
(dp10464
g16
VVP
p10465
sbatp10466
Rp10467
(dp10468
g16
g208
sbatp10469
Rp10470
(dp10471
g16
VPP
p10472
sbatp10473
Rp10474
(dp10475
g16
VNP
p10476
sbag5
(g6
g7
(lp10477
g5
(g6
g7
(lp10478
Vhas
p10479
atp10480
Rp10481
(dp10482
g16
VVBZ
p10483
sbag5
(g6
g7
(lp10484
g5
(g6
g7
(lp10485
Varisen
p10486
atp10487
Rp10488
(dp10489
g16
VVBN
p10490
sbag5
(g6
g7
(lp10491
g5
(g6
g7
(lp10492
Vbefore
p10493
atp10494
Rp10495
(dp10496
g16
VRB
p10497
sbatp10498
Rp10499
(dp10500
g16
VADVP
p10501
sbatp10502
Rp10503
(dp10504
g16
VVP
p10505
sbatp10506
Rp10507
(dp10508
g16
VVP
p10509
sbatp10510
Rp10511
(dp10512
g16
g208
sbatp10513
Rp10514
(dp10515
g16
VSBAR
p10516
sbatp10517
Rp10518
(dp10519
g16
VVP
p10520
sbag5
(g6
g7
(lp10521
g266
atp10522
Rp10523
(dp10524
g16
g266
sbag5
(g6
g7
(lp10525
V``
p10526
atp10527
Rp10528
(dp10529
g16
V``
p10530
sbag5
(g6
g7
(lp10531
g5
(g6
g7
(lp10532
Vwant
p10533
atp10534
Rp10535
(dp10536
g16
VVB
p10537
sbag5
(g6
g7
(lp10538
V-LRB-
p10539
atp10540
Rp10541
(dp10542
g16
V-LRB-
p10543
sbag5
(g6
g7
(lp10544
g5
(g6
g7
(lp10545
Vat
p10546
atp10547
Rp10548
(dp10549
g16
VIN
p10550
sbag5
(g6
g7
(lp10551
g5
(g6
g7
(lp10552
V-LRB-
p10553
atp10554
Rp10555
(dp10556
g16
V-LRB-
p10557
sbag5
(g6
g7
(lp10558
g5
(g6
g7
(lp10559
g3156
atp10560
Rp10561
(dp10562
g16
VPRP
p10563
sbatp10564
Rp10565
(dp10566
g16
VNP
p10567
sbag5
(g6
g7
(lp10568
g266
atp10569
Rp10570
(dp10571
g16
g266
sbag5
(g6
g7
(lp10572
g5
(g6
g7
(lp10573
Vairport
p10574
atp10575
Rp10576
(dp10577
g16
VNN
p10578
sbatp10579
Rp10580
(dp10581
g16
VNP
p10582
sbag5
(g6
g7
(lp10583
V-RRB-
p10584
atp10585
Rp10586
(dp10587
g16
V-RRB-
p10588
sbatp10589
Rp10590
(dp10591
g16
VPRN
p10592
sbatp10593
Rp10594
(dp10595
g16
VPP
p10596
sbag5
(g6
g7
(lp10597
V-RRB-
p10598
atp10599
Rp10600
(dp10601
g16
V-RRB-
p10602
sbatp10603
Rp10604
(dp10605
g16
VVP
p10606
sbatp10607
Rp10608
(dp10609
g16
VVP
p10610
sbatp10611
Rp10612
(dp10613
g16
VVP
p10614
sbag5
(g6
g7
(lp10615
V''
p10616
atp10617
Rp10618
(dp10619
g16
V''
p10620
sbatp10621
Rp10622
(dp10623
g16
g208
sbag5
(g6
g7
(lp10624
g5
(g6
g7
(lp10625
g5
(g6
g7
(lp10626
g5
(g6
g7
(lp10627
Vwould
p10628
atp10629
Rp10630
(dp10631
g16
VMD
p10632
sbag5
(g6
g7
(lp10633
g5
(g6
g7
(lp10634
Vbe
p10635
atp10636
Rp10637
(dp10638
g16
VVB
p10639
sbatp10640
Rp10641
(dp10642
g16
VVP
p10643
sbatp10644
Rp10645
(dp10646
g16
VVP
p10647
sbag5
(g6
g7
(lp10648
g5
(g6
g7
(lp10649
Van
p10650
atp10651
Rp10652
(dp10653
g16
VDT
p10654
sbag5
(g6
g7
(lp10655
Vobject
p10656
atp10657
Rp10658
(dp10659
g16
VNN
p10660
sbatp10661
Rp10662
(dp10663
g16
VNP
p10664
sbatp10665
Rp10666
(dp10667
g16
VSINV
p10668
sbag5
(g6
g7
(lp10669
g266
atp10670
Rp10671
(dp10672
g16
g266
sbatp10673
Rp10674
(dp10675
g16
VPRN
p10676
sbag5
(g6
g7
(lp10677
Vbut
p10678
atp10679
Rp10680
(dp10681
g16
VCC
p10682
sbag5
(g6
g7
(lp10683
g5
(g6
g7
(lp10684
g5
(g6
g7
(lp10685
Vthis
p10686
atp10687
Rp10688
(dp10689
g16
VDT
p10690
sbatp10691
Rp10692
(dp10693
g16
VNP
p10694
sbag5
(g6
g7
(lp10695
g5
(g6
g7
(lp10696
Vmight
p10697
atp10698
Rp10699
(dp10700
g16
VMD
p10701
sbag5
(g6
g7
(lp10702
g5
(g6
g7
(lp10703
Vdepend
p10704
atp10705
Rp10706
(dp10707
g16
VVB
p10708
sbag5
(g6
g7
(lp10709
g5
(g6
g7
(lp10710
Von
p10711
atp10712
Rp10713
(dp10714
g16
VRP
p10715
sbatp10716
Rp10717
(dp10718
g16
VPRT
p10719
sbag5
(g6
g7
(lp10720
g5
(g6
g7
(lp10721
Vwhether
p10722
atp10723
Rp10724
(dp10725
g16
VIN
p10726
sbag5
(g6
g7
(lp10727
g5
(g6
g7
(lp10728
g5
(g6
g7
(lp10729
Vthere
p10730
atp10731
Rp10732
(dp10733
g16
VEX
p10734
sbatp10735
Rp10736
(dp10737
g16
VNP
p10738
sbag5
(g6
g7
(lp10739
g5
(g6
g7
(lp10740
Vwere
p10741
atp10742
Rp10743
(dp10744
g16
VVBD
p10745
sbag5
(g6
g7
(lp10746
g5
(g6
g7
(lp10747
Vroutines
p10748
atp10749
Rp10750
(dp10751
g16
VJJ
p10752
sbag5
(g6
g7
(lp10753
g5
(g6
g7
(lp10754
Vfor
p10755
atp10756
Rp10757
(dp10758
g16
VIN
p10759
sbag5
(g6
g7
(lp10760
g5
(g6
g7
(lp10761
g5
(g6
g7
(lp10762
Vgeneralizing
p10763
atp10764
Rp10765
(dp10766
g16
VVBG
p10767
sbag5
(g6
g7
(lp10768
g5
(g6
g7
(lp10769
g5
(g6
g7
(lp10770
Vprevious
p10771
atp10772
Rp10773
(dp10774
g16
VJJ
p10775
sbag5
(g6
g7
(lp10776
Vexperience
p10777
atp10778
Rp10779
(dp10780
g16
VNN
p10781
sbatp10782
Rp10783
(dp10784
g16
VNP
p10785
sbag5
(g6
g7
(lp10786
g5
(g6
g7
(lp10787
g5
(g6
g7
(lp10788
Vthat
p10789
atp10790
Rp10791
(dp10792
g16
VWDT
p10793
sbatp10794
Rp10795
(dp10796
g16
VWHNP
p10797
sbag5
(g6
g7
(lp10798
g5
(g6
g7
(lp10799
g5
(g6
g7
(lp10800
Vwould
p10801
atp10802
Rp10803
(dp10804
g16
VMD
p10805
sbag5
(g6
g7
(lp10806
g5
(g6
g7
(lp10807
Vallow
p10808
atp10809
Rp10810
(dp10811
g16
VVB
p10812
sbag5
(g6
g7
(lp10813
g5
(g6
g7
(lp10814
g5
(g6
g7
(lp10815
Vsomething
p10816
atp10817
Rp10818
(dp10819
g16
VNN
p10820
sbatp10821
Rp10822
(dp10823
g16
VNP
p10824
sbag5
(g6
g7
(lp10825
g5
(g6
g7
(lp10826
Vof
p10827
atp10828
Rp10829
(dp10830
g16
VIN
p10831
sbag5
(g6
g7
(lp10832
g5
(g6
g7
(lp10833
Vgeneral
p10834
atp10835
Rp10836
(dp10837
g16
VJJ
p10838
sbag5
(g6
g7
(lp10839
Vuse
p10840
atp10841
Rp10842
(dp10843
g16
VNN
p10844
sbatp10845
Rp10846
(dp10847
g16
VNP
p10848
sbatp10849
Rp10850
(dp10851
g16
VPP
p10852
sbatp10853
Rp10854
(dp10855
g16
VNP
p10856
sbag5
(g6
g7
(lp10857
g5
(g6
g7
(lp10858
g5
(g6
g7
(lp10859
Vto
p10860
atp10861
Rp10862
(dp10863
g16
VTO
p10864
sbag5
(g6
g7
(lp10865
g5
(g6
g7
(lp10866
Vbe
p10867
atp10868
Rp10869
(dp10870
g16
VVB
p10871
sbag5
(g6
g7
(lp10872
g5
(g6
g7
(lp10873
Vfiled
p10874
atp10875
Rp10876
(dp10877
g16
VVBN
p10878
sbag5
(g6
g7
(lp10879
g5
(g6
g7
(lp10880
Vunder
p10881
atp10882
Rp10883
(dp10884
g16
VIN
p10885
sbag5
(g6
g7
(lp10886
g5
(g6
g7
(lp10887
g5
(g6
g7
(lp10888
Vthat
p10889
atp10890
Rp10891
(dp10892
g16
VDT
p10893
sbatp10894
Rp10895
(dp10896
g16
VNP
p10897
sbag5
(g6
g7
(lp10898
g5
(g6
g7
(lp10899
Vheading
p10900
atp10901
Rp10902
(dp10903
g16
VVBG
p10904
sbatp10905
Rp10906
(dp10907
g16
VVP
p10908
sbatp10909
Rp10910
(dp10911
g16
VNP
p10912
sbatp10913
Rp10914
(dp10915
g16
VPP
p10916
sbatp10917
Rp10918
(dp10919
g16
VVP
p10920
sbatp10921
Rp10922
(dp10923
g16
VVP
p10924
sbatp10925
Rp10926
(dp10927
g16
VVP
p10928
sbatp10929
Rp10930
(dp10931
g16
g208
sbatp10932
Rp10933
(dp10934
g16
VVP
p10935
sbatp10936
Rp10937
(dp10938
g16
VVP
p10939
sbatp10940
Rp10941
(dp10942
g16
g208
sbatp10943
Rp10944
(dp10945
g16
VSBAR
p10946
sbatp10947
Rp10948
(dp10949
g16
VNP
p10950
sbatp10951
Rp10952
(dp10953
g16
VVP
p10954
sbatp10955
Rp10956
(dp10957
g16
g208
sbatp10958
Rp10959
(dp10960
g16
VPP
p10961
sbatp10962
Rp10963
(dp10964
g16
VADJP
p10965
sbatp10966
Rp10967
(dp10968
g16
VVP
p10969
sbatp10970
Rp10971
(dp10972
g16
g208
sbatp10973
Rp10974
(dp10975
g16
VSBAR
p10976
sbag5
(g6
g7
(lp10977
V-RRB-
p10978
atp10979
Rp10980
(dp10981
g16
V-RRB-
p10982
sbatp10983
Rp10984
(dp10985
g16
VVP
p10986
sbatp10987
Rp10988
(dp10989
g16
VVP
p10990
sbatp10991
Rp10992
(dp10993
g16
g208
sbag5
(g6
g7
(lp10994
g241
atp10995
Rp10996
(dp10997
g16
g241
sbatp10998
Rp10999
(dp11000
g16
g208
sbatp11001
Rp11002
(dp11003
g16
VROOT
p11004
sbasg540
(icmyPackage
CorE
p11005
(dp11006
g543
(lp11007
(I0
I43
tp11008
a(I0
I58
tp11009
asg547
g10956
sbsg553
(icmyPackage
CorE
p11010
(dp11011
g543
(lp11012
(I0
I0
tp11013
a(I0
I41
tp11014
asg547
g5
(g6
g7
(lp11015
g10622
ag10674
ag10680
ag10692
ag10699
ag10706
ag10717
ag10724
ag10736
ag10743
ag10750
atp11016
Rp11017
(dp11018
g16
g552
sbsbsg563
g796
sg588
(lp11019
(icmyPackage
Sent
p11020
(dp11021
g592
I2
sg593
I75
sg594
S'(One might expect that if the problem of going to the airport has arisen before, "want(at(I,airport))" would be an object, but this might depend on whether there were routines for generalizing previous experience that would allow something of general use to be filed under that heading).'
p11022
sg596
I0
sg597
I171
sg547
(lp11023
g11002
asbasba(icmyPackage
CELink
p11024
(dp11025
g3
(lp11026
g11017
asg540
(icmyPackage
CorE
p11027
(dp11028
g543
(lp11029
(I0
I6
tp11030
a(I0
I15
tp11031
asg547
g10511
sbsg553
(icmyPackage
CorE
p11032
(dp11033
g543
(lp11034
(I0
I17
tp11035
a(I0
I34
tp11036
asg547
g5
(g6
g7
(lp11037
g10528
ag10604
ag10618
ag10674
ag10680
ag10692
atp11038
Rp11039
(dp11040
g16
g552
sbsbsg563
g3700
sg588
(lp11041
g11020
asba(icmyPackage
CELink
p11042
(dp11043
g3
(lp11044
g5
(g6
g7
(lp11045
g5
(g6
g7
(lp11046
g5
(g6
g7
(lp11047
VNext
p11048
atp11049
Rp11050
(dp11051
g16
VJJ
p11052
sbag5
(g6
g7
(lp11053
Vin
p11054
atp11055
Rp11056
(dp11057
g16
VIN
p11058
sbag5
(g6
g7
(lp11059
g5
(g6
g7
(lp11060
g5
(g6
g7
(lp11061
Vorder
p11062
atp11063
Rp11064
(dp11065
g16
VNN
p11066
sbatp11067
Rp11068
(dp11069
g16
VNP
p11070
sbag5
(g6
g7
(lp11071
g5
(g6
g7
(lp11072
g5
(g6
g7
(lp11073
Vof
p11074
atp11075
Rp11076
(dp11077
g16
VIN
p11078
sbag5
(g6
g7
(lp11079
g5
(g6
g7
(lp11080
Vincreasing
p11081
atp11082
Rp11083
(dp11084
g16
VVBG
p11085
sbag5
(g6
g7
(lp11086
Vgenerality
p11087
atp11088
Rp11089
(dp11090
g16
VNN
p11091
sbag5
(g6
g7
(lp11092
g5
(g6
g7
(lp11093
g5
(g6
g7
(lp11094
g5
(g6
g7
(lp11095
Vthe
p11096
atp11097
Rp11098
(dp11099
g16
VDT
p11100
sbag5
(g6
g7
(lp11101
Vmachine
p11102
atp11103
Rp11104
(dp11105
g16
VNN
p11106
sbatp11107
Rp11108
(dp11109
g16
VNP
p11110
sbag5
(g6
g7
(lp11111
g5
(g6
g7
(lp11112
Vwould
p11113
atp11114
Rp11115
(dp11116
g16
VMD
p11117
sbag5
(g6
g7
(lp11118
g5
(g6
g7
(lp11119
Vsee
p11120
atp11121
Rp11122
(dp11123
g16
VVB
p11124
sbag5
(g6
g7
(lp11125
g5
(g6
g7
(lp11126
Vif
p11127
atp11128
Rp11129
(dp11130
g16
VIN
p11131
sbag5
(g6
g7
(lp11132
g5
(g6
g7
(lp11133
g5
(g6
g7
(lp11134
Vanything
p11135
atp11136
Rp11137
(dp11138
g16
VNN
p11139
sbatp11140
Rp11141
(dp11142
g16
VNP
p11143
sbag5
(g6
g7
(lp11144
g5
(g6
g7
(lp11145
Vwere
p11146
atp11147
Rp11148
(dp11149
g16
VVBD
p11150
sbag5
(g6
g7
(lp11151
g5
(g6
g7
(lp11152
Vfiled
p11153
atp11154
Rp11155
(dp11156
g16
VVBN
p11157
sbatp11158
Rp11159
(dp11160
g16
VVP
p11161
sbatp11162
Rp11163
(dp11164
g16
VVP
p11165
sbatp11166
Rp11167
(dp11168
g16
g208
sbatp11169
Rp11170
(dp11171
g16
VSBAR
p11172
sbatp11173
Rp11174
(dp11175
g16
VVP
p11176
sbatp11177
Rp11178
(dp11179
g16
VVP
p11180
sbatp11181
Rp11182
(dp11183
g16
g208
sbatp11184
Rp11185
(dp11186
g16
VSBAR
p11187
sbatp11188
Rp11189
(dp11190
g16
VNP
p11191
sbatp11192
Rp11193
(dp11194
g16
VPP
p11195
sbag5
(g6
g7
(lp11196
g5
(g6
g7
(lp11197
Vunder
p11198
atp11199
Rp11200
(dp11201
g16
VIN
p11202
sbag5
(g6
g7
(lp11203
g5
(g6
g7
(lp11204
V``
p11205
atp11206
Rp11207
(dp11208
g16
V``
p11209
sbag5
(g6
g7
(lp11210
g5
(g6
g7
(lp11211
g5
(g6
g7
(lp11212
Vwant
p11213
atp11214
Rp11215
(dp11216
g16
VVB
p11217
sbag5
(g6
g7
(lp11218
V-LRB-
p11219
atp11220
Rp11221
(dp11222
g16
V-LRB-
p11223
sbag5
(g6
g7
(lp11224
g5
(g6
g7
(lp11225
Vat
p11226
atp11227
Rp11228
(dp11229
g16
VIN
p11230
sbag5
(g6
g7
(lp11231
g5
(g6
g7
(lp11232
V-LRB-
p11233
atp11234
Rp11235
(dp11236
g16
V-LRB-
p11237
sbag5
(g6
g7
(lp11238
g5
(g6
g7
(lp11239
g5
(g6
g7
(lp11240
g3156
atp11241
Rp11242
(dp11243
g16
VPRP
p11244
sbatp11245
Rp11246
(dp11247
g16
VNP
p11248
sbag5
(g6
g7
(lp11249
g266
atp11250
Rp11251
(dp11252
g16
g266
sbag5
(g6
g7
(lp11253
g5
(g6
g7
(lp11254
Vx
p11255
atp11256
Rp11257
(dp11258
g16
VSYM
p11259
sbatp11260
Rp11261
(dp11262
g16
VNP
p11263
sbatp11264
Rp11265
(dp11266
g16
VNP
p11267
sbag5
(g6
g7
(lp11268
V-RRB-
p11269
atp11270
Rp11271
(dp11272
g16
V-RRB-
p11273
sbatp11274
Rp11275
(dp11276
g16
VPRN
p11277
sbatp11278
Rp11279
(dp11280
g16
VPP
p11281
sbag5
(g6
g7
(lp11282
V-RRB-
p11283
atp11284
Rp11285
(dp11286
g16
V-RRB-
p11287
sbatp11288
Rp11289
(dp11290
g16
VVP
p11291
sbatp11292
Rp11293
(dp11294
g16
VFRAG
p11295
sbag5
(g6
g7
(lp11296
V''
p11297
atp11298
Rp11299
(dp11300
g16
V''
p11301
sbag5
(g6
g7
(lp11302
g5
(g6
g7
(lp11303
g5
(g6
g7
(lp11304
Vwhich
p11305
atp11306
Rp11307
(dp11308
g16
VWDT
p11309
sbatp11310
Rp11311
(dp11312
g16
VWHNP
p11313
sbag5
(g6
g7
(lp11314
g5
(g6
g7
(lp11315
g5
(g6
g7
(lp11316
Vwould
p11317
atp11318
Rp11319
(dp11320
g16
VMD
p11321
sbag5
(g6
g7
(lp11322
g5
(g6
g7
(lp11323
Vdeal
p11324
atp11325
Rp11326
(dp11327
g16
VVB
p11328
sbag5
(g6
g7
(lp11329
g5
(g6
g7
(lp11330
Vwith
p11331
atp11332
Rp11333
(dp11334
g16
VIN
p11335
sbag5
(g6
g7
(lp11336
g5
(g6
g7
(lp11337
g5
(g6
g7
(lp11338
Vthe
p11339
atp11340
Rp11341
(dp11342
g16
VDT
p11343
sbag5
(g6
g7
(lp11344
Vgeneral
p11345
atp11346
Rp11347
(dp11348
g16
VJJ
p11349
sbag5
(g6
g7
(lp11350
Vproblem
p11351
atp11352
Rp11353
(dp11354
g16
VNN
p11355
sbatp11356
Rp11357
(dp11358
g16
VNP
p11359
sbag5
(g6
g7
(lp11360
g5
(g6
g7
(lp11361
Vof
p11362
atp11363
Rp11364
(dp11365
g16
VIN
p11366
sbag5
(g6
g7
(lp11367
g5
(g6
g7
(lp11368
g5
(g6
g7
(lp11369
Vgetting
p11370
atp11371
Rp11372
(dp11373
g16
VVBG
p11374
sbag5
(g6
g7
(lp11375
g5
(g6
g7
(lp11376
Vsomewhere
p11377
atp11378
Rp11379
(dp11380
g16
VRB
p11381
sbatp11382
Rp11383
(dp11384
g16
VADVP
p11385
sbatp11386
Rp11387
(dp11388
g16
VVP
p11389
sbatp11390
Rp11391
(dp11392
g16
g208
sbatp11393
Rp11394
(dp11395
g16
VPP
p11396
sbatp11397
Rp11398
(dp11399
g16
VNP
p11400
sbatp11401
Rp11402
(dp11403
g16
VPP
p11404
sbatp11405
Rp11406
(dp11407
g16
VVP
p11408
sbatp11409
Rp11410
(dp11411
g16
VVP
p11412
sbatp11413
Rp11414
(dp11415
g16
g208
sbatp11416
Rp11417
(dp11418
g16
VSBAR
p11419
sbag5
(g6
g7
(lp11420
g241
atp11421
Rp11422
(dp11423
g16
g241
sbatp11424
Rp11425
(dp11426
g16
VFRAG
p11427
sbatp11428
Rp11429
(dp11430
g16
VPP
p11431
sbatp11432
Rp11433
(dp11434
g16
VPP
p11435
sbatp11436
Rp11437
(dp11438
g16
VNP
p11439
sbatp11440
Rp11441
(dp11442
g16
VPP
p11443
sbatp11444
Rp11445
(dp11446
g16
VROOT
p11447
sbasg540
(icmyPackage
CorE
p11448
(dp11449
g543
(lp11450
(I0
I11
tp11451
a(I0
I35
tp11452
asg547
g5
(g6
g7
(lp11453
g11167
ag11200
ag11207
ag11293
ag11299
ag11417
atp11454
Rp11455
(dp11456
g16
g552
sbsbsg553
(icmyPackage
CorE
p11457
(dp11458
g543
(lp11459
(I0
I1
tp11460
a(I0
I9
tp11461
asg547
g5
(g6
g7
(lp11462
g11056
ag11068
ag11076
ag11083
ag11089
ag11108
ag11115
ag11122
atp11463
Rp11464
(dp11465
g16
g552
sbsbsg563
g7634
sg588
(lp11466
(icmyPackage
Sent
p11467
(dp11468
g592
I2
sg593
I75
sg594
S'Next in order of increasing generality the machine would see if anything were filed under "want(at(I,x))" which would deal with the general problem of getting somewhere.'
p11469
sg596
I0
sg597
I172
sg547
(lp11470
g11445
asbasba(icmyPackage
CELink
p11471
(dp11472
g3
(lp11473
g5
(g6
g7
(lp11474
g5
(g6
g7
(lp11475
g5
(g6
g7
(lp11476
g5
(g6
g7
(lp11477
VOne
p11478
atp11479
Rp11480
(dp11481
g16
VPRP
p11482
sbatp11483
Rp11484
(dp11485
g16
VNP
p11486
sbag5
(g6
g7
(lp11487
g5
(g6
g7
(lp11488
Vwould
p11489
atp11490
Rp11491
(dp11492
g16
VMD
p11493
sbag5
(g6
g7
(lp11494
g5
(g6
g7
(lp11495
Vexpect
p11496
atp11497
Rp11498
(dp11499
g16
VVB
p11500
sbag5
(g6
g7
(lp11501
g5
(g6
g7
(lp11502
Vthat
p11503
atp11504
Rp11505
(dp11506
g16
VIN
p11507
sbag5
(g6
g7
(lp11508
g5
(g6
g7
(lp11509
g5
(g6
g7
(lp11510
g5
(g6
g7
(lp11511
g5
(g6
g7
(lp11512
g5
(g6
g7
(lp11513
g5
(g6
g7
(lp11514
Vpremises
p11515
atp11516
Rp11517
(dp11518
g16
VNNS
p11519
sbatp11520
Rp11521
(dp11522
g16
VNP
p11523
sbag5
(g6
g7
(lp11524
g5
(g6
g7
(lp11525
V-LRB-
p11526
atp11527
Rp11528
(dp11529
g16
V-LRB-
p11530
sbag5
(g6
g7
(lp11531
g5
(g6
g7
(lp11532
V6
p11533
atp11534
Rp11535
(dp11536
g16
VCD
p11537
sbatp11538
Rp11539
(dp11540
g16
VNP
p11541
sbag5
(g6
g7
(lp11542
V-RRB-
p11543
atp11544
Rp11545
(dp11546
g16
V-RRB-
p11547
sbatp11548
Rp11549
(dp11550
g16
VPRN
p11551
sbatp11552
Rp11553
(dp11554
g16
VNP
p11555
sbag5
(g6
g7
(lp11556
g266
atp11557
Rp11558
(dp11559
g16
g266
sbag5
(g6
g7
(lp11560
g5
(g6
g7
(lp11561
V-LRB-
p11562
atp11563
Rp11564
(dp11565
g16
V-LRB-
p11566
sbag5
(g6
g7
(lp11567
Vor
p11568
atp11569
Rp11570
(dp11571
g16
VCC
p11572
sbag5
(g6
g7
(lp11573
g5
(g6
g7
(lp11574
g5
(g6
g7
(lp11575
V-LRB-
p11576
atp11577
Rp11578
(dp11579
g16
V-LRB-
p11580
sbag5
(g6
g7
(lp11581
g5
(g6
g7
(lp11582
g5
(g6
g7
(lp11583
V7
p11584
atp11585
Rp11586
(dp11587
g16
VCD
p11588
sbatp11589
Rp11590
(dp11591
g16
VQP
p11592
sbatp11593
Rp11594
(dp11595
g16
VNP
p11596
sbag5
(g6
g7
(lp11597
V-RRB-
p11598
atp11599
Rp11600
(dp11601
g16
V-RRB-
p11602
sbatp11603
Rp11604
(dp11605
g16
VADJP
p11606
sbag5
(g6
g7
(lp11607
Vand
p11608
atp11609
Rp11610
(dp11611
g16
VCC
p11612
sbag5
(g6
g7
(lp11613
g5
(g6
g7
(lp11614
V-LRB-
p11615
atp11616
Rp11617
(dp11618
g16
V-LRB-
p11619
sbag5
(g6
g7
(lp11620
g5
(g6
g7
(lp11621
g5
(g6
g7
(lp11622
V8
p11623
atp11624
Rp11625
(dp11626
g16
VCD
p11627
sbatp11628
Rp11629
(dp11630
g16
VQP
p11631
sbatp11632
Rp11633
(dp11634
g16
VNP
p11635
sbag5
(g6
g7
(lp11636
V-RRB-
p11637
atp11638
Rp11639
(dp11640
g16
V-RRB-
p11641
sbatp11642
Rp11643
(dp11644
g16
VADJP
p11645
sbatp11646
Rp11647
(dp11648
g16
VADJP
p11649
sbag5
(g6
g7
(lp11650
V-RRB-
p11651
atp11652
Rp11653
(dp11654
g16
V-RRB-
p11655
sbatp11656
Rp11657
(dp11658
g16
VPRN
p11659
sbatp11660
Rp11661
(dp11662
g16
VNP
p11663
sbag5
(g6
g7
(lp11664
g266
atp11665
Rp11666
(dp11667
g16
g266
sbag5
(g6
g7
(lp11668
g5
(g6
g7
(lp11669
V-LRB-
p11670
atp11671
Rp11672
(dp11673
g16
V-LRB-
p11674
sbag5
(g6
g7
(lp11675
g5
(g6
g7
(lp11676
V9
p11677
atp11678
Rp11679
(dp11680
g16
VCD
p11681
sbatp11682
Rp11683
(dp11684
g16
VNP
p11685
sbag5
(g6
g7
(lp11686
V-RRB-
p11687
atp11688
Rp11689
(dp11690
g16
V-RRB-
p11691
sbatp11692
Rp11693
(dp11694
g16
VPRN
p11695
sbatp11696
Rp11697
(dp11698
g16
VNP
p11699
sbag5
(g6
g7
(lp11700
g266
atp11701
Rp11702
(dp11703
g16
g266
sbag5
(g6
g7
(lp11704
g5
(g6
g7
(lp11705
g5
(g6
g7
(lp11706
V-LRB-
p11707
atp11708
Rp11709
(dp11710
g16
V-LRB-
p11711
sbag5
(g6
g7
(lp11712
g5
(g6
g7
(lp11713
V10
p11714
atp11715
Rp11716
(dp11717
g16
VCD
p11718
sbatp11719
Rp11720
(dp11721
g16
VQP
p11722
sbag5
(g6
g7
(lp11723
V-RRB-
p11724
atp11725
Rp11726
(dp11727
g16
V-RRB-
p11728
sbatp11729
Rp11730
(dp11731
g16
VNP
p11732
sbag5
(g6
g7
(lp11733
g266
atp11734
Rp11735
(dp11736
g16
g266
sbag5
(g6
g7
(lp11737
g5
(g6
g7
(lp11738
V-LRB-
p11739
atp11740
Rp11741
(dp11742
g16
V-LRB-
p11743
sbag5
(g6
g7
(lp11744
g5
(g6
g7
(lp11745
V13
p11746
atp11747
Rp11748
(dp11749
g16
VCD
p11750
sbatp11751
Rp11752
(dp11753
g16
VNP
p11754
sbag5
(g6
g7
(lp11755
V-RRB-
p11756
atp11757
Rp11758
(dp11759
g16
V-RRB-
p11760
sbatp11761
Rp11762
(dp11763
g16
VPRN
p11764
sbatp11765
Rp11766
(dp11767
g16
VNP
p11768
sbag5
(g6
g7
(lp11769
g266
atp11770
Rp11771
(dp11772
g16
g266
sbatp11773
Rp11774
(dp11775
g16
VNP
p11776
sbag5
(g6
g7
(lp11777
g5
(g6
g7
(lp11778
Vwould
p11779
atp11780
Rp11781
(dp11782
g16
VMD
p11783
sbag5
(g6
g7
(lp11784
g5
(g6
g7
(lp11785
Vbe
p11786
atp11787
Rp11788
(dp11789
g16
VVB
p11790
sbag5
(g6
g7
(lp11791
g5
(g6
g7
(lp11792
g5
(g6
g7
(lp11793
Vso
p11794
atp11795
Rp11796
(dp11797
g16
VRB
p11798
sbatp11799
Rp11800
(dp11801
g16
VADVP
p11802
sbag5
(g6
g7
(lp11803
Vfiled
p11804
atp11805
Rp11806
(dp11807
g16
VVBN
p11808
sbatp11809
Rp11810
(dp11811
g16
VVP
p11812
sbatp11813
Rp11814
(dp11815
g16
VVP
p11816
sbatp11817
Rp11818
(dp11819
g16
VVP
p11820
sbatp11821
Rp11822
(dp11823
g16
g208
sbatp11824
Rp11825
(dp11826
g16
VSBAR
p11827
sbatp11828
Rp11829
(dp11830
g16
VVP
p11831
sbatp11832
Rp11833
(dp11834
g16
VVP
p11835
sbag5
(g6
g7
(lp11836
g241
atp11837
Rp11838
(dp11839
g16
g241
sbatp11840
Rp11841
(dp11842
g16
g208
sbatp11843
Rp11844
(dp11845
g16
VROOT
p11846
sbasg540
(icmyPackage
CorE
p11847
(dp11848
g543
(lp11849
(I0
I0
tp11850
a(I0
I33
tp11851
asg547
g5
(g6
g7
(lp11852
g11484
ag11491
ag11498
ag11505
ag11774
ag11781
ag11788
atp11853
Rp11854
(dp11855
g16
g552
sbsbsg553
(icmyPackage
CorE
p11856
(dp11857
g543
(lp11858
(I0
I35
tp11859
a(I0
I36
tp11860
asg547
g5
(g6
g7
(lp11861
g11806
ag11838
atp11862
Rp11863
(dp11864
g16
g552
sbsbsg563
g564
sg588
(lp11865
(icmyPackage
Sent
p11866
(dp11867
g592
I2
sg593
I75
sg594
S'One would expect that premises (6) , (or (7) and (8) ), (9) , (10) , (13) , would be so filed.'
p11868
sg596
I0
sg597
I173
sg547
(lp11869
g11844
asbasba(icmyPackage
CELink
p11870
(dp11871
g3
(lp11872
g5
(g6
g7
(lp11873
g5
(g6
g7
(lp11874
g5
(g6
g7
(lp11875
g5
(g6
g7
(lp11876
VThis
p11877
atp11878
Rp11879
(dp11880
g16
VDT
p11881
sbatp11882
Rp11883
(dp11884
g16
VNP
p11885
sbag5
(g6
g7
(lp11886
g5
(g6
g7
(lp11887
Vwould
p11888
atp11889
Rp11890
(dp11891
g16
VMD
p11892
sbag5
(g6
g7
(lp11893
g5
(g6
g7
(lp11894
Vbe
p11895
atp11896
Rp11897
(dp11898
g16
VVB
p11899
sbag5
(g6
g7
(lp11900
g5
(g6
g7
(lp11901
Vdone
p11902
atp11903
Rp11904
(dp11905
g16
VVBN
p11906
sbag5
(g6
g7
(lp11907
g5
(g6
g7
(lp11908
Vby
p11909
atp11910
Rp11911
(dp11912
g16
VIN
p11913
sbag5
(g6
g7
(lp11914
g5
(g6
g7
(lp11915
g5
(g6
g7
(lp11916
g5
(g6
g7
(lp11917
Vlooking
p11918
atp11919
Rp11920
(dp11921
g16
VVBG
p11922
sbag5
(g6
g7
(lp11923
g5
(g6
g7
(lp11924
Von
p11925
atp11926
Rp11927
(dp11928
g16
VIN
p11929
sbag5
(g6
g7
(lp11930
g5
(g6
g7
(lp11931
g5
(g6
g7
(lp11932
Vthe
p11933
atp11934
Rp11935
(dp11936
g16
VDT
p11937
sbag5
(g6
g7
(lp11938
Vproperty
p11939
atp11940
Rp11941
(dp11942
g16
VNN
p11943
sbag5
(g6
g7
(lp11944
Vlists
p11945
atp11946
Rp11947
(dp11948
g16
VNNS
p11949
sbatp11950
Rp11951
(dp11952
g16
VNP
p11953
sbag5
(g6
g7
(lp11954
g5
(g6
g7
(lp11955
Vof
p11956
atp11957
Rp11958
(dp11959
g16
VIN
p11960
sbag5
(g6
g7
(lp11961
g5
(g6
g7
(lp11962
g5
(g6
g7
(lp11963
Vthe
p11964
atp11965
Rp11966
(dp11967
g16
VDT
p11968
sbag5
(g6
g7
(lp11969
Vorigin
p11970
atp11971
Rp11972
(dp11973
g16
VNN
p11974
sbatp11975
Rp11976
(dp11977
g16
VNP
p11978
sbag5
(g6
g7
(lp11979
Vand
p11980
atp11981
Rp11982
(dp11983
g16
VCC
p11984
sbag5
(g6
g7
(lp11985
g5
(g6
g7
(lp11986
Vthe
p11987
atp11988
Rp11989
(dp11990
g16
VDT
p11991
sbag5
(g6
g7
(lp11992
Vdestination
p11993
atp11994
Rp11995
(dp11996
g16
VNN
p11997
sbatp11998
Rp11999
(dp12000
g16
VNP
p12001
sbatp12002
Rp12003
(dp12004
g16
VNP
p12005
sbatp12006
Rp12007
(dp12008
g16
VPP
p12009
sbatp12010
Rp12011
(dp12012
g16
VNP
p12013
sbatp12014
Rp12015
(dp12016
g16
VPP
p12017
sbatp12018
Rp12019
(dp12020
g16
VVP
p12021
sbag5
(g6
g7
(lp12022
Vand
p12023
atp12024
Rp12025
(dp12026
g16
VCC
p12027
sbag5
(g6
g7
(lp12028
g5
(g6
g7
(lp12029
Vworking
p12030
atp12031
Rp12032
(dp12033
g16
VVBG
p12034
sbag5
(g6
g7
(lp12035
g5
(g6
g7
(lp12036
Vup
p12037
atp12038
Rp12039
(dp12040
g16
VRP
p12041
sbatp12042
Rp12043
(dp12044
g16
VPRT
p12045
sbatp12046
Rp12047
(dp12048
g16
VVP
p12049
sbatp12050
Rp12051
(dp12052
g16
VVP
p12053
sbatp12054
Rp12055
(dp12056
g16
g208
sbatp12057
Rp12058
(dp12059
g16
VPP
p12060
sbatp12061
Rp12062
(dp12063
g16
VVP
p12064
sbatp12065
Rp12066
(dp12067
g16
VVP
p12068
sbatp12069
Rp12070
(dp12071
g16
VVP
p12072
sbag5
(g6
g7
(lp12073
g241
atp12074
Rp12075
(dp12076
g16
g241
sbatp12077
Rp12078
(dp12079
g16
g208
sbatp12080
Rp12081
(dp12082
g16
VROOT
p12083
sbasg540
(icmyPackage
CorE
p12084
(dp12085
g543
(lp12086
(I0
I5
tp12087
a(I0
I18
tp12088
asg547
g12055
sbsg553
(icmyPackage
CorE
p12089
(dp12090
g543
(lp12091
(I0
I0
tp12092
a(I0
I3
tp12093
asg547
g5
(g6
g7
(lp12094
g11883
ag11890
ag11897
ag11904
atp12095
Rp12096
(dp12097
g16
g552
sbsbsg563
(icmyPackage
pattern
p12098
(dp12099
g566
I0
sg567
I0
sg568
(lp12100
(lp12101
(lp12102
S'by'
p12103
aS'through'
p12104
aaasg572
(lp12105
I2
aI1
aI1
asg574
(lp12106
S'The similar relation can be detected by analyzing the contents of nodes based on such approaches as the Latent Semantic Analysis (LSA) and the Vector Space Model (VSM)'
p12107
asg577
I68
sg578
(lp12108
(lp12109
S'&R@Complete@'
p12110
aa(lp12111
S'&V-ing@C@'
p12112
aasbsg588
(lp12113
(icmyPackage
Sent
p12114
(dp12115
g592
I2
sg593
I78
sg594
S'This would be done by looking on the property lists of the origin and the destination and working up.'
p12116
sg596
I0
sg597
I181
sg547
(lp12117
g12081
asbasba(icmyPackage
CELink
p12118
(dp12119
g3
(lp12120
g5
(g6
g7
(lp12121
g5
(g6
g7
(lp12122
g5
(g6
g7
(lp12123
g5
(g6
g7
(lp12124
g5
(g6
g7
(lp12125
VA
p12126
atp12127
Rp12128
(dp12129
g16
VDT
p12130
sbag5
(g6
g7
(lp12131
Vrepetition
p12132
atp12133
Rp12134
(dp12135
g16
VNN
p12136
sbatp12137
Rp12138
(dp12139
g16
VNP
p12140
sbag5
(g6
g7
(lp12141
g5
(g6
g7
(lp12142
Vof
p12143
atp12144
Rp12145
(dp12146
g16
VIN
p12147
sbag5
(g6
g7
(lp12148
g5
(g6
g7
(lp12149
Vthe
p12150
atp12151
Rp12152
(dp12153
g16
VDT
p12154
sbag5
(g6
g7
(lp12155
Vabove
p12156
atp12157
Rp12158
(dp12159
g16
VJJ
p12160
sbatp12161
Rp12162
(dp12163
g16
VNP
p12164
sbatp12165
Rp12166
(dp12167
g16
VPP
p12168
sbatp12169
Rp12170
(dp12171
g16
VNP
p12172
sbag5
(g6
g7
(lp12173
g5
(g6
g7
(lp12174
Vwould
p12175
atp12176
Rp12177
(dp12178
g16
VMD
p12179
sbag5
(g6
g7
(lp12180
g5
(g6
g7
(lp12181
Vfind
p12182
atp12183
Rp12184
(dp12185
g16
VVB
p12186
sbag5
(g6
g7
(lp12187
g5
(g6
g7
(lp12188
g5
(g6
g7
(lp12189
Vpremise
p12190
atp12191
Rp12192
(dp12193
g16
VNN
p12194
sbatp12195
Rp12196
(dp12197
g16
VNP
p12198
sbag5
(g6
g7
(lp12199
g5
(g6
g7
(lp12200
V-LRB-
p12201
atp12202
Rp12203
(dp12204
g16
V-LRB-
p12205
sbag5
(g6
g7
(lp12206
g5
(g6
g7
(lp12207
g11677
atp12208
Rp12209
(dp12210
g16
VCD
p12211
sbatp12212
Rp12213
(dp12214
g16
VNP
p12215
sbag5
(g6
g7
(lp12216
V-RRB-
p12217
atp12218
Rp12219
(dp12220
g16
V-RRB-
p12221
sbatp12222
Rp12223
(dp12224
g16
VPRN
p12225
sbag5
(g6
g7
(lp12226
g266
atp12227
Rp12228
(dp12229
g16
g266
sbag5
(g6
g7
(lp12230
g5
(g6
g7
(lp12231
g5
(g6
g7
(lp12232
Vwhich
p12233
atp12234
Rp12235
(dp12236
g16
VWDT
p12237
sbatp12238
Rp12239
(dp12240
g16
VWHNP
p12241
sbag5
(g6
g7
(lp12242
g5
(g6
g7
(lp12243
g5
(g6
g7
(lp12244
Vwould
p12245
atp12246
Rp12247
(dp12248
g16
VMD
p12249
sbag5
(g6
g7
(lp12250
g5
(g6
g7
(lp12251
Vcomplete
p12252
atp12253
Rp12254
(dp12255
g16
VVB
p12256
sbag5
(g6
g7
(lp12257
g5
(g6
g7
(lp12258
g5
(g6
g7
(lp12259
Vthe
p12260
atp12261
Rp12262
(dp12263
g16
VDT
p12264
sbag5
(g6
g7
(lp12265
Vset
p12266
atp12267
Rp12268
(dp12269
g16
VNN
p12270
sbatp12271
Rp12272
(dp12273
g16
VNP
p12274
sbag5
(g6
g7
(lp12275
g5
(g6
g7
(lp12276
Vof
p12277
atp12278
Rp12279
(dp12280
g16
VIN
p12281
sbag5
(g6
g7
(lp12282
g5
(g6
g7
(lp12283
Vpremises
p12284
atp12285
Rp12286
(dp12287
g16
VNNS
p12288
sbatp12289
Rp12290
(dp12291
g16
VNP
p12292
sbatp12293
Rp12294
(dp12295
g16
VPP
p12296
sbatp12297
Rp12298
(dp12299
g16
VNP
p12300
sbag5
(g6
g7
(lp12301
g5
(g6
g7
(lp12302
Vsince
p12303
atp12304
Rp12305
(dp12306
g16
VIN
p12307
sbag5
(g6
g7
(lp12308
g5
(g6
g7
(lp12309
Vthe
p12310
atp12311
Rp12312
(dp12313
g16
VDT
p12314
sbag5
(g6
g7
(lp12315
Vother
p12316
atp12317
Rp12318
(dp12319
g16
VJJ
p12320
sbatp12321
Rp12322
(dp12323
g16
VNP
p12324
sbatp12325
Rp12326
(dp12327
g16
VPP
p12328
sbatp12329
Rp12330
(dp12331
g16
VVP
p12332
sbatp12333
Rp12334
(dp12335
g16
VVP
p12336
sbatp12337
Rp12338
(dp12339
g16
g208
sbatp12340
Rp12341
(dp12342
g16
VSBAR
p12343
sbatp12344
Rp12345
(dp12346
g16
VNP
p12347
sbag5
(g6
g7
(lp12348
V``
p12349
atp12350
Rp12351
(dp12352
g16
V``
p12353
sbag5
(g6
g7
(lp12354
g5
(g6
g7
(lp12355
Vat
p12356
atp12357
Rp12358
(dp12359
g16
VIN
p12360
sbag5
(g6
g7
(lp12361
V''
p12362
atp12363
Rp12364
(dp12365
g16
V''
p12366
sbag5
(g6
g7
(lp12367
g5
(g6
g7
(lp12368
g5
(g6
g7
(lp12369
Vpremises
p12370
atp12371
Rp12372
(dp12373
g16
VNNS
p12374
sbatp12375
Rp12376
(dp12377
g16
VNP
p12378
sbag5
(g6
g7
(lp12379
g5
(g6
g7
(lp12380
g5
(g6
g7
(lp12381
g5
(g6
g7
(lp12382
Vwould
p12383
atp12384
Rp12385
(dp12386
g16
VMD
p12387
sbag5
(g6
g7
(lp12388
g5
(g6
g7
(lp12389
Vhave
p12390
atp12391
Rp12392
(dp12393
g16
VVB
p12394
sbag5
(g6
g7
(lp12395
g5
(g6
g7
(lp12396
Vbeen
p12397
atp12398
Rp12399
(dp12400
g16
VVBN
p12401
sbag5
(g6
g7
(lp12402
g5
(g6
g7
(lp12403
Vfound
p12404
atp12405
Rp12406
(dp12407
g16
VVBN
p12408
sbag5
(g6
g7
(lp12409
g5
(g6
g7
(lp12410
Vas
p12411
atp12412
Rp12413
(dp12414
g16
VIN
p12415
sbag5
(g6
g7
(lp12416
g5
(g6
g7
(lp12417
g5
(g6
g7
(lp12418
Vby-products
p12419
atp12420
Rp12421
(dp12422
g16
VNNS
p12423
sbatp12424
Rp12425
(dp12426
g16
VNP
p12427
sbag5
(g6
g7
(lp12428
g5
(g6
g7
(lp12429
Vof
p12430
atp12431
Rp12432
(dp12433
g16
VIN
p12434
sbag5
(g6
g7
(lp12435
g5
(g6
g7
(lp12436
Vprevious
p12437
atp12438
Rp12439
(dp12440
g16
VJJ
p12441
sbag5
(g6
g7
(lp12442
Vsearches
p12443
atp12444
Rp12445
(dp12446
g16
VNNS
p12447
sbatp12448
Rp12449
(dp12450
g16
VNP
p12451
sbatp12452
Rp12453
(dp12454
g16
VPP
p12455
sbatp12456
Rp12457
(dp12458
g16
VNP
p12459
sbatp12460
Rp12461
(dp12462
g16
VPP
p12463
sbatp12464
Rp12465
(dp12466
g16
VVP
p12467
sbatp12468
Rp12469
(dp12470
g16
VVP
p12471
sbatp12472
Rp12473
(dp12474
g16
VVP
p12475
sbatp12476
Rp12477
(dp12478
g16
VVP
p12479
sbatp12480
Rp12481
(dp12482
g16
g208
sbatp12483
Rp12484
(dp12485
g16
VSBAR
p12486
sbatp12487
Rp12488
(dp12489
g16
VNP
p12490
sbatp12491
Rp12492
(dp12493
g16
VPP
p12494
sbatp12495
Rp12496
(dp12497
g16
VVP
p12498
sbatp12499
Rp12500
(dp12501
g16
VVP
p12502
sbag5
(g6
g7
(lp12503
g241
atp12504
Rp12505
(dp12506
g16
g241
sbatp12507
Rp12508
(dp12509
g16
g208
sbatp12510
Rp12511
(dp12512
g16
VROOT
p12513
sbasg540
(icmyPackage
CorE
p12514
(dp12515
g543
(lp12516
(I0
I20
tp12517
a(I0
I33
tp12518
asg547
g5
(g6
g7
(lp12519
g12322
ag12351
ag12358
ag12364
ag12376
ag12385
ag12392
ag12399
ag12406
ag12413
ag12425
ag12432
ag12439
atp12520
Rp12521
(dp12522
g16
g552
sbsbsg553
(icmyPackage
CorE
p12523
(dp12524
g543
(lp12525
(I0
I0
tp12526
a(I0
I18
tp12527
asg547
g5
(g6
g7
(lp12528
g12170
ag12177
ag12184
ag12196
ag12223
ag12228
ag12239
ag12247
ag12254
ag12298
atp12529
Rp12530
(dp12531
g16
g552
sbsbsg563
g8775
sg588
(lp12532
(icmyPackage
Sent
p12533
(dp12534
g592
I2
sg593
I78
sg594
S'A repetition of the above would find premise (9) , which would complete the set of premises since the other "at" premises would have been found as by-products of previous searches.'
p12535
sg596
I0
sg597
I183
sg547
(lp12536
g12511
asbasba.