(lp0
(icmyPackage
CELink
p1
(dp2
S'PTreelst'
p3
(lp4
ccopy_reg
_reconstructor
p5
(cnltk.tree
Tree
p6
c__builtin__
list
p7
(lp8
g5
(g6
g7
(lp9
g5
(g6
g7
(lp10
g5
(g6
g7
(lp11
g5
(g6
g7
(lp12
VThe
p13
atp14
Rp15
(dp16
S'_label'
p17
VDT
p18
sbag5
(g6
g7
(lp19
Vobject
p20
atp21
Rp22
(dp23
g17
VNN
p24
sbatp25
Rp26
(dp27
g17
VNP
p28
sbag5
(g6
g7
(lp29
g5
(g6
g7
(lp30
Vof
p31
atp32
Rp33
(dp34
g17
VIN
p35
sbag5
(g6
g7
(lp36
g5
(g6
g7
(lp37
Vthis
p38
atp39
Rp40
(dp41
g17
VDT
p42
sbag5
(g6
g7
(lp43
Vlecture
p44
atp45
Rp46
(dp47
g17
VNN
p48
sbatp49
Rp50
(dp51
g17
VNP
p52
sbatp53
Rp54
(dp55
g17
VPP
p56
sbatp57
Rp58
(dp59
g17
VNP
p60
sbag5
(g6
g7
(lp61
g5
(g6
g7
(lp62
Vis
p63
atp64
Rp65
(dp66
g17
VVBZ
p67
sbag5
(g6
g7
(lp68
g5
(g6
g7
(lp69
g5
(g6
g7
(lp70
Vto
p71
atp72
Rp73
(dp74
g17
VTO
p75
sbag5
(g6
g7
(lp76
g5
(g6
g7
(lp77
Vdescribe
p78
atp79
Rp80
(dp81
g17
VVB
p82
sbag5
(g6
g7
(lp83
g5
(g6
g7
(lp84
g5
(g6
g7
(lp85
Vcommon
p86
atp87
Rp88
(dp89
g17
VJJ
p90
sbag5
(g6
g7
(lp91
Vsense
p92
atp93
Rp94
(dp95
g17
VNN
p96
sbag5
(g6
g7
(lp97
Vabilities
p98
atp99
Rp100
(dp101
g17
VNNS
p102
sbatp103
Rp104
(dp105
g17
VNP
p106
sbag5
(g6
g7
(lp107
Vand
p108
atp109
Rp110
(dp111
g17
VCC
p112
sbag5
(g6
g7
(lp113
g5
(g6
g7
(lp114
g5
(g6
g7
(lp115
Vthe
p116
atp117
Rp118
(dp119
g17
VDT
p120
sbag5
(g6
g7
(lp121
Vproblems
p122
atp123
Rp124
(dp125
g17
VNNS
p126
sbatp127
Rp128
(dp129
g17
VNP
p130
sbag5
(g6
g7
(lp131
g5
(g6
g7
(lp132
g5
(g6
g7
(lp133
Vthat
p134
atp135
Rp136
(dp137
g17
VWDT
p138
sbatp139
Rp140
(dp141
g17
VWHNP
p142
sbag5
(g6
g7
(lp143
g5
(g6
g7
(lp144
g5
(g6
g7
(lp145
Vrequire
p146
atp147
Rp148
(dp149
g17
VVBP
p150
sbag5
(g6
g7
(lp151
g5
(g6
g7
(lp152
Vthem
p153
atp154
Rp155
(dp156
g17
VPRP
p157
sbatp158
Rp159
(dp160
g17
VNP
p161
sbatp162
Rp163
(dp164
g17
VVP
p165
sbatp166
Rp167
(dp168
g17
VS
p169
sbatp170
Rp171
(dp172
g17
VSBAR
p173
sbatp174
Rp175
(dp176
g17
VNP
p177
sbatp178
Rp179
(dp180
g17
VNP
p181
sbatp182
Rp183
(dp184
g17
VVP
p185
sbatp186
Rp187
(dp188
g17
VVP
p189
sbatp190
Rp191
(dp192
g17
g169
sbatp193
Rp194
(dp195
g17
VVP
p196
sbag5
(g6
g7
(lp197
V.
p198
atp199
Rp200
(dp201
g17
g198
sbatp202
Rp203
(dp204
g17
g169
sbatp205
Rp206
(dp207
g17
VROOT
p208
sbasS'cause'
p209
(icmyPackage
CorE
p210
(dp211
S'span'
p212
(lp213
(I0
I16
tp214
ag214
asS'PTree'
p215
g159
sbsS'effect'
p216
(icmyPackage
CorE
p217
(dp218
g212
(lp219
(I0
I0
tp220
a(I0
I13
tp221
asg215
g5
(g6
g7
(lp222
g58
ag65
ag73
ag80
ag104
ag110
ag128
atp223
Rp224
(dp225
g17
S'ROOT'
p226
sbsbsS'pt'
p227
(icmyPackage
pattern
p228
(dp229
S'pfreq'
p230
I0
sS'moresent'
p231
I1
sS'main_token'
p232
(lp233
(lp234
(lp235
S'concern'
p236
aS'concerns'
p237
aS'concerned'
p238
aS'require'
p239
aS'requires'
p240
aS'required'
p241
aS'request'
p242
aS'requests'
p243
aS'requested'
p244
aaasS'ptype'
p245
(lp246
I4
aI1
aI1
asS'cases'
p247
(lp248
S'For example, this enables e-learning systems to capture student behaviors during studying so that leaning materials and processes can be organized and adapted in real time to raise the effectiveness of study. This concerns the classification on students\xe2\x80\x99 behaviors (including micro expressions) and carrying out real-time analysis and adaptation.'
p249
asS'id'
p250
I90
sS'constraints'
p251
(lp252
(lp253
S'&R'
p254
aS'(,/./;/--)'
p255
aS'&this'
p256
aS'(&adj)'
p257
aS'(&N)'
p258
aS'(&CAN/have/has/had)'
p259
aS'(&ADV)'
p260
aa(lp261
S'(about)'
p262
aS'&V-ing/&NP@C@'
p263
aasbsS'sInfo'
p264
(lp265
(icmyPackage
Sent
p266
(dp267
S'Ctag'
p268
I0
sS'Ptag'
p269
I0
sS'text'
p270
S'The object of this lecture is to describe common sense abilities and the problems that require them.'
p271
sS'SCtag'
p272
I0
sS'Stag'
p273
I7
sg215
(lp274
g206
asbasba(icmyPackage
CELink
p275
(dp276
g3
(lp277
g5
(g6
g7
(lp278
g5
(g6
g7
(lp279
g5
(g6
g7
(lp280
g5
(g6
g7
(lp281
VI
p282
atp283
Rp284
(dp285
g17
VPRP
p286
sbatp287
Rp288
(dp289
g17
VNP
p290
sbag5
(g6
g7
(lp291
g5
(g6
g7
(lp292
Vhave
p293
atp294
Rp295
(dp296
g17
VVBP
p297
sbag5
(g6
g7
(lp298
g5
(g6
g7
(lp299
Vbeen
p300
atp301
Rp302
(dp303
g17
VVBN
p304
sbag5
(g6
g7
(lp305
g5
(g6
g7
(lp306
Vadvocating
p307
atp308
Rp309
(dp310
g17
VVBG
p311
sbag5
(g6
g7
(lp312
V``
p313
atp314
Rp315
(dp316
g17
V``
p317
sbag5
(g6
g7
(lp318
g5
(g6
g7
(lp319
g5
(g6
g7
(lp320
VComputer
p321
atp322
Rp323
(dp324
g17
VNNP
p325
sbag5
(g6
g7
(lp326
VPrograms
p327
atp328
Rp329
(dp330
g17
VNNP
p331
sbatp332
Rp333
(dp334
g17
VNP
p335
sbag5
(g6
g7
(lp336
g5
(g6
g7
(lp337
Vwith
p338
atp339
Rp340
(dp341
g17
VIN
p342
sbag5
(g6
g7
(lp343
g5
(g6
g7
(lp344
g5
(g6
g7
(lp345
VCommon
p346
atp347
Rp348
(dp349
g17
VJJ
p350
sbag5
(g6
g7
(lp351
VSense
p352
atp353
Rp354
(dp355
g17
VNN
p356
sbatp357
Rp358
(dp359
g17
VNP
p360
sbag5
(g6
g7
(lp361
V``
p362
atp363
Rp364
(dp365
g17
V``
p366
sbag5
(g6
g7
(lp367
g5
(g6
g7
(lp368
Vsince
p369
atp370
Rp371
(dp372
g17
VIN
p373
sbag5
(g6
g7
(lp374
g5
(g6
g7
(lp375
g5
(g6
g7
(lp376
g282
atp377
Rp378
(dp379
g17
VPRP
p380
sbatp381
Rp382
(dp383
g17
VNP
p384
sbag5
(g6
g7
(lp385
g5
(g6
g7
(lp386
Vwrote
p387
atp388
Rp389
(dp390
g17
VVBD
p391
sbag5
(g6
g7
(lp392
g5
(g6
g7
(lp393
Va
p394
atp395
Rp396
(dp397
g17
VDT
p398
sbag5
(g6
g7
(lp399
Vpaper
p400
atp401
Rp402
(dp403
g17
VNN
p404
sbatp405
Rp406
(dp407
g17
VNP
p408
sbag5
(g6
g7
(lp409
g5
(g6
g7
(lp410
Vwith
p411
atp412
Rp413
(dp414
g17
VIN
p415
sbag5
(g6
g7
(lp416
g5
(g6
g7
(lp417
Vthat
p418
atp419
Rp420
(dp421
g17
VDT
p422
sbag5
(g6
g7
(lp423
Vtitle
p424
atp425
Rp426
(dp427
g17
VNN
p428
sbatp429
Rp430
(dp431
g17
VNP
p432
sbatp433
Rp434
(dp435
g17
VPP
p436
sbag5
(g6
g7
(lp437
g5
(g6
g7
(lp438
Vin
p439
atp440
Rp441
(dp442
g17
VIN
p443
sbag5
(g6
g7
(lp444
g5
(g6
g7
(lp445
V1958
p446
atp447
Rp448
(dp449
g17
VCD
p450
sbatp451
Rp452
(dp453
g17
VNP
p454
sbatp455
Rp456
(dp457
g17
VPP
p458
sbatp459
Rp460
(dp461
g17
VVP
p462
sbatp463
Rp464
(dp465
g17
g169
sbatp466
Rp467
(dp468
g17
VSBAR
p469
sbatp470
Rp471
(dp472
g17
VNP
p473
sbatp474
Rp475
(dp476
g17
VPP
p477
sbatp478
Rp479
(dp480
g17
VNP
p481
sbatp482
Rp483
(dp484
g17
VVP
p485
sbatp486
Rp487
(dp488
g17
VVP
p489
sbatp490
Rp491
(dp492
g17
VVP
p493
sbag5
(g6
g7
(lp494
g198
atp495
Rp496
(dp497
g17
g198
sbatp498
Rp499
(dp500
g17
g169
sbatp501
Rp502
(dp503
g17
VROOT
p504
sbasg209
(icmyPackage
CorE
p505
(dp506
g212
(lp507
(I0
I12
tp508
a(I0
I21
tp509
asg215
g5
(g6
g7
(lp510
g464
ag496
atp511
Rp512
(dp513
g17
g226
sbsbsg216
(icmyPackage
CorE
p514
(dp515
g212
(lp516
(I0
I0
tp517
a(I0
I10
tp518
asg215
g5
(g6
g7
(lp519
g288
ag295
ag302
ag309
ag315
ag333
ag340
ag358
ag364
atp520
Rp521
(dp522
g17
g226
sbsbsg227
(icmyPackage
pattern
p523
(dp524
g230
I23
sg231
I1
sg232
(lp525
(lp526
S'since'
p527
aasg245
(lp528
I3
aI1
aI1
asg247
(lp529
S'This is one of the simplest cases since the surface is so thin.'
p530
aS'He could not answer the question, since he had not made up his mind.'
p531
aS'That manager has been a basket case here since his wife left him.'
p532
asg250
I79
sg251
(lp533
(lp534
S'&R@NCTime@'
p535
aS'(,)'
p536
aa(lp537
S'&C@NCTime@'
p538
aasbsg264
(lp539
(icmyPackage
Sent
p540
(dp541
g268
I0
sg269
I2
sg270
S'I have been advocating "Computer Programs with Common Sense"since I wrote a paper with that title in 1958.'
p542
sg272
I0
sg273
I10
sg215
(lp543
g502
asbasba(icmyPackage
CELink
p544
(dp545
g3
(lp546
g5
(g6
g7
(lp547
g5
(g6
g7
(lp548
g5
(g6
g7
(lp549
g5
(g6
g7
(lp550
VAt
p551
atp552
Rp553
(dp554
g17
VIN
p555
sbag5
(g6
g7
(lp556
g5
(g6
g7
(lp557
Vpresent
p558
atp559
Rp560
(dp561
g17
VJJ
p562
sbatp563
Rp564
(dp565
g17
VADJP
p566
sbatp567
Rp568
(dp569
g17
VPP
p570
sbag5
(g6
g7
(lp571
g5
(g6
g7
(lp572
Vit
p573
atp574
Rp575
(dp576
g17
VPRP
p577
sbatp578
Rp579
(dp580
g17
VNP
p581
sbag5
(g6
g7
(lp582
g5
(g6
g7
(lp583
V's
p584
atp585
Rp586
(dp587
g17
VVBZ
p588
sbag5
(g6
g7
(lp589
g5
(g6
g7
(lp590
Vpopular
p591
atp592
Rp593
(dp594
g17
VJJ
p595
sbatp596
Rp597
(dp598
g17
VADJP
p599
sbag5
(g6
g7
(lp600
V,
p601
atp602
Rp603
(dp604
g17
g601
sbag5
(g6
g7
(lp605
g5
(g6
g7
(lp606
Vperhaps
p607
atp608
Rp609
(dp610
g17
VRB
p611
sbatp612
Rp613
(dp614
g17
VADVP
p615
sbag5
(g6
g7
(lp616
g5
(g6
g7
(lp617
Vbecause
p618
atp619
Rp620
(dp621
g17
VIN
p622
sbag5
(g6
g7
(lp623
g5
(g6
g7
(lp624
g5
(g6
g7
(lp625
Vnew
p626
atp627
Rp628
(dp629
g17
VJJ
p630
sbag5
(g6
g7
(lp631
VAI
p632
atp633
Rp634
(dp635
g17
VNN
p636
sbag5
(g6
g7
(lp637
Vknowledge
p638
atp639
Rp640
(dp641
g17
VNN
p642
sbatp643
Rp644
(dp645
g17
VNP
p646
sbag5
(g6
g7
(lp647
g5
(g6
g7
(lp648
Voffers
p649
atp650
Rp651
(dp652
g17
VVBZ
p653
sbag5
(g6
g7
(lp654
g5
(g6
g7
(lp655
g5
(g6
g7
(lp656
Vnew
p657
atp658
Rp659
(dp660
g17
VJJ
p661
sbag5
(g6
g7
(lp662
Vhope
p663
atp664
Rp665
(dp666
g17
VNN
p667
sbatp668
Rp669
(dp670
g17
VNP
p671
sbag5
(g6
g7
(lp672
g5
(g6
g7
(lp673
Vof
p674
atp675
Rp676
(dp677
g17
VIN
p678
sbag5
(g6
g7
(lp679
g5
(g6
g7
(lp680
Vprogress
p681
atp682
Rp683
(dp684
g17
VNN
p685
sbatp686
Rp687
(dp688
g17
VNP
p689
sbatp690
Rp691
(dp692
g17
VPP
p693
sbatp694
Rp695
(dp696
g17
VNP
p697
sbatp698
Rp699
(dp700
g17
VVP
p701
sbatp702
Rp703
(dp704
g17
g169
sbatp705
Rp706
(dp707
g17
VSBAR
p708
sbatp709
Rp710
(dp711
g17
VVP
p712
sbag5
(g6
g7
(lp713
g198
atp714
Rp715
(dp716
g17
g198
sbatp717
Rp718
(dp719
g17
g169
sbatp720
Rp721
(dp722
g17
VROOT
p723
sbasg209
(icmyPackage
CorE
p724
(dp725
g212
(lp726
(I0
I8
tp727
a(I0
I16
tp728
asg215
g5
(g6
g7
(lp729
g703
ag715
atp730
Rp731
(dp732
g17
g226
sbsbsg216
(icmyPackage
CorE
p733
(dp734
g212
(lp735
(I0
I0
tp736
a(I0
I6
tp737
asg215
g5
(g6
g7
(lp738
g568
ag579
ag586
ag597
ag603
ag613
atp739
Rp740
(dp741
g17
g226
sbsbsg227
(icmyPackage
pattern
p742
(dp743
g230
I407
sg231
I1
sg232
(lp744
(lp745
S'because'
p746
aasg245
(lp747
I3
aI1
aI1
asg247
(lp748
S'It ends up in burnout and less production, because we inevitably run out of energy.'
p749
asg250
I76
sg251
(lp750
(lp751
S'&R'
p752
aS'(,)'
p753
aS'(&ADV)'
p754
aa(lp755
S'&C'
p756
aasbsg264
(lp757
(icmyPackage
Sent
p758
(dp759
g268
I0
sg269
I2
sg270
S"At present it's popular, perhaps because new AI knowledge offers new hope of progress."
p760
sg272
I0
sg273
I12
sg215
(lp761
g721
asbasba(icmyPackage
CELink
p762
(dp763
g3
(lp764
g5
(g6
g7
(lp765
g5
(g6
g7
(lp766
g5
(g6
g7
(lp767
g5
(g6
g7
(lp768
VWhile
p769
atp770
Rp771
(dp772
g17
VIN
p773
sbag5
(g6
g7
(lp774
g5
(g6
g7
(lp775
g5
(g6
g7
(lp776
Vthe
p777
atp778
Rp779
(dp780
g17
VDT
p781
sbag5
(g6
g7
(lp782
Vdialog
p783
atp784
Rp785
(dp786
g17
VNN
p787
sbatp788
Rp789
(dp790
g17
VNP
p791
sbag5
(g6
g7
(lp792
g5
(g6
g7
(lp793
Vis
p794
atp795
Rp796
(dp797
g17
VVBZ
p798
sbag5
(g6
g7
(lp799
g5
(g6
g7
(lp800
Vin
p801
atp802
Rp803
(dp804
g17
VIN
p805
sbag5
(g6
g7
(lp806
g5
(g6
g7
(lp807
VEnglish
p808
atp809
Rp810
(dp811
g17
VNNP
p812
sbatp813
Rp814
(dp815
g17
VNP
p816
sbatp817
Rp818
(dp819
g17
VPP
p820
sbatp821
Rp822
(dp823
g17
VVP
p824
sbatp825
Rp826
(dp827
g17
g169
sbatp828
Rp829
(dp830
g17
VSBAR
p831
sbag5
(g6
g7
(lp832
g601
atp833
Rp834
(dp835
g17
g601
sbag5
(g6
g7
(lp836
g5
(g6
g7
(lp837
VMYCIN
p838
atp839
Rp840
(dp841
g17
VNNP
p842
sbatp843
Rp844
(dp845
g17
VNP
p846
sbag5
(g6
g7
(lp847
g5
(g6
g7
(lp848
Vavoids
p849
atp850
Rp851
(dp852
g17
VVBZ
p853
sbag5
(g6
g7
(lp854
g5
(g6
g7
(lp855
g5
(g6
g7
(lp856
Vhaving
p857
atp858
Rp859
(dp860
g17
VVBG
p861
sbag5
(g6
g7
(lp862
g5
(g6
g7
(lp863
g5
(g6
g7
(lp864
Vto
p865
atp866
Rp867
(dp868
g17
VTO
p869
sbag5
(g6
g7
(lp870
g5
(g6
g7
(lp871
Vunderstand
p872
atp873
Rp874
(dp875
g17
VVB
p876
sbag5
(g6
g7
(lp877
g5
(g6
g7
(lp878
g5
(g6
g7
(lp879
g5
(g6
g7
(lp880
Vfreely
p881
atp882
Rp883
(dp884
g17
VRB
p885
sbag5
(g6
g7
(lp886
Vwritten
p887
atp888
Rp889
(dp890
g17
VVBN
p891
sbatp892
Rp893
(dp894
g17
VADJP
p895
sbag5
(g6
g7
(lp896
VEnglish
p897
atp898
Rp899
(dp900
g17
VNNP
p901
sbatp902
Rp903
(dp904
g17
VNP
p905
sbag5
(g6
g7
(lp906
g5
(g6
g7
(lp907
Vby
p908
atp909
Rp910
(dp911
g17
VIN
p912
sbag5
(g6
g7
(lp913
g5
(g6
g7
(lp914
g5
(g6
g7
(lp915
Vcontrolling
p916
atp917
Rp918
(dp919
g17
VVBG
p920
sbag5
(g6
g7
(lp921
g5
(g6
g7
(lp922
Vthe
p923
atp924
Rp925
(dp926
g17
VDT
p927
sbag5
(g6
g7
(lp928
Vdialog
p929
atp930
Rp931
(dp932
g17
VNN
p933
sbatp934
Rp935
(dp936
g17
VNP
p937
sbatp938
Rp939
(dp940
g17
VVP
p941
sbatp942
Rp943
(dp944
g17
g169
sbatp945
Rp946
(dp947
g17
VPP
p948
sbatp949
Rp950
(dp951
g17
VNP
p952
sbatp953
Rp954
(dp955
g17
VVP
p956
sbatp957
Rp958
(dp959
g17
VVP
p960
sbatp961
Rp962
(dp963
g17
g169
sbatp964
Rp965
(dp966
g17
VVP
p967
sbatp968
Rp969
(dp970
g17
g169
sbatp971
Rp972
(dp973
g17
VVP
p974
sbag5
(g6
g7
(lp975
g198
atp976
Rp977
(dp978
g17
g198
sbatp979
Rp980
(dp981
g17
g169
sbatp982
Rp983
(dp984
g17
VROOT
p985
sbasg209
(icmyPackage
CorE
p986
(dp987
g212
(lp988
(I0
I16
tp989
a(I0
I18
tp990
asg215
g943
sbsg216
(icmyPackage
CorE
p991
(dp992
g212
(lp993
(I0
I0
tp994
a(I0
I14
tp995
asg215
g5
(g6
g7
(lp996
g829
ag834
ag844
ag851
ag859
ag867
ag874
ag903
atp997
Rp998
(dp999
g17
g226
sbsbsg227
(icmyPackage
pattern
p1000
(dp1001
g230
I0
sg231
I0
sg232
(lp1002
(lp1003
(lp1004
S'by'
p1005
aS'through'
p1006
aaasg245
(lp1007
I2
aI1
aI1
asg247
(lp1008
S'The similar relation can be detected by analyzing the contents of nodes based on such approaches as the Latent Semantic Analysis (LSA) and the Vector Space Model (VSM)'
p1009
asg250
I68
sg251
(lp1010
(lp1011
S'&R@Complete@'
p1012
aa(lp1013
S'&V-ing@C@'
p1014
aasbsg264
(lp1015
(icmyPackage
Sent
p1016
(dp1017
g268
I0
sg269
I4
sg270
S'While the dialog is in English, MYCIN avoids having to understand freely written English by controlling the dialog.'
p1018
sg272
I0
sg273
I22
sg215
(lp1019
g983
asbasba(icmyPackage
CELink
p1020
(dp1021
g3
(lp1022
g5
(g6
g7
(lp1023
g5
(g6
g7
(lp1024
g5
(g6
g7
(lp1025
g5
(g6
g7
(lp1026
g5
(g6
g7
(lp1027
g5
(g6
g7
(lp1028
VIts
p1029
atp1030
Rp1031
(dp1032
g17
VPRP$
p1033
sbag5
(g6
g7
(lp1034
Vmajor
p1035
atp1036
Rp1037
(dp1038
g17
VJJ
p1039
sbag5
(g6
g7
(lp1040
Vinnovations
p1041
atp1042
Rp1043
(dp1044
g17
VNNS
p1045
sbatp1046
Rp1047
(dp1048
g17
VNP
p1049
sbag5
(g6
g7
(lp1050
g5
(g6
g7
(lp1051
Vover
p1052
atp1053
Rp1054
(dp1055
g17
VIN
p1056
sbag5
(g6
g7
(lp1057
g5
(g6
g7
(lp1058
Vmany
p1059
atp1060
Rp1061
(dp1062
g17
VJJ
p1063
sbag5
(g6
g7
(lp1064
Vprevious
p1065
atp1066
Rp1067
(dp1068
g17
VJJ
p1069
sbag5
(g6
g7
(lp1070
Vexpert
p1071
atp1072
Rp1073
(dp1074
g17
VNN
p1075
sbag5
(g6
g7
(lp1076
Vsystems
p1077
atp1078
Rp1079
(dp1080
g17
VNNS
p1081
sbatp1082
Rp1083
(dp1084
g17
VNP
p1085
sbatp1086
Rp1087
(dp1088
g17
VPP
p1089
sbatp1090
Rp1091
(dp1092
g17
VNP
p1093
sbag5
(g6
g7
(lp1094
g5
(g6
g7
(lp1095
Vwere
p1096
atp1097
Rp1098
(dp1099
g17
VVBD
p1100
sbag5
(g6
g7
(lp1101
g5
(g6
g7
(lp1102
Vthat
p1103
atp1104
Rp1105
(dp1106
g17
VIN
p1107
sbag5
(g6
g7
(lp1108
g5
(g6
g7
(lp1109
g5
(g6
g7
(lp1110
Vit
p1111
atp1112
Rp1113
(dp1114
g17
VPRP
p1115
sbatp1116
Rp1117
(dp1118
g17
VNP
p1119
sbag5
(g6
g7
(lp1120
g5
(g6
g7
(lp1121
Vuses
p1122
atp1123
Rp1124
(dp1125
g17
VVBZ
p1126
sbag5
(g6
g7
(lp1127
g5
(g6
g7
(lp1128
g5
(g6
g7
(lp1129
Vmeasures
p1130
atp1131
Rp1132
(dp1133
g17
VNNS
p1134
sbatp1135
Rp1136
(dp1137
g17
VNP
p1138
sbag5
(g6
g7
(lp1139
g5
(g6
g7
(lp1140
Vof
p1141
atp1142
Rp1143
(dp1144
g17
VIN
p1145
sbag5
(g6
g7
(lp1146
g5
(g6
g7
(lp1147
g5
(g6
g7
(lp1148
g5
(g6
g7
(lp1149
g5
(g6
g7
(lp1150
Vuncertainty
p1151
atp1152
Rp1153
(dp1154
g17
VNN
p1155
sbatp1156
Rp1157
(dp1158
g17
VNP
p1159
sbag5
(g6
g7
(lp1160
g5
(g6
g7
(lp1161
V-LRB-
p1162
atp1163
Rp1164
(dp1165
g17
V-LRB-
p1166
sbag5
(g6
g7
(lp1167
Vnot
p1168
atp1169
Rp1170
(dp1171
g17
VRB
p1172
sbag5
(g6
g7
(lp1173
g5
(g6
g7
(lp1174
Vprobabilities
p1175
atp1176
Rp1177
(dp1178
g17
VNNP
p1179
sbatp1180
Rp1181
(dp1182
g17
VNP
p1183
sbag5
(g6
g7
(lp1184
V-RRB-
p1185
atp1186
Rp1187
(dp1188
g17
V-RRB-
p1189
sbatp1190
Rp1191
(dp1192
g17
VPRN
p1193
sbatp1194
Rp1195
(dp1196
g17
VNP
p1197
sbag5
(g6
g7
(lp1198
g5
(g6
g7
(lp1199
Vfor
p1200
atp1201
Rp1202
(dp1203
g17
VIN
p1204
sbag5
(g6
g7
(lp1205
g5
(g6
g7
(lp1206
Vits
p1207
atp1208
Rp1209
(dp1210
g17
VPRP$
p1211
sbag5
(g6
g7
(lp1212
Vdiagnoses
p1213
atp1214
Rp1215
(dp1216
g17
VNNS
p1217
sbatp1218
Rp1219
(dp1220
g17
VNP
p1221
sbatp1222
Rp1223
(dp1224
g17
VPP
p1225
sbatp1226
Rp1227
(dp1228
g17
VNP
p1229
sbag5
(g6
g7
(lp1230
Vand
p1231
atp1232
Rp1233
(dp1234
g17
VCC
p1235
sbag5
(g6
g7
(lp1236
g5
(g6
g7
(lp1237
g5
(g6
g7
(lp1238
Vthe
p1239
atp1240
Rp1241
(dp1242
g17
VDT
p1243
sbag5
(g6
g7
(lp1244
Vfact
p1245
atp1246
Rp1247
(dp1248
g17
VNN
p1249
sbatp1250
Rp1251
(dp1252
g17
VNP
p1253
sbag5
(g6
g7
(lp1254
g5
(g6
g7
(lp1255
Vthat
p1256
atp1257
Rp1258
(dp1259
g17
VIN
p1260
sbag5
(g6
g7
(lp1261
g5
(g6
g7
(lp1262
g5
(g6
g7
(lp1263
Vit
p1264
atp1265
Rp1266
(dp1267
g17
VPRP
p1268
sbatp1269
Rp1270
(dp1271
g17
VNP
p1272
sbag5
(g6
g7
(lp1273
g5
(g6
g7
(lp1274
Vis
p1275
atp1276
Rp1277
(dp1278
g17
VVBZ
p1279
sbag5
(g6
g7
(lp1280
g5
(g6
g7
(lp1281
Vprepared
p1282
atp1283
Rp1284
(dp1285
g17
VJJ
p1286
sbag5
(g6
g7
(lp1287
g5
(g6
g7
(lp1288
g5
(g6
g7
(lp1289
Vto
p1290
atp1291
Rp1292
(dp1293
g17
VTO
p1294
sbag5
(g6
g7
(lp1295
g5
(g6
g7
(lp1296
Vexplain
p1297
atp1298
Rp1299
(dp1300
g17
VVB
p1301
sbag5
(g6
g7
(lp1302
g5
(g6
g7
(lp1303
Vits
p1304
atp1305
Rp1306
(dp1307
g17
VPRP$
p1308
sbag5
(g6
g7
(lp1309
Vreasoning
p1310
atp1311
Rp1312
(dp1313
g17
VNN
p1314
sbatp1315
Rp1316
(dp1317
g17
VNP
p1318
sbag5
(g6
g7
(lp1319
g5
(g6
g7
(lp1320
Vto
p1321
atp1322
Rp1323
(dp1324
g17
VTO
p1325
sbag5
(g6
g7
(lp1326
g5
(g6
g7
(lp1327
Vthe
p1328
atp1329
Rp1330
(dp1331
g17
VDT
p1332
sbag5
(g6
g7
(lp1333
Vphysician
p1334
atp1335
Rp1336
(dp1337
g17
VNN
p1338
sbatp1339
Rp1340
(dp1341
g17
VNP
p1342
sbatp1343
Rp1344
(dp1345
g17
VPP
p1346
sbatp1347
Rp1348
(dp1349
g17
VVP
p1350
sbatp1351
Rp1352
(dp1353
g17
VVP
p1354
sbatp1355
Rp1356
(dp1357
g17
g169
sbatp1358
Rp1359
(dp1360
g17
VADJP
p1361
sbatp1362
Rp1363
(dp1364
g17
VVP
p1365
sbatp1366
Rp1367
(dp1368
g17
g169
sbatp1369
Rp1370
(dp1371
g17
VSBAR
p1372
sbatp1373
Rp1374
(dp1375
g17
VNP
p1376
sbatp1377
Rp1378
(dp1379
g17
VNP
p1380
sbatp1381
Rp1382
(dp1383
g17
VPP
p1384
sbatp1385
Rp1386
(dp1387
g17
VNP
p1388
sbatp1389
Rp1390
(dp1391
g17
VVP
p1392
sbatp1393
Rp1394
(dp1395
g17
g169
sbatp1396
Rp1397
(dp1398
g17
VSBAR
p1399
sbatp1400
Rp1401
(dp1402
g17
VVP
p1403
sbatp1404
Rp1405
(dp1406
g17
g169
sbag5
(g6
g7
(lp1407
g601
atp1408
Rp1409
(dp1410
g17
g601
sbag5
(g6
g7
(lp1411
Vso
p1412
atp1413
Rp1414
(dp1415
g17
VIN
p1416
sbag5
(g6
g7
(lp1417
g5
(g6
g7
(lp1418
g5
(g6
g7
(lp1419
Vhe
p1420
atp1421
Rp1422
(dp1423
g17
VPRP
p1424
sbatp1425
Rp1426
(dp1427
g17
VNP
p1428
sbag5
(g6
g7
(lp1429
g5
(g6
g7
(lp1430
Vcan
p1431
atp1432
Rp1433
(dp1434
g17
VMD
p1435
sbag5
(g6
g7
(lp1436
g5
(g6
g7
(lp1437
Vdecide
p1438
atp1439
Rp1440
(dp1441
g17
VVB
p1442
sbag5
(g6
g7
(lp1443
g5
(g6
g7
(lp1444
Vwhether
p1445
atp1446
Rp1447
(dp1448
g17
VIN
p1449
sbag5
(g6
g7
(lp1450
g5
(g6
g7
(lp1451
g5
(g6
g7
(lp1452
Vto
p1453
atp1454
Rp1455
(dp1456
g17
VTO
p1457
sbag5
(g6
g7
(lp1458
g5
(g6
g7
(lp1459
Vaccept
p1460
atp1461
Rp1462
(dp1463
g17
VVB
p1464
sbag5
(g6
g7
(lp1465
g5
(g6
g7
(lp1466
Vit
p1467
atp1468
Rp1469
(dp1470
g17
VPRP
p1471
sbatp1472
Rp1473
(dp1474
g17
VNP
p1475
sbatp1476
Rp1477
(dp1478
g17
VVP
p1479
sbatp1480
Rp1481
(dp1482
g17
VVP
p1483
sbatp1484
Rp1485
(dp1486
g17
g169
sbatp1487
Rp1488
(dp1489
g17
VSBAR
p1490
sbatp1491
Rp1492
(dp1493
g17
VVP
p1494
sbatp1495
Rp1496
(dp1497
g17
VVP
p1498
sbatp1499
Rp1500
(dp1501
g17
g169
sbag5
(g6
g7
(lp1502
g198
atp1503
Rp1504
(dp1505
g17
g198
sbatp1506
Rp1507
(dp1508
g17
g169
sbatp1509
Rp1510
(dp1511
g17
VROOT
p1512
sbasg209
(icmyPackage
CorE
p1513
(dp1514
g212
(lp1515
(I0
I0
tp1516
a(I0
I35
tp1517
asg215
g1405
sbsg216
(icmyPackage
CorE
p1518
(dp1519
g212
(lp1520
(I0
I38
tp1521
a(I0
I45
tp1522
asg215
g5
(g6
g7
(lp1523
g1500
ag1504
atp1524
Rp1525
(dp1526
g17
g226
sbsbsg227
(icmyPackage
pattern
p1527
(dp1528
g230
I265
sg231
I1
sg232
(lp1529
(lp1530
S'so'
p1531
aasg245
(lp1532
I1
aI1
aI1
asg247
(lp1533
S'It was not long before he saw me looking at him, and so he began to move.'
p1534
asg250
I0
sg251
(lp1535
(lp1536
S'&C'
p1537
aS'(,/;/./--)'
p1538
aS'(&AND)'
p1539
aa(lp1540
S'(-far)'
p1541
aS'(,)'
p1542
aS'&R'
p1543
aasbsg264
(lp1544
(icmyPackage
Sent
p1545
(dp1546
g268
I0
sg269
I4
sg270
S'Its major innovations over many previous expert systems were that it uses measures of uncertainty (not probabilities) for its diagnoses and the fact that it is prepared to explain its reasoning to the physician, so he can decide whether to accept it.'
p1547
sg272
I0
sg273
I24
sg215
(lp1548
g1510
asbasba(icmyPackage
CELink
p1549
(dp1550
g3
(lp1551
g5
(g6
g7
(lp1552
g5
(g6
g7
(lp1553
g5
(g6
g7
(lp1554
g5
(g6
g7
(lp1555
g5
(g6
g7
(lp1556
VThis
p1557
atp1558
Rp1559
(dp1560
g17
VDT
p1561
sbatp1562
Rp1563
(dp1564
g17
VNP
p1565
sbag5
(g6
g7
(lp1566
g5
(g6
g7
(lp1567
Vis
p1568
atp1569
Rp1570
(dp1571
g17
VVBZ
p1572
sbag5
(g6
g7
(lp1573
g5
(g6
g7
(lp1574
Vbecause
p1575
atp1576
Rp1577
(dp1578
g17
VIN
p1579
sbag5
(g6
g7
(lp1580
g5
(g6
g7
(lp1581
g5
(g6
g7
(lp1582
Vpatients
p1583
atp1584
Rp1585
(dp1586
g17
VNNS
p1587
sbatp1588
Rp1589
(dp1590
g17
VNP
p1591
sbag5
(g6
g7
(lp1592
g5
(g6
g7
(lp1593
Vare
p1594
atp1595
Rp1596
(dp1597
g17
VVBP
p1598
sbag5
(g6
g7
(lp1599
Vn't
p1600
atp1601
Rp1602
(dp1603
g17
VRB
p1604
sbag5
(g6
g7
(lp1605
g5
(g6
g7
(lp1606
g5
(g6
g7
(lp1607
Vvalues
p1608
atp1609
Rp1610
(dp1611
g17
VNNS
p1612
sbatp1613
Rp1614
(dp1615
g17
VNP
p1616
sbag5
(g6
g7
(lp1617
g5
(g6
g7
(lp1618
Vof
p1619
atp1620
Rp1621
(dp1622
g17
VIN
p1623
sbag5
(g6
g7
(lp1624
g5
(g6
g7
(lp1625
Vvariables
p1626
atp1627
Rp1628
(dp1629
g17
VNNS
p1630
sbatp1631
Rp1632
(dp1633
g17
VNP
p1634
sbatp1635
Rp1636
(dp1637
g17
VPP
p1638
sbatp1639
Rp1640
(dp1641
g17
VNP
p1642
sbatp1643
Rp1644
(dp1645
g17
VVP
p1646
sbatp1647
Rp1648
(dp1649
g17
g169
sbatp1650
Rp1651
(dp1652
g17
VSBAR
p1653
sbatp1654
Rp1655
(dp1656
g17
VVP
p1657
sbatp1658
Rp1659
(dp1660
g17
g169
sbag5
(g6
g7
(lp1661
g601
atp1662
Rp1663
(dp1664
g17
g601
sbag5
(g6
g7
(lp1665
Vand
p1666
atp1667
Rp1668
(dp1669
g17
VCC
p1670
sbag5
(g6
g7
(lp1671
g5
(g6
g7
(lp1672
g5
(g6
g7
(lp1673
VMYCIN
p1674
atp1675
Rp1676
(dp1677
g17
VNNP
p1678
sbatp1679
Rp1680
(dp1681
g17
VNP
p1682
sbag5
(g6
g7
(lp1683
g5
(g6
g7
(lp1684
Vnever
p1685
atp1686
Rp1687
(dp1688
g17
VRB
p1689
sbatp1690
Rp1691
(dp1692
g17
VADVP
p1693
sbag5
(g6
g7
(lp1694
g5
(g6
g7
(lp1695
Vcompares
p1696
atp1697
Rp1698
(dp1699
g17
VVBZ
p1700
sbag5
(g6
g7
(lp1701
g5
(g6
g7
(lp1702
g5
(g6
g7
(lp1703
Vthe
p1704
atp1705
Rp1706
(dp1707
g17
VDT
p1708
sbag5
(g6
g7
(lp1709
Vinfections
p1710
atp1711
Rp1712
(dp1713
g17
VNNS
p1714
sbatp1715
Rp1716
(dp1717
g17
VNP
p1718
sbag5
(g6
g7
(lp1719
g5
(g6
g7
(lp1720
Vof
p1721
atp1722
Rp1723
(dp1724
g17
VIN
p1725
sbag5
(g6
g7
(lp1726
g5
(g6
g7
(lp1727
Vtwo
p1728
atp1729
Rp1730
(dp1731
g17
VCD
p1732
sbag5
(g6
g7
(lp1733
Vdifferent
p1734
atp1735
Rp1736
(dp1737
g17
VJJ
p1738
sbag5
(g6
g7
(lp1739
Vpatients
p1740
atp1741
Rp1742
(dp1743
g17
VNNS
p1744
sbatp1745
Rp1746
(dp1747
g17
VNP
p1748
sbatp1749
Rp1750
(dp1751
g17
VPP
p1752
sbatp1753
Rp1754
(dp1755
g17
VNP
p1756
sbatp1757
Rp1758
(dp1759
g17
VVP
p1760
sbatp1761
Rp1762
(dp1763
g17
g169
sbag5
(g6
g7
(lp1764
g198
atp1765
Rp1766
(dp1767
g17
g198
sbatp1768
Rp1769
(dp1770
g17
g169
sbatp1771
Rp1772
(dp1773
g17
VROOT
p1774
sbasg209
(icmyPackage
CorE
p1775
(dp1776
g212
(lp1777
(I0
I3
tp1778
a(I0
I8
tp1779
asg215
g1648
sbsg216
(icmyPackage
CorE
p1780
(dp1781
g212
(lp1782
(I0
I10
tp1783
a(I0
I20
tp1784
asg215
g5
(g6
g7
(lp1785
g1668
ag1762
ag1766
atp1786
Rp1787
(dp1788
g17
g226
sbsbsg227
(icmyPackage
pattern
p1789
(dp1790
g230
I18
sg231
I0
sg232
(lp1791
(lp1792
S'because'
p1793
aa(lp1794
S','
p1795
aasg245
(lp1796
I3
aI1
aI1
asg247
(lp1797
S'Because he was absent for two weeks, the other students in his class are ahead of him.'
p1798
asg250
I75
sg251
(lp1799
(lp1800
a(lp1801
S'&C'
p1802
aa(lp1803
S'&R'
p1804
aasbsg264
(lp1805
(icmyPackage
Sent
p1806
(dp1807
g268
I0
sg269
I6
sg270
S"This is because patients aren't values of variables, and MYCIN never compares the infections of two different patients."
p1808
sg272
I0
sg273
I31
sg215
(lp1809
g1772
asbasba(icmyPackage
CELink
p1810
(dp1811
g3
(lp1812
g1772
ag5
(g6
g7
(lp1813
g5
(g6
g7
(lp1814
g5
(g6
g7
(lp1815
g5
(g6
g7
(lp1816
VIt
p1817
atp1818
Rp1819
(dp1820
g17
VPRP
p1821
sbatp1822
Rp1823
(dp1824
g17
VNP
p1825
sbag5
(g6
g7
(lp1826
g5
(g6
g7
(lp1827
Vwould
p1828
atp1829
Rp1830
(dp1831
g17
VMD
p1832
sbag5
(g6
g7
(lp1833
g5
(g6
g7
(lp1834
Vtherefore
p1835
atp1836
Rp1837
(dp1838
g17
VRB
p1839
sbatp1840
Rp1841
(dp1842
g17
VADVP
p1843
sbag5
(g6
g7
(lp1844
g5
(g6
g7
(lp1845
Vbe
p1846
atp1847
Rp1848
(dp1849
g17
VVB
p1850
sbag5
(g6
g7
(lp1851
g5
(g6
g7
(lp1852
Vdifficult
p1853
atp1854
Rp1855
(dp1856
g17
VJJ
p1857
sbag5
(g6
g7
(lp1858
g5
(g6
g7
(lp1859
g5
(g6
g7
(lp1860
Vto
p1861
atp1862
Rp1863
(dp1864
g17
VTO
p1865
sbag5
(g6
g7
(lp1866
g5
(g6
g7
(lp1867
Vmodify
p1868
atp1869
Rp1870
(dp1871
g17
VVB
p1872
sbag5
(g6
g7
(lp1873
g5
(g6
g7
(lp1874
g5
(g6
g7
(lp1875
VMYCIN
p1876
atp1877
Rp1878
(dp1879
g17
VNNP
p1880
sbatp1881
Rp1882
(dp1883
g17
VNP
p1884
sbag5
(g6
g7
(lp1885
g5
(g6
g7
(lp1886
Vto
p1887
atp1888
Rp1889
(dp1890
g17
VTO
p1891
sbag5
(g6
g7
(lp1892
g5
(g6
g7
(lp1893
Vlearn
p1894
atp1895
Rp1896
(dp1897
g17
VVB
p1898
sbag5
(g6
g7
(lp1899
g5
(g6
g7
(lp1900
Vfrom
p1901
atp1902
Rp1903
(dp1904
g17
VIN
p1905
sbag5
(g6
g7
(lp1906
g5
(g6
g7
(lp1907
Vits
p1908
atp1909
Rp1910
(dp1911
g17
VPRP$
p1912
sbag5
(g6
g7
(lp1913
Vexperience
p1914
atp1915
Rp1916
(dp1917
g17
VNN
p1918
sbatp1919
Rp1920
(dp1921
g17
VNP
p1922
sbatp1923
Rp1924
(dp1925
g17
VPP
p1926
sbatp1927
Rp1928
(dp1929
g17
VVP
p1930
sbatp1931
Rp1932
(dp1933
g17
VVP
p1934
sbatp1935
Rp1936
(dp1937
g17
g169
sbatp1938
Rp1939
(dp1940
g17
VVP
p1941
sbatp1942
Rp1943
(dp1944
g17
VVP
p1945
sbatp1946
Rp1947
(dp1948
g17
g169
sbatp1949
Rp1950
(dp1951
g17
VADJP
p1952
sbatp1953
Rp1954
(dp1955
g17
VVP
p1956
sbatp1957
Rp1958
(dp1959
g17
VVP
p1960
sbag5
(g6
g7
(lp1961
g198
atp1962
Rp1963
(dp1964
g17
g198
sbatp1965
Rp1966
(dp1967
g17
g169
sbatp1968
Rp1969
(dp1970
g17
VROOT
p1971
sbasg209
(icmyPackage
CorE
p1972
(dp1973
g212
(lp1974
(I0
I1
tp1975
a(I1
I1
tp1976
asg215
g5
(g6
g7
(lp1977
g1655
ag1663
ag1668
ag1762
ag1766
ag1823
ag1830
atp1978
Rp1979
(dp1980
g17
g226
sbsbsg216
(icmyPackage
CorE
p1981
(dp1982
g212
(lp1983
(I1
I3
tp1984
a(I1
I13
tp1985
asg215
g5
(g6
g7
(lp1986
g1954
ag1963
atp1987
Rp1988
(dp1989
g17
g226
sbsbsg227
(icmyPackage
pattern
p1990
(dp1991
g230
I62
sg231
I1
sg232
(lp1992
(lp1993
S'therefore'
p1994
aasg245
(lp1995
I1
aI1
aI1
asg247
(lp1996
S'He never lies; therefore, everyone likes to make friends with him.'
p1997
asg250
I1
sg251
(lp1998
(lp1999
S'&C'
p2000
aS'(,/;/./--)'
p2001
aS'(&AND)'
p2002
aa(lp2003
S'(,)'
p2004
aS'&R'
p2005
aasbsg264
(lp2006
g1806
a(icmyPackage
Sent
p2007
(dp2008
g268
I0
sg269
I6
sg270
S'It would therefore be difficult to modify MYCIN to learn from its experience.'
p2009
sg272
I0
sg273
I32
sg215
(lp2010
g1969
asbasba(icmyPackage
CELink
p2011
(dp2012
g3
(lp2013
g5
(g6
g7
(lp2014
g5
(g6
g7
(lp2015
g5
(g6
g7
(lp2016
g5
(g6
g7
(lp2017
g5
(g6
g7
(lp2018
VWhen
p2019
atp2020
Rp2021
(dp2022
g17
VWRB
p2023
sbatp2024
Rp2025
(dp2026
g17
VWHADVP
p2027
sbag5
(g6
g7
(lp2028
g5
(g6
g7
(lp2029
g5
(g6
g7
(lp2030
g394
atp2031
Rp2032
(dp2033
g17
VDT
p2034
sbag5
(g6
g7
(lp2035
Vrule
p2036
atp2037
Rp2038
(dp2039
g17
VNN
p2040
sbatp2041
Rp2042
(dp2043
g17
VNP
p2044
sbag5
(g6
g7
(lp2045
g5
(g6
g7
(lp2046
Vis
p2047
atp2048
Rp2049
(dp2050
g17
VVBZ
p2051
sbag5
(g6
g7
(lp2052
g5
(g6
g7
(lp2053
Vactivated
p2054
atp2055
Rp2056
(dp2057
g17
VVBN
p2058
sbatp2059
Rp2060
(dp2061
g17
VVP
p2062
sbatp2063
Rp2064
(dp2065
g17
VVP
p2066
sbatp2067
Rp2068
(dp2069
g17
g169
sbatp2070
Rp2071
(dp2072
g17
VSBAR
p2073
sbag5
(g6
g7
(lp2074
g601
atp2075
Rp2076
(dp2077
g17
g601
sbag5
(g6
g7
(lp2078
g5
(g6
g7
(lp2079
VMYCIN
p2080
atp2081
Rp2082
(dp2083
g17
VNNP
p2084
sbatp2085
Rp2086
(dp2087
g17
VNP
p2088
sbag5
(g6
g7
(lp2089
g5
(g6
g7
(lp2090
Vtests
p2091
atp2092
Rp2093
(dp2094
g17
VVBZ
p2095
sbag5
(g6
g7
(lp2096
g5
(g6
g7
(lp2097
Vwhether
p2098
atp2099
Rp2100
(dp2101
g17
VIN
p2102
sbag5
(g6
g7
(lp2103
g5
(g6
g7
(lp2104
g5
(g6
g7
(lp2105
Vthe
p2106
atp2107
Rp2108
(dp2109
g17
VDT
p2110
sbag5
(g6
g7
(lp2111
Vpattern
p2112
atp2113
Rp2114
(dp2115
g17
VNN
p2116
sbag5
(g6
g7
(lp2117
Vpart
p2118
atp2119
Rp2120
(dp2121
g17
VNN
p2122
sbatp2123
Rp2124
(dp2125
g17
VNP
p2126
sbag5
(g6
g7
(lp2127
g5
(g6
g7
(lp2128
Vmatches
p2129
atp2130
Rp2131
(dp2132
g17
VVBZ
p2133
sbag5
(g6
g7
(lp2134
g5
(g6
g7
(lp2135
Vthe
p2136
atp2137
Rp2138
(dp2139
g17
VDT
p2140
sbag5
(g6
g7
(lp2141
Vdatabase
p2142
atp2143
Rp2144
(dp2145
g17
VNN
p2146
sbatp2147
Rp2148
(dp2149
g17
VNP
p2150
sbatp2151
Rp2152
(dp2153
g17
VVP
p2154
sbatp2155
Rp2156
(dp2157
g17
g169
sbatp2158
Rp2159
(dp2160
g17
VSBAR
p2161
sbatp2162
Rp2163
(dp2164
g17
VVP
p2165
sbag5
(g6
g7
(lp2166
g198
atp2167
Rp2168
(dp2169
g17
g198
sbatp2170
Rp2171
(dp2172
g17
g169
sbatp2173
Rp2174
(dp2175
g17
VROOT
p2176
sbag5
(g6
g7
(lp2177
g5
(g6
g7
(lp2178
g5
(g6
g7
(lp2179
VIf
p2180
atp2181
Rp2182
(dp2183
g17
VIN
p2184
sbag5
(g6
g7
(lp2185
g5
(g6
g7
(lp2186
Vso
p2187
atp2188
Rp2189
(dp2190
g17
VIN
p2191
sbag5
(g6
g7
(lp2192
g5
(g6
g7
(lp2193
g5
(g6
g7
(lp2194
Vthis
p2195
atp2196
Rp2197
(dp2198
g17
VDT
p2199
sbatp2200
Rp2201
(dp2202
g17
VNP
p2203
sbag5
(g6
g7
(lp2204
g5
(g6
g7
(lp2205
Vresults
p2206
atp2207
Rp2208
(dp2209
g17
VVBZ
p2210
sbag5
(g6
g7
(lp2211
g5
(g6
g7
(lp2212
Vin
p2213
atp2214
Rp2215
(dp2216
g17
VIN
p2217
sbag5
(g6
g7
(lp2218
g5
(g6
g7
(lp2219
g5
(g6
g7
(lp2220
Vthe
p2221
atp2222
Rp2223
(dp2224
g17
VDT
p2225
sbag5
(g6
g7
(lp2226
Vvariables
p2227
atp2228
Rp2229
(dp2230
g17
VNNS
p2231
sbatp2232
Rp2233
(dp2234
g17
VNP
p2235
sbag5
(g6
g7
(lp2236
g5
(g6
g7
(lp2237
Vin
p2238
atp2239
Rp2240
(dp2241
g17
VIN
p2242
sbag5
(g6
g7
(lp2243
g5
(g6
g7
(lp2244
g5
(g6
g7
(lp2245
Vthe
p2246
atp2247
Rp2248
(dp2249
g17
VDT
p2250
sbag5
(g6
g7
(lp2251
Vpattern
p2252
atp2253
Rp2254
(dp2255
g17
VNN
p2256
sbatp2257
Rp2258
(dp2259
g17
VNP
p2260
sbag5
(g6
g7
(lp2261
g5
(g6
g7
(lp2262
Vbeing
p2263
atp2264
Rp2265
(dp2266
g17
VVBG
p2267
sbag5
(g6
g7
(lp2268
g5
(g6
g7
(lp2269
Vmatched
p2270
atp2271
Rp2272
(dp2273
g17
VVBN
p2274
sbag5
(g6
g7
(lp2275
g5
(g6
g7
(lp2276
Vto
p2277
atp2278
Rp2279
(dp2280
g17
VTO
p2281
sbag5
(g6
g7
(lp2282
g5
(g6
g7
(lp2283
g5
(g6
g7
(lp2284
Vwhatever
p2285
atp2286
Rp2287
(dp2288
g17
VWDT
p2289
sbatp2290
Rp2291
(dp2292
g17
VWHNP
p2293
sbag5
(g6
g7
(lp2294
g5
(g6
g7
(lp2295
g5
(g6
g7
(lp2296
Ventities
p2297
atp2298
Rp2299
(dp2300
g17
VNNS
p2301
sbatp2302
Rp2303
(dp2304
g17
VNP
p2305
sbag5
(g6
g7
(lp2306
g5
(g6
g7
(lp2307
Vare
p2308
atp2309
Rp2310
(dp2311
g17
VVBP
p2312
sbag5
(g6
g7
(lp2313
g5
(g6
g7
(lp2314
Vrequired
p2315
atp2316
Rp2317
(dp2318
g17
VVBN
p2319
sbag5
(g6
g7
(lp2320
g5
(g6
g7
(lp2321
Vfor
p2322
atp2323
Rp2324
(dp2325
g17
VIN
p2326
sbag5
(g6
g7
(lp2327
g5
(g6
g7
(lp2328
g5
(g6
g7
(lp2329
Vthe
p2330
atp2331
Rp2332
(dp2333
g17
VDT
p2334
sbag5
(g6
g7
(lp2335
Vmatch
p2336
atp2337
Rp2338
(dp2339
g17
VNN
p2340
sbatp2341
Rp2342
(dp2343
g17
VNP
p2344
sbag5
(g6
g7
(lp2345
g5
(g6
g7
(lp2346
Vof
p2347
atp2348
Rp2349
(dp2350
g17
VIN
p2351
sbag5
(g6
g7
(lp2352
g5
(g6
g7
(lp2353
Vthe
p2354
atp2355
Rp2356
(dp2357
g17
VDT
p2358
sbag5
(g6
g7
(lp2359
Vdatabase
p2360
atp2361
Rp2362
(dp2363
g17
VNN
p2364
sbatp2365
Rp2366
(dp2367
g17
VNP
p2368
sbatp2369
Rp2370
(dp2371
g17
VPP
p2372
sbatp2373
Rp2374
(dp2375
g17
VNP
p2376
sbatp2377
Rp2378
(dp2379
g17
VPP
p2380
sbatp2381
Rp2382
(dp2383
g17
VVP
p2384
sbatp2385
Rp2386
(dp2387
g17
VVP
p2388
sbatp2389
Rp2390
(dp2391
g17
g169
sbatp2392
Rp2393
(dp2394
g17
VSBAR
p2395
sbatp2396
Rp2397
(dp2398
g17
VPP
p2399
sbatp2400
Rp2401
(dp2402
g17
VVP
p2403
sbatp2404
Rp2405
(dp2406
g17
VVP
p2407
sbatp2408
Rp2409
(dp2410
g17
VNP
p2411
sbatp2412
Rp2413
(dp2414
g17
VPP
p2415
sbatp2416
Rp2417
(dp2418
g17
VNP
p2419
sbatp2420
Rp2421
(dp2422
g17
VPP
p2423
sbatp2424
Rp2425
(dp2426
g17
VVP
p2427
sbatp2428
Rp2429
(dp2430
g17
g169
sbatp2431
Rp2432
(dp2433
g17
VSBAR
p2434
sbag5
(g6
g7
(lp2435
g198
atp2436
Rp2437
(dp2438
g17
g198
sbatp2439
Rp2440
(dp2441
g17
VFRAG
p2442
sbatp2443
Rp2444
(dp2445
g17
VROOT
p2446
sbasg209
(icmyPackage
CorE
p2447
(dp2448
g212
(lp2449
(I0
I1
tp2450
a(I1
I0
tp2451
asg215
g5
(g6
g7
(lp2452
g2068
ag2076
ag2086
ag2163
ag2168
ag2182
atp2453
Rp2454
(dp2455
g17
g226
sbsbsg216
(icmyPackage
CorE
p2456
(dp2457
g212
(lp2458
(I1
I2
tp2459
a(I1
I23
tp2460
asg215
g5
(g6
g7
(lp2461
g2429
ag2437
atp2462
Rp2463
(dp2464
g17
g226
sbsbsg227
g1527
sg264
(lp2465
(icmyPackage
Sent
p2466
(dp2467
g268
I0
sg269
I7
sg270
S'When a rule is activated, MYCIN tests whether the pattern part matches the database.'
p2468
sg272
I0
sg273
I35
sg215
(lp2469
g2174
asba(icmyPackage
Sent
p2470
(dp2471
g268
I0
sg269
I7
sg270
S'If so this results in the variables in the pattern being matched to whatever entities are required for the match of the database.'
p2472
sg272
I0
sg273
I36
sg215
(lp2473
g2444
asbasba(icmyPackage
CELink
p2474
(dp2475
g3
(lp2476
g5
(g6
g7
(lp2477
g5
(g6
g7
(lp2478
g5
(g6
g7
(lp2479
g5
(g6
g7
(lp2480
VIf
p2481
atp2482
Rp2483
(dp2484
g17
VIN
p2485
sbag5
(g6
g7
(lp2486
g5
(g6
g7
(lp2487
g5
(g6
g7
(lp2488
Vthe
p2489
atp2490
Rp2491
(dp2492
g17
VDT
p2493
sbag5
(g6
g7
(lp2494
Vmatch
p2495
atp2496
Rp2497
(dp2498
g17
VNN
p2499
sbatp2500
Rp2501
(dp2502
g17
VNP
p2503
sbag5
(g6
g7
(lp2504
g5
(g6
g7
(lp2505
Vis
p2506
atp2507
Rp2508
(dp2509
g17
VVBZ
p2510
sbag5
(g6
g7
(lp2511
g5
(g6
g7
(lp2512
Vsuccessful
p2513
atp2514
Rp2515
(dp2516
g17
VJJ
p2517
sbatp2518
Rp2519
(dp2520
g17
VADJP
p2521
sbatp2522
Rp2523
(dp2524
g17
VVP
p2525
sbatp2526
Rp2527
(dp2528
g17
g169
sbatp2529
Rp2530
(dp2531
g17
VSBAR
p2532
sbag5
(g6
g7
(lp2533
g601
atp2534
Rp2535
(dp2536
g17
g601
sbag5
(g6
g7
(lp2537
g5
(g6
g7
(lp2538
Vthen
p2539
atp2540
Rp2541
(dp2542
g17
VRB
p2543
sbatp2544
Rp2545
(dp2546
g17
VADVP
p2547
sbag5
(g6
g7
(lp2548
g5
(g6
g7
(lp2549
VMYCIN
p2550
atp2551
Rp2552
(dp2553
g17
VNNP
p2554
sbatp2555
Rp2556
(dp2557
g17
VNP
p2558
sbag5
(g6
g7
(lp2559
g5
(g6
g7
(lp2560
Vperforms
p2561
atp2562
Rp2563
(dp2564
g17
VVBZ
p2565
sbag5
(g6
g7
(lp2566
g5
(g6
g7
(lp2567
g5
(g6
g7
(lp2568
Vthe
p2569
atp2570
Rp2571
(dp2572
g17
VDT
p2573
sbag5
(g6
g7
(lp2574
Vaction
p2575
atp2576
Rp2577
(dp2578
g17
VNN
p2579
sbag5
(g6
g7
(lp2580
Vpart
p2581
atp2582
Rp2583
(dp2584
g17
VNN
p2585
sbatp2586
Rp2587
(dp2588
g17
VNP
p2589
sbag5
(g6
g7
(lp2590
g5
(g6
g7
(lp2591
Vof
p2592
atp2593
Rp2594
(dp2595
g17
VIN
p2596
sbag5
(g6
g7
(lp2597
g5
(g6
g7
(lp2598
g5
(g6
g7
(lp2599
Vthe
p2600
atp2601
Rp2602
(dp2603
g17
VDT
p2604
sbag5
(g6
g7
(lp2605
Vpattern
p2606
atp2607
Rp2608
(dp2609
g17
VNN
p2610
sbatp2611
Rp2612
(dp2613
g17
VNP
p2614
sbag5
(g6
g7
(lp2615
g5
(g6
g7
(lp2616
Vusing
p2617
atp2618
Rp2619
(dp2620
g17
VVBG
p2621
sbag5
(g6
g7
(lp2622
g5
(g6
g7
(lp2623
g5
(g6
g7
(lp2624
Vthe
p2625
atp2626
Rp2627
(dp2628
g17
VDT
p2629
sbag5
(g6
g7
(lp2630
Vvalues
p2631
atp2632
Rp2633
(dp2634
g17
VNNS
p2635
sbatp2636
Rp2637
(dp2638
g17
VNP
p2639
sbag5
(g6
g7
(lp2640
g5
(g6
g7
(lp2641
Vof
p2642
atp2643
Rp2644
(dp2645
g17
VIN
p2646
sbag5
(g6
g7
(lp2647
g5
(g6
g7
(lp2648
g5
(g6
g7
(lp2649
Vthe
p2650
atp2651
Rp2652
(dp2653
g17
VDT
p2654
sbag5
(g6
g7
(lp2655
Vvariables
p2656
atp2657
Rp2658
(dp2659
g17
VNNS
p2660
sbatp2661
Rp2662
(dp2663
g17
VNP
p2664
sbag5
(g6
g7
(lp2665
g5
(g6
g7
(lp2666
Vdetermined
p2667
atp2668
Rp2669
(dp2670
g17
VVBN
p2671
sbag5
(g6
g7
(lp2672
g5
(g6
g7
(lp2673
Vby
p2674
atp2675
Rp2676
(dp2677
g17
VIN
p2678
sbag5
(g6
g7
(lp2679
g5
(g6
g7
(lp2680
Vthe
p2681
atp2682
Rp2683
(dp2684
g17
VDT
p2685
sbag5
(g6
g7
(lp2686
Vpattern
p2687
atp2688
Rp2689
(dp2690
g17
VNN
p2691
sbag5
(g6
g7
(lp2692
Vpart
p2693
atp2694
Rp2695
(dp2696
g17
VNN
p2697
sbatp2698
Rp2699
(dp2700
g17
VNP
p2701
sbatp2702
Rp2703
(dp2704
g17
VPP
p2705
sbatp2706
Rp2707
(dp2708
g17
VVP
p2709
sbatp2710
Rp2711
(dp2712
g17
VNP
p2713
sbatp2714
Rp2715
(dp2716
g17
VPP
p2717
sbatp2718
Rp2719
(dp2720
g17
VNP
p2721
sbatp2722
Rp2723
(dp2724
g17
VVP
p2725
sbatp2726
Rp2727
(dp2728
g17
VNP
p2729
sbatp2730
Rp2731
(dp2732
g17
VPP
p2733
sbatp2734
Rp2735
(dp2736
g17
VNP
p2737
sbatp2738
Rp2739
(dp2740
g17
VVP
p2741
sbag5
(g6
g7
(lp2742
g198
atp2743
Rp2744
(dp2745
g17
g198
sbatp2746
Rp2747
(dp2748
g17
g169
sbatp2749
Rp2750
(dp2751
g17
VROOT
p2752
sbasg209
(icmyPackage
CorE
p2753
(dp2754
g212
(lp2755
(I0
I1
tp2756
a(I0
I4
tp2757
asg215
g2527
sbsg216
(icmyPackage
CorE
p2758
(dp2759
g212
(lp2760
(I0
I6
tp2761
a(I0
I26
tp2762
asg215
g5
(g6
g7
(lp2763
g2545
ag2556
ag2739
ag2744
atp2764
Rp2765
(dp2766
g17
g226
sbsbsg227
(icmyPackage
pattern
p2767
(dp2768
g230
I0
sg231
I0
sg232
(lp2769
(lp2770
(lp2771
S'if'
p2772
aS'once'
p2773
aaa(lp2774
g1795
aasg245
(lp2775
I1
aI1
aI1
asg247
(lp2776
S'If some light and mobile detection devices can be invented in the future, many new applications can be imagined, for example, people can get some services while thinking.'
p2777
asg250
I15
sg251
(lp2778
(lp2779
a(lp2780
S'&C@Complete@'
p2781
aa(lp2782
S'&R@Complete@'
p2783
aasbsg264
(lp2784
(icmyPackage
Sent
p2785
(dp2786
g268
I0
sg269
I7
sg270
S'If the match is successful, then MYCIN performs the action part of the pattern using the values of the variables determined by the pattern part.'
p2787
sg272
I0
sg273
I38
sg215
(lp2788
g2750
asbasba(icmyPackage
CELink
p2789
(dp2790
g3
(lp2791
g5
(g6
g7
(lp2792
g5
(g6
g7
(lp2793
g5
(g6
g7
(lp2794
g5
(g6
g7
(lp2795
VThe
p2796
atp2797
Rp2798
(dp2799
g17
VDT
p2800
sbag5
(g6
g7
(lp2801
Vproduction
p2802
atp2803
Rp2804
(dp2805
g17
VNN
p2806
sbag5
(g6
g7
(lp2807
Vformalism
p2808
atp2809
Rp2810
(dp2811
g17
VNN
p2812
sbatp2813
Rp2814
(dp2815
g17
VNP
p2816
sbag5
(g6
g7
(lp2817
g5
(g6
g7
(lp2818
Vturned
p2819
atp2820
Rp2821
(dp2822
g17
VVBD
p2823
sbag5
(g6
g7
(lp2824
g5
(g6
g7
(lp2825
Vout
p2826
atp2827
Rp2828
(dp2829
g17
VRP
p2830
sbatp2831
Rp2832
(dp2833
g17
VPRT
p2834
sbag5
(g6
g7
(lp2835
g5
(g6
g7
(lp2836
g5
(g6
g7
(lp2837
Vto
p2838
atp2839
Rp2840
(dp2841
g17
VTO
p2842
sbag5
(g6
g7
(lp2843
g5
(g6
g7
(lp2844
Vbe
p2845
atp2846
Rp2847
(dp2848
g17
VVB
p2849
sbag5
(g6
g7
(lp2850
g5
(g6
g7
(lp2851
Vsuitable
p2852
atp2853
Rp2854
(dp2855
g17
VJJ
p2856
sbag5
(g6
g7
(lp2857
g5
(g6
g7
(lp2858
Vfor
p2859
atp2860
Rp2861
(dp2862
g17
VIN
p2863
sbag5
(g6
g7
(lp2864
g5
(g6
g7
(lp2865
g5
(g6
g7
(lp2866
Vrepresenting
p2867
atp2868
Rp2869
(dp2870
g17
VVBG
p2871
sbag5
(g6
g7
(lp2872
g5
(g6
g7
(lp2873
g5
(g6
g7
(lp2874
g394
atp2875
Rp2876
(dp2877
g17
VDT
p2878
sbag5
(g6
g7
(lp2879
Vlarge
p2880
atp2881
Rp2882
(dp2883
g17
VJJ
p2884
sbag5
(g6
g7
(lp2885
Vamount
p2886
atp2887
Rp2888
(dp2889
g17
VNN
p2890
sbatp2891
Rp2892
(dp2893
g17
VNP
p2894
sbag5
(g6
g7
(lp2895
g5
(g6
g7
(lp2896
Vof
p2897
atp2898
Rp2899
(dp2900
g17
VIN
p2901
sbag5
(g6
g7
(lp2902
g5
(g6
g7
(lp2903
Vinformation
p2904
atp2905
Rp2906
(dp2907
g17
VNN
p2908
sbatp2909
Rp2910
(dp2911
g17
VNP
p2912
sbatp2913
Rp2914
(dp2915
g17
VPP
p2916
sbatp2917
Rp2918
(dp2919
g17
VNP
p2920
sbag5
(g6
g7
(lp2921
g5
(g6
g7
(lp2922
Vabout
p2923
atp2924
Rp2925
(dp2926
g17
VIN
p2927
sbag5
(g6
g7
(lp2928
g5
(g6
g7
(lp2929
g5
(g6
g7
(lp2930
Vthe
p2931
atp2932
Rp2933
(dp2934
g17
VDT
p2935
sbag5
(g6
g7
(lp2936
Vdiagnosis
p2937
atp2938
Rp2939
(dp2940
g17
VNN
p2941
sbag5
(g6
g7
(lp2942
Vand
p2943
atp2944
Rp2945
(dp2946
g17
VCC
p2947
sbag5
(g6
g7
(lp2948
Vtreatment
p2949
atp2950
Rp2951
(dp2952
g17
VNN
p2953
sbatp2954
Rp2955
(dp2956
g17
VNP
p2957
sbag5
(g6
g7
(lp2958
g5
(g6
g7
(lp2959
Vof
p2960
atp2961
Rp2962
(dp2963
g17
VIN
p2964
sbag5
(g6
g7
(lp2965
g5
(g6
g7
(lp2966
Vbacterial
p2967
atp2968
Rp2969
(dp2970
g17
VJJ
p2971
sbag5
(g6
g7
(lp2972
Vinfections
p2973
atp2974
Rp2975
(dp2976
g17
VNNS
p2977
sbatp2978
Rp2979
(dp2980
g17
VNP
p2981
sbatp2982
Rp2983
(dp2984
g17
VPP
p2985
sbatp2986
Rp2987
(dp2988
g17
VNP
p2989
sbatp2990
Rp2991
(dp2992
g17
VPP
p2993
sbatp2994
Rp2995
(dp2996
g17
VVP
p2997
sbatp2998
Rp2999
(dp3000
g17
g169
sbatp3001
Rp3002
(dp3003
g17
VPP
p3004
sbatp3005
Rp3006
(dp3007
g17
VADJP
p3008
sbatp3009
Rp3010
(dp3011
g17
VVP
p3012
sbatp3013
Rp3014
(dp3015
g17
VVP
p3016
sbatp3017
Rp3018
(dp3019
g17
g169
sbatp3020
Rp3021
(dp3022
g17
VVP
p3023
sbag5
(g6
g7
(lp3024
g198
atp3025
Rp3026
(dp3027
g17
g198
sbatp3028
Rp3029
(dp3030
g17
g169
sbatp3031
Rp3032
(dp3033
g17
VROOT
p3034
sbasg209
(icmyPackage
CorE
p3035
(dp3036
g212
(lp3037
(I0
I9
tp3038
a(I0
I22
tp3039
asg215
g2999
sbsg216
(icmyPackage
CorE
p3040
(dp3041
g212
(lp3042
(I0
I0
tp3043
a(I0
I7
tp3044
asg215
g5
(g6
g7
(lp3045
g2814
ag2821
ag2832
ag2840
ag2847
ag2854
atp3046
Rp3047
(dp3048
g17
g226
sbsbsg227
(icmyPackage
pattern
p3049
(dp3050
g230
I25
sg231
I0
sg232
(lp3051
(lp3052
S'for'
p3053
aasg245
(lp3054
I2
aI1
aI1
asg247
(lp3055
S'She was angry with him for being late.'
p3056
asg250
I44
sg251
(lp3057
(lp3058
S'&R'
p3059
aa(lp3060
S'&V-ing@C@'
p3061
aasbsg264
(lp3062
(icmyPackage
Sent
p3063
(dp3064
g268
I0
sg269
I8
sg270
S'The production formalism turned out to be suitable for representing a large amount of information about the diagnosis and treatment of bacterial infections.'
p3065
sg272
I0
sg273
I40
sg215
(lp3066
g3032
asbasba(icmyPackage
CELink
p3067
(dp3068
g3
(lp3069
g5
(g6
g7
(lp3070
g5
(g6
g7
(lp3071
g5
(g6
g7
(lp3072
g5
(g6
g7
(lp3073
VSome
p3074
atp3075
Rp3076
(dp3077
g17
VDT
p3078
sbatp3079
Rp3080
(dp3081
g17
VNP
p3082
sbag5
(g6
g7
(lp3083
g5
(g6
g7
(lp3084
Vsaid
p3085
atp3086
Rp3087
(dp3088
g17
VVBD
p3089
sbag5
(g6
g7
(lp3090
g5
(g6
g7
(lp3091
g5
(g6
g7
(lp3092
g5
(g6
g7
(lp3093
Vit
p3094
atp3095
Rp3096
(dp3097
g17
VPRP
p3098
sbatp3099
Rp3100
(dp3101
g17
VNP
p3102
sbag5
(g6
g7
(lp3103
g5
(g6
g7
(lp3104
Vwould
p3105
atp3106
Rp3107
(dp3108
g17
VMD
p3109
sbag5
(g6
g7
(lp3110
g5
(g6
g7
(lp3111
Vbe
p3112
atp3113
Rp3114
(dp3115
g17
VVB
p3116
sbag5
(g6
g7
(lp3117
g5
(g6
g7
(lp3118
Vok
p3119
atp3120
Rp3121
(dp3122
g17
VVBN
p3123
sbag5
(g6
g7
(lp3124
g5
(g6
g7
(lp3125
Vif
p3126
atp3127
Rp3128
(dp3129
g17
VIN
p3130
sbag5
(g6
g7
(lp3131
g5
(g6
g7
(lp3132
g5
(g6
g7
(lp3133
Vthere
p3134
atp3135
Rp3136
(dp3137
g17
VEX
p3138
sbatp3139
Rp3140
(dp3141
g17
VNP
p3142
sbag5
(g6
g7
(lp3143
g5
(g6
g7
(lp3144
Vwere
p3145
atp3146
Rp3147
(dp3148
g17
VVBD
p3149
sbag5
(g6
g7
(lp3150
g5
(g6
g7
(lp3151
g5
(g6
g7
(lp3152
g394
atp3153
Rp3154
(dp3155
g17
VDT
p3156
sbag5
(g6
g7
(lp3157
Vmeans
p3158
atp3159
Rp3160
(dp3161
g17
VNN
p3162
sbatp3163
Rp3164
(dp3165
g17
VNP
p3166
sbag5
(g6
g7
(lp3167
g5
(g6
g7
(lp3168
Vof
p3169
atp3170
Rp3171
(dp3172
g17
VIN
p3173
sbag5
(g6
g7
(lp3174
g5
(g6
g7
(lp3175
g5
(g6
g7
(lp3176
Vkeeping
p3177
atp3178
Rp3179
(dp3180
g17
VVBG
p3181
sbag5
(g6
g7
(lp3182
g5
(g6
g7
(lp3183
g5
(g6
g7
(lp3184
VMYCIN
p3185
atp3186
Rp3187
(dp3188
g17
VNNP
p3189
sbag5
(g6
g7
(lp3190
V's
p3191
atp3192
Rp3193
(dp3194
g17
VPOS
p3195
sbatp3196
Rp3197
(dp3198
g17
VNP
p3199
sbag5
(g6
g7
(lp3200
Vdatabase
p3201
atp3202
Rp3203
(dp3204
g17
VNN
p3205
sbag5
(g6
g7
(lp3206
Vcurrent
p3207
atp3208
Rp3209
(dp3210
g17
VJJ
p3211
sbatp3212
Rp3213
(dp3214
g17
VNP
p3215
sbag5
(g6
g7
(lp3216
g5
(g6
g7
(lp3217
Vwith
p3218
atp3219
Rp3220
(dp3221
g17
VIN
p3222
sbag5
(g6
g7
(lp3223
g5
(g6
g7
(lp3224
g5
(g6
g7
(lp3225
Vnew
p3226
atp3227
Rp3228
(dp3229
g17
VJJ
p3230
sbag5
(g6
g7
(lp3231
Vdiscoveries
p3232
atp3233
Rp3234
(dp3235
g17
VNNS
p3236
sbatp3237
Rp3238
(dp3239
g17
VNP
p3240
sbag5
(g6
g7
(lp3241
g5
(g6
g7
(lp3242
Vin
p3243
atp3244
Rp3245
(dp3246
g17
VIN
p3247
sbag5
(g6
g7
(lp3248
g5
(g6
g7
(lp3249
g5
(g6
g7
(lp3250
Vthe
p3251
atp3252
Rp3253
(dp3254
g17
VDT
p3255
sbag5
(g6
g7
(lp3256
Vfield
p3257
atp3258
Rp3259
(dp3260
g17
VNN
p3261
sbatp3262
Rp3263
(dp3264
g17
VNP
p3265
sbag5
(g6
g7
(lp3266
g601
atp3267
Rp3268
(dp3269
g17
g601
sbag5
(g6
g7
(lp3270
g5
(g6
g7
(lp3271
Vi.e.
p3272
atp3273
Rp3274
(dp3275
g17
VNNP
p3276
sbatp3277
Rp3278
(dp3279
g17
VNP
p3280
sbatp3281
Rp3282
(dp3283
g17
VNP
p3284
sbatp3285
Rp3286
(dp3287
g17
VPP
p3288
sbatp3289
Rp3290
(dp3291
g17
VNP
p3292
sbatp3293
Rp3294
(dp3295
g17
VPP
p3296
sbatp3297
Rp3298
(dp3299
g17
VVP
p3300
sbatp3301
Rp3302
(dp3303
g17
g169
sbatp3304
Rp3305
(dp3306
g17
VPP
p3307
sbatp3308
Rp3309
(dp3310
g17
VNP
p3311
sbatp3312
Rp3313
(dp3314
g17
VVP
p3315
sbatp3316
Rp3317
(dp3318
g17
g169
sbatp3319
Rp3320
(dp3321
g17
VSBAR
p3322
sbatp3323
Rp3324
(dp3325
g17
VVP
p3326
sbatp3327
Rp3328
(dp3329
g17
VVP
p3330
sbatp3331
Rp3332
(dp3333
g17
VVP
p3334
sbatp3335
Rp3336
(dp3337
g17
g169
sbatp3338
Rp3339
(dp3340
g17
VSBAR
p3341
sbatp3342
Rp3343
(dp3344
g17
VVP
p3345
sbatp3346
Rp3347
(dp3348
g17
g169
sbatp3349
Rp3350
(dp3351
g17
VROOT
p3352
sbasg209
(icmyPackage
CorE
p3353
(dp3354
g212
(lp3355
(I0
I7
tp3356
a(I0
I24
tp3357
asg215
g3317
sbsg216
(icmyPackage
CorE
p3358
(dp3359
g212
(lp3360
(I0
I0
tp3361
a(I0
I5
tp3362
asg215
g5
(g6
g7
(lp3363
g3080
ag3087
ag3100
ag3107
ag3114
ag3121
atp3364
Rp3365
(dp3366
g17
g226
sbsbsg227
(icmyPackage
pattern
p3367
(dp3368
g230
I0
sg231
I0
sg232
(lp3369
(lp3370
S'if'
p3371
aasg245
(lp3372
I1
aI1
aI1
asg247
(lp3373
S'An effective knowledge flow network enables a research team to be very powerful in generating new knowledge if every node can innovate and output new knowledge to appropriate members.'
p3374
asg250
I14
sg251
(lp3375
(lp3376
S'&R@Complete@'
p3377
aa(lp3378
S'&C@Complete@'
p3379
aasbsg264
(lp3380
(icmyPackage
Sent
p3381
(dp3382
g268
I0
sg269
I8
sg270
S"Some said it would be ok if there were a means of keeping MYCIN's database current with new discoveries in the field, i.e."
p3383
sg272
I0
sg273
I43
sg215
(lp3384
g3350
asbasba(icmyPackage
CELink
p3385
(dp3386
g3
(lp3387
g5
(g6
g7
(lp3388
g5
(g6
g7
(lp3389
g5
(g6
g7
(lp3390
g5
(g6
g7
(lp3391
VOthers
p3392
atp3393
Rp3394
(dp3395
g17
VNNS
p3396
sbatp3397
Rp3398
(dp3399
g17
VNP
p3400
sbag5
(g6
g7
(lp3401
g5
(g6
g7
(lp3402
Vsay
p3403
atp3404
Rp3405
(dp3406
g17
VVBP
p3407
sbag5
(g6
g7
(lp3408
g5
(g6
g7
(lp3409
Vthat
p3410
atp3411
Rp3412
(dp3413
g17
VIN
p3414
sbag5
(g6
g7
(lp3415
g5
(g6
g7
(lp3416
g5
(g6
g7
(lp3417
VMYCIN
p3418
atp3419
Rp3420
(dp3421
g17
VNNP
p3422
sbatp3423
Rp3424
(dp3425
g17
VNP
p3426
sbag5
(g6
g7
(lp3427
g5
(g6
g7
(lp3428
Vis
p3429
atp3430
Rp3431
(dp3432
g17
VVBZ
p3433
sbag5
(g6
g7
(lp3434
Vnot
p3435
atp3436
Rp3437
(dp3438
g17
VRB
p3439
sbag5
(g6
g7
(lp3440
g5
(g6
g7
(lp3441
Veven
p3442
atp3443
Rp3444
(dp3445
g17
VRB
p3446
sbag5
(g6
g7
(lp3447
Vclose
p3448
atp3449
Rp3450
(dp3451
g17
VJJ
p3452
sbag5
(g6
g7
(lp3453
g5
(g6
g7
(lp3454
g5
(g6
g7
(lp3455
Vto
p3456
atp3457
Rp3458
(dp3459
g17
VTO
p3460
sbag5
(g6
g7
(lp3461
g5
(g6
g7
(lp3462
Vusable
p3463
atp3464
Rp3465
(dp3466
g17
VVB
p3467
sbag5
(g6
g7
(lp3468
g5
(g6
g7
(lp3469
Vexcept
p3470
atp3471
Rp3472
(dp3473
g17
VIN
p3474
sbag5
(g6
g7
(lp3475
g5
(g6
g7
(lp3476
Vexperimentally
p3477
atp3478
Rp3479
(dp3480
g17
VRB
p3481
sbatp3482
Rp3483
(dp3484
g17
VADVP
p3485
sbatp3486
Rp3487
(dp3488
g17
VPP
p3489
sbatp3490
Rp3491
(dp3492
g17
VVP
p3493
sbatp3494
Rp3495
(dp3496
g17
VVP
p3497
sbatp3498
Rp3499
(dp3500
g17
g169
sbatp3501
Rp3502
(dp3503
g17
VADJP
p3504
sbag5
(g6
g7
(lp3505
g601
atp3506
Rp3507
(dp3508
g17
g601
sbag5
(g6
g7
(lp3509
g5
(g6
g7
(lp3510
Vbecause
p3511
atp3512
Rp3513
(dp3514
g17
VIN
p3515
sbag5
(g6
g7
(lp3516
g5
(g6
g7
(lp3517
g5
(g6
g7
(lp3518
Vit
p3519
atp3520
Rp3521
(dp3522
g17
VPRP
p3523
sbatp3524
Rp3525
(dp3526
g17
VNP
p3527
sbag5
(g6
g7
(lp3528
g5
(g6
g7
(lp3529
Vdoes
p3530
atp3531
Rp3532
(dp3533
g17
VVBZ
p3534
sbag5
(g6
g7
(lp3535
Vn't
p3536
atp3537
Rp3538
(dp3539
g17
VRB
p3540
sbag5
(g6
g7
(lp3541
g5
(g6
g7
(lp3542
Vknow
p3543
atp3544
Rp3545
(dp3546
g17
VVB
p3547
sbag5
(g6
g7
(lp3548
g5
(g6
g7
(lp3549
Vits
p3550
atp3551
Rp3552
(dp3553
g17
VPRP$
p3554
sbag5
(g6
g7
(lp3555
Vown
p3556
atp3557
Rp3558
(dp3559
g17
VJJ
p3560
sbag5
(g6
g7
(lp3561
Vlimitations
p3562
atp3563
Rp3564
(dp3565
g17
VNNS
p3566
sbatp3567
Rp3568
(dp3569
g17
VNP
p3570
sbatp3571
Rp3572
(dp3573
g17
VVP
p3574
sbatp3575
Rp3576
(dp3577
g17
VVP
p3578
sbatp3579
Rp3580
(dp3581
g17
g169
sbatp3582
Rp3583
(dp3584
g17
VSBAR
p3585
sbatp3586
Rp3587
(dp3588
g17
VVP
p3589
sbatp3590
Rp3591
(dp3592
g17
g169
sbatp3593
Rp3594
(dp3595
g17
VSBAR
p3596
sbatp3597
Rp3598
(dp3599
g17
VVP
p3600
sbag5
(g6
g7
(lp3601
g198
atp3602
Rp3603
(dp3604
g17
g198
sbatp3605
Rp3606
(dp3607
g17
g169
sbatp3608
Rp3609
(dp3610
g17
VROOT
p3611
sbasg209
(icmyPackage
CorE
p3612
(dp3613
g212
(lp3614
(I0
I14
tp3615
a(I0
I21
tp3616
asg215
g5
(g6
g7
(lp3617
g3580
ag3603
atp3618
Rp3619
(dp3620
g17
g226
sbsbsg216
(icmyPackage
CorE
p3621
(dp3622
g212
(lp3623
(I0
I0
tp3624
a(I0
I11
tp3625
asg215
g5
(g6
g7
(lp3626
g3398
ag3405
ag3412
ag3424
ag3431
ag3437
ag3502
atp3627
Rp3628
(dp3629
g17
g226
sbsbsg227
g742
sg264
(lp3630
(icmyPackage
Sent
p3631
(dp3632
g268
I0
sg269
I9
sg270
S"Others say that MYCIN is not even close to usable except experimentally, because it doesn't know its own limitations."
p3633
sg272
I0
sg273
I47
sg215
(lp3634
g3609
asbasba(icmyPackage
CELink
p3635
(dp3636
g3
(lp3637
g5
(g6
g7
(lp3638
g5
(g6
g7
(lp3639
g5
(g6
g7
(lp3640
g5
(g6
g7
(lp3641
g5
(g6
g7
(lp3642
VProgrammers
p3643
atp3644
Rp3645
(dp3646
g17
VNNS
p3647
sbatp3648
Rp3649
(dp3650
g17
VNP
p3651
sbag5
(g6
g7
(lp3652
g5
(g6
g7
(lp3653
Valways
p3654
atp3655
Rp3656
(dp3657
g17
VRB
p3658
sbatp3659
Rp3660
(dp3661
g17
VADVP
p3662
sbag5
(g6
g7
(lp3663
g5
(g6
g7
(lp3664
Vdevelop
p3665
atp3666
Rp3667
(dp3668
g17
VVB
p3669
sbag5
(g6
g7
(lp3670
g5
(g6
g7
(lp3671
Vthe
p3672
atp3673
Rp3674
(dp3675
g17
VDT
p3676
sbag5
(g6
g7
(lp3677
Videa
p3678
atp3679
Rp3680
(dp3681
g17
VNN
p3682
sbatp3683
Rp3684
(dp3685
g17
VNP
p3686
sbag5
(g6
g7
(lp3687
g5
(g6
g7
(lp3688
Vthat
p3689
atp3690
Rp3691
(dp3692
g17
VIN
p3693
sbag5
(g6
g7
(lp3694
g5
(g6
g7
(lp3695
g5
(g6
g7
(lp3696
g5
(g6
g7
(lp3697
Vthe
p3698
atp3699
Rp3700
(dp3701
g17
VDT
p3702
sbag5
(g6
g7
(lp3703
Vusers
p3704
atp3705
Rp3706
(dp3707
g17
VNNS
p3708
sbatp3709
Rp3710
(dp3711
g17
VNP
p3712
sbag5
(g6
g7
(lp3713
g5
(g6
g7
(lp3714
Vof
p3715
atp3716
Rp3717
(dp3718
g17
VIN
p3719
sbag5
(g6
g7
(lp3720
g5
(g6
g7
(lp3721
Vtheir
p3722
atp3723
Rp3724
(dp3725
g17
VPRP$
p3726
sbag5
(g6
g7
(lp3727
Vprograms
p3728
atp3729
Rp3730
(dp3731
g17
VNNS
p3732
sbatp3733
Rp3734
(dp3735
g17
VNP
p3736
sbatp3737
Rp3738
(dp3739
g17
VPP
p3740
sbatp3741
Rp3742
(dp3743
g17
VNP
p3744
sbag5
(g6
g7
(lp3745
g5
(g6
g7
(lp3746
Vare
p3747
atp3748
Rp3749
(dp3750
g17
VVBP
p3751
sbag5
(g6
g7
(lp3752
g5
(g6
g7
(lp3753
Vidiots
p3754
atp3755
Rp3756
(dp3757
g17
VNNS
p3758
sbatp3759
Rp3760
(dp3761
g17
VNP
p3762
sbatp3763
Rp3764
(dp3765
g17
VVP
p3766
sbatp3767
Rp3768
(dp3769
g17
g169
sbatp3770
Rp3771
(dp3772
g17
VSBAR
p3773
sbatp3774
Rp3775
(dp3776
g17
VVP
p3777
sbatp3778
Rp3779
(dp3780
g17
g169
sbag5
(g6
g7
(lp3781
g601
atp3782
Rp3783
(dp3784
g17
g601
sbag5
(g6
g7
(lp3785
Vso
p3786
atp3787
Rp3788
(dp3789
g17
VIN
p3790
sbag5
(g6
g7
(lp3791
g5
(g6
g7
(lp3792
g5
(g6
g7
(lp3793
g5
(g6
g7
(lp3794
Vthe
p3795
atp3796
Rp3797
(dp3798
g17
VDT
p3799
sbag5
(g6
g7
(lp3800
Vopinion
p3801
atp3802
Rp3803
(dp3804
g17
VNN
p3805
sbatp3806
Rp3807
(dp3808
g17
VNP
p3809
sbag5
(g6
g7
(lp3810
g5
(g6
g7
(lp3811
Vthat
p3812
atp3813
Rp3814
(dp3815
g17
VIN
p3816
sbag5
(g6
g7
(lp3817
g5
(g6
g7
(lp3818
g5
(g6
g7
(lp3819
Vdoctors
p3820
atp3821
Rp3822
(dp3823
g17
VNNS
p3824
sbatp3825
Rp3826
(dp3827
g17
VNP
p3828
sbag5
(g6
g7
(lp3829
g5
(g6
g7
(lp3830
Vare
p3831
atp3832
Rp3833
(dp3834
g17
VVBP
p3835
sbag5
(g6
g7
(lp3836
Vn't
p3837
atp3838
Rp3839
(dp3840
g17
VRB
p3841
sbag5
(g6
g7
(lp3842
g5
(g6
g7
(lp3843
Vsmart
p3844
atp3845
Rp3846
(dp3847
g17
VJJ
p3848
sbatp3849
Rp3850
(dp3851
g17
VADJP
p3852
sbag5
(g6
g7
(lp3853
g5
(g6
g7
(lp3854
Venough
p3855
atp3856
Rp3857
(dp3858
g17
VRB
p3859
sbag5
(g6
g7
(lp3860
Vnot
p3861
atp3862
Rp3863
(dp3864
g17
VRB
p3865
sbag5
(g6
g7
(lp3866
g5
(g6
g7
(lp3867
g5
(g6
g7
(lp3868
Vto
p3869
atp3870
Rp3871
(dp3872
g17
VTO
p3873
sbag5
(g6
g7
(lp3874
g5
(g6
g7
(lp3875
Vbe
p3876
atp3877
Rp3878
(dp3879
g17
VVB
p3880
sbag5
(g6
g7
(lp3881
g5
(g6
g7
(lp3882
Vmisled
p3883
atp3884
Rp3885
(dp3886
g17
VVBN
p3887
sbag5
(g6
g7
(lp3888
g5
(g6
g7
(lp3889
Vby
p3890
atp3891
Rp3892
(dp3893
g17
VIN
p3894
sbag5
(g6
g7
(lp3895
g5
(g6
g7
(lp3896
g5
(g6
g7
(lp3897
VMYCIN
p3898
atp3899
Rp3900
(dp3901
g17
VNNP
p3902
sbag5
(g6
g7
(lp3903
V's
p3904
atp3905
Rp3906
(dp3907
g17
VPOS
p3908
sbatp3909
Rp3910
(dp3911
g17
VNP
p3912
sbag5
(g6
g7
(lp3913
Vlimitations
p3914
atp3915
Rp3916
(dp3917
g17
VNNS
p3918
sbatp3919
Rp3920
(dp3921
g17
VNP
p3922
sbatp3923
Rp3924
(dp3925
g17
VPP
p3926
sbatp3927
Rp3928
(dp3929
g17
VVP
p3930
sbatp3931
Rp3932
(dp3933
g17
VVP
p3934
sbatp3935
Rp3936
(dp3937
g17
VVP
p3938
sbatp3939
Rp3940
(dp3941
g17
g169
sbatp3942
Rp3943
(dp3944
g17
VADVP
p3945
sbatp3946
Rp3947
(dp3948
g17
VVP
p3949
sbatp3950
Rp3951
(dp3952
g17
g169
sbatp3953
Rp3954
(dp3955
g17
VSBAR
p3956
sbatp3957
Rp3958
(dp3959
g17
VNP
p3960
sbag5
(g6
g7
(lp3961
g5
(g6
g7
(lp3962
Vmay
p3963
atp3964
Rp3965
(dp3966
g17
VMD
p3967
sbag5
(g6
g7
(lp3968
g5
(g6
g7
(lp3969
Vbe
p3970
atp3971
Rp3972
(dp3973
g17
VVB
p3974
sbag5
(g6
g7
(lp3975
g5
(g6
g7
(lp3976
Vat
p3977
atp3978
Rp3979
(dp3980
g17
VIN
p3981
sbag5
(g6
g7
(lp3982
Vleast
p3983
atp3984
Rp3985
(dp3986
g17
VJJS
p3987
sbatp3988
Rp3989
(dp3990
g17
VADVP
p3991
sbag5
(g6
g7
(lp3992
g5
(g6
g7
(lp3993
Vpartly
p3994
atp3995
Rp3996
(dp3997
g17
VRB
p3998
sbag5
(g6
g7
(lp3999
g5
(g6
g7
(lp4000
g5
(g6
g7
(lp4001
g394
atp4002
Rp4003
(dp4004
g17
VDT
p4005
sbag5
(g6
g7
(lp4006
Vconsequence
p4007
atp4008
Rp4009
(dp4010
g17
VNN
p4011
sbatp4012
Rp4013
(dp4014
g17
VNP
p4015
sbag5
(g6
g7
(lp4016
g5
(g6
g7
(lp4017
Vof
p4018
atp4019
Rp4020
(dp4021
g17
VIN
p4022
sbag5
(g6
g7
(lp4023
g5
(g6
g7
(lp4024
Vthis
p4025
atp4026
Rp4027
(dp4028
g17
VDT
p4029
sbag5
(g6
g7
(lp4030
Videology
p4031
atp4032
Rp4033
(dp4034
g17
VNN
p4035
sbatp4036
Rp4037
(dp4038
g17
VNP
p4039
sbatp4040
Rp4041
(dp4042
g17
VPP
p4043
sbatp4044
Rp4045
(dp4046
g17
VNP
p4047
sbatp4048
Rp4049
(dp4050
g17
VPP
p4051
sbatp4052
Rp4053
(dp4054
g17
VVP
p4055
sbatp4056
Rp4057
(dp4058
g17
VVP
p4059
sbatp4060
Rp4061
(dp4062
g17
g169
sbag5
(g6
g7
(lp4063
g198
atp4064
Rp4065
(dp4066
g17
g198
sbatp4067
Rp4068
(dp4069
g17
g169
sbatp4070
Rp4071
(dp4072
g17
VROOT
p4073
sbasg209
(icmyPackage
CorE
p4074
(dp4075
g212
(lp4076
(I0
I0
tp4077
a(I0
I12
tp4078
asg215
g3779
sbsg216
(icmyPackage
CorE
p4079
(dp4080
g212
(lp4081
(I0
I15
tp4082
a(I0
I41
tp4083
asg215
g5
(g6
g7
(lp4084
g4061
ag4065
atp4085
Rp4086
(dp4087
g17
g226
sbsbsg227
g1527
sg264
(lp4088
(icmyPackage
Sent
p4089
(dp4090
g268
I0
sg269
I9
sg270
S"Programmers always develop the idea that the users of their programs are idiots, so the opinion that doctors aren't smart enough not to be misled by MYCIN's limitations may be at least partly a consequence of this ideology."
p4091
sg272
I0
sg273
I49
sg215
(lp4092
g4071
asbasba(icmyPackage
CELink
p4093
(dp4094
g3
(lp4095
g5
(g6
g7
(lp4096
g5
(g6
g7
(lp4097
g5
(g6
g7
(lp4098
g5
(g6
g7
(lp4099
g5
(g6
g7
(lp4100
VAn
p4101
atp4102
Rp4103
(dp4104
g17
VDT
p4105
sbag5
(g6
g7
(lp4106
Vexample
p4107
atp4108
Rp4109
(dp4110
g17
VNN
p4111
sbatp4112
Rp4113
(dp4114
g17
VNP
p4115
sbag5
(g6
g7
(lp4116
g5
(g6
g7
(lp4117
Vof
p4118
atp4119
Rp4120
(dp4121
g17
VIN
p4122
sbag5
(g6
g7
(lp4123
g5
(g6
g7
(lp4124
g5
(g6
g7
(lp4125
VMYCIN
p4126
atp4127
Rp4128
(dp4129
g17
VNNP
p4130
sbatp4131
Rp4132
(dp4133
g17
VNP
p4134
sbag5
(g6
g7
(lp4135
g5
(g6
g7
(lp4136
Vnot
p4137
atp4138
Rp4139
(dp4140
g17
VRB
p4141
sbag5
(g6
g7
(lp4142
Vknowing
p4143
atp4144
Rp4145
(dp4146
g17
VVBG
p4147
sbag5
(g6
g7
(lp4148
g5
(g6
g7
(lp4149
Vits
p4150
atp4151
Rp4152
(dp4153
g17
VPRP$
p4154
sbag5
(g6
g7
(lp4155
Vlimitations
p4156
atp4157
Rp4158
(dp4159
g17
VNNS
p4160
sbatp4161
Rp4162
(dp4163
g17
VNP
p4164
sbatp4165
Rp4166
(dp4167
g17
VVP
p4168
sbatp4169
Rp4170
(dp4171
g17
VNP
p4172
sbatp4173
Rp4174
(dp4175
g17
VPP
p4176
sbatp4177
Rp4178
(dp4179
g17
VNP
p4180
sbag5
(g6
g7
(lp4181
g5
(g6
g7
(lp4182
Vcan
p4183
atp4184
Rp4185
(dp4186
g17
VMD
p4187
sbag5
(g6
g7
(lp4188
g5
(g6
g7
(lp4189
Vbe
p4190
atp4191
Rp4192
(dp4193
g17
VVB
p4194
sbag5
(g6
g7
(lp4195
g5
(g6
g7
(lp4196
Vexcited
p4197
atp4198
Rp4199
(dp4200
g17
VJJ
p4201
sbag5
(g6
g7
(lp4202
g5
(g6
g7
(lp4203
Vby
p4204
atp4205
Rp4206
(dp4207
g17
VIN
p4208
sbag5
(g6
g7
(lp4209
g5
(g6
g7
(lp4210
g5
(g6
g7
(lp4211
Vtelling
p4212
atp4213
Rp4214
(dp4215
g17
VVBG
p4216
sbag5
(g6
g7
(lp4217
g5
(g6
g7
(lp4218
VMYCIN
p4219
atp4220
Rp4221
(dp4222
g17
VNNP
p4223
sbatp4224
Rp4225
(dp4226
g17
VNP
p4227
sbatp4228
Rp4229
(dp4230
g17
VVP
p4231
sbatp4232
Rp4233
(dp4234
g17
g169
sbatp4235
Rp4236
(dp4237
g17
VPP
p4238
sbatp4239
Rp4240
(dp4241
g17
VADJP
p4242
sbag5
(g6
g7
(lp4243
g5
(g6
g7
(lp4244
Vthat
p4245
atp4246
Rp4247
(dp4248
g17
VIN
p4249
sbag5
(g6
g7
(lp4250
g5
(g6
g7
(lp4251
g5
(g6
g7
(lp4252
Vthe
p4253
atp4254
Rp4255
(dp4256
g17
VDT
p4257
sbag5
(g6
g7
(lp4258
Vpatient
p4259
atp4260
Rp4261
(dp4262
g17
VNN
p4263
sbatp4264
Rp4265
(dp4266
g17
VNP
p4267
sbag5
(g6
g7
(lp4268
g5
(g6
g7
(lp4269
Vhas
p4270
atp4271
Rp4272
(dp4273
g17
VVBZ
p4274
sbag5
(g6
g7
(lp4275
g5
(g6
g7
(lp4276
g5
(g6
g7
(lp4277
VCholerae
p4278
atp4279
Rp4280
(dp4281
g17
VNNP
p4282
sbag5
(g6
g7
(lp4283
VVibrio
p4284
atp4285
Rp4286
(dp4287
g17
VNNP
p4288
sbatp4289
Rp4290
(dp4291
g17
VNP
p4292
sbag5
(g6
g7
(lp4293
g5
(g6
g7
(lp4294
Vin
p4295
atp4296
Rp4297
(dp4298
g17
VIN
p4299
sbag5
(g6
g7
(lp4300
g5
(g6
g7
(lp4301
Vhis
p4302
atp4303
Rp4304
(dp4305
g17
VPRP$
p4306
sbag5
(g6
g7
(lp4307
Vintestines
p4308
atp4309
Rp4310
(dp4311
g17
VNNS
p4312
sbatp4313
Rp4314
(dp4315
g17
VNP
p4316
sbatp4317
Rp4318
(dp4319
g17
VPP
p4320
sbatp4321
Rp4322
(dp4323
g17
VNP
p4324
sbatp4325
Rp4326
(dp4327
g17
VVP
p4328
sbatp4329
Rp4330
(dp4331
g17
g169
sbatp4332
Rp4333
(dp4334
g17
VSBAR
p4335
sbatp4336
Rp4337
(dp4338
g17
VVP
p4339
sbatp4340
Rp4341
(dp4342
g17
VVP
p4343
sbag5
(g6
g7
(lp4344
g198
atp4345
Rp4346
(dp4347
g17
g198
sbatp4348
Rp4349
(dp4350
g17
g169
sbatp4351
Rp4352
(dp4353
g17
VROOT
p4354
sbasg209
(icmyPackage
CorE
p4355
(dp4356
g212
(lp4357
(I0
I12
tp4358
a(I0
I13
tp4359
asg215
g4233
sbsg216
(icmyPackage
CorE
p4360
(dp4361
g212
(lp4362
(I0
I14
tp4363
a(I0
I23
tp4364
asg215
g5
(g6
g7
(lp4365
g4333
ag4346
atp4366
Rp4367
(dp4368
g17
g226
sbsbsg227
(icmyPackage
pattern
p4369
(dp4370
g230
I0
sg231
I0
sg232
(lp4371
(lp4372
(lp4373
S'by'
p4374
aS'through'
p4375
aaasg245
(lp4376
I2
aI1
aI1
asg247
(lp4377
S'By extracting comments and comparisons of the cited articles and then organizing them according to the time of publication discovers and displays how the area has developed as a research literature.'
p4378
asg250
I67
sg251
(lp4379
(lp4380
a(lp4381
S'&V-ing@C@'
p4382
aS'&R'
p4383
aasbsg264
(lp4384
(icmyPackage
Sent
p4385
(dp4386
g268
I0
sg269
I10
sg270
S'An example of MYCIN not knowing its limitations can be excited by telling MYCIN that the patient has Cholerae Vibrio in his intestines.'
p4387
sg272
I0
sg273
I50
sg215
(lp4388
g4352
asbasba(icmyPackage
CELink
p4389
(dp4390
g3
(lp4391
g5
(g6
g7
(lp4392
g5
(g6
g7
(lp4393
g5
(g6
g7
(lp4394
g5
(g6
g7
(lp4395
VNamely
p4396
atp4397
Rp4398
(dp4399
g17
VRB
p4400
sbatp4401
Rp4402
(dp4403
g17
VADVP
p4404
sbag5
(g6
g7
(lp4405
g601
atp4406
Rp4407
(dp4408
g17
g601
sbag5
(g6
g7
(lp4409
g5
(g6
g7
(lp4410
g5
(g6
g7
(lp4411
Vwhat
p4412
atp4413
Rp4414
(dp4415
g17
VWP
p4416
sbatp4417
Rp4418
(dp4419
g17
VWHNP
p4420
sbag5
(g6
g7
(lp4421
g5
(g6
g7
(lp4422
g5
(g6
g7
(lp4423
Vone
p4424
atp4425
Rp4426
(dp4427
g17
VCD
p4428
sbag5
(g6
g7
(lp4429
Vman
p4430
atp4431
Rp4432
(dp4433
g17
VNN
p4434
sbatp4435
Rp4436
(dp4437
g17
VNP
p4438
sbag5
(g6
g7
(lp4439
g5
(g6
g7
(lp4440
Vbuilds
p4441
atp4442
Rp4443
(dp4444
g17
VVBZ
p4445
sbag5
(g6
g7
(lp4446
g5
(g6
g7
(lp4447
Vas
p4448
atp4449
Rp4450
(dp4451
g17
VIN
p4452
sbag5
(g6
g7
(lp4453
g5
(g6
g7
(lp4454
g394
atp4455
Rp4456
(dp4457
g17
VDT
p4458
sbag5
(g6
g7
(lp4459
Vreasoning
p4460
atp4461
Rp4462
(dp4463
g17
VNN
p4464
sbag5
(g6
g7
(lp4465
Vmethod
p4466
atp4467
Rp4468
(dp4469
g17
VNN
p4470
sbatp4471
Rp4472
(dp4473
g17
VNP
p4474
sbatp4475
Rp4476
(dp4477
g17
VPP
p4478
sbag5
(g6
g7
(lp4479
g5
(g6
g7
(lp4480
Vinto
p4481
atp4482
Rp4483
(dp4484
g17
VIN
p4485
sbag5
(g6
g7
(lp4486
g5
(g6
g7
(lp4487
Vhis
p4488
atp4489
Rp4490
(dp4491
g17
VPRP$
p4492
sbag5
(g6
g7
(lp4493
Vprogram
p4494
atp4495
Rp4496
(dp4497
g17
VNN
p4498
sbatp4499
Rp4500
(dp4501
g17
VNP
p4502
sbatp4503
Rp4504
(dp4505
g17
VPP
p4506
sbatp4507
Rp4508
(dp4509
g17
VVP
p4510
sbatp4511
Rp4512
(dp4513
g17
g169
sbatp4514
Rp4515
(dp4516
g17
VSBAR
p4517
sbag5
(g6
g7
(lp4518
g601
atp4519
Rp4520
(dp4521
g17
g601
sbag5
(g6
g7
(lp4522
g5
(g6
g7
(lp4523
Vanother
p4524
atp4525
Rp4526
(dp4527
g17
VDT
p4528
sbatp4529
Rp4530
(dp4531
g17
VNP
p4532
sbag5
(g6
g7
(lp4533
g5
(g6
g7
(lp4534
Vcan
p4535
atp4536
Rp4537
(dp4538
g17
VMD
p4539
sbag5
(g6
g7
(lp4540
g5
(g6
g7
(lp4541
Vexpress
p4542
atp4543
Rp4544
(dp4545
g17
VVB
p4546
sbag5
(g6
g7
(lp4547
g5
(g6
g7
(lp4548
Vas
p4549
atp4550
Rp4551
(dp4552
g17
VIN
p4553
sbag5
(g6
g7
(lp4554
g5
(g6
g7
(lp4555
g5
(g6
g7
(lp4556
g394
atp4557
Rp4558
(dp4559
g17
VDT
p4560
sbag5
(g6
g7
(lp4561
Vfact
p4562
atp4563
Rp4564
(dp4565
g17
VNN
p4566
sbatp4567
Rp4568
(dp4569
g17
VNP
p4570
sbag5
(g6
g7
(lp4571
g5
(g6
g7
(lp4572
Vusing
p4573
atp4574
Rp4575
(dp4576
g17
VVBG
p4577
sbag5
(g6
g7
(lp4578
g5
(g6
g7
(lp4579
g394
atp4580
Rp4581
(dp4582
g17
VDT
p4583
sbag5
(g6
g7
(lp4584
Vricher
p4585
atp4586
Rp4587
(dp4588
g17
VJJR
p4589
sbag5
(g6
g7
(lp4590
Vontology
p4591
atp4592
Rp4593
(dp4594
g17
VNN
p4595
sbatp4596
Rp4597
(dp4598
g17
VNP
p4599
sbatp4600
Rp4601
(dp4602
g17
VVP
p4603
sbatp4604
Rp4605
(dp4606
g17
VNP
p4607
sbatp4608
Rp4609
(dp4610
g17
VPP
p4611
sbatp4612
Rp4613
(dp4614
g17
VVP
p4615
sbatp4616
Rp4617
(dp4618
g17
VVP
p4619
sbag5
(g6
g7
(lp4620
g198
atp4621
Rp4622
(dp4623
g17
g198
sbatp4624
Rp4625
(dp4626
g17
g169
sbatp4627
Rp4628
(dp4629
g17
VROOT
p4630
sbasg209
(icmyPackage
CorE
p4631
(dp4632
g212
(lp4633
(I0
I7
tp4634
a(I0
I24
tp4635
asg215
g5
(g6
g7
(lp4636
g4472
ag4504
ag4520
ag4530
ag4617
ag4622
atp4637
Rp4638
(dp4639
g17
g226
sbsbsg216
(icmyPackage
CorE
p4640
(dp4641
g212
(lp4642
(I0
I3
tp4643
a(I0
I5
tp4644
asg215
g5
(g6
g7
(lp4645
g4436
ag4443
atp4646
Rp4647
(dp4648
g17
g226
sbsbsg227
(icmyPackage
pattern
p4649
(dp4650
g230
I26
sg231
I1
sg232
(lp4651
(lp4652
S'as'
p4653
aasg245
(lp4654
I3
aI1
aI1
asg247
(lp4655
S'You do not need to worry about the operation, as the software is very easy to use.'
p4656
asg250
I80
sg251
(lp4657
(lp4658
S'&R@Complete@'
p4659
aS'(,)'
p4660
aS'(-such/-same/-seem/-regard/-regards/-regarded/-view/-views/-viewed/-denote/-denoted/-denotes)'
p4661
aa(lp4662
S'(-if/-follow/-follows/-&adv)'
p4663
aS'&C@Complete@'
p4664
aasbsg264
(lp4665
(icmyPackage
Sent
p4666
(dp4667
g268
I1
sg269
I12
sg270
S'Namely, what one man builds as a reasoning method into his program, another can express as a fact using a richer ontology.'
p4668
sg272
I0
sg273
I58
sg215
(lp4669
g4628
asbasba(icmyPackage
CELink
p4670
(dp4671
g3
(lp4672
g5
(g6
g7
(lp4673
g5
(g6
g7
(lp4674
g5
(g6
g7
(lp4675
g5
(g6
g7
(lp4676
g5
(g6
g7
(lp4677
V1
p4678
atp4679
Rp4680
(dp4681
g17
VLS
p4682
sbag5
(g6
g7
(lp4683
V-RRB-
p4684
atp4685
Rp4686
(dp4687
g17
V-RRB-
p4688
sbatp4689
Rp4690
(dp4691
g17
VLST
p4692
sbag5
(g6
g7
(lp4693
VThe
p4694
atp4695
Rp4696
(dp4697
g17
VDT
p4698
sbag5
(g6
g7
(lp4699
g5
(g6
g7
(lp4700
Vmost
p4701
atp4702
Rp4703
(dp4704
g17
VRBS
p4705
sbag5
(g6
g7
(lp4706
Vsalient
p4707
atp4708
Rp4709
(dp4710
g17
VJJ
p4711
sbatp4712
Rp4713
(dp4714
g17
VADJP
p4715
sbag5
(g6
g7
(lp4716
Vcommon
p4717
atp4718
Rp4719
(dp4720
g17
VJJ
p4721
sbag5
(g6
g7
(lp4722
Vsense
p4723
atp4724
Rp4725
(dp4726
g17
VNN
p4727
sbatp4728
Rp4729
(dp4730
g17
VNP
p4731
sbag5
(g6
g7
(lp4732
g5
(g6
g7
(lp4733
g5
(g6
g7
(lp4734
Vknowledge
p4735
atp4736
Rp4737
(dp4738
g17
VNN
p4739
sbag5
(g6
g7
(lp4740
Vconcerns
p4741
atp4742
Rp4743
(dp4744
g17
VNNS
p4745
sbag5
(g6
g7
(lp4746
Vsituations
p4747
atp4748
Rp4749
(dp4750
g17
VNNS
p4751
sbatp4752
Rp4753
(dp4754
g17
VNP
p4755
sbag5
(g6
g7
(lp4756
g5
(g6
g7
(lp4757
g5
(g6
g7
(lp4758
Vthat
p4759
atp4760
Rp4761
(dp4762
g17
VWDT
p4763
sbatp4764
Rp4765
(dp4766
g17
VWHNP
p4767
sbag5
(g6
g7
(lp4768
g5
(g6
g7
(lp4769
g5
(g6
g7
(lp4770
Vchange
p4771
atp4772
Rp4773
(dp4774
g17
VVBP
p4775
sbag5
(g6
g7
(lp4776
g5
(g6
g7
(lp4777
Vin
p4778
atp4779
Rp4780
(dp4781
g17
VIN
p4782
sbag5
(g6
g7
(lp4783
g5
(g6
g7
(lp4784
Vtime
p4785
atp4786
Rp4787
(dp4788
g17
VNN
p4789
sbatp4790
Rp4791
(dp4792
g17
VNP
p4793
sbatp4794
Rp4795
(dp4796
g17
VPP
p4797
sbag5
(g6
g7
(lp4798
g5
(g6
g7
(lp4799
Vas
p4800
atp4801
Rp4802
(dp4803
g17
VIN
p4804
sbag5
(g6
g7
(lp4805
g5
(g6
g7
(lp4806
g5
(g6
g7
(lp4807
g394
atp4808
Rp4809
(dp4810
g17
VDT
p4811
sbag5
(g6
g7
(lp4812
Vresult
p4813
atp4814
Rp4815
(dp4816
g17
VNN
p4817
sbatp4818
Rp4819
(dp4820
g17
VNP
p4821
sbag5
(g6
g7
(lp4822
g5
(g6
g7
(lp4823
Vof
p4824
atp4825
Rp4826
(dp4827
g17
VIN
p4828
sbag5
(g6
g7
(lp4829
g5
(g6
g7
(lp4830
Vevents
p4831
atp4832
Rp4833
(dp4834
g17
VNNS
p4835
sbatp4836
Rp4837
(dp4838
g17
VNP
p4839
sbatp4840
Rp4841
(dp4842
g17
VPP
p4843
sbatp4844
Rp4845
(dp4846
g17
VNP
p4847
sbatp4848
Rp4849
(dp4850
g17
VPP
p4851
sbatp4852
Rp4853
(dp4854
g17
VVP
p4855
sbatp4856
Rp4857
(dp4858
g17
g169
sbatp4859
Rp4860
(dp4861
g17
VSBAR
p4862
sbatp4863
Rp4864
(dp4865
g17
VNP
p4866
sbag5
(g6
g7
(lp4867
g198
atp4868
Rp4869
(dp4870
g17
g198
sbatp4871
Rp4872
(dp4873
g17
VNP
p4874
sbatp4875
Rp4876
(dp4877
g17
VROOT
p4878
sbasg209
(icmyPackage
CorE
p4879
(dp4880
g212
(lp4881
(I0
I18
tp4882
ag4882
asg215
g4837
sbsg216
(icmyPackage
CorE
p4883
(dp4884
g212
(lp4885
(I0
I0
tp4886
a(I0
I13
tp4887
asg215
g5
(g6
g7
(lp4888
g4729
ag4753
ag4765
ag4773
ag4795
atp4889
Rp4890
(dp4891
g17
g226
sbsbsg227
(icmyPackage
pattern
p4892
(dp4893
g230
I0
sg231
I0
sg232
(lp4894
(lp4895
S'as'
p4896
aS'a'
p4897
a(lp4898
S'result'
p4899
aS'consequence'
p4900
aaS'of'
p4901
aa(lp4902
S'.'
p4903
aasg245
(lp4904
I2
aI1
aI1
asg247
(lp4905
S'His wife, a nurse, lost both her legs as a result of her injuries.'
p4906
aS'His wife, a nurse, lost both her legs as a consequence of her injuries.'
p4907
asg250
I59
sg251
(lp4908
(lp4909
S'&R'
p4910
aa(lp4911
S'&NP@C@'
p4912
aasbsg264
(lp4913
(icmyPackage
Sent
p4914
(dp4915
g268
I2
sg269
I14
sg270
S'1) The most salient common sense knowledge concerns situations that change in time as a result of events.'
p4916
sg272
I0
sg273
I61
sg215
(lp4917
g4876
asbasba(icmyPackage
CELink
p4918
(dp4919
g3
(lp4920
g5
(g6
g7
(lp4921
g5
(g6
g7
(lp4922
g5
(g6
g7
(lp4923
g5
(g6
g7
(lp4924
VSince
p4925
atp4926
Rp4927
(dp4928
g17
VIN
p4929
sbag5
(g6
g7
(lp4930
g5
(g6
g7
(lp4931
g5
(g6
g7
(lp4932
g5
(g6
g7
(lp4933
VMYCIN
p4934
atp4935
Rp4936
(dp4937
g17
VNNP
p4938
sbag5
(g6
g7
(lp4939
V's
p4940
atp4941
Rp4942
(dp4943
g17
VPOS
p4944
sbatp4945
Rp4946
(dp4947
g17
VNP
p4948
sbag5
(g6
g7
(lp4949
Vactions
p4950
atp4951
Rp4952
(dp4953
g17
VNNS
p4954
sbatp4955
Rp4956
(dp4957
g17
VNP
p4958
sbag5
(g6
g7
(lp4959
g5
(g6
g7
(lp4960
Vare
p4961
atp4962
Rp4963
(dp4964
g17
VVBP
p4965
sbag5
(g6
g7
(lp4966
g5
(g6
g7
(lp4967
g5
(g6
g7
(lp4968
Vadvice
p4969
atp4970
Rp4971
(dp4972
g17
VNN
p4973
sbatp4974
Rp4975
(dp4976
g17
VNP
p4977
sbag5
(g6
g7
(lp4978
g5
(g6
g7
(lp4979
Vto
p4980
atp4981
Rp4982
(dp4983
g17
VTO
p4984
sbag5
(g6
g7
(lp4985
g5
(g6
g7
(lp4986
Vthe
p4987
atp4988
Rp4989
(dp4990
g17
VDT
p4991
sbag5
(g6
g7
(lp4992
Vdoctor
p4993
atp4994
Rp4995
(dp4996
g17
VNN
p4997
sbatp4998
Rp4999
(dp5000
g17
VNP
p5001
sbatp5002
Rp5003
(dp5004
g17
VPP
p5005
sbatp5006
Rp5007
(dp5008
g17
VNP
p5009
sbatp5010
Rp5011
(dp5012
g17
VVP
p5013
sbatp5014
Rp5015
(dp5016
g17
g169
sbatp5017
Rp5018
(dp5019
g17
VSBAR
p5020
sbag5
(g6
g7
(lp5021
g601
atp5022
Rp5023
(dp5024
g17
g601
sbag5
(g6
g7
(lp5025
g5
(g6
g7
(lp5026
Vfull
p5027
atp5028
Rp5029
(dp5030
g17
VJJ
p5031
sbag5
(g6
g7
(lp5032
Vplanning
p5033
atp5034
Rp5035
(dp5036
g17
VNN
p5037
sbatp5038
Rp5039
(dp5040
g17
VNP
p5041
sbag5
(g6
g7
(lp5042
g5
(g6
g7
(lp5043
Vwould
p5044
atp5045
Rp5046
(dp5047
g17
VMD
p5048
sbag5
(g6
g7
(lp5049
g5
(g6
g7
(lp5050
Vhave
p5051
atp5052
Rp5053
(dp5054
g17
VVB
p5055
sbag5
(g6
g7
(lp5056
g5
(g6
g7
(lp5057
g5
(g6
g7
(lp5058
Vto
p5059
atp5060
Rp5061
(dp5062
g17
VTO
p5063
sbag5
(g6
g7
(lp5064
g5
(g6
g7
(lp5065
Vinclude
p5066
atp5067
Rp5068
(dp5069
g17
VVB
p5070
sbag5
(g6
g7
(lp5071
g5
(g6
g7
(lp5072
Vinformation
p5073
atp5074
Rp5075
(dp5076
g17
VNN
p5077
sbatp5078
Rp5079
(dp5080
g17
VNP
p5081
sbag5
(g6
g7
(lp5082
g5
(g6
g7
(lp5083
Vabout
p5084
atp5085
Rp5086
(dp5087
g17
VIN
p5088
sbag5
(g6
g7
(lp5089
g5
(g6
g7
(lp5090
g5
(g6
g7
(lp5091
Vthe
p5092
atp5093
Rp5094
(dp5095
g17
VDT
p5096
sbag5
(g6
g7
(lp5097
Veffects
p5098
atp5099
Rp5100
(dp5101
g17
VNNS
p5102
sbatp5103
Rp5104
(dp5105
g17
VNP
p5106
sbag5
(g6
g7
(lp5107
g5
(g6
g7
(lp5108
Vof
p5109
atp5110
Rp5111
(dp5112
g17
VIN
p5113
sbag5
(g6
g7
(lp5114
g5
(g6
g7
(lp5115
g5
(g6
g7
(lp5116
VMYCIN
p5117
atp5118
Rp5119
(dp5120
g17
VNNP
p5121
sbag5
(g6
g7
(lp5122
V's
p5123
atp5124
Rp5125
(dp5126
g17
VPOS
p5127
sbatp5128
Rp5129
(dp5130
g17
VNP
p5131
sbag5
(g6
g7
(lp5132
Voutput
p5133
atp5134
Rp5135
(dp5136
g17
VNN
p5137
sbatp5138
Rp5139
(dp5140
g17
VNP
p5141
sbatp5142
Rp5143
(dp5144
g17
VPP
p5145
sbatp5146
Rp5147
(dp5148
g17
VNP
p5149
sbatp5150
Rp5151
(dp5152
g17
VPP
p5153
sbag5
(g6
g7
(lp5154
g5
(g6
g7
(lp5155
Von
p5156
atp5157
Rp5158
(dp5159
g17
VIN
p5160
sbag5
(g6
g7
(lp5161
g5
(g6
g7
(lp5162
g5
(g6
g7
(lp5163
Vwhat
p5164
atp5165
Rp5166
(dp5167
g17
VWP
p5168
sbatp5169
Rp5170
(dp5171
g17
VWHNP
p5172
sbag5
(g6
g7
(lp5173
g5
(g6
g7
(lp5174
g5
(g6
g7
(lp5175
Vthe
p5176
atp5177
Rp5178
(dp5179
g17
VDT
p5180
sbag5
(g6
g7
(lp5181
Vdoctor
p5182
atp5183
Rp5184
(dp5185
g17
VNN
p5186
sbatp5187
Rp5188
(dp5189
g17
VNP
p5190
sbag5
(g6
g7
(lp5191
g5
(g6
g7
(lp5192
Vwill
p5193
atp5194
Rp5195
(dp5196
g17
VMD
p5197
sbag5
(g6
g7
(lp5198
g5
(g6
g7
(lp5199
Vdo
p5200
atp5201
Rp5202
(dp5203
g17
VVB
p5204
sbatp5205
Rp5206
(dp5207
g17
VVP
p5208
sbatp5209
Rp5210
(dp5211
g17
VVP
p5212
sbatp5213
Rp5214
(dp5215
g17
g169
sbatp5216
Rp5217
(dp5218
g17
VSBAR
p5219
sbatp5220
Rp5221
(dp5222
g17
VPP
p5223
sbatp5224
Rp5225
(dp5226
g17
VVP
p5227
sbatp5228
Rp5229
(dp5230
g17
VVP
p5231
sbatp5232
Rp5233
(dp5234
g17
g169
sbatp5235
Rp5236
(dp5237
g17
VVP
p5238
sbatp5239
Rp5240
(dp5241
g17
VVP
p5242
sbag5
(g6
g7
(lp5243
g198
atp5244
Rp5245
(dp5246
g17
g198
sbatp5247
Rp5248
(dp5249
g17
g169
sbatp5250
Rp5251
(dp5252
g17
VROOT
p5253
sbasg209
(icmyPackage
CorE
p5254
(dp5255
g212
(lp5256
(I0
I1
tp5257
a(I0
I8
tp5258
asg215
g5015
sbsg216
(icmyPackage
CorE
p5259
(dp5260
g212
(lp5261
(I0
I10
tp5262
a(I0
I30
tp5263
asg215
g5
(g6
g7
(lp5264
g5039
ag5240
ag5245
atp5265
Rp5266
(dp5267
g17
g226
sbsbsg227
(icmyPackage
pattern
p5268
(dp5269
g230
I15
sg231
I0
sg232
(lp5270
(lp5271
S'since'
p5272
aa(lp5273
g1795
aasg245
(lp5274
I3
aI1
aI1
asg247
(lp5275
S'But, since the herpes virus does not always show its symptoms, prevention is not fool proof.'
p5276
asg250
I78
sg251
(lp5277
(lp5278
a(lp5279
S'&C@NCTime@'
p5280
aa(lp5281
S'&R@NCTime@'
p5282
aasbsg264
(lp5283
(icmyPackage
Sent
p5284
(dp5285
g268
I2
sg269
I15
sg270
S"Since MYCIN's actions are advice to the doctor, full planning would have to include information about the effects of MYCIN's output on what the doctor will do."
p5286
sg272
I0
sg273
I65
sg215
(lp5287
g5251
asbasba(icmyPackage
CELink
p5288
(dp5289
g3
(lp5290
g5
(g6
g7
(lp5291
g5
(g6
g7
(lp5292
g5
(g6
g7
(lp5293
g5
(g6
g7
(lp5294
VSince
p5295
atp5296
Rp5297
(dp5298
g17
VIN
p5299
sbag5
(g6
g7
(lp5300
g5
(g6
g7
(lp5301
g5
(g6
g7
(lp5302
VMYCIN
p5303
atp5304
Rp5305
(dp5306
g17
VNNP
p5307
sbatp5308
Rp5309
(dp5310
g17
VNP
p5311
sbag5
(g6
g7
(lp5312
g5
(g6
g7
(lp5313
Vdoes
p5314
atp5315
Rp5316
(dp5317
g17
VVBZ
p5318
sbag5
(g6
g7
(lp5319
Vn't
p5320
atp5321
Rp5322
(dp5323
g17
VRB
p5324
sbag5
(g6
g7
(lp5325
g5
(g6
g7
(lp5326
Vknow
p5327
atp5328
Rp5329
(dp5330
g17
VVB
p5331
sbag5
(g6
g7
(lp5332
g5
(g6
g7
(lp5333
Vabout
p5334
atp5335
Rp5336
(dp5337
g17
VIN
p5338
sbag5
(g6
g7
(lp5339
g5
(g6
g7
(lp5340
Vthe
p5341
atp5342
Rp5343
(dp5344
g17
VDT
p5345
sbag5
(g6
g7
(lp5346
Vdoctor
p5347
atp5348
Rp5349
(dp5350
g17
VNN
p5351
sbatp5352
Rp5353
(dp5354
g17
VNP
p5355
sbatp5356
Rp5357
(dp5358
g17
VPP
p5359
sbatp5360
Rp5361
(dp5362
g17
VVP
p5363
sbatp5364
Rp5365
(dp5366
g17
VVP
p5367
sbatp5368
Rp5369
(dp5370
g17
g169
sbatp5371
Rp5372
(dp5373
g17
VSBAR
p5374
sbag5
(g6
g7
(lp5375
g601
atp5376
Rp5377
(dp5378
g17
g601
sbag5
(g6
g7
(lp5379
g5
(g6
g7
(lp5380
Vit
p5381
atp5382
Rp5383
(dp5384
g17
VPRP
p5385
sbatp5386
Rp5387
(dp5388
g17
VNP
p5389
sbag5
(g6
g7
(lp5390
g5
(g6
g7
(lp5391
Vmight
p5392
atp5393
Rp5394
(dp5395
g17
VMD
p5396
sbag5
(g6
g7
(lp5397
g5
(g6
g7
(lp5398
Vplan
p5399
atp5400
Rp5401
(dp5402
g17
VVB
p5403
sbag5
(g6
g7
(lp5404
g5
(g6
g7
(lp5405
g5
(g6
g7
(lp5406
Vthe
p5407
atp5408
Rp5409
(dp5410
g17
VDT
p5411
sbag5
(g6
g7
(lp5412
Veffects
p5413
atp5414
Rp5415
(dp5416
g17
VNNS
p5417
sbatp5418
Rp5419
(dp5420
g17
VNP
p5421
sbag5
(g6
g7
(lp5422
g5
(g6
g7
(lp5423
Vof
p5424
atp5425
Rp5426
(dp5427
g17
VIN
p5428
sbag5
(g6
g7
(lp5429
g5
(g6
g7
(lp5430
g5
(g6
g7
(lp5431
Vthe
p5432
atp5433
Rp5434
(dp5435
g17
VDT
p5436
sbag5
(g6
g7
(lp5437
Vcourse
p5438
atp5439
Rp5440
(dp5441
g17
VNN
p5442
sbatp5443
Rp5444
(dp5445
g17
VNP
p5446
sbag5
(g6
g7
(lp5447
g5
(g6
g7
(lp5448
Vof
p5449
atp5450
Rp5451
(dp5452
g17
VIN
p5453
sbag5
(g6
g7
(lp5454
g5
(g6
g7
(lp5455
Vtreatment
p5456
atp5457
Rp5458
(dp5459
g17
VNN
p5460
sbatp5461
Rp5462
(dp5463
g17
VNP
p5464
sbatp5465
Rp5466
(dp5467
g17
VPP
p5468
sbatp5469
Rp5470
(dp5471
g17
VNP
p5472
sbatp5473
Rp5474
(dp5475
g17
VPP
p5476
sbatp5477
Rp5478
(dp5479
g17
VNP
p5480
sbag5
(g6
g7
(lp5481
g5
(g6
g7
(lp5482
Von
p5483
atp5484
Rp5485
(dp5486
g17
VIN
p5487
sbag5
(g6
g7
(lp5488
g5
(g6
g7
(lp5489
Vthe
p5490
atp5491
Rp5492
(dp5493
g17
VDT
p5494
sbag5
(g6
g7
(lp5495
Vpatient
p5496
atp5497
Rp5498
(dp5499
g17
VNN
p5500
sbatp5501
Rp5502
(dp5503
g17
VNP
p5504
sbatp5505
Rp5506
(dp5507
g17
VPP
p5508
sbatp5509
Rp5510
(dp5511
g17
VVP
p5512
sbatp5513
Rp5514
(dp5515
g17
VVP
p5516
sbag5
(g6
g7
(lp5517
g198
atp5518
Rp5519
(dp5520
g17
g198
sbatp5521
Rp5522
(dp5523
g17
g169
sbatp5524
Rp5525
(dp5526
g17
VROOT
p5527
sbasg209
(icmyPackage
CorE
p5528
(dp5529
g212
(lp5530
(I0
I1
tp5531
a(I0
I7
tp5532
asg215
g5369
sbsg216
(icmyPackage
CorE
p5533
(dp5534
g212
(lp5535
(I0
I9
tp5536
a(I0
I22
tp5537
asg215
g5
(g6
g7
(lp5538
g5387
ag5514
ag5519
atp5539
Rp5540
(dp5541
g17
g226
sbsbsg227
g5268
sg264
(lp5542
(icmyPackage
Sent
p5543
(dp5544
g268
I2
sg269
I15
sg270
S"Since MYCIN doesn't know about the doctor, it might plan the effects of the course of treatment on the patient."
p5545
sg272
I0
sg273
I66
sg215
(lp5546
g5525
asbasba(icmyPackage
CELink
p5547
(dp5548
g3
(lp5549
g5
(g6
g7
(lp5550
g5
(g6
g7
(lp5551
g5
(g6
g7
(lp5552
g5
(g6
g7
(lp5553
g5
(g6
g7
(lp5554
VIts
p5555
atp5556
Rp5557
(dp5558
g17
VPRP$
p5559
sbag5
(g6
g7
(lp5560
Vrules
p5561
atp5562
Rp5563
(dp5564
g17
VNNS
p5565
sbatp5566
Rp5567
(dp5568
g17
VNP
p5569
sbag5
(g6
g7
(lp5570
g5
(g6
g7
(lp5571
Vgive
p5572
atp5573
Rp5574
(dp5575
g17
VVBP
p5576
sbag5
(g6
g7
(lp5577
g5
(g6
g7
(lp5578
Vthe
p5579
atp5580
Rp5581
(dp5582
g17
VDT
p5583
sbag5
(g6
g7
(lp5584
Vrecommended
p5585
atp5586
Rp5587
(dp5588
g17
VVBN
p5589
sbag5
(g6
g7
(lp5590
Vtreatment
p5591
atp5592
Rp5593
(dp5594
g17
VNN
p5595
sbatp5596
Rp5597
(dp5598
g17
VNP
p5599
sbag5
(g6
g7
(lp5600
g5
(g6
g7
(lp5601
Vas
p5602
atp5603
Rp5604
(dp5605
g17
VIN
p5606
sbag5
(g6
g7
(lp5607
g5
(g6
g7
(lp5608
g5
(g6
g7
(lp5609
g394
atp5610
Rp5611
(dp5612
g17
VDT
p5613
sbag5
(g6
g7
(lp5614
Vfunction
p5615
atp5616
Rp5617
(dp5618
g17
VNN
p5619
sbatp5620
Rp5621
(dp5622
g17
VNP
p5623
sbag5
(g6
g7
(lp5624
g5
(g6
g7
(lp5625
Vof
p5626
atp5627
Rp5628
(dp5629
g17
VIN
p5630
sbag5
(g6
g7
(lp5631
g5
(g6
g7
(lp5632
g5
(g6
g7
(lp5633
Vthe
p5634
atp5635
Rp5636
(dp5637
g17
VDT
p5638
sbag5
(g6
g7
(lp5639
Vinformation
p5640
atp5641
Rp5642
(dp5643
g17
VNN
p5644
sbatp5645
Rp5646
(dp5647
g17
VNP
p5648
sbag5
(g6
g7
(lp5649
g5
(g6
g7
(lp5650
Velicited
p5651
atp5652
Rp5653
(dp5654
g17
VVBN
p5655
sbag5
(g6
g7
(lp5656
g5
(g6
g7
(lp5657
Vabout
p5658
atp5659
Rp5660
(dp5661
g17
VIN
p5662
sbag5
(g6
g7
(lp5663
g5
(g6
g7
(lp5664
Vthe
p5665
atp5666
Rp5667
(dp5668
g17
VDT
p5669
sbag5
(g6
g7
(lp5670
Vpatient
p5671
atp5672
Rp5673
(dp5674
g17
VNN
p5675
sbatp5676
Rp5677
(dp5678
g17
VNP
p5679
sbatp5680
Rp5681
(dp5682
g17
VPP
p5683
sbatp5684
Rp5685
(dp5686
g17
VVP
p5687
sbatp5688
Rp5689
(dp5690
g17
VNP
p5691
sbatp5692
Rp5693
(dp5694
g17
VPP
p5695
sbatp5696
Rp5697
(dp5698
g17
VNP
p5699
sbatp5700
Rp5701
(dp5702
g17
VPP
p5703
sbatp5704
Rp5705
(dp5706
g17
VVP
p5707
sbatp5708
Rp5709
(dp5710
g17
g169
sbag5
(g6
g7
(lp5711
g601
atp5712
Rp5713
(dp5714
g17
g601
sbag5
(g6
g7
(lp5715
Vbut
p5716
atp5717
Rp5718
(dp5719
g17
VCC
p5720
sbag5
(g6
g7
(lp5721
g5
(g6
g7
(lp5722
g5
(g6
g7
(lp5723
VMYCIN
p5724
atp5725
Rp5726
(dp5727
g17
VNNP
p5728
sbatp5729
Rp5730
(dp5731
g17
VNP
p5732
sbag5
(g6
g7
(lp5733
g5
(g6
g7
(lp5734
Vmakes
p5735
atp5736
Rp5737
(dp5738
g17
VVBZ
p5739
sbag5
(g6
g7
(lp5740
g5
(g6
g7
(lp5741
g5
(g6
g7
(lp5742
Vno
p5743
atp5744
Rp5745
(dp5746
g17
VDT
p5747
sbag5
(g6
g7
(lp5748
Vprognosis
p5749
atp5750
Rp5751
(dp5752
g17
VNN
p5753
sbatp5754
Rp5755
(dp5756
g17
VNP
p5757
sbag5
(g6
g7
(lp5758
g5
(g6
g7
(lp5759
Vof
p5760
atp5761
Rp5762
(dp5763
g17
VIN
p5764
sbag5
(g6
g7
(lp5765
g5
(g6
g7
(lp5766
g5
(g6
g7
(lp5767
Vthe
p5768
atp5769
Rp5770
(dp5771
g17
VDT
p5772
sbag5
(g6
g7
(lp5773
Veffects
p5774
atp5775
Rp5776
(dp5777
g17
VNNS
p5778
sbatp5779
Rp5780
(dp5781
g17
VNP
p5782
sbag5
(g6
g7
(lp5783
g5
(g6
g7
(lp5784
Vof
p5785
atp5786
Rp5787
(dp5788
g17
VIN
p5789
sbag5
(g6
g7
(lp5790
g5
(g6
g7
(lp5791
Vthe
p5792
atp5793
Rp5794
(dp5795
g17
VDT
p5796
sbag5
(g6
g7
(lp5797
Vtreatment
p5798
atp5799
Rp5800
(dp5801
g17
VNN
p5802
sbatp5803
Rp5804
(dp5805
g17
VNP
p5806
sbatp5807
Rp5808
(dp5809
g17
VPP
p5810
sbatp5811
Rp5812
(dp5813
g17
VNP
p5814
sbatp5815
Rp5816
(dp5817
g17
VPP
p5818
sbatp5819
Rp5820
(dp5821
g17
VNP
p5822
sbatp5823
Rp5824
(dp5825
g17
VVP
p5826
sbatp5827
Rp5828
(dp5829
g17
g169
sbag5
(g6
g7
(lp5830
g198
atp5831
Rp5832
(dp5833
g17
g198
sbatp5834
Rp5835
(dp5836
g17
g169
sbatp5837
Rp5838
(dp5839
g17
VROOT
p5840
sbasg209
(icmyPackage
CorE
p5841
(dp5842
g212
(lp5843
(I0
I7
tp5844
a(I0
I14
tp5845
asg215
g5
(g6
g7
(lp5846
g5621
ag5628
ag5646
ag5653
ag5660
ag5667
atp5847
Rp5848
(dp5849
g17
g226
sbsbsg216
(icmyPackage
CorE
p5850
(dp5851
g212
(lp5852
(I0
I0
tp5853
a(I0
I5
tp5854
asg215
g5
(g6
g7
(lp5855
g5567
ag5574
ag5597
atp5856
Rp5857
(dp5858
g17
g226
sbsbsg227
g4649
sg264
(lp5859
(icmyPackage
Sent
p5860
(dp5861
g268
I2
sg269
I15
sg270
S'Its rules give the recommended treatment as a function of the information elicited about the patient, but MYCIN makes no prognosis of the effects of the treatment.'
p5862
sg272
I0
sg273
I68
sg215
(lp5863
g5838
asbasba(icmyPackage
CELink
p5864
(dp5865
g3
(lp5866
g5
(g6
g7
(lp5867
g5
(g6
g7
(lp5868
g5
(g6
g7
(lp5869
g5
(g6
g7
(lp5870
VIgnoring
p5871
atp5872
Rp5873
(dp5874
g17
VVBG
p5875
sbag5
(g6
g7
(lp5876
Vprognosis
p5877
atp5878
Rp5879
(dp5880
g17
VNN
p5881
sbatp5882
Rp5883
(dp5884
g17
VNP
p5885
sbag5
(g6
g7
(lp5886
g5
(g6
g7
(lp5887
Vis
p5888
atp5889
Rp5890
(dp5891
g17
VVBZ
p5892
sbag5
(g6
g7
(lp5893
g5
(g6
g7
(lp5894
Vpossible
p5895
atp5896
Rp5897
(dp5898
g17
VJJ
p5899
sbatp5900
Rp5901
(dp5902
g17
VADJP
p5903
sbag5
(g6
g7
(lp5904
g5
(g6
g7
(lp5905
Vbecause
p5906
atp5907
Rp5908
(dp5909
g17
VRB
p5910
sbag5
(g6
g7
(lp5911
Vof
p5912
atp5913
Rp5914
(dp5915
g17
VIN
p5916
sbag5
(g6
g7
(lp5917
g5
(g6
g7
(lp5918
g5
(g6
g7
(lp5919
Vthe
p5920
atp5921
Rp5922
(dp5923
g17
VDT
p5924
sbag5
(g6
g7
(lp5925
Vspecific
p5926
atp5927
Rp5928
(dp5929
g17
VJJ
p5930
sbag5
(g6
g7
(lp5931
Vnarrow
p5932
atp5933
Rp5934
(dp5935
g17
VJJ
p5936
sbag5
(g6
g7
(lp5937
Vdomain
p5938
atp5939
Rp5940
(dp5941
g17
VNN
p5942
sbatp5943
Rp5944
(dp5945
g17
VNP
p5946
sbag5
(g6
g7
(lp5947
g5
(g6
g7
(lp5948
g5
(g6
g7
(lp5949
Vin
p5950
atp5951
Rp5952
(dp5953
g17
VIN
p5954
sbag5
(g6
g7
(lp5955
g5
(g6
g7
(lp5956
Vwhich
p5957
atp5958
Rp5959
(dp5960
g17
VWDT
p5961
sbatp5962
Rp5963
(dp5964
g17
VWHNP
p5965
sbatp5966
Rp5967
(dp5968
g17
VWHPP
p5969
sbag5
(g6
g7
(lp5970
g5
(g6
g7
(lp5971
g5
(g6
g7
(lp5972
VMYCIN
p5973
atp5974
Rp5975
(dp5976
g17
VNNP
p5977
sbatp5978
Rp5979
(dp5980
g17
VNP
p5981
sbag5
(g6
g7
(lp5982
g5
(g6
g7
(lp5983
Voperates
p5984
atp5985
Rp5986
(dp5987
g17
VVBZ
p5988
sbatp5989
Rp5990
(dp5991
g17
VVP
p5992
sbatp5993
Rp5994
(dp5995
g17
g169
sbatp5996
Rp5997
(dp5998
g17
VSBAR
p5999
sbatp6000
Rp6001
(dp6002
g17
VNP
p6003
sbatp6004
Rp6005
(dp6006
g17
VPP
p6007
sbatp6008
Rp6009
(dp6010
g17
VVP
p6011
sbag5
(g6
g7
(lp6012
g198
atp6013
Rp6014
(dp6015
g17
g198
sbatp6016
Rp6017
(dp6018
g17
g169
sbatp6019
Rp6020
(dp6021
g17
VROOT
p6022
sbag5
(g6
g7
(lp6023
g5
(g6
g7
(lp6024
g5
(g6
g7
(lp6025
g5
(g6
g7
(lp6026
VSuppose
p6027
atp6028
Rp6029
(dp6030
g17
VVB
p6031
sbag5
(g6
g7
(lp6032
g601
atp6033
Rp6034
(dp6035
g17
g601
sbag5
(g6
g7
(lp6036
g5
(g6
g7
(lp6037
Vfor
p6038
atp6039
Rp6040
(dp6041
g17
VIN
p6042
sbag5
(g6
g7
(lp6043
g5
(g6
g7
(lp6044
Vexample
p6045
atp6046
Rp6047
(dp6048
g17
VNN
p6049
sbatp6050
Rp6051
(dp6052
g17
VNP
p6053
sbatp6054
Rp6055
(dp6056
g17
VPP
p6057
sbag5
(g6
g7
(lp6058
g601
atp6059
Rp6060
(dp6061
g17
g601
sbag5
(g6
g7
(lp6062
g5
(g6
g7
(lp6063
g5
(g6
g7
(lp6064
g394
atp6065
Rp6066
(dp6067
g17
VDT
p6068
sbag5
(g6
g7
(lp6069
Vcertain
p6070
atp6071
Rp6072
(dp6073
g17
VJJ
p6074
sbag5
(g6
g7
(lp6075
Vantibiotic
p6076
atp6077
Rp6078
(dp6079
g17
VNN
p6080
sbatp6081
Rp6082
(dp6083
g17
VNP
p6084
sbag5
(g6
g7
(lp6085
g5
(g6
g7
(lp6086
Vhad
p6087
atp6088
Rp6089
(dp6090
g17
VVBN
p6091
sbag5
(g6
g7
(lp6092
g5
(g6
g7
(lp6093
Vthe
p6094
atp6095
Rp6096
(dp6097
g17
VDT
p6098
sbag5
(g6
g7
(lp6099
Vprecondition
p6100
atp6101
Rp6102
(dp6103
g17
VNN
p6104
sbatp6105
Rp6106
(dp6107
g17
VNP
p6108
sbag5
(g6
g7
(lp6109
g5
(g6
g7
(lp6110
Vfor
p6111
atp6112
Rp6113
(dp6114
g17
VIN
p6115
sbag5
(g6
g7
(lp6116
g5
(g6
g7
(lp6117
Vits
p6118
atp6119
Rp6120
(dp6121
g17
VPRP$
p6122
sbag5
(g6
g7
(lp6123
Vusefulness
p6124
atp6125
Rp6126
(dp6127
g17
VNN
p6128
sbatp6129
Rp6130
(dp6131
g17
VNP
p6132
sbatp6133
Rp6134
(dp6135
g17
VPP
p6136
sbag5
(g6
g7
(lp6137
g5
(g6
g7
(lp6138
Vthat
p6139
atp6140
Rp6141
(dp6142
g17
VIN
p6143
sbag5
(g6
g7
(lp6144
g5
(g6
g7
(lp6145
g5
(g6
g7
(lp6146
Vthe
p6147
atp6148
Rp6149
(dp6150
g17
VDT
p6151
sbag5
(g6
g7
(lp6152
Vpatient
p6153
atp6154
Rp6155
(dp6156
g17
VNN
p6157
sbatp6158
Rp6159
(dp6160
g17
VNP
p6161
sbag5
(g6
g7
(lp6162
Vnot
p6163
atp6164
Rp6165
(dp6166
g17
VRB
p6167
sbag5
(g6
g7
(lp6168
g5
(g6
g7
(lp6169
Vhave
p6170
atp6171
Rp6172
(dp6173
g17
VVB
p6174
sbag5
(g6
g7
(lp6175
g5
(g6
g7
(lp6176
g394
atp6177
Rp6178
(dp6179
g17
VDT
p6180
sbag5
(g6
g7
(lp6181
Vfever
p6182
atp6183
Rp6184
(dp6185
g17
VNN
p6186
sbatp6187
Rp6188
(dp6189
g17
VNP
p6190
sbatp6191
Rp6192
(dp6193
g17
VVP
p6194
sbatp6195
Rp6196
(dp6197
g17
g169
sbatp6198
Rp6199
(dp6200
g17
VSBAR
p6201
sbatp6202
Rp6203
(dp6204
g17
VVP
p6205
sbatp6206
Rp6207
(dp6208
g17
VNP
p6209
sbatp6210
Rp6211
(dp6212
g17
VVP
p6213
sbag5
(g6
g7
(lp6214
g198
atp6215
Rp6216
(dp6217
g17
g198
sbatp6218
Rp6219
(dp6220
g17
g169
sbatp6221
Rp6222
(dp6223
g17
VROOT
p6224
sbasg209
(icmyPackage
CorE
p6225
(dp6226
g212
(lp6227
(I0
I0
tp6228
a(I0
I3
tp6229
asg215
g5
(g6
g7
(lp6230
g5883
ag5890
ag5901
atp6231
Rp6232
(dp6233
g17
g226
sbsbsg216
(icmyPackage
CorE
p6234
(dp6235
g212
(lp6236
(I0
I14
tp6237
a(I1
I20
tp6238
asg215
g5
(g6
g7
(lp6239
g6014
ag6211
atp6240
Rp6241
(dp6242
g17
g226
sbsbsg227
(icmyPackage
pattern
p6243
(dp6244
g230
I1
sg231
I1
sg232
(lp6245
(lp6246
S'because'
p6247
aS'of'
p6248
aasg245
(lp6249
I1
aI1
aI3
asg247
(lp6250
sg250
I29
sg251
(lp6251
(lp6252
S'&C'
p6253
aS'(,/;/./--)'
p6254
aS'(&ADV)'
p6255
aa(lp6256
S'(&THIS)'
p6257
aS'&NP'
p6258
aS'&R'
p6259
aasbsg264
(lp6260
(icmyPackage
Sent
p6261
(dp6262
g268
I2
sg269
I16
sg270
S'Ignoring prognosis is possible because of the specific narrow domain in which MYCIN operates.'
p6263
sg272
I0
sg273
I70
sg215
(lp6264
g6020
asba(icmyPackage
Sent
p6265
(dp6266
g268
I2
sg269
I16
sg270
S'Suppose, for example, a certain antibiotic had the precondition for its usefulness that the patient not have a fever.'
p6267
sg272
I0
sg273
I71
sg215
(lp6268
g6222
asbasba(icmyPackage
CELink
p6269
(dp6270
g3
(lp6271
g5
(g6
g7
(lp6272
g5
(g6
g7
(lp6273
g5
(g6
g7
(lp6274
VThen
p6275
atp6276
Rp6277
(dp6278
g17
VRB
p6279
sbag5
(g6
g7
(lp6280
g5
(g6
g7
(lp6281
VMYCIN
p6282
atp6283
Rp6284
(dp6285
g17
VNNP
p6286
sbatp6287
Rp6288
(dp6289
g17
VNP
p6290
sbag5
(g6
g7
(lp6291
g5
(g6
g7
(lp6292
Vmight
p6293
atp6294
Rp6295
(dp6296
g17
VMD
p6297
sbag5
(g6
g7
(lp6298
g5
(g6
g7
(lp6299
Vhave
p6300
atp6301
Rp6302
(dp6303
g17
VVB
p6304
sbag5
(g6
g7
(lp6305
g5
(g6
g7
(lp6306
g5
(g6
g7
(lp6307
Vto
p6308
atp6309
Rp6310
(dp6311
g17
VTO
p6312
sbag5
(g6
g7
(lp6313
g5
(g6
g7
(lp6314
Vmake
p6315
atp6316
Rp6317
(dp6318
g17
VVB
p6319
sbag5
(g6
g7
(lp6320
g5
(g6
g7
(lp6321
g394
atp6322
Rp6323
(dp6324
g17
VDT
p6325
sbag5
(g6
g7
(lp6326
Vplan
p6327
atp6328
Rp6329
(dp6330
g17
VNN
p6331
sbatp6332
Rp6333
(dp6334
g17
VNP
p6335
sbag5
(g6
g7
(lp6336
g5
(g6
g7
(lp6337
Vfor
p6338
atp6339
Rp6340
(dp6341
g17
VIN
p6342
sbag5
(g6
g7
(lp6343
g5
(g6
g7
(lp6344
g5
(g6
g7
(lp6345
g5
(g6
g7
(lp6346
Vgetting
p6347
atp6348
Rp6349
(dp6350
g17
VVBG
p6351
sbag5
(g6
g7
(lp6352
g5
(g6
g7
(lp6353
Vrid
p6354
atp6355
Rp6356
(dp6357
g17
VJJ
p6358
sbag5
(g6
g7
(lp6359
g5
(g6
g7
(lp6360
Vof
p6361
atp6362
Rp6363
(dp6364
g17
VIN
p6365
sbag5
(g6
g7
(lp6366
g5
(g6
g7
(lp6367
g5
(g6
g7
(lp6368
Vthe
p6369
atp6370
Rp6371
(dp6372
g17
VDT
p6373
sbag5
(g6
g7
(lp6374
Vpatient
p6375
atp6376
Rp6377
(dp6378
g17
VNN
p6379
sbag5
(g6
g7
(lp6380
V's
p6381
atp6382
Rp6383
(dp6384
g17
VPOS
p6385
sbatp6386
Rp6387
(dp6388
g17
VNP
p6389
sbag5
(g6
g7
(lp6390
Vfever
p6391
atp6392
Rp6393
(dp6394
g17
VNN
p6395
sbatp6396
Rp6397
(dp6398
g17
VNP
p6399
sbatp6400
Rp6401
(dp6402
g17
VPP
p6403
sbatp6404
Rp6405
(dp6406
g17
VADJP
p6407
sbatp6408
Rp6409
(dp6410
g17
VVP
p6411
sbag5
(g6
g7
(lp6412
Vand
p6413
atp6414
Rp6415
(dp6416
g17
VCC
p6417
sbag5
(g6
g7
(lp6418
g5
(g6
g7
(lp6419
Vverifying
p6420
atp6421
Rp6422
(dp6423
g17
VVBG
p6424
sbag5
(g6
g7
(lp6425
g5
(g6
g7
(lp6426
Vthat
p6427
atp6428
Rp6429
(dp6430
g17
VIN
p6431
sbag5
(g6
g7
(lp6432
g5
(g6
g7
(lp6433
g5
(g6
g7
(lp6434
Vit
p6435
atp6436
Rp6437
(dp6438
g17
VPRP
p6439
sbatp6440
Rp6441
(dp6442
g17
VNP
p6443
sbag5
(g6
g7
(lp6444
g5
(g6
g7
(lp6445
Vwas
p6446
atp6447
Rp6448
(dp6449
g17
VVBD
p6450
sbag5
(g6
g7
(lp6451
g5
(g6
g7
(lp6452
Vgone
p6453
atp6454
Rp6455
(dp6456
g17
VVBN
p6457
sbag5
(g6
g7
(lp6458
g5
(g6
g7
(lp6459
Vas
p6460
atp6461
Rp6462
(dp6463
g17
VIN
p6464
sbag5
(g6
g7
(lp6465
g5
(g6
g7
(lp6466
g5
(g6
g7
(lp6467
g394
atp6468
Rp6469
(dp6470
g17
VDT
p6471
sbag5
(g6
g7
(lp6472
Vpart
p6473
atp6474
Rp6475
(dp6476
g17
VNN
p6477
sbatp6478
Rp6479
(dp6480
g17
VNP
p6481
sbag5
(g6
g7
(lp6482
g5
(g6
g7
(lp6483
Vof
p6484
atp6485
Rp6486
(dp6487
g17
VIN
p6488
sbag5
(g6
g7
(lp6489
g5
(g6
g7
(lp6490
Vthe
p6491
atp6492
Rp6493
(dp6494
g17
VDT
p6495
sbag5
(g6
g7
(lp6496
Vplan
p6497
atp6498
Rp6499
(dp6500
g17
VNN
p6501
sbatp6502
Rp6503
(dp6504
g17
VNP
p6505
sbatp6506
Rp6507
(dp6508
g17
VPP
p6509
sbatp6510
Rp6511
(dp6512
g17
VNP
p6513
sbatp6514
Rp6515
(dp6516
g17
VPP
p6517
sbag5
(g6
g7
(lp6518
g5
(g6
g7
(lp6519
Vfor
p6520
atp6521
Rp6522
(dp6523
g17
VIN
p6524
sbag5
(g6
g7
(lp6525
g5
(g6
g7
(lp6526
g5
(g6
g7
(lp6527
Vusing
p6528
atp6529
Rp6530
(dp6531
g17
VVBG
p6532
sbag5
(g6
g7
(lp6533
g5
(g6
g7
(lp6534
Vthe
p6535
atp6536
Rp6537
(dp6538
g17
VDT
p6539
sbag5
(g6
g7
(lp6540
Vantibiotic
p6541
atp6542
Rp6543
(dp6544
g17
VJJ
p6545
sbatp6546
Rp6547
(dp6548
g17
VNP
p6549
sbatp6550
Rp6551
(dp6552
g17
VVP
p6553
sbatp6554
Rp6555
(dp6556
g17
g169
sbatp6557
Rp6558
(dp6559
g17
VPP
p6560
sbatp6561
Rp6562
(dp6563
g17
VVP
p6564
sbatp6565
Rp6566
(dp6567
g17
VVP
p6568
sbatp6569
Rp6570
(dp6571
g17
g169
sbatp6572
Rp6573
(dp6574
g17
VSBAR
p6575
sbatp6576
Rp6577
(dp6578
g17
VVP
p6579
sbatp6580
Rp6581
(dp6582
g17
VVP
p6583
sbatp6584
Rp6585
(dp6586
g17
g169
sbatp6587
Rp6588
(dp6589
g17
VPP
p6590
sbatp6591
Rp6592
(dp6593
g17
VVP
p6594
sbatp6595
Rp6596
(dp6597
g17
VVP
p6598
sbatp6599
Rp6600
(dp6601
g17
g169
sbatp6602
Rp6603
(dp6604
g17
VVP
p6605
sbatp6606
Rp6607
(dp6608
g17
VVP
p6609
sbag5
(g6
g7
(lp6610
g198
atp6611
Rp6612
(dp6613
g17
g198
sbatp6614
Rp6615
(dp6616
g17
g169
sbatp6617
Rp6618
(dp6619
g17
VROOT
p6620
sbasg209
(icmyPackage
CorE
p6621
(dp6622
g212
(lp6623
(I0
I9
tp6624
a(I0
I31
tp6625
asg215
g6585
sbsg216
(icmyPackage
CorE
p6626
(dp6627
g212
(lp6628
(I0
I0
tp6629
a(I0
I7
tp6630
asg215
g5
(g6
g7
(lp6631
g6277
ag6288
ag6295
ag6302
ag6310
ag6317
ag6333
atp6632
Rp6633
(dp6634
g17
g226
sbsbsg227
g3049
sg264
(lp6635
(icmyPackage
Sent
p6636
(dp6637
g268
I2
sg269
I16
sg270
S"Then MYCIN might have to make a plan for getting rid of the patient's fever and verifying that it was gone as a part of the plan for using the antibiotic."
p6638
sg272
I0
sg273
I72
sg215
(lp6639
g6618
asbasba(icmyPackage
CELink
p6640
(dp6641
g3
(lp6642
g6585
asg209
(icmyPackage
CorE
p6643
(dp6644
g212
(lp6645
(I0
I20
tp6646
a(I0
I22
tp6647
asg215
g6555
sbsg216
(icmyPackage
CorE
p6648
(dp6649
g212
(lp6650
(I0
I0
tp6651
a(I0
I18
tp6652
asg215
g5
(g6
g7
(lp6653
g6409
ag6415
ag6422
ag6429
ag6441
ag6448
ag6455
ag6515
atp6654
Rp6655
(dp6656
g17
g226
sbsbsg227
g3049
sg264
(lp6657
g6636
asba(icmyPackage
CELink
p6658
(dp6659
g3
(lp6660
g5
(g6
g7
(lp6661
g5
(g6
g7
(lp6662
g5
(g6
g7
(lp6663
g5
(g6
g7
(lp6664
g5
(g6
g7
(lp6665
VPerhaps
p6666
atp6667
Rp6668
(dp6669
g17
VRB
p6670
sbatp6671
Rp6672
(dp6673
g17
VADVP
p6674
sbag5
(g6
g7
(lp6675
Vif
p6676
atp6677
Rp6678
(dp6679
g17
VIN
p6680
sbag5
(g6
g7
(lp6681
g5
(g6
g7
(lp6682
g5
(g6
g7
(lp6683
g282
atp6684
Rp6685
(dp6686
g17
VPRP
p6687
sbatp6688
Rp6689
(dp6690
g17
VNP
p6691
sbag5
(g6
g7
(lp6692
g5
(g6
g7
(lp6693
Vknew
p6694
atp6695
Rp6696
(dp6697
g17
VVBD
p6698
sbag5
(g6
g7
(lp6699
g5
(g6
g7
(lp6700
Vmore
p6701
atp6702
Rp6703
(dp6704
g17
VJJR
p6705
sbatp6706
Rp6707
(dp6708
g17
VNP
p6709
sbag5
(g6
g7
(lp6710
g5
(g6
g7
(lp6711
Vabout
p6712
atp6713
Rp6714
(dp6715
g17
VIN
p6716
sbag5
(g6
g7
(lp6717
g5
(g6
g7
(lp6718
Vbacterial
p6719
atp6720
Rp6721
(dp6722
g17
VJJ
p6723
sbag5
(g6
g7
(lp6724
Vdiseases
p6725
atp6726
Rp6727
(dp6728
g17
VNNS
p6729
sbatp6730
Rp6731
(dp6732
g17
VNP
p6733
sbatp6734
Rp6735
(dp6736
g17
VPP
p6737
sbatp6738
Rp6739
(dp6740
g17
VVP
p6741
sbatp6742
Rp6743
(dp6744
g17
g169
sbatp6745
Rp6746
(dp6747
g17
VSBAR
p6748
sbag5
(g6
g7
(lp6749
g601
atp6750
Rp6751
(dp6752
g17
g601
sbag5
(g6
g7
(lp6753
g5
(g6
g7
(lp6754
g282
atp6755
Rp6756
(dp6757
g17
VPRP
p6758
sbatp6759
Rp6760
(dp6761
g17
VNP
p6762
sbag5
(g6
g7
(lp6763
g5
(g6
g7
(lp6764
Vwould
p6765
atp6766
Rp6767
(dp6768
g17
VMD
p6769
sbag5
(g6
g7
(lp6770
g5
(g6
g7
(lp6771
Vconclude
p6772
atp6773
Rp6774
(dp6775
g17
VVB
p6776
sbag5
(g6
g7
(lp6777
g5
(g6
g7
(lp6778
g5
(g6
g7
(lp6779
Vthat
p6780
atp6781
Rp6782
(dp6783
g17
VIN
p6784
sbag5
(g6
g7
(lp6785
g5
(g6
g7
(lp6786
g5
(g6
g7
(lp6787
Vtheir
p6788
atp6789
Rp6790
(dp6791
g17
VPRP$
p6792
sbag5
(g6
g7
(lp6793
Vtreatment
p6794
atp6795
Rp6796
(dp6797
g17
VNN
p6798
sbatp6799
Rp6800
(dp6801
g17
VNP
p6802
sbag5
(g6
g7
(lp6803
g5
(g6
g7
(lp6804
Vsometimes
p6805
atp6806
Rp6807
(dp6808
g17
VRB
p6809
sbatp6810
Rp6811
(dp6812
g17
VADVP
p6813
sbag5
(g6
g7
(lp6814
g5
(g6
g7
(lp6815
g5
(g6
g7
(lp6816
Vreally
p6817
atp6818
Rp6819
(dp6820
g17
VRB
p6821
sbatp6822
Rp6823
(dp6824
g17
VADVP
p6825
sbag5
(g6
g7
(lp6826
Vdoes
p6827
atp6828
Rp6829
(dp6830
g17
VVBZ
p6831
sbag5
(g6
g7
(lp6832
g5
(g6
g7
(lp6833
g5
(g6
g7
(lp6834
Vrequire
p6835
atp6836
Rp6837
(dp6838
g17
VVB
p6839
sbag5
(g6
g7
(lp6840
g5
(g6
g7
(lp6841
Vplanning
p6842
atp6843
Rp6844
(dp6845
g17
VNN
p6846
sbatp6847
Rp6848
(dp6849
g17
VNP
p6850
sbatp6851
Rp6852
(dp6853
g17
VVP
p6854
sbatp6855
Rp6856
(dp6857
g17
g169
sbatp6858
Rp6859
(dp6860
g17
VVP
p6861
sbatp6862
Rp6863
(dp6864
g17
g169
sbatp6865
Rp6866
(dp6867
g17
VSBAR
p6868
sbag5
(g6
g7
(lp6869
Vand
p6870
atp6871
Rp6872
(dp6873
g17
VCC
p6874
sbag5
(g6
g7
(lp6875
g5
(g6
g7
(lp6876
Vthat
p6877
atp6878
Rp6879
(dp6880
g17
VIN
p6881
sbag5
(g6
g7
(lp6882
g5
(g6
g7
(lp6883
g5
(g6
g7
(lp6884
g5
(g6
g7
(lp6885
Vlack
p6886
atp6887
Rp6888
(dp6889
g17
VNN
p6890
sbatp6891
Rp6892
(dp6893
g17
VNP
p6894
sbag5
(g6
g7
(lp6895
g5
(g6
g7
(lp6896
Vof
p6897
atp6898
Rp6899
(dp6900
g17
VIN
p6901
sbag5
(g6
g7
(lp6902
g5
(g6
g7
(lp6903
Vplanning
p6904
atp6905
Rp6906
(dp6907
g17
VNN
p6908
sbag5
(g6
g7
(lp6909
Vability
p6910
atp6911
Rp6912
(dp6913
g17
VNN
p6914
sbatp6915
Rp6916
(dp6917
g17
VNP
p6918
sbatp6919
Rp6920
(dp6921
g17
VPP
p6922
sbatp6923
Rp6924
(dp6925
g17
VNP
p6926
sbag5
(g6
g7
(lp6927
g5
(g6
g7
(lp6928
Vlimits
p6929
atp6930
Rp6931
(dp6932
g17
VVBZ
p6933
sbag5
(g6
g7
(lp6934
g5
(g6
g7
(lp6935
g5
(g6
g7
(lp6936
VMYCIN
p6937
atp6938
Rp6939
(dp6940
g17
VNNP
p6941
sbag5
(g6
g7
(lp6942
V's
p6943
atp6944
Rp6945
(dp6946
g17
VPOS
p6947
sbatp6948
Rp6949
(dp6950
g17
VNP
p6951
sbag5
(g6
g7
(lp6952
Vutility
p6953
atp6954
Rp6955
(dp6956
g17
VNN
p6957
sbatp6958
Rp6959
(dp6960
g17
VNP
p6961
sbatp6962
Rp6963
(dp6964
g17
VVP
p6965
sbatp6966
Rp6967
(dp6968
g17
g169
sbatp6969
Rp6970
(dp6971
g17
VSBAR
p6972
sbatp6973
Rp6974
(dp6975
g17
VSBAR
p6976
sbatp6977
Rp6978
(dp6979
g17
VVP
p6980
sbatp6981
Rp6982
(dp6983
g17
VVP
p6984
sbag5
(g6
g7
(lp6985
g198
atp6986
Rp6987
(dp6988
g17
g198
sbatp6989
Rp6990
(dp6991
g17
g169
sbatp6992
Rp6993
(dp6994
g17
VROOT
p6995
sbasg209
(icmyPackage
CorE
p6996
(dp6997
g212
(lp6998
(I0
I2
tp6999
a(I0
I7
tp7000
asg215
g6743
sbsg216
(icmyPackage
CorE
p7001
(dp7002
g212
(lp7003
(I0
I9
tp7004
a(I0
I30
tp7005
asg215
g5
(g6
g7
(lp7006
g6760
ag6982
ag6987
atp7007
Rp7008
(dp7009
g17
g226
sbsbsg227
g2767
sg264
(lp7010
(icmyPackage
Sent
p7011
(dp7012
g268
I2
sg269
I16
sg270
S"Perhaps if I knew more about bacterial diseases, I would conclude that their treatment sometimes really does require planning and that lack of planning ability limits MYCIN's utility."
p7013
sg272
I0
sg273
I74
sg215
(lp7014
g6993
asbasba(icmyPackage
CELink
p7015
(dp7016
g3
(lp7017
g5
(g6
g7
(lp7018
g5
(g6
g7
(lp7019
g5
(g6
g7
(lp7020
g5
(g6
g7
(lp7021
g5
(g6
g7
(lp7022
g5
(g6
g7
(lp7023
Vor
p7024
atp7025
Rp7026
(dp7027
g17
VCC
p7028
sbag5
(g6
g7
(lp7029
Veven
p7030
atp7031
Rp7032
(dp7033
g17
VRB
p7034
sbatp7035
Rp7036
(dp7037
g17
VQP
p7038
sbatp7039
Rp7040
(dp7041
g17
VNP
p7042
sbag5
(g6
g7
(lp7043
g5
(g6
g7
(lp7044
V``
p7045
atp7046
Rp7047
(dp7048
g17
V``
p7049
sbag5
(g6
g7
(lp7050
g5
(g6
g7
(lp7051
g5
(g6
g7
(lp7052
g5
(g6
g7
(lp7053
VWhat
p7054
atp7055
Rp7056
(dp7057
g17
VWDT
p7058
sbatp7059
Rp7060
(dp7061
g17
VWHNP
p7062
sbag5
(g6
g7
(lp7063
Vbad
p7064
atp7065
Rp7066
(dp7067
g17
VJJ
p7068
sbatp7069
Rp7070
(dp7071
g17
VWHADJP
p7072
sbag5
(g6
g7
(lp7073
Vthings
p7074
atp7075
Rp7076
(dp7077
g17
VNNS
p7078
sbatp7079
Rp7080
(dp7081
g17
VWHNP
p7082
sbag5
(g6
g7
(lp7083
g5
(g6
g7
(lp7084
g5
(g6
g7
(lp7085
Vmight
p7086
atp7087
Rp7088
(dp7089
g17
VMD
p7090
sbag5
(g6
g7
(lp7091
g5
(g6
g7
(lp7092
Vhappen
p7093
atp7094
Rp7095
(dp7096
g17
VVB
p7097
sbag5
(g6
g7
(lp7098
g5
(g6
g7
(lp7099
Vif
p7100
atp7101
Rp7102
(dp7103
g17
VIN
p7104
sbag5
(g6
g7
(lp7105
g5
(g6
g7
(lp7106
g5
(g6
g7
(lp7107
g282
atp7108
Rp7109
(dp7110
g17
VPRP
p7111
sbatp7112
Rp7113
(dp7114
g17
VNP
p7115
sbag5
(g6
g7
(lp7116
g5
(g6
g7
(lp7117
Vgive
p7118
atp7119
Rp7120
(dp7121
g17
VVBP
p7122
sbag5
(g6
g7
(lp7123
g5
(g6
g7
(lp7124
Vthis
p7125
atp7126
Rp7127
(dp7128
g17
VDT
p7129
sbag5
(g6
g7
(lp7130
Vpatient
p7131
atp7132
Rp7133
(dp7134
g17
VNN
p7135
sbatp7136
Rp7137
(dp7138
g17
VNP
p7139
sbag5
(g6
g7
(lp7140
g5
(g6
g7
(lp7141
Vpenicillin
p7142
atp7143
Rp7144
(dp7145
g17
VNN
p7146
sbatp7147
Rp7148
(dp7149
g17
VNP
p7150
sbatp7151
Rp7152
(dp7153
g17
VVP
p7154
sbatp7155
Rp7156
(dp7157
g17
g169
sbatp7158
Rp7159
(dp7160
g17
VSBAR
p7161
sbatp7162
Rp7163
(dp7164
g17
VVP
p7165
sbatp7166
Rp7167
(dp7168
g17
VVP
p7169
sbatp7170
Rp7171
(dp7172
g17
g169
sbatp7173
Rp7174
(dp7175
g17
VSBAR
p7176
sbatp7177
Rp7178
(dp7179
g17
VNP
p7180
sbag5
(g6
g7
(lp7181
V?
p7182
atp7183
Rp7184
(dp7185
g17
g198
sbatp7186
Rp7187
(dp7188
g17
VNP
p7189
sbatp7190
Rp7191
(dp7192
g17
VROOT
p7193
sbasg209
(icmyPackage
CorE
p7194
(dp7195
g212
(lp7196
(I0
I9
tp7197
a(I0
I14
tp7198
asg215
g5
(g6
g7
(lp7199
g7156
ag7184
atp7200
Rp7201
(dp7202
g17
g226
sbsbsg216
(icmyPackage
CorE
p7203
(dp7204
g212
(lp7205
(I0
I4
tp7206
a(I0
I7
tp7207
asg215
g5
(g6
g7
(lp7208
g7066
ag7076
ag7088
ag7095
atp7209
Rp7210
(dp7211
g17
g226
sbsbsg227
g3367
sg264
(lp7212
(icmyPackage
Sent
p7213
(dp7214
g268
I2
sg269
I17
sg270
S'or even "What bad things might happen if I give this patient penicillin?'
p7215
sg272
I0
sg273
I80
sg215
(lp7216
g7191
asbasba(icmyPackage
CELink
p7217
(dp7218
g3
(lp7219
g5
(g6
g7
(lp7220
g5
(g6
g7
(lp7221
g5
(g6
g7
(lp7222
g5
(g6
g7
(lp7223
V2
p7224
atp7225
Rp7226
(dp7227
g17
VLS
p7228
sbag5
(g6
g7
(lp7229
V-RRB-
p7230
atp7231
Rp7232
(dp7233
g17
V-RRB-
p7234
sbatp7235
Rp7236
(dp7237
g17
VLST
p7238
sbag5
(g6
g7
(lp7239
g5
(g6
g7
(lp7240
VVarious
p7241
atp7242
Rp7243
(dp7244
g17
VJJ
p7245
sbag5
(g6
g7
(lp7246
Vformalisms
p7247
atp7248
Rp7249
(dp7250
g17
VNNS
p7251
sbatp7252
Rp7253
(dp7254
g17
VNP
p7255
sbag5
(g6
g7
(lp7256
g5
(g6
g7
(lp7257
Vare
p7258
atp7259
Rp7260
(dp7261
g17
VVBP
p7262
sbag5
(g6
g7
(lp7263
g5
(g6
g7
(lp7264
Vused
p7265
atp7266
Rp7267
(dp7268
g17
VVBN
p7269
sbag5
(g6
g7
(lp7270
g5
(g6
g7
(lp7271
Vin
p7272
atp7273
Rp7274
(dp7275
g17
VIN
p7276
sbag5
(g6
g7
(lp7277
g5
(g6
g7
(lp7278
Vartificial
p7279
atp7280
Rp7281
(dp7282
g17
VJJ
p7283
sbag5
(g6
g7
(lp7284
Vintelligence
p7285
atp7286
Rp7287
(dp7288
g17
VNN
p7289
sbatp7290
Rp7291
(dp7292
g17
VNP
p7293
sbatp7294
Rp7295
(dp7296
g17
VPP
p7297
sbag5
(g6
g7
(lp7298
g5
(g6
g7
(lp7299
Vfor
p7300
atp7301
Rp7302
(dp7303
g17
VIN
p7304
sbag5
(g6
g7
(lp7305
g5
(g6
g7
(lp7306
g5
(g6
g7
(lp7307
Vrepresenting
p7308
atp7309
Rp7310
(dp7311
g17
VVBG
p7312
sbag5
(g6
g7
(lp7313
g5
(g6
g7
(lp7314
Vfacts
p7315
atp7316
Rp7317
(dp7318
g17
VNNS
p7319
sbatp7320
Rp7321
(dp7322
g17
VNP
p7323
sbag5
(g6
g7
(lp7324
g5
(g6
g7
(lp7325
Vabout
p7326
atp7327
Rp7328
(dp7329
g17
VIN
p7330
sbag5
(g6
g7
(lp7331
g5
(g6
g7
(lp7332
g5
(g6
g7
(lp7333
Vthe
p7334
atp7335
Rp7336
(dp7337
g17
VDT
p7338
sbag5
(g6
g7
(lp7339
Veffects
p7340
atp7341
Rp7342
(dp7343
g17
VNNS
p7344
sbatp7345
Rp7346
(dp7347
g17
VNP
p7348
sbag5
(g6
g7
(lp7349
g5
(g6
g7
(lp7350
Vof
p7351
atp7352
Rp7353
(dp7354
g17
VIN
p7355
sbag5
(g6
g7
(lp7356
g5
(g6
g7
(lp7357
g5
(g6
g7
(lp7358
Vactions
p7359
atp7360
Rp7361
(dp7362
g17
VNNS
p7363
sbatp7364
Rp7365
(dp7366
g17
VNP
p7367
sbag5
(g6
g7
(lp7368
Vand
p7369
atp7370
Rp7371
(dp7372
g17
VCC
p7373
sbag5
(g6
g7
(lp7374
g5
(g6
g7
(lp7375
Vother
p7376
atp7377
Rp7378
(dp7379
g17
VJJ
p7380
sbag5
(g6
g7
(lp7381
Vevents
p7382
atp7383
Rp7384
(dp7385
g17
VNNS
p7386
sbatp7387
Rp7388
(dp7389
g17
VNP
p7390
sbatp7391
Rp7392
(dp7393
g17
VNP
p7394
sbatp7395
Rp7396
(dp7397
g17
VPP
p7398
sbatp7399
Rp7400
(dp7401
g17
VNP
p7402
sbatp7403
Rp7404
(dp7405
g17
VPP
p7406
sbatp7407
Rp7408
(dp7409
g17
VVP
p7410
sbatp7411
Rp7412
(dp7413
g17
g169
sbatp7414
Rp7415
(dp7416
g17
VPP
p7417
sbatp7418
Rp7419
(dp7420
g17
VVP
p7421
sbatp7422
Rp7423
(dp7424
g17
VVP
p7425
sbag5
(g6
g7
(lp7426
g198
atp7427
Rp7428
(dp7429
g17
g198
sbatp7430
Rp7431
(dp7432
g17
g169
sbatp7433
Rp7434
(dp7435
g17
VROOT
p7436
sbasg209
(icmyPackage
CorE
p7437
(dp7438
g212
(lp7439
(I0
I10
tp7440
a(I0
I19
tp7441
asg215
g7412
sbsg216
(icmyPackage
CorE
p7442
(dp7443
g212
(lp7444
(I0
I0
tp7445
a(I0
I8
tp7446
asg215
g5
(g6
g7
(lp7447
g7236
ag7253
ag7260
ag7267
ag7295
atp7448
Rp7449
(dp7450
g17
g226
sbsbsg227
g3049
sg264
(lp7451
(icmyPackage
Sent
p7452
(dp7453
g268
I2
sg269
I18
sg270
S'2) Various formalisms are used in artificial intelligence for representing facts about the effects of actions and other events.'
p7454
sg272
I0
sg273
I82
sg215
(lp7455
g7434
asbasba(icmyPackage
CELink
p7456
(dp7457
g3
(lp7458
g5
(g6
g7
(lp7459
g5
(g6
g7
(lp7460
g5
(g6
g7
(lp7461
g5
(g6
g7
(lp7462
VHowever
p7463
atp7464
Rp7465
(dp7466
g17
VRB
p7467
sbatp7468
Rp7469
(dp7470
g17
VADVP
p7471
sbag5
(g6
g7
(lp7472
g601
atp7473
Rp7474
(dp7475
g17
g601
sbag5
(g6
g7
(lp7476
g5
(g6
g7
(lp7477
g5
(g6
g7
(lp7478
Vall
p7479
atp7480
Rp7481
(dp7482
g17
VDT
p7483
sbag5
(g6
g7
(lp7484
Vsystems
p7485
atp7486
Rp7487
(dp7488
g17
VNNS
p7489
sbatp7490
Rp7491
(dp7492
g17
VNP
p7493
sbag5
(g6
g7
(lp7494
g5
(g6
g7
(lp7495
Vthat
p7496
atp7497
Rp7498
(dp7499
g17
VIN
p7500
sbag5
(g6
g7
(lp7501
g5
(g6
g7
(lp7502
g5
(g6
g7
(lp7503
g282
atp7504
Rp7505
(dp7506
g17
VPRP
p7507
sbatp7508
Rp7509
(dp7510
g17
VNP
p7511
sbag5
(g6
g7
(lp7512
g5
(g6
g7
(lp7513
Vknow
p7514
atp7515
Rp7516
(dp7517
g17
VVBP
p7518
sbag5
(g6
g7
(lp7519
g5
(g6
g7
(lp7520
Vabout
p7521
atp7522
Rp7523
(dp7524
g17
VRP
p7525
sbatp7526
Rp7527
(dp7528
g17
VPRT
p7529
sbatp7530
Rp7531
(dp7532
g17
VVP
p7533
sbatp7534
Rp7535
(dp7536
g17
g169
sbatp7537
Rp7538
(dp7539
g17
VSBAR
p7540
sbatp7541
Rp7542
(dp7543
g17
VNP
p7544
sbag5
(g6
g7
(lp7545
g5
(g6
g7
(lp7546
Vgive
p7547
atp7548
Rp7549
(dp7550
g17
VVBP
p7551
sbag5
(g6
g7
(lp7552
g5
(g6
g7
(lp7553
g5
(g6
g7
(lp7554
Vthe
p7555
atp7556
Rp7557
(dp7558
g17
VDT
p7559
sbag5
(g6
g7
(lp7560
Veffects
p7561
atp7562
Rp7563
(dp7564
g17
VNNS
p7565
sbatp7566
Rp7567
(dp7568
g17
VNP
p7569
sbag5
(g6
g7
(lp7570
g5
(g6
g7
(lp7571
Vof
p7572
atp7573
Rp7574
(dp7575
g17
VIN
p7576
sbag5
(g6
g7
(lp7577
g5
(g6
g7
(lp7578
g5
(g6
g7
(lp7579
Van
p7580
atp7581
Rp7582
(dp7583
g17
VDT
p7584
sbag5
(g6
g7
(lp7585
Vevent
p7586
atp7587
Rp7588
(dp7589
g17
VNN
p7590
sbatp7591
Rp7592
(dp7593
g17
VNP
p7594
sbag5
(g6
g7
(lp7595
g5
(g6
g7
(lp7596
Vin
p7597
atp7598
Rp7599
(dp7600
g17
VIN
p7601
sbag5
(g6
g7
(lp7602
g5
(g6
g7
(lp7603
g394
atp7604
Rp7605
(dp7606
g17
VDT
p7607
sbag5
(g6
g7
(lp7608
Vsituation
p7609
atp7610
Rp7611
(dp7612
g17
VNN
p7613
sbatp7614
Rp7615
(dp7616
g17
VNP
p7617
sbatp7618
Rp7619
(dp7620
g17
VPP
p7621
sbatp7622
Rp7623
(dp7624
g17
VNP
p7625
sbatp7626
Rp7627
(dp7628
g17
VPP
p7629
sbatp7630
Rp7631
(dp7632
g17
VNP
p7633
sbag5
(g6
g7
(lp7634
g5
(g6
g7
(lp7635
Vby
p7636
atp7637
Rp7638
(dp7639
g17
VIN
p7640
sbag5
(g6
g7
(lp7641
g5
(g6
g7
(lp7642
g5
(g6
g7
(lp7643
Vdescribing
p7644
atp7645
Rp7646
(dp7647
g17
VVBG
p7648
sbag5
(g6
g7
(lp7649
g5
(g6
g7
(lp7650
g5
(g6
g7
(lp7651
g394
atp7652
Rp7653
(dp7654
g17
VDT
p7655
sbag5
(g6
g7
(lp7656
Vnew
p7657
atp7658
Rp7659
(dp7660
g17
VJJ
p7661
sbag5
(g6
g7
(lp7662
Vsituation
p7663
atp7664
Rp7665
(dp7666
g17
VNN
p7667
sbatp7668
Rp7669
(dp7670
g17
VNP
p7671
sbag5
(g6
g7
(lp7672
g5
(g6
g7
(lp7673
g5
(g6
g7
(lp7674
Vthat
p7675
atp7676
Rp7677
(dp7678
g17
VWDT
p7679
sbatp7680
Rp7681
(dp7682
g17
VWHNP
p7683
sbag5
(g6
g7
(lp7684
g5
(g6
g7
(lp7685
g5
(g6
g7
(lp7686
Vresults
p7687
atp7688
Rp7689
(dp7690
g17
VVBZ
p7691
sbag5
(g6
g7
(lp7692
g5
(g6
g7
(lp7693
Vfrom
p7694
atp7695
Rp7696
(dp7697
g17
VIN
p7698
sbag5
(g6
g7
(lp7699
g5
(g6
g7
(lp7700
Vthe
p7701
atp7702
Rp7703
(dp7704
g17
VDT
p7705
sbag5
(g6
g7
(lp7706
Vevent
p7707
atp7708
Rp7709
(dp7710
g17
VNN
p7711
sbatp7712
Rp7713
(dp7714
g17
VNP
p7715
sbatp7716
Rp7717
(dp7718
g17
VPP
p7719
sbatp7720
Rp7721
(dp7722
g17
VVP
p7723
sbatp7724
Rp7725
(dp7726
g17
g169
sbatp7727
Rp7728
(dp7729
g17
VSBAR
p7730
sbatp7731
Rp7732
(dp7733
g17
VNP
p7734
sbatp7735
Rp7736
(dp7737
g17
VVP
p7738
sbatp7739
Rp7740
(dp7741
g17
g169
sbatp7742
Rp7743
(dp7744
g17
VPP
p7745
sbatp7746
Rp7747
(dp7748
g17
VVP
p7749
sbag5
(g6
g7
(lp7750
g198
atp7751
Rp7752
(dp7753
g17
g198
sbatp7754
Rp7755
(dp7756
g17
g169
sbatp7757
Rp7758
(dp7759
g17
VROOT
p7760
sbasg209
(icmyPackage
CorE
p7761
(dp7762
g212
(lp7763
(I0
I18
tp7764
a(I0
I26
tp7765
asg215
g7740
sbsg216
(icmyPackage
CorE
p7766
(dp7767
g212
(lp7768
(I0
I0
tp7769
a(I0
I16
tp7770
asg215
g5
(g6
g7
(lp7771
g7469
ag7474
ag7542
ag7549
ag7631
atp7772
Rp7773
(dp7774
g17
g226
sbsbsg227
g1000
sg264
(lp7775
(icmyPackage
Sent
p7776
(dp7777
g268
I2
sg269
I18
sg270
S'However, all systems that I know about give the effects of an event in a situation by describing a new situation that results from the event.'
p7778
sg272
I0
sg273
I83
sg215
(lp7779
g7758
asbasba(icmyPackage
CELink
p7780
(dp7781
g3
(lp7782
g5
(g6
g7
(lp7783
g5
(g6
g7
(lp7784
g5
(g6
g7
(lp7785
g5
(g6
g7
(lp7786
VFor
p7787
atp7788
Rp7789
(dp7790
g17
VIN
p7791
sbag5
(g6
g7
(lp7792
g5
(g6
g7
(lp7793
Vexample
p7794
atp7795
Rp7796
(dp7797
g17
VNN
p7798
sbatp7799
Rp7800
(dp7801
g17
VNP
p7802
sbatp7803
Rp7804
(dp7805
g17
VPP
p7806
sbag5
(g6
g7
(lp7807
g601
atp7808
Rp7809
(dp7810
g17
g601
sbag5
(g6
g7
(lp7811
g5
(g6
g7
(lp7812
Vif
p7813
atp7814
Rp7815
(dp7816
g17
VIN
p7817
sbag5
(g6
g7
(lp7818
g5
(g6
g7
(lp7819
g5
(g6
g7
(lp7820
g394
atp7821
Rp7822
(dp7823
g17
VDT
p7824
sbag5
(g6
g7
(lp7825
Vpatient
p7826
atp7827
Rp7828
(dp7829
g17
VNN
p7830
sbatp7831
Rp7832
(dp7833
g17
VNP
p7834
sbag5
(g6
g7
(lp7835
g5
(g6
g7
(lp7836
Vhas
p7837
atp7838
Rp7839
(dp7840
g17
VVBZ
p7841
sbag5
(g6
g7
(lp7842
g5
(g6
g7
(lp7843
Vcholera
p7844
atp7845
Rp7846
(dp7847
g17
VNN
p7848
sbatp7849
Rp7850
(dp7851
g17
VNP
p7852
sbag5
(g6
g7
(lp7853
g601
atp7854
Rp7855
(dp7856
g17
g601
sbag5
(g6
g7
(lp7857
g5
(g6
g7
(lp7858
Vwhile
p7859
atp7860
Rp7861
(dp7862
g17
VIN
p7863
sbag5
(g6
g7
(lp7864
g5
(g6
g7
(lp7865
g5
(g6
g7
(lp7866
Vthe
p7867
atp7868
Rp7869
(dp7870
g17
VDT
p7871
sbag5
(g6
g7
(lp7872
Vantibiotic
p7873
atp7874
Rp7875
(dp7876
g17
VJJ
p7877
sbatp7878
Rp7879
(dp7880
g17
VNP
p7881
sbag5
(g6
g7
(lp7882
g5
(g6
g7
(lp7883
Vis
p7884
atp7885
Rp7886
(dp7887
g17
VVBZ
p7888
sbag5
(g6
g7
(lp7889
g5
(g6
g7
(lp7890
Vkilling
p7891
atp7892
Rp7893
(dp7894
g17
VVBG
p7895
sbag5
(g6
g7
(lp7896
g5
(g6
g7
(lp7897
Vthe
p7898
atp7899
Rp7900
(dp7901
g17
VDT
p7902
sbag5
(g6
g7
(lp7903
Vcholera
p7904
atp7905
Rp7906
(dp7907
g17
VNN
p7908
sbag5
(g6
g7
(lp7909
Vbacteria
p7910
atp7911
Rp7912
(dp7913
g17
VNNS
p7914
sbatp7915
Rp7916
(dp7917
g17
VNP
p7918
sbatp7919
Rp7920
(dp7921
g17
VVP
p7922
sbatp7923
Rp7924
(dp7925
g17
VVP
p7926
sbatp7927
Rp7928
(dp7929
g17
g169
sbatp7930
Rp7931
(dp7932
g17
VSBAR
p7933
sbatp7934
Rp7935
(dp7936
g17
VVP
p7937
sbatp7938
Rp7939
(dp7940
g17
g169
sbatp7941
Rp7942
(dp7943
g17
VSBAR
p7944
sbag5
(g6
g7
(lp7945
g601
atp7946
Rp7947
(dp7948
g17
g601
sbag5
(g6
g7
(lp7949
g5
(g6
g7
(lp7950
g5
(g6
g7
(lp7951
Vthe
p7952
atp7953
Rp7954
(dp7955
g17
VDT
p7956
sbag5
(g6
g7
(lp7957
Vdamage
p7958
atp7959
Rp7960
(dp7961
g17
VNN
p7962
sbatp7963
Rp7964
(dp7965
g17
VNP
p7966
sbag5
(g6
g7
(lp7967
g5
(g6
g7
(lp7968
Vto
p7969
atp7970
Rp7971
(dp7972
g17
VTO
p7973
sbag5
(g6
g7
(lp7974
g5
(g6
g7
(lp7975
Vhis
p7976
atp7977
Rp7978
(dp7979
g17
VPRP$
p7980
sbag5
(g6
g7
(lp7981
Vintestines
p7982
atp7983
Rp7984
(dp7985
g17
VNNS
p7986
sbatp7987
Rp7988
(dp7989
g17
VNP
p7990
sbatp7991
Rp7992
(dp7993
g17
VPP
p7994
sbatp7995
Rp7996
(dp7997
g17
VNP
p7998
sbag5
(g6
g7
(lp7999
g5
(g6
g7
(lp8000
Vis
p8001
atp8002
Rp8003
(dp8004
g17
VVBZ
p8005
sbag5
(g6
g7
(lp8006
g5
(g6
g7
(lp8007
Vcausing
p8008
atp8009
Rp8010
(dp8011
g17
VVBG
p8012
sbag5
(g6
g7
(lp8013
g5
(g6
g7
(lp8014
g5
(g6
g7
(lp8015
Vloss
p8016
atp8017
Rp8018
(dp8019
g17
VNN
p8020
sbatp8021
Rp8022
(dp8023
g17
VNP
p8024
sbag5
(g6
g7
(lp8025
g5
(g6
g7
(lp8026
Vof
p8027
atp8028
Rp8029
(dp8030
g17
VIN
p8031
sbag5
(g6
g7
(lp8032
g5
(g6
g7
(lp8033
g5
(g6
g7
(lp8034
Vfluids
p8035
atp8036
Rp8037
(dp8038
g17
VNNS
p8039
sbatp8040
Rp8041
(dp8042
g17
VNP
p8043
sbag5
(g6
g7
(lp8044
g5
(g6
g7
(lp8045
g5
(g6
g7
(lp8046
Vthat
p8047
atp8048
Rp8049
(dp8050
g17
VWDT
p8051
sbatp8052
Rp8053
(dp8054
g17
VWHNP
p8055
sbag5
(g6
g7
(lp8056
g5
(g6
g7
(lp8057
g5
(g6
g7
(lp8058
Vare
p8059
atp8060
Rp8061
(dp8062
g17
VVBP
p8063
sbag5
(g6
g7
(lp8064
g5
(g6
g7
(lp8065
Vlikely
p8066
atp8067
Rp8068
(dp8069
g17
VJJ
p8070
sbag5
(g6
g7
(lp8071
g5
(g6
g7
(lp8072
g5
(g6
g7
(lp8073
Vto
p8074
atp8075
Rp8076
(dp8077
g17
VTO
p8078
sbag5
(g6
g7
(lp8079
g5
(g6
g7
(lp8080
Vbe
p8081
atp8082
Rp8083
(dp8084
g17
VVB
p8085
sbag5
(g6
g7
(lp8086
g5
(g6
g7
(lp8087
Vfatal
p8088
atp8089
Rp8090
(dp8091
g17
VJJ
p8092
sbatp8093
Rp8094
(dp8095
g17
VADJP
p8096
sbatp8097
Rp8098
(dp8099
g17
VVP
p8100
sbatp8101
Rp8102
(dp8103
g17
VVP
p8104
sbatp8105
Rp8106
(dp8107
g17
g169
sbatp8108
Rp8109
(dp8110
g17
VADJP
p8111
sbatp8112
Rp8113
(dp8114
g17
VVP
p8115
sbatp8116
Rp8117
(dp8118
g17
g169
sbatp8119
Rp8120
(dp8121
g17
VSBAR
p8122
sbatp8123
Rp8124
(dp8125
g17
VNP
p8126
sbatp8127
Rp8128
(dp8129
g17
VPP
p8130
sbatp8131
Rp8132
(dp8133
g17
VNP
p8134
sbatp8135
Rp8136
(dp8137
g17
VVP
p8138
sbatp8139
Rp8140
(dp8141
g17
VVP
p8142
sbag5
(g6
g7
(lp8143
g198
atp8144
Rp8145
(dp8146
g17
g198
sbatp8147
Rp8148
(dp8149
g17
g169
sbatp8150
Rp8151
(dp8152
g17
VROOT
p8153
sbasg209
(icmyPackage
CorE
p8154
(dp8155
g212
(lp8156
(I0
I4
tp8157
a(I0
I7
tp8158
asg215
g5
(g6
g7
(lp8159
g7832
ag7839
ag7850
atp8160
Rp8161
(dp8162
g17
g226
sbsbsg216
(icmyPackage
CorE
p8163
(dp8164
g212
(lp8165
(I0
I9
tp8166
a(I0
I34
tp8167
asg215
g5
(g6
g7
(lp8168
g7931
ag7947
ag7996
ag8140
ag8145
atp8169
Rp8170
(dp8171
g17
g226
sbsbsg227
g2767
sg264
(lp8172
(icmyPackage
Sent
p8173
(dp8174
g268
I2
sg269
I18
sg270
S'For example, if a patient has cholera, while the antibiotic is killing the cholera bacteria, the damage to his intestines is causing loss of fluids that are likely to be fatal.'
p8175
sg272
I0
sg273
I85
sg215
(lp8176
g8151
asbasba(icmyPackage
CELink
p8177
(dp8178
g3
(lp8179
g5
(g6
g7
(lp8180
g5
(g6
g7
(lp8181
g5
(g6
g7
(lp8182
g5
(g6
g7
(lp8183
g5
(g6
g7
(lp8184
g282
atp8185
Rp8186
(dp8187
g17
VPRP
p8188
sbatp8189
Rp8190
(dp8191
g17
VNP
p8192
sbag5
(g6
g7
(lp8193
g5
(g6
g7
(lp8194
Vcan
p8195
atp8196
Rp8197
(dp8198
g17
VMD
p8199
sbag5
(g6
g7
(lp8200
g5
(g6
g7
(lp8201
Vsee
p8202
atp8203
Rp8204
(dp8205
g17
VVB
p8206
sbag5
(g6
g7
(lp8207
g5
(g6
g7
(lp8208
g5
(g6
g7
(lp8209
Vpart
p8210
atp8211
Rp8212
(dp8213
g17
VNN
p8214
sbatp8215
Rp8216
(dp8217
g17
VNP
p8218
sbag5
(g6
g7
(lp8219
g5
(g6
g7
(lp8220
Vof
p8221
atp8222
Rp8223
(dp8224
g17
VIN
p8225
sbag5
(g6
g7
(lp8226
g5
(g6
g7
(lp8227
g5
(g6
g7
(lp8228
Vthe
p8229
atp8230
Rp8231
(dp8232
g17
VDT
p8233
sbag5
(g6
g7
(lp8234
Vfront
p8235
atp8236
Rp8237
(dp8238
g17
VNN
p8239
sbatp8240
Rp8241
(dp8242
g17
VNP
p8243
sbag5
(g6
g7
(lp8244
g5
(g6
g7
(lp8245
Vof
p8246
atp8247
Rp8248
(dp8249
g17
VIN
p8250
sbag5
(g6
g7
(lp8251
g5
(g6
g7
(lp8252
g5
(g6
g7
(lp8253
g394
atp8254
Rp8255
(dp8256
g17
VDT
p8257
sbag5
(g6
g7
(lp8258
Vperson
p8259
atp8260
Rp8261
(dp8262
g17
VNN
p8263
sbatp8264
Rp8265
(dp8266
g17
VNP
p8267
sbag5
(g6
g7
(lp8268
g5
(g6
g7
(lp8269
Vin
p8270
atp8271
Rp8272
(dp8273
g17
VIN
p8274
sbag5
(g6
g7
(lp8275
g5
(g6
g7
(lp8276
Vthe
p8277
atp8278
Rp8279
(dp8280
g17
VDT
p8281
sbag5
(g6
g7
(lp8282
Vaudience
p8283
atp8284
Rp8285
(dp8286
g17
VNN
p8287
sbatp8288
Rp8289
(dp8290
g17
VNP
p8291
sbatp8292
Rp8293
(dp8294
g17
VPP
p8295
sbatp8296
Rp8297
(dp8298
g17
VNP
p8299
sbatp8300
Rp8301
(dp8302
g17
VPP
p8303
sbatp8304
Rp8305
(dp8306
g17
VNP
p8307
sbatp8308
Rp8309
(dp8310
g17
VPP
p8311
sbatp8312
Rp8313
(dp8314
g17
VNP
p8315
sbatp8316
Rp8317
(dp8318
g17
VVP
p8319
sbatp8320
Rp8321
(dp8322
g17
VVP
p8323
sbatp8324
Rp8325
(dp8326
g17
g169
sbag5
(g6
g7
(lp8327
g601
atp8328
Rp8329
(dp8330
g17
g601
sbag5
(g6
g7
(lp8331
Vand
p8332
atp8333
Rp8334
(dp8335
g17
VCC
p8336
sbag5
(g6
g7
(lp8337
g5
(g6
g7
(lp8338
g5
(g6
g7
(lp8339
g5
(g6
g7
(lp8340
Vmy
p8341
atp8342
Rp8343
(dp8344
g17
VPRP$
p8345
sbag5
(g6
g7
(lp8346
Videa
p8347
atp8348
Rp8349
(dp8350
g17
VNN
p8351
sbatp8352
Rp8353
(dp8354
g17
VNP
p8355
sbag5
(g6
g7
(lp8356
g5
(g6
g7
(lp8357
Vof
p8358
atp8359
Rp8360
(dp8361
g17
VIN
p8362
sbag5
(g6
g7
(lp8363
g5
(g6
g7
(lp8364
Vhis
p8365
atp8366
Rp8367
(dp8368
g17
VPRP$
p8369
sbag5
(g6
g7
(lp8370
Vshape
p8371
atp8372
Rp8373
(dp8374
g17
VNN
p8375
sbatp8376
Rp8377
(dp8378
g17
VNP
p8379
sbatp8380
Rp8381
(dp8382
g17
VPP
p8383
sbatp8384
Rp8385
(dp8386
g17
VNP
p8387
sbag5
(g6
g7
(lp8388
g5
(g6
g7
(lp8389
Vuses
p8390
atp8391
Rp8392
(dp8393
g17
VVBZ
p8394
sbag5
(g6
g7
(lp8395
g5
(g6
g7
(lp8396
Vthis
p8397
atp8398
Rp8399
(dp8400
g17
VDT
p8401
sbag5
(g6
g7
(lp8402
Vinformation
p8403
atp8404
Rp8405
(dp8406
g17
VNN
p8407
sbag5
(g6
g7
(lp8408
g5
(g6
g7
(lp8409
g5
(g6
g7
(lp8410
Vto
p8411
atp8412
Rp8413
(dp8414
g17
VTO
p8415
sbag5
(g6
g7
(lp8416
g5
(g6
g7
(lp8417
Vapproximate
p8418
atp8419
Rp8420
(dp8421
g17
VJJ
p8422
sbag5
(g6
g7
(lp8423
g5
(g6
g7
(lp8424
Vhis
p8425
atp8426
Rp8427
(dp8428
g17
VPRP$
p8429
sbag5
(g6
g7
(lp8430
Vtotal
p8431
atp8432
Rp8433
(dp8434
g17
VJJ
p8435
sbag5
(g6
g7
(lp8436
Vshape
p8437
atp8438
Rp8439
(dp8440
g17
VNN
p8441
sbatp8442
Rp8443
(dp8444
g17
VNP
p8445
sbatp8446
Rp8447
(dp8448
g17
VVP
p8449
sbatp8450
Rp8451
(dp8452
g17
VVP
p8453
sbatp8454
Rp8455
(dp8456
g17
g169
sbatp8457
Rp8458
(dp8459
g17
VNP
p8460
sbatp8461
Rp8462
(dp8463
g17
VVP
p8464
sbatp8465
Rp8466
(dp8467
g17
g169
sbag5
(g6
g7
(lp8468
g198
atp8469
Rp8470
(dp8471
g17
g198
sbatp8472
Rp8473
(dp8474
g17
g169
sbatp8475
Rp8476
(dp8477
g17
VROOT
p8478
sbag5
(g6
g7
(lp8479
g5
(g6
g7
(lp8480
g5
(g6
g7
(lp8481
g5
(g6
g7
(lp8482
VThus
p8483
atp8484
Rp8485
(dp8486
g17
VRB
p8487
sbatp8488
Rp8489
(dp8490
g17
VADVP
p8491
sbag5
(g6
g7
(lp8492
g5
(g6
g7
(lp8493
g282
atp8494
Rp8495
(dp8496
g17
VPRP
p8497
sbatp8498
Rp8499
(dp8500
g17
VNP
p8501
sbag5
(g6
g7
(lp8502
g5
(g6
g7
(lp8503
Vdo
p8504
atp8505
Rp8506
(dp8507
g17
VVBP
p8508
sbag5
(g6
g7
(lp8509
Vn't
p8510
atp8511
Rp8512
(dp8513
g17
VRB
p8514
sbag5
(g6
g7
(lp8515
g5
(g6
g7
(lp8516
Vexpect
p8517
atp8518
Rp8519
(dp8520
g17
VVB
p8521
sbag5
(g6
g7
(lp8522
g5
(g6
g7
(lp8523
g5
(g6
g7
(lp8524
Vhim
p8525
atp8526
Rp8527
(dp8528
g17
VPRP
p8529
sbatp8530
Rp8531
(dp8532
g17
VNP
p8533
sbag5
(g6
g7
(lp8534
g5
(g6
g7
(lp8535
Vto
p8536
atp8537
Rp8538
(dp8539
g17
VTO
p8540
sbag5
(g6
g7
(lp8541
g5
(g6
g7
(lp8542
Vstick
p8543
atp8544
Rp8545
(dp8546
g17
VVB
p8547
sbag5
(g6
g7
(lp8548
g5
(g6
g7
(lp8549
Vout
p8550
atp8551
Rp8552
(dp8553
g17
VIN
p8554
sbag5
(g6
g7
(lp8555
g5
(g6
g7
(lp8556
Vtwo
p8557
atp8558
Rp8559
(dp8560
g17
VCD
p8561
sbag5
(g6
g7
(lp8562
Vfeet
p8563
atp8564
Rp8565
(dp8566
g17
VNNS
p8567
sbatp8568
Rp8569
(dp8570
g17
VNP
p8571
sbag5
(g6
g7
(lp8572
g5
(g6
g7
(lp8573
Vin
p8574
atp8575
Rp8576
(dp8577
g17
VIN
p8578
sbag5
(g6
g7
(lp8579
g5
(g6
g7
(lp8580
Vback
p8581
atp8582
Rp8583
(dp8584
g17
VRB
p8585
sbatp8586
Rp8587
(dp8588
g17
VADVP
p8589
sbatp8590
Rp8591
(dp8592
g17
VPP
p8593
sbatp8594
Rp8595
(dp8596
g17
VADVP
p8597
sbag5
(g6
g7
(lp8598
g5
(g6
g7
(lp8599
Veven
p8600
atp8601
Rp8602
(dp8603
g17
VRB
p8604
sbag5
(g6
g7
(lp8605
Vthough
p8606
atp8607
Rp8608
(dp8609
g17
VIN
p8610
sbag5
(g6
g7
(lp8611
g5
(g6
g7
(lp8612
g5
(g6
g7
(lp8613
g282
atp8614
Rp8615
(dp8616
g17
VPRP
p8617
sbatp8618
Rp8619
(dp8620
g17
VNP
p8621
sbag5
(g6
g7
(lp8622
g5
(g6
g7
(lp8623
Vca
p8624
atp8625
Rp8626
(dp8627
g17
VMD
p8628
sbag5
(g6
g7
(lp8629
Vn't
p8630
atp8631
Rp8632
(dp8633
g17
VRB
p8634
sbag5
(g6
g7
(lp8635
g5
(g6
g7
(lp8636
Vsee
p8637
atp8638
Rp8639
(dp8640
g17
VVB
p8641
sbag5
(g6
g7
(lp8642
g5
(g6
g7
(lp8643
Vthat
p8644
atp8645
Rp8646
(dp8647
g17
VIN
p8648
sbag5
(g6
g7
(lp8649
g5
(g6
g7
(lp8650
g5
(g6
g7
(lp8651
Vhe
p8652
atp8653
Rp8654
(dp8655
g17
VPRP
p8656
sbatp8657
Rp8658
(dp8659
g17
VNP
p8660
sbag5
(g6
g7
(lp8661
g5
(g6
g7
(lp8662
Vdoes
p8663
atp8664
Rp8665
(dp8666
g17
VVBZ
p8667
sbag5
(g6
g7
(lp8668
Vn't
p8669
atp8670
Rp8671
(dp8672
g17
VRB
p8673
sbatp8674
Rp8675
(dp8676
g17
VVP
p8677
sbatp8678
Rp8679
(dp8680
g17
g169
sbatp8681
Rp8682
(dp8683
g17
VSBAR
p8684
sbatp8685
Rp8686
(dp8687
g17
VVP
p8688
sbatp8689
Rp8690
(dp8691
g17
VVP
p8692
sbatp8693
Rp8694
(dp8695
g17
g169
sbatp8696
Rp8697
(dp8698
g17
VSBAR
p8699
sbatp8700
Rp8701
(dp8702
g17
VVP
p8703
sbatp8704
Rp8705
(dp8706
g17
VVP
p8707
sbatp8708
Rp8709
(dp8710
g17
g169
sbatp8711
Rp8712
(dp8713
g17
VVP
p8714
sbatp8715
Rp8716
(dp8717
g17
VVP
p8718
sbag5
(g6
g7
(lp8719
g198
atp8720
Rp8721
(dp8722
g17
g198
sbatp8723
Rp8724
(dp8725
g17
g169
sbatp8726
Rp8727
(dp8728
g17
VROOT
p8729
sbasg209
(icmyPackage
CorE
p8730
(dp8731
g212
(lp8732
(I0
I0
tp8733
a(I0
I27
tp8734
asg215
g5
(g6
g7
(lp8735
g8325
ag8329
ag8334
ag8466
atp8736
Rp8737
(dp8738
g17
g226
sbsbsg216
(icmyPackage
CorE
p8739
(dp8740
g212
(lp8741
(I1
I1
tp8742
a(I1
I23
tp8743
asg215
g5
(g6
g7
(lp8744
g8499
ag8716
ag8721
atp8745
Rp8746
(dp8747
g17
g226
sbsbsg227
(icmyPackage
pattern
p8748
(dp8749
g230
I35
sg231
I1
sg232
(lp8750
(lp8751
S'thus'
p8752
aasg245
(lp8753
I1
aI1
aI1
asg247
(lp8754
S'Japan will be on the dark side of the Earth, and thus will lack the warming influence of the Sun.'
p8755
asg250
I2
sg251
(lp8756
(lp8757
S'&C'
p8758
aS'(,/;/./--)'
p8759
aS'(&AND)'
p8760
aa(lp8761
S'&R'
p8762
aasbsg264
(lp8763
(icmyPackage
Sent
p8764
(dp8765
g268
I2
sg269
I19
sg270
S'I can see part of the front of a person in the audience, and my idea of his shape uses this information to approximate his total shape.'
p8766
sg272
I0
sg273
I90
sg215
(lp8767
g8476
asba(icmyPackage
Sent
p8768
(dp8769
g268
I2
sg269
I19
sg270
S"Thus I don't expect him to stick out two feet in back even though I can't see that he doesn't."
p8770
sg272
I0
sg273
I91
sg215
(lp8771
g8727
asbasba(icmyPackage
CELink
p8772
(dp8773
g3
(lp8774
g5
(g6
g7
(lp8775
g5
(g6
g7
(lp8776
g5
(g6
g7
(lp8777
g5
(g6
g7
(lp8778
VSmith
p8779
atp8780
Rp8781
(dp8782
g17
VNNP
p8783
sbatp8784
Rp8785
(dp8786
g17
VNP
p8787
sbag5
(g6
g7
(lp8788
g5
(g6
g7
(lp8789
Vknows
p8790
atp8791
Rp8792
(dp8793
g17
VVBZ
p8794
sbag5
(g6
g7
(lp8795
g5
(g6
g7
(lp8796
Vabout
p8797
atp8798
Rp8799
(dp8800
g17
VIN
p8801
sbag5
(g6
g7
(lp8802
g5
(g6
g7
(lp8803
Vcholera
p8804
atp8805
Rp8806
(dp8807
g17
VNN
p8808
sbatp8809
Rp8810
(dp8811
g17
VNP
p8812
sbatp8813
Rp8814
(dp8815
g17
VPP
p8816
sbag5
(g6
g7
(lp8817
g601
atp8818
Rp8819
(dp8820
g17
g601
sbag5
(g6
g7
(lp8821
g5
(g6
g7
(lp8822
Vbecause
p8823
atp8824
Rp8825
(dp8826
g17
VIN
p8827
sbag5
(g6
g7
(lp8828
g5
(g6
g7
(lp8829
g5
(g6
g7
(lp8830
Vhe
p8831
atp8832
Rp8833
(dp8834
g17
VPRP
p8835
sbatp8836
Rp8837
(dp8838
g17
VNP
p8839
sbag5
(g6
g7
(lp8840
g5
(g6
g7
(lp8841
Vis
p8842
atp8843
Rp8844
(dp8845
g17
VVBZ
p8846
sbag5
(g6
g7
(lp8847
g5
(g6
g7
(lp8848
g5
(g6
g7
(lp8849
g394
atp8850
Rp8851
(dp8852
g17
VDT
p8853
sbag5
(g6
g7
(lp8854
Vspecialist
p8855
atp8856
Rp8857
(dp8858
g17
VNN
p8859
sbatp8860
Rp8861
(dp8862
g17
VNP
p8863
sbag5
(g6
g7
(lp8864
g5
(g6
g7
(lp8865
Vin
p8866
atp8867
Rp8868
(dp8869
g17
VIN
p8870
sbag5
(g6
g7
(lp8871
g5
(g6
g7
(lp8872
Vtropical
p8873
atp8874
Rp8875
(dp8876
g17
VJJ
p8877
sbag5
(g6
g7
(lp8878
Vmedicine
p8879
atp8880
Rp8881
(dp8882
g17
VNN
p8883
sbatp8884
Rp8885
(dp8886
g17
VNP
p8887
sbatp8888
Rp8889
(dp8890
g17
VPP
p8891
sbatp8892
Rp8893
(dp8894
g17
VNP
p8895
sbatp8896
Rp8897
(dp8898
g17
VVP
p8899
sbatp8900
Rp8901
(dp8902
g17
g169
sbatp8903
Rp8904
(dp8905
g17
VSBAR
p8906
sbatp8907
Rp8908
(dp8909
g17
VVP
p8910
sbag5
(g6
g7
(lp8911
g198
atp8912
Rp8913
(dp8914
g17
g198
sbatp8915
Rp8916
(dp8917
g17
g169
sbatp8918
Rp8919
(dp8920
g17
VROOT
p8921
sbasg209
(icmyPackage
CorE
p8922
(dp8923
g212
(lp8924
(I0
I6
tp8925
a(I0
I13
tp8926
asg215
g5
(g6
g7
(lp8927
g8901
ag8913
atp8928
Rp8929
(dp8930
g17
g226
sbsbsg216
(icmyPackage
CorE
p8931
(dp8932
g212
(lp8933
(I0
I0
tp8934
a(I0
I3
tp8935
asg215
g5
(g6
g7
(lp8936
g8785
ag8792
ag8814
atp8937
Rp8938
(dp8939
g17
g226
sbsbsg227
g742
sg264
(lp8940
(icmyPackage
Sent
p8941
(dp8942
g268
I2
sg269
I20
sg270
S'Smith knows about cholera, because he is a specialist in tropical medicine.'
p8943
sg272
I0
sg273
I97
sg215
(lp8944
g8919
asbasba(icmyPackage
CELink
p8945
(dp8946
g3
(lp8947
g5
(g6
g7
(lp8948
g5
(g6
g7
(lp8949
g5
(g6
g7
(lp8950
g5
(g6
g7
(lp8951
VFor
p8952
atp8953
Rp8954
(dp8955
g17
VIN
p8956
sbag5
(g6
g7
(lp8957
g5
(g6
g7
(lp8958
Vexample
p8959
atp8960
Rp8961
(dp8962
g17
VNN
p8963
sbatp8964
Rp8965
(dp8966
g17
VNP
p8967
sbatp8968
Rp8969
(dp8970
g17
VPP
p8971
sbag5
(g6
g7
(lp8972
g601
atp8973
Rp8974
(dp8975
g17
g601
sbag5
(g6
g7
(lp8976
g5
(g6
g7
(lp8977
g5
(g6
g7
(lp8978
Vif
p8979
atp8980
Rp8981
(dp8982
g17
VIN
p8983
sbag5
(g6
g7
(lp8984
g5
(g6
g7
(lp8985
g5
(g6
g7
(lp8986
g282
atp8987
Rp8988
(dp8989
g17
VPRP
p8990
sbatp8991
Rp8992
(dp8993
g17
VNP
p8994
sbag5
(g6
g7
(lp8995
g5
(g6
g7
(lp8996
Vspill
p8997
atp8998
Rp8999
(dp9000
g17
VVB
p9001
sbag5
(g6
g7
(lp9002
g5
(g6
g7
(lp9003
g5
(g6
g7
(lp9004
Vthe
p9005
atp9006
Rp9007
(dp9008
g17
VDT
p9009
sbag5
(g6
g7
(lp9010
Vglass
p9011
atp9012
Rp9013
(dp9014
g17
VNN
p9015
sbatp9016
Rp9017
(dp9018
g17
VNP
p9019
sbag5
(g6
g7
(lp9020
g5
(g6
g7
(lp9021
Vof
p9022
atp9023
Rp9024
(dp9025
g17
VIN
p9026
sbag5
(g6
g7
(lp9027
g5
(g6
g7
(lp9028
g5
(g6
g7
(lp9029
Vwater
p9030
atp9031
Rp9032
(dp9033
g17
VNN
p9034
sbatp9035
Rp9036
(dp9037
g17
VNP
p9038
sbag5
(g6
g7
(lp9039
g5
(g6
g7
(lp9040
Von
p9041
atp9042
Rp9043
(dp9044
g17
VIN
p9045
sbag5
(g6
g7
(lp9046
g5
(g6
g7
(lp9047
Vthe
p9048
atp9049
Rp9050
(dp9051
g17
VDT
p9052
sbag5
(g6
g7
(lp9053
Vpodium
p9054
atp9055
Rp9056
(dp9057
g17
VNN
p9058
sbatp9059
Rp9060
(dp9061
g17
VNP
p9062
sbatp9063
Rp9064
(dp9065
g17
VPP
p9066
sbatp9067
Rp9068
(dp9069
g17
VNP
p9070
sbatp9071
Rp9072
(dp9073
g17
VPP
p9074
sbatp9075
Rp9076
(dp9077
g17
VNP
p9078
sbatp9079
Rp9080
(dp9081
g17
VVP
p9082
sbatp9083
Rp9084
(dp9085
g17
g169
sbatp9086
Rp9087
(dp9088
g17
VSBAR
p9089
sbag5
(g6
g7
(lp9090
g601
atp9091
Rp9092
(dp9093
g17
g601
sbag5
(g6
g7
(lp9094
g5
(g6
g7
(lp9095
Veveryone
p9096
atp9097
Rp9098
(dp9099
g17
VNN
p9100
sbatp9101
Rp9102
(dp9103
g17
VNP
p9104
sbag5
(g6
g7
(lp9105
g5
(g6
g7
(lp9106
Vknows
p9107
atp9108
Rp9109
(dp9110
g17
VVBZ
p9111
sbag5
(g6
g7
(lp9112
g5
(g6
g7
(lp9113
Vthat
p9114
atp9115
Rp9116
(dp9117
g17
VIN
p9118
sbag5
(g6
g7
(lp9119
g5
(g6
g7
(lp9120
g5
(g6
g7
(lp9121
Vthe
p9122
atp9123
Rp9124
(dp9125
g17
VDT
p9126
sbag5
(g6
g7
(lp9127
Vglass
p9128
atp9129
Rp9130
(dp9131
g17
VNN
p9132
sbatp9133
Rp9134
(dp9135
g17
VNP
p9136
sbag5
(g6
g7
(lp9137
g5
(g6
g7
(lp9138
Vwill
p9139
atp9140
Rp9141
(dp9142
g17
VMD
p9143
sbag5
(g6
g7
(lp9144
g5
(g6
g7
(lp9145
Vbreak
p9146
atp9147
Rp9148
(dp9149
g17
VVB
p9150
sbatp9151
Rp9152
(dp9153
g17
VVP
p9154
sbatp9155
Rp9156
(dp9157
g17
VVP
p9158
sbatp9159
Rp9160
(dp9161
g17
g169
sbatp9162
Rp9163
(dp9164
g17
VSBAR
p9165
sbatp9166
Rp9167
(dp9168
g17
VVP
p9169
sbatp9170
Rp9171
(dp9172
g17
g169
sbag5
(g6
g7
(lp9173
Vand
p9174
atp9175
Rp9176
(dp9177
g17
VCC
p9178
sbag5
(g6
g7
(lp9179
g5
(g6
g7
(lp9180
g5
(g6
g7
(lp9181
Vthe
p9182
atp9183
Rp9184
(dp9185
g17
VDT
p9186
sbag5
(g6
g7
(lp9187
Vwater
p9188
atp9189
Rp9190
(dp9191
g17
VNN
p9192
sbatp9193
Rp9194
(dp9195
g17
VNP
p9196
sbag5
(g6
g7
(lp9197
g5
(g6
g7
(lp9198
Vwill
p9199
atp9200
Rp9201
(dp9202
g17
VMD
p9203
sbag5
(g6
g7
(lp9204
g5
(g6
g7
(lp9205
Vspill
p9206
atp9207
Rp9208
(dp9209
g17
VVB
p9210
sbatp9211
Rp9212
(dp9213
g17
VVP
p9214
sbatp9215
Rp9216
(dp9217
g17
VVP
p9218
sbatp9219
Rp9220
(dp9221
g17
g169
sbag5
(g6
g7
(lp9222
g198
atp9223
Rp9224
(dp9225
g17
g198
sbatp9226
Rp9227
(dp9228
g17
g169
sbatp9229
Rp9230
(dp9231
g17
VROOT
p9232
sbasg209
(icmyPackage
CorE
p9233
(dp9234
g212
(lp9235
(I0
I4
tp9236
a(I0
I12
tp9237
asg215
g9084
sbsg216
(icmyPackage
CorE
p9238
(dp9239
g212
(lp9240
(I0
I14
tp9241
a(I0
I25
tp9242
asg215
g5
(g6
g7
(lp9243
g9102
ag9167
ag9176
ag9220
atp9244
Rp9245
(dp9246
g17
g226
sbsbsg227
g2767
sg264
(lp9247
(icmyPackage
Sent
p9248
(dp9249
g268
I2
sg269
I22
sg270
S'For example, if I spill the glass of water on the podium, everyone knows that the glass will break and the water will spill.'
p9250
sg272
I0
sg273
I101
sg215
(lp9251
g9230
asbasba(icmyPackage
CELink
p9252
(dp9253
g3
(lp9254
g5
(g6
g7
(lp9255
g5
(g6
g7
(lp9256
g5
(g6
g7
(lp9257
g5
(g6
g7
(lp9258
VHowever
p9259
atp9260
Rp9261
(dp9262
g17
VRB
p9263
sbatp9264
Rp9265
(dp9266
g17
VADVP
p9267
sbag5
(g6
g7
(lp9268
g601
atp9269
Rp9270
(dp9271
g17
g601
sbag5
(g6
g7
(lp9272
g5
(g6
g7
(lp9273
Vthis
p9274
atp9275
Rp9276
(dp9277
g17
VDT
p9278
sbag5
(g6
g7
(lp9279
Vinformation
p9280
atp9281
Rp9282
(dp9283
g17
VNN
p9284
sbatp9285
Rp9286
(dp9287
g17
VNP
p9288
sbag5
(g6
g7
(lp9289
g5
(g6
g7
(lp9290
Vis
p9291
atp9292
Rp9293
(dp9294
g17
VVBZ
p9295
sbag5
(g6
g7
(lp9296
Vnot
p9297
atp9298
Rp9299
(dp9300
g17
VRB
p9301
sbag5
(g6
g7
(lp9302
g5
(g6
g7
(lp9303
Vobtained
p9304
atp9305
Rp9306
(dp9307
g17
VVBN
p9308
sbag5
(g6
g7
(lp9309
g5
(g6
g7
(lp9310
Vby
p9311
atp9312
Rp9313
(dp9314
g17
VIN
p9315
sbag5
(g6
g7
(lp9316
g5
(g6
g7
(lp9317
g5
(g6
g7
(lp9318
Vusing
p9319
atp9320
Rp9321
(dp9322
g17
VVBG
p9323
sbag5
(g6
g7
(lp9324
g5
(g6
g7
(lp9325
g5
(g6
g7
(lp9326
Vthe
p9327
atp9328
Rp9329
(dp9330
g17
VDT
p9331
sbag5
(g6
g7
(lp9332
Vformula
p9333
atp9334
Rp9335
(dp9336
g17
VNN
p9337
sbatp9338
Rp9339
(dp9340
g17
VNP
p9341
sbag5
(g6
g7
(lp9342
g5
(g6
g7
(lp9343
Vfor
p9344
atp9345
Rp9346
(dp9347
g17
VIN
p9348
sbag5
(g6
g7
(lp9349
g5
(g6
g7
(lp9350
g5
(g6
g7
(lp9351
g394
atp9352
Rp9353
(dp9354
g17
VDT
p9355
sbag5
(g6
g7
(lp9356
Vfalling
p9357
atp9358
Rp9359
(dp9360
g17
VVBG
p9361
sbag5
(g6
g7
(lp9362
Vbody
p9363
atp9364
Rp9365
(dp9366
g17
VNN
p9367
sbatp9368
Rp9369
(dp9370
g17
VNP
p9371
sbag5
(g6
g7
(lp9372
Vor
p9373
atp9374
Rp9375
(dp9376
g17
VCC
p9377
sbag5
(g6
g7
(lp9378
g5
(g6
g7
(lp9379
Vthe
p9380
atp9381
Rp9382
(dp9383
g17
VDT
p9384
sbag5
(g6
g7
(lp9385
VNavier-Stokes
p9386
atp9387
Rp9388
(dp9389
g17
VNNP
p9390
sbag5
(g6
g7
(lp9391
Vequations
p9392
atp9393
Rp9394
(dp9395
g17
VNNP
p9396
sbag5
(g6
g7
(lp9397
Vgoverning
p9398
atp9399
Rp9400
(dp9401
g17
VVBG
p9402
sbag5
(g6
g7
(lp9403
Vfluid
p9404
atp9405
Rp9406
(dp9407
g17
VJJ
p9408
sbag5
(g6
g7
(lp9409
Vflow
p9410
atp9411
Rp9412
(dp9413
g17
VNN
p9414
sbatp9415
Rp9416
(dp9417
g17
VNP
p9418
sbatp9419
Rp9420
(dp9421
g17
VNP
p9422
sbatp9423
Rp9424
(dp9425
g17
VPP
p9426
sbatp9427
Rp9428
(dp9429
g17
VNP
p9430
sbatp9431
Rp9432
(dp9433
g17
VVP
p9434
sbatp9435
Rp9436
(dp9437
g17
g169
sbatp9438
Rp9439
(dp9440
g17
VPP
p9441
sbatp9442
Rp9443
(dp9444
g17
VVP
p9445
sbatp9446
Rp9447
(dp9448
g17
VVP
p9449
sbag5
(g6
g7
(lp9450
g198
atp9451
Rp9452
(dp9453
g17
g198
sbatp9454
Rp9455
(dp9456
g17
g169
sbatp9457
Rp9458
(dp9459
g17
VROOT
p9460
sbasg209
(icmyPackage
CorE
p9461
(dp9462
g212
(lp9463
(I0
I8
tp9464
a(I0
I21
tp9465
asg215
g9436
sbsg216
(icmyPackage
CorE
p9466
(dp9467
g212
(lp9468
(I0
I0
tp9469
a(I0
I6
tp9470
asg215
g5
(g6
g7
(lp9471
g9265
ag9270
ag9286
ag9293
ag9299
ag9306
atp9472
Rp9473
(dp9474
g17
g226
sbsbsg227
g1000
sg264
(lp9475
(icmyPackage
Sent
p9476
(dp9477
g268
I2
sg269
I22
sg270
S'However, this information is not obtained by using the formula for a falling body or the Navier-Stokes equations governing fluid flow.'
p9478
sg272
I0
sg273
I103
sg215
(lp9479
g9458
asbasba(icmyPackage
CELink
p9480
(dp9481
g3
(lp9482
g5
(g6
g7
(lp9483
g5
(g6
g7
(lp9484
g5
(g6
g7
(lp9485
g5
(g6
g7
(lp9486
VIn
p9487
atp9488
Rp9489
(dp9490
g17
VIN
p9491
sbag5
(g6
g7
(lp9492
g5
(g6
g7
(lp9493
Vfact
p9494
atp9495
Rp9496
(dp9497
g17
VNN
p9498
sbatp9499
Rp9500
(dp9501
g17
VNP
p9502
sbatp9503
Rp9504
(dp9505
g17
VPP
p9506
sbag5
(g6
g7
(lp9507
g5
(g6
g7
(lp9508
Vscientific
p9509
atp9510
Rp9511
(dp9512
g17
VJJ
p9513
sbag5
(g6
g7
(lp9514
Vphysics
p9515
atp9516
Rp9517
(dp9518
g17
VNNS
p9519
sbatp9520
Rp9521
(dp9522
g17
VNP
p9523
sbag5
(g6
g7
(lp9524
g5
(g6
g7
(lp9525
Vis
p9526
atp9527
Rp9528
(dp9529
g17
VVBZ
p9530
sbag5
(g6
g7
(lp9531
g5
(g6
g7
(lp9532
Vimbedded
p9533
atp9534
Rp9535
(dp9536
g17
VVBN
p9537
sbag5
(g6
g7
(lp9538
g5
(g6
g7
(lp9539
Vin
p9540
atp9541
Rp9542
(dp9543
g17
VIN
p9544
sbag5
(g6
g7
(lp9545
g5
(g6
g7
(lp9546
Vcommon
p9547
atp9548
Rp9549
(dp9550
g17
VJJ
p9551
sbag5
(g6
g7
(lp9552
Vsense
p9553
atp9554
Rp9555
(dp9556
g17
VNN
p9557
sbag5
(g6
g7
(lp9558
Vphysics
p9559
atp9560
Rp9561
(dp9562
g17
VNNS
p9563
sbatp9564
Rp9565
(dp9566
g17
VNP
p9567
sbatp9568
Rp9569
(dp9570
g17
VPP
p9571
sbag5
(g6
g7
(lp9572
g601
atp9573
Rp9574
(dp9575
g17
g601
sbag5
(g6
g7
(lp9576
g5
(g6
g7
(lp9577
Vbecause
p9578
atp9579
Rp9580
(dp9581
g17
VIN
p9582
sbag5
(g6
g7
(lp9583
g5
(g6
g7
(lp9584
g5
(g6
g7
(lp9585
Vit
p9586
atp9587
Rp9588
(dp9589
g17
VPRP
p9590
sbatp9591
Rp9592
(dp9593
g17
VNP
p9594
sbag5
(g6
g7
(lp9595
g5
(g6
g7
(lp9596
Vis
p9597
atp9598
Rp9599
(dp9600
g17
VVBZ
p9601
sbag5
(g6
g7
(lp9602
g5
(g6
g7
(lp9603
g5
(g6
g7
(lp9604
Vcommon
p9605
atp9606
Rp9607
(dp9608
g17
VJJ
p9609
sbag5
(g6
g7
(lp9610
Vsense
p9611
atp9612
Rp9613
(dp9614
g17
VNN
p9615
sbag5
(g6
g7
(lp9616
Vphysics
p9617
atp9618
Rp9619
(dp9620
g17
VNNS
p9621
sbatp9622
Rp9623
(dp9624
g17
VNP
p9625
sbag5
(g6
g7
(lp9626
g5
(g6
g7
(lp9627
g5
(g6
g7
(lp9628
Vthat
p9629
atp9630
Rp9631
(dp9632
g17
VWDT
p9633
sbatp9634
Rp9635
(dp9636
g17
VWHNP
p9637
sbag5
(g6
g7
(lp9638
g5
(g6
g7
(lp9639
g5
(g6
g7
(lp9640
Vtells
p9641
atp9642
Rp9643
(dp9644
g17
VVBZ
p9645
sbag5
(g6
g7
(lp9646
g5
(g6
g7
(lp9647
Vus
p9648
atp9649
Rp9650
(dp9651
g17
VPRP
p9652
sbatp9653
Rp9654
(dp9655
g17
VNP
p9656
sbag5
(g6
g7
(lp9657
g5
(g6
g7
(lp9658
g5
(g6
g7
(lp9659
Vwhat
p9660
atp9661
Rp9662
(dp9663
g17
VWP
p9664
sbatp9665
Rp9666
(dp9667
g17
VWHNP
p9668
sbag5
(g6
g7
(lp9669
g5
(g6
g7
(lp9670
g5
(g6
g7
(lp9671
Vthe
p9672
atp9673
Rp9674
(dp9675
g17
VDT
p9676
sbag5
(g6
g7
(lp9677
Vequation
p9678
atp9679
Rp9680
(dp9681
g17
VNN
p9682
sbatp9683
Rp9684
(dp9685
g17
VNP
p9686
sbag5
(g6
g7
(lp9687
g5
(g6
g7
(lp9688
Vs
p9689
atp9690
Rp9691
(dp9692
g17
VVBZ
p9693
sbag5
(g6
g7
(lp9694
g5
(g6
g7
(lp9695
g5
(g6
g7
(lp9696
V=
p9697
atp9698
Rp9699
(dp9700
g17
VCD
p9701
sbag5
(g6
g7
(lp9702
V0.5
p9703
atp9704
Rp9705
(dp9706
g17
VCD
p9707
sbatp9708
Rp9709
(dp9710
g17
VQP
p9711
sbag5
(g6
g7
(lp9712
Vgt
p9713
atp9714
Rp9715
(dp9716
g17
VNN
p9717
sbag5
(g6
g7
(lp9718
V^
p9719
atp9720
Rp9721
(dp9722
g17
VNN
p9723
sbag5
(g6
g7
(lp9724
g5
(g6
g7
(lp9725
V-LRB-
p9726
atp9727
Rp9728
(dp9729
g17
V-LRB-
p9730
sbag5
(g6
g7
(lp9731
g5
(g6
g7
(lp9732
g7224
atp9733
Rp9734
(dp9735
g17
VCD
p9736
sbatp9737
Rp9738
(dp9739
g17
VNP
p9740
sbag5
(g6
g7
(lp9741
V-RRB-
p9742
atp9743
Rp9744
(dp9745
g17
V-RRB-
p9746
sbatp9747
Rp9748
(dp9749
g17
VPRN
p9750
sbag5
(g6
g7
(lp9751
Vmeans
p9752
atp9753
Rp9754
(dp9755
g17
VNNS
p9756
sbatp9757
Rp9758
(dp9759
g17
VNP
p9760
sbatp9761
Rp9762
(dp9763
g17
VVP
p9764
sbatp9765
Rp9766
(dp9767
g17
g169
sbatp9768
Rp9769
(dp9770
g17
VSBAR
p9771
sbatp9772
Rp9773
(dp9774
g17
VVP
p9775
sbatp9776
Rp9777
(dp9778
g17
g169
sbatp9779
Rp9780
(dp9781
g17
VSBAR
p9782
sbatp9783
Rp9784
(dp9785
g17
VNP
p9786
sbatp9787
Rp9788
(dp9789
g17
VVP
p9790
sbatp9791
Rp9792
(dp9793
g17
g169
sbatp9794
Rp9795
(dp9796
g17
VSBAR
p9797
sbatp9798
Rp9799
(dp9800
g17
VVP
p9801
sbatp9802
Rp9803
(dp9804
g17
VVP
p9805
sbag5
(g6
g7
(lp9806
g198
atp9807
Rp9808
(dp9809
g17
g198
sbatp9810
Rp9811
(dp9812
g17
g169
sbatp9813
Rp9814
(dp9815
g17
VROOT
p9816
sbasg209
(icmyPackage
CorE
p9817
(dp9818
g212
(lp9819
(I0
I12
tp9820
a(I0
I32
tp9821
asg215
g5
(g6
g7
(lp9822
g9792
ag9808
atp9823
Rp9824
(dp9825
g17
g226
sbsbsg216
(icmyPackage
CorE
p9826
(dp9827
g212
(lp9828
(I0
I0
tp9829
a(I0
I9
tp9830
asg215
g5
(g6
g7
(lp9831
g9504
ag9521
ag9528
ag9535
ag9569
atp9832
Rp9833
(dp9834
g17
g226
sbsbsg227
g742
sg264
(lp9835
(icmyPackage
Sent
p9836
(dp9837
g268
I2
sg269
I22
sg270
S'In fact scientific physics is imbedded in common sense physics, because it is common sense physics that tells us what the equation s = 0.5gt^(2) means.'
p9838
sg272
I0
sg273
I106
sg215
(lp9839
g9814
asbasba(icmyPackage
CELink
p9840
(dp9841
g3
(lp9842
g5
(g6
g7
(lp9843
g5
(g6
g7
(lp9844
g5
(g6
g7
(lp9845
g5
(g6
g7
(lp9846
VThere
p9847
atp9848
Rp9849
(dp9850
g17
VEX
p9851
sbatp9852
Rp9853
(dp9854
g17
VNP
p9855
sbag5
(g6
g7
(lp9856
g5
(g6
g7
(lp9857
Vis
p9858
atp9859
Rp9860
(dp9861
g17
VVBZ
p9862
sbag5
(g6
g7
(lp9863
g5
(g6
g7
(lp9864
Voften
p9865
atp9866
Rp9867
(dp9868
g17
VRB
p9869
sbatp9870
Rp9871
(dp9872
g17
VADVP
p9873
sbag5
(g6
g7
(lp9874
g5
(g6
g7
(lp9875
g5
(g6
g7
(lp9876
Vno
p9877
atp9878
Rp9879
(dp9880
g17
VDT
p9881
sbag5
(g6
g7
(lp9882
Vclear
p9883
atp9884
Rp9885
(dp9886
g17
VJJ
p9887
sbag5
(g6
g7
(lp9888
Vseparation
p9889
atp9890
Rp9891
(dp9892
g17
VNN
p9893
sbatp9894
Rp9895
(dp9896
g17
VNP
p9897
sbag5
(g6
g7
(lp9898
g5
(g6
g7
(lp9899
Vin
p9900
atp9901
Rp9902
(dp9903
g17
VIN
p9904
sbag5
(g6
g7
(lp9905
g5
(g6
g7
(lp9906
g5
(g6
g7
(lp9907
g5
(g6
g7
(lp9908
Vthe
p9909
atp9910
Rp9911
(dp9912
g17
VDT
p9913
sbag5
(g6
g7
(lp9914
Vprogram
p9915
atp9916
Rp9917
(dp9918
g17
VNN
p9919
sbatp9920
Rp9921
(dp9922
g17
VNP
p9923
sbag5
(g6
g7
(lp9924
g5
(g6
g7
(lp9925
Vbetween
p9926
atp9927
Rp9928
(dp9929
g17
VIN
p9930
sbag5
(g6
g7
(lp9931
g5
(g6
g7
(lp9932
g5
(g6
g7
(lp9933
Vdetermining
p9934
atp9935
Rp9936
(dp9937
g17
VVBG
p9938
sbag5
(g6
g7
(lp9939
g5
(g6
g7
(lp9940
g5
(g6
g7
(lp9941
Vwhat
p9942
atp9943
Rp9944
(dp9945
g17
VWP
p9946
sbatp9947
Rp9948
(dp9949
g17
VWHNP
p9950
sbag5
(g6
g7
(lp9951
g5
(g6
g7
(lp9952
g5
(g6
g7
(lp9953
Vinferences
p9954
atp9955
Rp9956
(dp9957
g17
VNNS
p9958
sbatp9959
Rp9960
(dp9961
g17
VNP
p9962
sbag5
(g6
g7
(lp9963
g5
(g6
g7
(lp9964
Vare
p9965
atp9966
Rp9967
(dp9968
g17
VVBP
p9969
sbag5
(g6
g7
(lp9970
g5
(g6
g7
(lp9971
Vcorrect
p9972
atp9973
Rp9974
(dp9975
g17
VJJ
p9976
sbatp9977
Rp9978
(dp9979
g17
VADJP
p9980
sbatp9981
Rp9982
(dp9983
g17
VVP
p9984
sbatp9985
Rp9986
(dp9987
g17
g169
sbatp9988
Rp9989
(dp9990
g17
VSBAR
p9991
sbatp9992
Rp9993
(dp9994
g17
VVP
p9995
sbatp9996
Rp9997
(dp9998
g17
g169
sbatp9999
Rp10000
(dp10001
g17
VPP
p10002
sbatp10003
Rp10004
(dp10005
g17
VNP
p10006
sbag5
(g6
g7
(lp10007
Vand
p10008
atp10009
Rp10010
(dp10011
g17
VCC
p10012
sbag5
(g6
g7
(lp10013
g5
(g6
g7
(lp10014
g5
(g6
g7
(lp10015
Vthe
p10016
atp10017
Rp10018
(dp10019
g17
VDT
p10020
sbag5
(g6
g7
(lp10021
Vstrategy
p10022
atp10023
Rp10024
(dp10025
g17
VNN
p10026
sbatp10027
Rp10028
(dp10029
g17
VNP
p10030
sbag5
(g6
g7
(lp10031
g5
(g6
g7
(lp10032
Vfor
p10033
atp10034
Rp10035
(dp10036
g17
VIN
p10037
sbag5
(g6
g7
(lp10038
g5
(g6
g7
(lp10039
g5
(g6
g7
(lp10040
Vfinding
p10041
atp10042
Rp10043
(dp10044
g17
VVBG
p10045
sbag5
(g6
g7
(lp10046
g5
(g6
g7
(lp10047
g5
(g6
g7
(lp10048
Vthe
p10049
atp10050
Rp10051
(dp10052
g17
VDT
p10053
sbag5
(g6
g7
(lp10054
Vinferences
p10055
atp10056
Rp10057
(dp10058
g17
VNNS
p10059
sbatp10060
Rp10061
(dp10062
g17
VNP
p10063
sbag5
(g6
g7
(lp10064
g5
(g6
g7
(lp10065
Vrequired
p10066
atp10067
Rp10068
(dp10069
g17
VVBN
p10070
sbag5
(g6
g7
(lp10071
g5
(g6
g7
(lp10072
g5
(g6
g7
(lp10073
Vto
p10074
atp10075
Rp10076
(dp10077
g17
VTO
p10078
sbag5
(g6
g7
(lp10079
g5
(g6
g7
(lp10080
Vsolve
p10081
atp10082
Rp10083
(dp10084
g17
VVB
p10085
sbag5
(g6
g7
(lp10086
g5
(g6
g7
(lp10087
Vthe
p10088
atp10089
Rp10090
(dp10091
g17
VDT
p10092
sbag5
(g6
g7
(lp10093
Vproblem
p10094
atp10095
Rp10096
(dp10097
g17
VNN
p10098
sbatp10099
Rp10100
(dp10101
g17
VNP
p10102
sbag5
(g6
g7
(lp10103
g5
(g6
g7
(lp10104
Vat
p10105
atp10106
Rp10107
(dp10108
g17
VIN
p10109
sbag5
(g6
g7
(lp10110
g5
(g6
g7
(lp10111
Vhand
p10112
atp10113
Rp10114
(dp10115
g17
VNN
p10116
sbatp10117
Rp10118
(dp10119
g17
VNP
p10120
sbatp10121
Rp10122
(dp10123
g17
VPP
p10124
sbatp10125
Rp10126
(dp10127
g17
VVP
p10128
sbatp10129
Rp10130
(dp10131
g17
VVP
p10132
sbatp10133
Rp10134
(dp10135
g17
g169
sbatp10136
Rp10137
(dp10138
g17
VVP
p10139
sbatp10140
Rp10141
(dp10142
g17
VNP
p10143
sbatp10144
Rp10145
(dp10146
g17
VVP
p10147
sbatp10148
Rp10149
(dp10150
g17
g169
sbatp10151
Rp10152
(dp10153
g17
VPP
p10154
sbatp10155
Rp10156
(dp10157
g17
VNP
p10158
sbatp10159
Rp10160
(dp10161
g17
VNP
p10162
sbatp10163
Rp10164
(dp10165
g17
VPP
p10166
sbatp10167
Rp10168
(dp10169
g17
VNP
p10170
sbatp10171
Rp10172
(dp10173
g17
VVP
p10174
sbag5
(g6
g7
(lp10175
g198
atp10176
Rp10177
(dp10178
g17
g198
sbatp10179
Rp10180
(dp10181
g17
g169
sbatp10182
Rp10183
(dp10184
g17
VROOT
p10185
sbasg209
(icmyPackage
CorE
p10186
(dp10187
g212
(lp10188
(I0
I19
tp10189
a(I0
I28
tp10190
asg215
g10149
sbsg216
(icmyPackage
CorE
p10191
(dp10192
g212
(lp10193
(I0
I0
tp10194
a(I0
I17
tp10195
asg215
g5
(g6
g7
(lp10196
g9853
ag9860
ag9871
ag9895
ag9902
ag10004
ag10010
ag10028
atp10197
Rp10198
(dp10199
g17
g226
sbsbsg227
g3049
sg264
(lp10200
(icmyPackage
Sent
p10201
(dp10202
g268
I3
sg269
I26
sg270
S'There is often no clear separation in the program between determining what inferences are correct and the strategy for finding the inferences required to solve the problem at hand.'
p10203
sg272
I0
sg273
I119
sg215
(lp10204
g10183
asbasba(icmyPackage
CELink
p10205
(dp10206
g3
(lp10207
g5
(g6
g7
(lp10208
g5
(g6
g7
(lp10209
g5
(g6
g7
(lp10210
g5
(g6
g7
(lp10211
VSystems
p10212
atp10213
Rp10214
(dp10215
g17
VNNP
p10216
sbatp10217
Rp10218
(dp10219
g17
VNP
p10220
sbag5
(g6
g7
(lp10221
g5
(g6
g7
(lp10222
Vprovide
p10223
atp10224
Rp10225
(dp10226
g17
VVBP
p10227
sbag5
(g6
g7
(lp10228
g5
(g6
g7
(lp10229
Vfor
p10230
atp10231
Rp10232
(dp10233
g17
VIN
p10234
sbag5
(g6
g7
(lp10235
g5
(g6
g7
(lp10236
g5
(g6
g7
(lp10237
Vinferring
p10238
atp10239
Rp10240
(dp10241
g17
VVBG
p10242
sbag5
(g6
g7
(lp10243
g5
(g6
g7
(lp10244
g5
(g6
g7
(lp10245
g394
atp10246
Rp10247
(dp10248
g17
VDT
p10249
sbag5
(g6
g7
(lp10250
Vfact
p10251
atp10252
Rp10253
(dp10254
g17
VNN
p10255
sbatp10256
Rp10257
(dp10258
g17
VNP
p10259
sbag5
(g6
g7
(lp10260
g5
(g6
g7
(lp10261
Vabout
p10262
atp10263
Rp10264
(dp10265
g17
VIN
p10266
sbag5
(g6
g7
(lp10267
g5
(g6
g7
(lp10268
Vone
p10269
atp10270
Rp10271
(dp10272
g17
VCD
p10273
sbag5
(g6
g7
(lp10274
Vor
p10275
atp10276
Rp10277
(dp10278
g17
VCC
p10279
sbag5
(g6
g7
(lp10280
Vtwo
p10281
atp10282
Rp10283
(dp10284
g17
VCD
p10285
sbag5
(g6
g7
(lp10286
Vparticular
p10287
atp10288
Rp10289
(dp10290
g17
VJJ
p10291
sbag5
(g6
g7
(lp10292
Vobjects
p10293
atp10294
Rp10295
(dp10296
g17
VNNS
p10297
sbatp10298
Rp10299
(dp10300
g17
VNP
p10301
sbatp10302
Rp10303
(dp10304
g17
VPP
p10305
sbatp10306
Rp10307
(dp10308
g17
VNP
p10309
sbag5
(g6
g7
(lp10310
g5
(g6
g7
(lp10311
Vfrom
p10312
atp10313
Rp10314
(dp10315
g17
VIN
p10316
sbag5
(g6
g7
(lp10317
g5
(g6
g7
(lp10318
g5
(g6
g7
(lp10319
g5
(g6
g7
(lp10320
Vother
p10321
atp10322
Rp10323
(dp10324
g17
VJJ
p10325
sbag5
(g6
g7
(lp10326
Vfacts
p10327
atp10328
Rp10329
(dp10330
g17
VNNS
p10331
sbatp10332
Rp10333
(dp10334
g17
VNP
p10335
sbag5
(g6
g7
(lp10336
g5
(g6
g7
(lp10337
Vabout
p10338
atp10339
Rp10340
(dp10341
g17
VIN
p10342
sbag5
(g6
g7
(lp10343
g5
(g6
g7
(lp10344
g5
(g6
g7
(lp10345
Vthese
p10346
atp10347
Rp10348
(dp10349
g17
VDT
p10350
sbag5
(g6
g7
(lp10351
Vobjects
p10352
atp10353
Rp10354
(dp10355
g17
VNNS
p10356
sbatp10357
Rp10358
(dp10359
g17
VNP
p10360
sbag5
(g6
g7
(lp10361
Vand
p10362
atp10363
Rp10364
(dp10365
g17
VCC
p10366
sbag5
(g6
g7
(lp10367
g5
(g6
g7
(lp10368
g394
atp10369
Rp10370
(dp10371
g17
VDT
p10372
sbag5
(g6
g7
(lp10373
Vgeneral
p10374
atp10375
Rp10376
(dp10377
g17
VJJ
p10378
sbag5
(g6
g7
(lp10379
Vrule
p10380
atp10381
Rp10382
(dp10383
g17
VNN
p10384
sbatp10385
Rp10386
(dp10387
g17
VNP
p10388
sbatp10389
Rp10390
(dp10391
g17
VNP
p10392
sbatp10393
Rp10394
(dp10395
g17
VPP
p10396
sbatp10397
Rp10398
(dp10399
g17
VNP
p10400
sbag5
(g6
g7
(lp10401
g5
(g6
g7
(lp10402
Vcontaining
p10403
atp10404
Rp10405
(dp10406
g17
VVBG
p10407
sbag5
(g6
g7
(lp10408
g5
(g6
g7
(lp10409
Vvariables
p10410
atp10411
Rp10412
(dp10413
g17
VNNS
p10414
sbatp10415
Rp10416
(dp10417
g17
VNP
p10418
sbatp10419
Rp10420
(dp10421
g17
VVP
p10422
sbatp10423
Rp10424
(dp10425
g17
g169
sbatp10426
Rp10427
(dp10428
g17
VPP
p10429
sbatp10430
Rp10431
(dp10432
g17
VVP
p10433
sbatp10434
Rp10435
(dp10436
g17
g169
sbatp10437
Rp10438
(dp10439
g17
VPP
p10440
sbatp10441
Rp10442
(dp10443
g17
VVP
p10444
sbag5
(g6
g7
(lp10445
g198
atp10446
Rp10447
(dp10448
g17
g198
sbatp10449
Rp10450
(dp10451
g17
g169
sbatp10452
Rp10453
(dp10454
g17
VROOT
p10455
sbasg209
(icmyPackage
CorE
p10456
(dp10457
g212
(lp10458
(I0
I3
tp10459
a(I0
I23
tp10460
asg215
g10435
sbsg216
(icmyPackage
CorE
p10461
(dp10462
g212
(lp10463
(I0
I0
tp10464
a(I0
I1
tp10465
asg215
g5
(g6
g7
(lp10466
g10218
ag10225
atp10467
Rp10468
(dp10469
g17
g226
sbsbsg227
g3049
sg264
(lp10470
(icmyPackage
Sent
p10471
(dp10472
g268
I3
sg269
I26
sg270
S'Systems provide for inferring a fact about one or two particular objects from other facts about these objects and a general rule containing variables.'
p10473
sg272
I0
sg273
I121
sg215
(lp10474
g10453
asbasba(icmyPackage
CELink
p10475
(dp10476
g3
(lp10477
g5
(g6
g7
(lp10478
g5
(g6
g7
(lp10479
g5
(g6
g7
(lp10480
g5
(g6
g7
(lp10481
g5
(g6
g7
(lp10482
VMYCIN
p10483
atp10484
Rp10485
(dp10486
g17
VNNP
p10487
sbag5
(g6
g7
(lp10488
V's
p10489
atp10490
Rp10491
(dp10492
g17
VPOS
p10493
sbatp10494
Rp10495
(dp10496
g17
VNP
p10497
sbag5
(g6
g7
(lp10498
g5
(g6
g7
(lp10499
Vdoes
p10500
atp10501
Rp10502
(dp10503
g17
VVBZ
p10504
sbag5
(g6
g7
(lp10505
Vn't
p10506
atp10507
Rp10508
(dp10509
g17
VRB
p10510
sbag5
(g6
g7
(lp10511
g5
(g6
g7
(lp10512
Vrequire
p10513
atp10514
Rp10515
(dp10516
g17
VVB
p10517
sbag5
(g6
g7
(lp10518
g5
(g6
g7
(lp10519
Vthis
p10520
atp10521
Rp10522
(dp10523
g17
VDT
p10524
sbatp10525
Rp10526
(dp10527
g17
VNP
p10528
sbatp10529
Rp10530
(dp10531
g17
VVP
p10532
sbatp10533
Rp10534
(dp10535
g17
VVP
p10536
sbatp10537
Rp10538
(dp10539
g17
g169
sbag5
(g6
g7
(lp10540
g601
atp10541
Rp10542
(dp10543
g17
g601
sbag5
(g6
g7
(lp10544
Vbut
p10545
atp10546
Rp10547
(dp10548
g17
VCC
p10549
sbag5
(g6
g7
(lp10550
g5
(g6
g7
(lp10551
g5
(g6
g7
(lp10552
g5
(g6
g7
(lp10553
Vour
p10554
atp10555
Rp10556
(dp10557
g17
VPRP$
p10558
sbag5
(g6
g7
(lp10559
Vhypothetical
p10560
atp10561
Rp10562
(dp10563
g17
VJJ
p10564
sbag5
(g6
g7
(lp10565
Vrobot
p10566
atp10567
Rp10568
(dp10569
g17
VNN
p10570
sbag5
(g6
g7
(lp10571
Vphysician
p10572
atp10573
Rp10574
(dp10575
g17
VNN
p10576
sbatp10577
Rp10578
(dp10579
g17
VNP
p10580
sbag5
(g6
g7
(lp10581
g5
(g6
g7
(lp10582
Vwould
p10583
atp10584
Rp10585
(dp10586
g17
VMD
p10587
sbag5
(g6
g7
(lp10588
g5
(g6
g7
(lp10589
Vhave
p10590
atp10591
Rp10592
(dp10593
g17
VVB
p10594
sbag5
(g6
g7
(lp10595
g5
(g6
g7
(lp10596
g5
(g6
g7
(lp10597
Vto
p10598
atp10599
Rp10600
(dp10601
g17
VTO
p10602
sbag5
(g6
g7
(lp10603
g5
(g6
g7
(lp10604
Vdraw
p10605
atp10606
Rp10607
(dp10608
g17
VVB
p10609
sbag5
(g6
g7
(lp10610
g5
(g6
g7
(lp10611
Vconclusions
p10612
atp10613
Rp10614
(dp10615
g17
VNNS
p10616
sbatp10617
Rp10618
(dp10619
g17
VNP
p10620
sbag5
(g6
g7
(lp10621
g5
(g6
g7
(lp10622
Vfrom
p10623
atp10624
Rp10625
(dp10626
g17
VIN
p10627
sbag5
(g6
g7
(lp10628
g5
(g6
g7
(lp10629
g5
(g6
g7
(lp10630
g394
atp10631
Rp10632
(dp10633
g17
VDT
p10634
sbag5
(g6
g7
(lp10635
Vpatient
p10636
atp10637
Rp10638
(dp10639
g17
VNN
p10640
sbag5
(g6
g7
(lp10641
V's
p10642
atp10643
Rp10644
(dp10645
g17
VPOS
p10646
sbatp10647
Rp10648
(dp10649
g17
VNP
p10650
sbag5
(g6
g7
(lp10651
Vappearance
p10652
atp10653
Rp10654
(dp10655
g17
VNN
p10656
sbatp10657
Rp10658
(dp10659
g17
VNP
p10660
sbatp10661
Rp10662
(dp10663
g17
VPP
p10664
sbatp10665
Rp10666
(dp10667
g17
VVP
p10668
sbatp10669
Rp10670
(dp10671
g17
VVP
p10672
sbatp10673
Rp10674
(dp10675
g17
g169
sbatp10676
Rp10677
(dp10678
g17
VVP
p10679
sbatp10680
Rp10681
(dp10682
g17
VVP
p10683
sbatp10684
Rp10685
(dp10686
g17
g169
sbag5
(g6
g7
(lp10687
g601
atp10688
Rp10689
(dp10690
g17
g601
sbag5
(g6
g7
(lp10691
Vand
p10692
atp10693
Rp10694
(dp10695
g17
VCC
p10696
sbag5
(g6
g7
(lp10697
g5
(g6
g7
(lp10698
g5
(g6
g7
(lp10699
Vcomputer
p10700
atp10701
Rp10702
(dp10703
g17
VNN
p10704
sbag5
(g6
g7
(lp10705
Vvision
p10706
atp10707
Rp10708
(dp10709
g17
VNN
p10710
sbatp10711
Rp10712
(dp10713
g17
VNP
p10714
sbag5
(g6
g7
(lp10715
g5
(g6
g7
(lp10716
Vis
p10717
atp10718
Rp10719
(dp10720
g17
VVBZ
p10721
sbag5
(g6
g7
(lp10722
Vnot
p10723
atp10724
Rp10725
(dp10726
g17
VRB
p10727
sbag5
(g6
g7
(lp10728
g5
(g6
g7
(lp10729
Vready
p10730
atp10731
Rp10732
(dp10733
g17
VJJ
p10734
sbag5
(g6
g7
(lp10735
g5
(g6
g7
(lp10736
Vfor
p10737
atp10738
Rp10739
(dp10740
g17
VIN
p10741
sbag5
(g6
g7
(lp10742
g5
(g6
g7
(lp10743
Vit
p10744
atp10745
Rp10746
(dp10747
g17
VPRP
p10748
sbatp10749
Rp10750
(dp10751
g17
VNP
p10752
sbatp10753
Rp10754
(dp10755
g17
VPP
p10756
sbatp10757
Rp10758
(dp10759
g17
VADJP
p10760
sbatp10761
Rp10762
(dp10763
g17
VVP
p10764
sbatp10765
Rp10766
(dp10767
g17
g169
sbatp10768
Rp10769
(dp10770
g17
g169
sbag5
(g6
g7
(lp10771
g198
atp10772
Rp10773
(dp10774
g17
g198
sbatp10775
Rp10776
(dp10777
g17
g169
sbatp10778
Rp10779
(dp10780
g17
VROOT
p10781
sbag5
(g6
g7
(lp10782
g5
(g6
g7
(lp10783
g5
(g6
g7
(lp10784
g5
(g6
g7
(lp10785
g5
(g6
g7
(lp10786
g5
(g6
g7
(lp10787
VAn
p10788
atp10789
Rp10790
(dp10791
g17
VDT
p10792
sbag5
(g6
g7
(lp10793
Vimportant
p10794
atp10795
Rp10796
(dp10797
g17
VJJ
p10798
sbag5
(g6
g7
(lp10799
Vnew
p10800
atp10801
Rp10802
(dp10803
g17
VJJ
p10804
sbag5
(g6
g7
(lp10805
Vdevelopment
p10806
atp10807
Rp10808
(dp10809
g17
VNN
p10810
sbatp10811
Rp10812
(dp10813
g17
VNP
p10814
sbag5
(g6
g7
(lp10815
g5
(g6
g7
(lp10816
Vin
p10817
atp10818
Rp10819
(dp10820
g17
VIN
p10821
sbag5
(g6
g7
(lp10822
g5
(g6
g7
(lp10823
VAI
p10824
atp10825
Rp10826
(dp10827
g17
VNNP
p10828
sbatp10829
Rp10830
(dp10831
g17
VNP
p10832
sbatp10833
Rp10834
(dp10835
g17
VPP
p10836
sbatp10837
Rp10838
(dp10839
g17
VNP
p10840
sbag5
(g6
g7
(lp10841
g5
(g6
g7
(lp10842
V-LRB-
p10843
atp10844
Rp10845
(dp10846
g17
V-LRB-
p10847
sbag5
(g6
g7
(lp10848
g5
(g6
g7
(lp10849
Vsince
p10850
atp10851
Rp10852
(dp10853
g17
VIN
p10854
sbag5
(g6
g7
(lp10855
g5
(g6
g7
(lp10856
Vthe
p10857
atp10858
Rp10859
(dp10860
g17
VDT
p10861
sbag5
(g6
g7
(lp10862
Vmiddle
p10863
atp10864
Rp10865
(dp10866
g17
VJJ
p10867
sbag5
(g6
g7
(lp10868
V1970s
p10869
atp10870
Rp10871
(dp10872
g17
VNNS
p10873
sbatp10874
Rp10875
(dp10876
g17
VNP
p10877
sbatp10878
Rp10879
(dp10880
g17
VPP
p10881
sbag5
(g6
g7
(lp10882
V-RRB-
p10883
atp10884
Rp10885
(dp10886
g17
V-RRB-
p10887
sbatp10888
Rp10889
(dp10890
g17
VPRN
p10891
sbatp10892
Rp10893
(dp10894
g17
VNP
p10895
sbag5
(g6
g7
(lp10896
g5
(g6
g7
(lp10897
Vis
p10898
atp10899
Rp10900
(dp10901
g17
VVBZ
p10902
sbag5
(g6
g7
(lp10903
g5
(g6
g7
(lp10904
g5
(g6
g7
(lp10905
Vthe
p10906
atp10907
Rp10908
(dp10909
g17
VDT
p10910
sbag5
(g6
g7
(lp10911
Vformalization
p10912
atp10913
Rp10914
(dp10915
g17
VNN
p10916
sbatp10917
Rp10918
(dp10919
g17
VNP
p10920
sbag5
(g6
g7
(lp10921
g5
(g6
g7
(lp10922
Vof
p10923
atp10924
Rp10925
(dp10926
g17
VIN
p10927
sbag5
(g6
g7
(lp10928
g5
(g6
g7
(lp10929
Vnonmonotonic
p10930
atp10931
Rp10932
(dp10933
g17
VJJ
p10934
sbag5
(g6
g7
(lp10935
Vreasoning
p10936
atp10937
Rp10938
(dp10939
g17
VNN
p10940
sbatp10941
Rp10942
(dp10943
g17
VNP
p10944
sbatp10945
Rp10946
(dp10947
g17
VPP
p10948
sbatp10949
Rp10950
(dp10951
g17
VNP
p10952
sbatp10953
Rp10954
(dp10955
g17
VVP
p10956
sbag5
(g6
g7
(lp10957
g198
atp10958
Rp10959
(dp10960
g17
g198
sbatp10961
Rp10962
(dp10963
g17
g169
sbatp10964
Rp10965
(dp10966
g17
VROOT
p10967
sbasg209
(icmyPackage
CorE
p10968
(dp10969
g212
(lp10970
(I1
I8
tp10971
a(I1
I18
tp10972
asg215
g5
(g6
g7
(lp10973
g10875
ag10885
ag10954
ag10959
atp10974
Rp10975
(dp10976
g17
g226
sbsbsg216
(icmyPackage
CorE
p10977
(dp10978
g212
(lp10979
(I0
I1
tp10980
a(I1
I6
tp10981
asg215
g5
(g6
g7
(lp10982
g10491
ag10534
ag10542
ag10547
ag10769
ag10773
ag10838
ag10845
atp10983
Rp10984
(dp10985
g17
g226
sbsbsg227
g523
sg264
(lp10986
(icmyPackage
Sent
p10987
(dp10988
g268
I3
sg269
I27
sg270
S"MYCIN's doesn't require this, but our hypothetical robot physician would have to draw conclusions from a patient's appearance, and computer vision is not ready for it."
p10989
sg272
I0
sg273
I126
sg215
(lp10990
g10779
asba(icmyPackage
Sent
p10991
(dp10992
g268
I3
sg269
I28
sg270
S'An important new development in AI (since the middle 1970s) is the formalization of nonmonotonic reasoning.'
p10993
sg272
I0
sg273
I127
sg215
(lp10994
g10965
asbasba(icmyPackage
CELink
p10995
(dp10996
g3
(lp10997
g5
(g6
g7
(lp10998
g5
(g6
g7
(lp10999
g5
(g6
g7
(lp11000
g5
(g6
g7
(lp11001
VIf
p11002
atp11003
Rp11004
(dp11005
g17
VIN
p11006
sbag5
(g6
g7
(lp11007
g5
(g6
g7
(lp11008
g5
(g6
g7
(lp11009
Vyou
p11010
atp11011
Rp11012
(dp11013
g17
VPRP
p11014
sbatp11015
Rp11016
(dp11017
g17
VNP
p11018
sbag5
(g6
g7
(lp11019
g5
(g6
g7
(lp11020
Vknow
p11021
atp11022
Rp11023
(dp11024
g17
VVBP
p11025
sbag5
(g6
g7
(lp11026
g5
(g6
g7
(lp11027
Vthat
p11028
atp11029
Rp11030
(dp11031
g17
VIN
p11032
sbag5
(g6
g7
(lp11033
g5
(g6
g7
(lp11034
g5
(g6
g7
(lp11035
g282
atp11036
Rp11037
(dp11038
g17
VPRP
p11039
sbatp11040
Rp11041
(dp11042
g17
VNP
p11043
sbag5
(g6
g7
(lp11044
g5
(g6
g7
(lp11045
Vhave
p11046
atp11047
Rp11048
(dp11049
g17
VVBP
p11050
sbag5
(g6
g7
(lp11051
g5
(g6
g7
(lp11052
g394
atp11053
Rp11054
(dp11055
g17
VDT
p11056
sbag5
(g6
g7
(lp11057
Vcar
p11058
atp11059
Rp11060
(dp11061
g17
VNN
p11062
sbatp11063
Rp11064
(dp11065
g17
VNP
p11066
sbatp11067
Rp11068
(dp11069
g17
VVP
p11070
sbatp11071
Rp11072
(dp11073
g17
g169
sbatp11074
Rp11075
(dp11076
g17
VSBAR
p11077
sbatp11078
Rp11079
(dp11080
g17
VVP
p11081
sbatp11082
Rp11083
(dp11084
g17
g169
sbatp11085
Rp11086
(dp11087
g17
VSBAR
p11088
sbag5
(g6
g7
(lp11089
g601
atp11090
Rp11091
(dp11092
g17
g601
sbag5
(g6
g7
(lp11093
g5
(g6
g7
(lp11094
Vyou
p11095
atp11096
Rp11097
(dp11098
g17
VPRP
p11099
sbatp11100
Rp11101
(dp11102
g17
VNP
p11103
sbag5
(g6
g7
(lp11104
g5
(g6
g7
(lp11105
Vmay
p11106
atp11107
Rp11108
(dp11109
g17
VMD
p11110
sbag5
(g6
g7
(lp11111
g5
(g6
g7
(lp11112
Vconclude
p11113
atp11114
Rp11115
(dp11116
g17
VVB
p11117
sbag5
(g6
g7
(lp11118
g5
(g6
g7
(lp11119
Vthat
p11120
atp11121
Rp11122
(dp11123
g17
VIN
p11124
sbag5
(g6
g7
(lp11125
g5
(g6
g7
(lp11126
g5
(g6
g7
(lp11127
Vit
p11128
atp11129
Rp11130
(dp11131
g17
VPRP
p11132
sbatp11133
Rp11134
(dp11135
g17
VNP
p11136
sbag5
(g6
g7
(lp11137
g5
(g6
g7
(lp11138
Vis
p11139
atp11140
Rp11141
(dp11142
g17
VVBZ
p11143
sbag5
(g6
g7
(lp11144
g5
(g6
g7
(lp11145
g394
atp11146
Rp11147
(dp11148
g17
VDT
p11149
sbag5
(g6
g7
(lp11150
Vgood
p11151
atp11152
Rp11153
(dp11154
g17
VJJ
p11155
sbag5
(g6
g7
(lp11156
Videa
p11157
atp11158
Rp11159
(dp11160
g17
VNN
p11161
sbag5
(g6
g7
(lp11162
g5
(g6
g7
(lp11163
g5
(g6
g7
(lp11164
Vto
p11165
atp11166
Rp11167
(dp11168
g17
VTO
p11169
sbag5
(g6
g7
(lp11170
g5
(g6
g7
(lp11171
Vask
p11172
atp11173
Rp11174
(dp11175
g17
VVB
p11176
sbag5
(g6
g7
(lp11177
g5
(g6
g7
(lp11178
Vme
p11179
atp11180
Rp11181
(dp11182
g17
VPRP
p11183
sbatp11184
Rp11185
(dp11186
g17
VNP
p11187
sbag5
(g6
g7
(lp11188
g5
(g6
g7
(lp11189
Vfor
p11190
atp11191
Rp11192
(dp11193
g17
VIN
p11194
sbag5
(g6
g7
(lp11195
g5
(g6
g7
(lp11196
g394
atp11197
Rp11198
(dp11199
g17
VDT
p11200
sbag5
(g6
g7
(lp11201
Vride
p11202
atp11203
Rp11204
(dp11205
g17
VNN
p11206
sbatp11207
Rp11208
(dp11209
g17
VNP
p11210
sbatp11211
Rp11212
(dp11213
g17
VPP
p11214
sbatp11215
Rp11216
(dp11217
g17
VVP
p11218
sbatp11219
Rp11220
(dp11221
g17
VVP
p11222
sbatp11223
Rp11224
(dp11225
g17
g169
sbatp11226
Rp11227
(dp11228
g17
VNP
p11229
sbatp11230
Rp11231
(dp11232
g17
VVP
p11233
sbatp11234
Rp11235
(dp11236
g17
g169
sbatp11237
Rp11238
(dp11239
g17
VSBAR
p11240
sbatp11241
Rp11242
(dp11243
g17
VVP
p11244
sbatp11245
Rp11246
(dp11247
g17
VVP
p11248
sbag5
(g6
g7
(lp11249
g198
atp11250
Rp11251
(dp11252
g17
g198
sbatp11253
Rp11254
(dp11255
g17
g169
sbatp11256
Rp11257
(dp11258
g17
VROOT
p11259
sbasg209
(icmyPackage
CorE
p11260
(dp11261
g212
(lp11262
(I0
I1
tp11263
a(I0
I7
tp11264
asg215
g11083
sbsg216
(icmyPackage
CorE
p11265
(dp11266
g212
(lp11267
(I0
I9
tp11268
a(I0
I24
tp11269
asg215
g5
(g6
g7
(lp11270
g11101
ag11246
ag11251
atp11271
Rp11272
(dp11273
g17
g226
sbsbsg227
g2767
sg264
(lp11274
(icmyPackage
Sent
p11275
(dp11276
g268
I3
sg269
I30
sg270
S'If you know that I have a car, you may conclude that it is a good idea to ask me for a ride.'
p11277
sg272
I0
sg273
I133
sg215
(lp11278
g11257
asbasba(icmyPackage
CELink
p11279
(dp11280
g3
(lp11281
g5
(g6
g7
(lp11282
g5
(g6
g7
(lp11283
g5
(g6
g7
(lp11284
g5
(g6
g7
(lp11285
VIf
p11286
atp11287
Rp11288
(dp11289
g17
VIN
p11290
sbag5
(g6
g7
(lp11291
g5
(g6
g7
(lp11292
g5
(g6
g7
(lp11293
Vyou
p11294
atp11295
Rp11296
(dp11297
g17
VPRP
p11298
sbatp11299
Rp11300
(dp11301
g17
VNP
p11302
sbag5
(g6
g7
(lp11303
g5
(g6
g7
(lp11304
Vthen
p11305
atp11306
Rp11307
(dp11308
g17
VRB
p11309
sbatp11310
Rp11311
(dp11312
g17
VADVP
p11313
sbag5
(g6
g7
(lp11314
g5
(g6
g7
(lp11315
Vlearn
p11316
atp11317
Rp11318
(dp11319
g17
VVBP
p11320
sbag5
(g6
g7
(lp11321
g5
(g6
g7
(lp11322
Vthat
p11323
atp11324
Rp11325
(dp11326
g17
VIN
p11327
sbag5
(g6
g7
(lp11328
g5
(g6
g7
(lp11329
g5
(g6
g7
(lp11330
Vmy
p11331
atp11332
Rp11333
(dp11334
g17
VPRP$
p11335
sbag5
(g6
g7
(lp11336
Vcar
p11337
atp11338
Rp11339
(dp11340
g17
VNN
p11341
sbatp11342
Rp11343
(dp11344
g17
VNP
p11345
sbag5
(g6
g7
(lp11346
g5
(g6
g7
(lp11347
Vis
p11348
atp11349
Rp11350
(dp11351
g17
VVBZ
p11352
sbag5
(g6
g7
(lp11353
g5
(g6
g7
(lp11354
Vbeing
p11355
atp11356
Rp11357
(dp11358
g17
VVBG
p11359
sbag5
(g6
g7
(lp11360
g5
(g6
g7
(lp11361
Vfixed
p11362
atp11363
Rp11364
(dp11365
g17
VVBN
p11366
sbag5
(g6
g7
(lp11367
g5
(g6
g7
(lp11368
V-LRB-
p11369
atp11370
Rp11371
(dp11372
g17
V-LRB-
p11373
sbag5
(g6
g7
(lp11374
g5
(g6
g7
(lp11375
g5
(g6
g7
(lp11376
Vwhich
p11377
atp11378
Rp11379
(dp11380
g17
VWDT
p11381
sbatp11382
Rp11383
(dp11384
g17
VWHNP
p11385
sbag5
(g6
g7
(lp11386
g5
(g6
g7
(lp11387
g5
(g6
g7
(lp11388
Vdoes
p11389
atp11390
Rp11391
(dp11392
g17
VVBZ
p11393
sbag5
(g6
g7
(lp11394
Vnot
p11395
atp11396
Rp11397
(dp11398
g17
VRB
p11399
sbag5
(g6
g7
(lp11400
g5
(g6
g7
(lp11401
Vcontradict
p11402
atp11403
Rp11404
(dp11405
g17
VVB
p11406
sbag5
(g6
g7
(lp11407
g5
(g6
g7
(lp11408
g5
(g6
g7
(lp11409
Vwhat
p11410
atp11411
Rp11412
(dp11413
g17
VWP
p11414
sbatp11415
Rp11416
(dp11417
g17
VWHNP
p11418
sbag5
(g6
g7
(lp11419
g5
(g6
g7
(lp11420
g5
(g6
g7
(lp11421
Vyou
p11422
atp11423
Rp11424
(dp11425
g17
VPRP
p11426
sbatp11427
Rp11428
(dp11429
g17
VNP
p11430
sbag5
(g6
g7
(lp11431
g5
(g6
g7
(lp11432
Vknew
p11433
atp11434
Rp11435
(dp11436
g17
VVBD
p11437
sbag5
(g6
g7
(lp11438
g5
(g6
g7
(lp11439
Vbefore
p11440
atp11441
Rp11442
(dp11443
g17
VRB
p11444
sbatp11445
Rp11446
(dp11447
g17
VADVP
p11448
sbatp11449
Rp11450
(dp11451
g17
VVP
p11452
sbatp11453
Rp11454
(dp11455
g17
g169
sbatp11456
Rp11457
(dp11458
g17
VSBAR
p11459
sbatp11460
Rp11461
(dp11462
g17
VVP
p11463
sbatp11464
Rp11465
(dp11466
g17
VVP
p11467
sbatp11468
Rp11469
(dp11470
g17
g169
sbatp11471
Rp11472
(dp11473
g17
VSBAR
p11474
sbag5
(g6
g7
(lp11475
V-RRB-
p11476
atp11477
Rp11478
(dp11479
g17
V-RRB-
p11480
sbatp11481
Rp11482
(dp11483
g17
VPRN
p11484
sbatp11485
Rp11486
(dp11487
g17
VVP
p11488
sbatp11489
Rp11490
(dp11491
g17
VVP
p11492
sbatp11493
Rp11494
(dp11495
g17
VVP
p11496
sbatp11497
Rp11498
(dp11499
g17
g169
sbatp11500
Rp11501
(dp11502
g17
VSBAR
p11503
sbatp11504
Rp11505
(dp11506
g17
VVP
p11507
sbatp11508
Rp11509
(dp11510
g17
g169
sbatp11511
Rp11512
(dp11513
g17
VSBAR
p11514
sbag5
(g6
g7
(lp11515
g601
atp11516
Rp11517
(dp11518
g17
g601
sbag5
(g6
g7
(lp11519
g5
(g6
g7
(lp11520
Vyou
p11521
atp11522
Rp11523
(dp11524
g17
VPRP
p11525
sbatp11526
Rp11527
(dp11528
g17
VNP
p11529
sbag5
(g6
g7
(lp11530
g5
(g6
g7
(lp11531
Vno
p11532
atp11533
Rp11534
(dp11535
g17
VRB
p11536
sbag5
(g6
g7
(lp11537
Vlonger
p11538
atp11539
Rp11540
(dp11541
g17
VRB
p11542
sbatp11543
Rp11544
(dp11545
g17
VADVP
p11546
sbag5
(g6
g7
(lp11547
g5
(g6
g7
(lp11548
Vconclude
p11549
atp11550
Rp11551
(dp11552
g17
VVBP
p11553
sbag5
(g6
g7
(lp11554
g5
(g6
g7
(lp11555
Vthat
p11556
atp11557
Rp11558
(dp11559
g17
VIN
p11560
sbag5
(g6
g7
(lp11561
g5
(g6
g7
(lp11562
g5
(g6
g7
(lp11563
Vyou
p11564
atp11565
Rp11566
(dp11567
g17
VPRP
p11568
sbatp11569
Rp11570
(dp11571
g17
VNP
p11572
sbag5
(g6
g7
(lp11573
g5
(g6
g7
(lp11574
Vcan
p11575
atp11576
Rp11577
(dp11578
g17
VMD
p11579
sbag5
(g6
g7
(lp11580
g5
(g6
g7
(lp11581
Vget
p11582
atp11583
Rp11584
(dp11585
g17
VVB
p11586
sbag5
(g6
g7
(lp11587
g5
(g6
g7
(lp11588
g394
atp11589
Rp11590
(dp11591
g17
VDT
p11592
sbag5
(g6
g7
(lp11593
Vride
p11594
atp11595
Rp11596
(dp11597
g17
VNN
p11598
sbatp11599
Rp11600
(dp11601
g17
VNP
p11602
sbatp11603
Rp11604
(dp11605
g17
VVP
p11606
sbatp11607
Rp11608
(dp11609
g17
VVP
p11610
sbatp11611
Rp11612
(dp11613
g17
g169
sbatp11614
Rp11615
(dp11616
g17
VSBAR
p11617
sbatp11618
Rp11619
(dp11620
g17
VVP
p11621
sbag5
(g6
g7
(lp11622
g198
atp11623
Rp11624
(dp11625
g17
g198
sbatp11626
Rp11627
(dp11628
g17
g169
sbatp11629
Rp11630
(dp11631
g17
VROOT
p11632
sbasg209
(icmyPackage
CorE
p11633
(dp11634
g212
(lp11635
(I0
I1
tp11636
a(I0
I19
tp11637
asg215
g11509
sbsg216
(icmyPackage
CorE
p11638
(dp11639
g212
(lp11640
(I0
I21
tp11641
a(I0
I31
tp11642
asg215
g5
(g6
g7
(lp11643
g11527
ag11544
ag11619
ag11624
atp11644
Rp11645
(dp11646
g17
g226
sbsbsg227
g2767
sg264
(lp11647
(icmyPackage
Sent
p11648
(dp11649
g268
I3
sg269
I30
sg270
S'If you then learn that my car is being fixed (which does not contradict what you knew before), you no longer conclude that you can get a ride.'
p11650
sg272
I0
sg273
I134
sg215
(lp11651
g11630
asbasba(icmyPackage
CELink
p11652
(dp11653
g3
(lp11654
g5
(g6
g7
(lp11655
g5
(g6
g7
(lp11656
g5
(g6
g7
(lp11657
g5
(g6
g7
(lp11658
VSome
p11659
atp11660
Rp11661
(dp11662
g17
VDT
p11663
sbatp11664
Rp11665
(dp11666
g17
VNP
p11667
sbag5
(g6
g7
(lp11668
g5
(g6
g7
(lp11669
Vconcluded
p11670
atp11671
Rp11672
(dp11673
g17
VVBD
p11674
sbag5
(g6
g7
(lp11675
g5
(g6
g7
(lp11676
Vthat
p11677
atp11678
Rp11679
(dp11680
g17
VIN
p11681
sbag5
(g6
g7
(lp11682
g5
(g6
g7
(lp11683
g5
(g6
g7
(lp11684
Vtherefore
p11685
atp11686
Rp11687
(dp11688
g17
VRB
p11689
sbatp11690
Rp11691
(dp11692
g17
VADVP
p11693
sbag5
(g6
g7
(lp11694
g5
(g6
g7
(lp11695
Vlogic
p11696
atp11697
Rp11698
(dp11699
g17
VNN
p11700
sbatp11701
Rp11702
(dp11703
g17
VNP
p11704
sbag5
(g6
g7
(lp11705
g5
(g6
g7
(lp11706
Vis
p11707
atp11708
Rp11709
(dp11710
g17
VVBZ
p11711
sbag5
(g6
g7
(lp11712
Vnot
p11713
atp11714
Rp11715
(dp11716
g17
VRB
p11717
sbag5
(g6
g7
(lp11718
g5
(g6
g7
(lp11719
Van
p11720
atp11721
Rp11722
(dp11723
g17
VDT
p11724
sbag5
(g6
g7
(lp11725
Vappropriate
p11726
atp11727
Rp11728
(dp11729
g17
VJJ
p11730
sbag5
(g6
g7
(lp11731
Vformalism
p11732
atp11733
Rp11734
(dp11735
g17
VNN
p11736
sbatp11737
Rp11738
(dp11739
g17
VNP
p11740
sbatp11741
Rp11742
(dp11743
g17
VVP
p11744
sbatp11745
Rp11746
(dp11747
g17
g169
sbatp11748
Rp11749
(dp11750
g17
VSBAR
p11751
sbatp11752
Rp11753
(dp11754
g17
VVP
p11755
sbag5
(g6
g7
(lp11756
g198
atp11757
Rp11758
(dp11759
g17
g198
sbatp11760
Rp11761
(dp11762
g17
g169
sbatp11763
Rp11764
(dp11765
g17
VROOT
p11766
sbasg209
(icmyPackage
CorE
p11767
(dp11768
g212
(lp11769
(I0
I0
tp11770
a(I0
I2
tp11771
asg215
g5
(g6
g7
(lp11772
g11665
ag11672
ag11679
atp11773
Rp11774
(dp11775
g17
g226
sbsbsg216
(icmyPackage
CorE
p11776
(dp11777
g212
(lp11778
(I0
I4
tp11779
a(I0
I10
tp11780
asg215
g5
(g6
g7
(lp11781
g11702
ag11742
ag11758
atp11782
Rp11783
(dp11784
g17
g226
sbsbsg227
g1990
sg264
(lp11785
(icmyPackage
Sent
p11786
(dp11787
g268
I3
sg269
I31
sg270
S'Some concluded that therefore logic is not an appropriate formalism.'
p11788
sg272
I0
sg273
I137
sg215
(lp11789
g11764
asbasba(icmyPackage
CELink
p11790
(dp11791
g3
(lp11792
g5
(g6
g7
(lp11793
g5
(g6
g7
(lp11794
g5
(g6
g7
(lp11795
g5
(g6
g7
(lp11796
g5
(g6
g7
(lp11797
VThis
p11798
atp11799
Rp11800
(dp11801
g17
VDT
p11802
sbag5
(g6
g7
(lp11803
Vproperty
p11804
atp11805
Rp11806
(dp11807
g17
VNN
p11808
sbag5
(g6
g7
(lp11809
Vor
p11810
atp11811
Rp11812
(dp11813
g17
VCC
p11814
sbag5
(g6
g7
(lp11815
Vrelation
p11816
atp11817
Rp11818
(dp11819
g17
VNN
p11820
sbatp11821
Rp11822
(dp11823
g17
VNP
p11824
sbag5
(g6
g7
(lp11825
g5
(g6
g7
(lp11826
Vis
p11827
atp11828
Rp11829
(dp11830
g17
VVBZ
p11831
sbag5
(g6
g7
(lp11832
g5
(g6
g7
(lp11833
Vconstrained
p11834
atp11835
Rp11836
(dp11837
g17
VVBN
p11838
sbag5
(g6
g7
(lp11839
g5
(g6
g7
(lp11840
Vby
p11841
atp11842
Rp11843
(dp11844
g17
VIN
p11845
sbag5
(g6
g7
(lp11846
g5
(g6
g7
(lp11847
g5
(g6
g7
(lp11848
Vsome
p11849
atp11850
Rp11851
(dp11852
g17
VDT
p11853
sbag5
(g6
g7
(lp11854
Vsentences
p11855
atp11856
Rp11857
(dp11858
g17
VNNS
p11859
sbatp11860
Rp11861
(dp11862
g17
VNP
p11863
sbag5
(g6
g7
(lp11864
g5
(g6
g7
(lp11865
Vtaken
p11866
atp11867
Rp11868
(dp11869
g17
VVBN
p11870
sbag5
(g6
g7
(lp11871
g5
(g6
g7
(lp11872
Vas
p11873
atp11874
Rp11875
(dp11876
g17
VIN
p11877
sbag5
(g6
g7
(lp11878
g5
(g6
g7
(lp11879
Vassumptions
p11880
atp11881
Rp11882
(dp11883
g17
VNNS
p11884
sbatp11885
Rp11886
(dp11887
g17
VNP
p11888
sbatp11889
Rp11890
(dp11891
g17
VPP
p11892
sbatp11893
Rp11894
(dp11895
g17
VVP
p11896
sbatp11897
Rp11898
(dp11899
g17
VNP
p11900
sbatp11901
Rp11902
(dp11903
g17
VPP
p11904
sbatp11905
Rp11906
(dp11907
g17
VVP
p11908
sbatp11909
Rp11910
(dp11911
g17
VVP
p11912
sbatp11913
Rp11914
(dp11915
g17
g169
sbag5
(g6
g7
(lp11916
g601
atp11917
Rp11918
(dp11919
g17
g601
sbag5
(g6
g7
(lp11920
Vbut
p11921
atp11922
Rp11923
(dp11924
g17
VCC
p11925
sbag5
(g6
g7
(lp11926
g5
(g6
g7
(lp11927
g5
(g6
g7
(lp11928
Vthere
p11929
atp11930
Rp11931
(dp11932
g17
VEX
p11933
sbatp11934
Rp11935
(dp11936
g17
VNP
p11937
sbag5
(g6
g7
(lp11938
g5
(g6
g7
(lp11939
Vis
p11940
atp11941
Rp11942
(dp11943
g17
VVBZ
p11944
sbag5
(g6
g7
(lp11945
g5
(g6
g7
(lp11946
Vstill
p11947
atp11948
Rp11949
(dp11950
g17
VRB
p11951
sbatp11952
Rp11953
(dp11954
g17
VADVP
p11955
sbag5
(g6
g7
(lp11956
g5
(g6
g7
(lp11957
g5
(g6
g7
(lp11958
Vsome
p11959
atp11960
Rp11961
(dp11962
g17
VDT
p11963
sbag5
(g6
g7
(lp11964
Vfreedom
p11965
atp11966
Rp11967
(dp11968
g17
VNN
p11969
sbatp11970
Rp11971
(dp11972
g17
VNP
p11973
sbag5
(g6
g7
(lp11974
g5
(g6
g7
(lp11975
Vleft
p11976
atp11977
Rp11978
(dp11979
g17
VVBN
p11980
sbatp11981
Rp11982
(dp11983
g17
VVP
p11984
sbatp11985
Rp11986
(dp11987
g17
VNP
p11988
sbatp11989
Rp11990
(dp11991
g17
VVP
p11992
sbatp11993
Rp11994
(dp11995
g17
g169
sbag5
(g6
g7
(lp11996
g198
atp11997
Rp11998
(dp11999
g17
g198
sbatp12000
Rp12001
(dp12002
g17
g169
sbatp12003
Rp12004
(dp12005
g17
VROOT
p12006
sbasg209
(icmyPackage
CorE
p12007
(dp12008
g212
(lp12009
(I0
I11
tp12010
a(I0
I18
tp12011
asg215
g5
(g6
g7
(lp12012
g11886
ag11918
ag11923
ag11935
ag11942
ag11953
ag11971
atp12013
Rp12014
(dp12015
g17
g226
sbsbsg216
(icmyPackage
CorE
p12016
(dp12017
g212
(lp12018
(I0
I0
tp12019
a(I0
I9
tp12020
asg215
g5
(g6
g7
(lp12021
g11822
ag11829
ag11836
ag11843
ag11861
ag11868
atp12022
Rp12023
(dp12024
g17
g226
sbsbsg227
g4649
sg264
(lp12025
(icmyPackage
Sent
p12026
(dp12027
g268
I3
sg269
I33
sg270
S'This property or relation is constrained by some sentences taken as assumptions, but there is still some freedom left.'
p12028
sg272
I0
sg273
I144
sg215
(lp12029
g12004
asbasba(icmyPackage
CELink
p12030
(dp12031
g3
(lp12032
g5
(g6
g7
(lp12033
g5
(g6
g7
(lp12034
g5
(g6
g7
(lp12035
g5
(g6
g7
(lp12036
VCircumscription
p12037
atp12038
Rp12039
(dp12040
g17
VNNP
p12041
sbatp12042
Rp12043
(dp12044
g17
VNP
p12045
sbag5
(g6
g7
(lp12046
g5
(g6
g7
(lp12047
Vfurther
p12048
atp12049
Rp12050
(dp12051
g17
VRB
p12052
sbatp12053
Rp12054
(dp12055
g17
VADVP
p12056
sbag5
(g6
g7
(lp12057
g5
(g6
g7
(lp12058
Vconstrains
p12059
atp12060
Rp12061
(dp12062
g17
VVBZ
p12063
sbag5
(g6
g7
(lp12064
g5
(g6
g7
(lp12065
Vthe
p12066
atp12067
Rp12068
(dp12069
g17
VDT
p12070
sbag5
(g6
g7
(lp12071
Vproperty
p12072
atp12073
Rp12074
(dp12075
g17
VNN
p12076
sbag5
(g6
g7
(lp12077
Vor
p12078
atp12079
Rp12080
(dp12081
g17
VCC
p12082
sbag5
(g6
g7
(lp12083
Vrelation
p12084
atp12085
Rp12086
(dp12087
g17
VNN
p12088
sbatp12089
Rp12090
(dp12091
g17
VNP
p12092
sbag5
(g6
g7
(lp12093
g5
(g6
g7
(lp12094
Vby
p12095
atp12096
Rp12097
(dp12098
g17
VIN
p12099
sbag5
(g6
g7
(lp12100
g5
(g6
g7
(lp12101
g5
(g6
g7
(lp12102
Vrequiring
p12103
atp12104
Rp12105
(dp12106
g17
VVBG
p12107
sbag5
(g6
g7
(lp12108
g5
(g6
g7
(lp12109
g5
(g6
g7
(lp12110
Vit
p12111
atp12112
Rp12113
(dp12114
g17
VPRP
p12115
sbatp12116
Rp12117
(dp12118
g17
VNP
p12119
sbag5
(g6
g7
(lp12120
g5
(g6
g7
(lp12121
Vto
p12122
atp12123
Rp12124
(dp12125
g17
VTO
p12126
sbag5
(g6
g7
(lp12127
g5
(g6
g7
(lp12128
Vbe
p12129
atp12130
Rp12131
(dp12132
g17
VVB
p12133
sbag5
(g6
g7
(lp12134
g5
(g6
g7
(lp12135
Vtrue
p12136
atp12137
Rp12138
(dp12139
g17
VJJ
p12140
sbag5
(g6
g7
(lp12141
g5
(g6
g7
(lp12142
Vof
p12143
atp12144
Rp12145
(dp12146
g17
VIN
p12147
sbag5
(g6
g7
(lp12148
g5
(g6
g7
(lp12149
g5
(g6
g7
(lp12150
g394
atp12151
Rp12152
(dp12153
g17
VDT
p12154
sbag5
(g6
g7
(lp12155
Vminimal
p12156
atp12157
Rp12158
(dp12159
g17
VJJ
p12160
sbag5
(g6
g7
(lp12161
Vset
p12162
atp12163
Rp12164
(dp12165
g17
VNN
p12166
sbatp12167
Rp12168
(dp12169
g17
VNP
p12170
sbag5
(g6
g7
(lp12171
g5
(g6
g7
(lp12172
Vof
p12173
atp12174
Rp12175
(dp12176
g17
VIN
p12177
sbag5
(g6
g7
(lp12178
g5
(g6
g7
(lp12179
Vobjects
p12180
atp12181
Rp12182
(dp12183
g17
VNNS
p12184
sbatp12185
Rp12186
(dp12187
g17
VNP
p12188
sbatp12189
Rp12190
(dp12191
g17
VPP
p12192
sbatp12193
Rp12194
(dp12195
g17
VNP
p12196
sbatp12197
Rp12198
(dp12199
g17
VPP
p12200
sbatp12201
Rp12202
(dp12203
g17
VADJP
p12204
sbatp12205
Rp12206
(dp12207
g17
VVP
p12208
sbatp12209
Rp12210
(dp12211
g17
VVP
p12212
sbatp12213
Rp12214
(dp12215
g17
g169
sbatp12216
Rp12217
(dp12218
g17
VVP
p12219
sbatp12220
Rp12221
(dp12222
g17
g169
sbatp12223
Rp12224
(dp12225
g17
VPP
p12226
sbatp12227
Rp12228
(dp12229
g17
VVP
p12230
sbag5
(g6
g7
(lp12231
g198
atp12232
Rp12233
(dp12234
g17
g198
sbatp12235
Rp12236
(dp12237
g17
g169
sbatp12238
Rp12239
(dp12240
g17
VROOT
p12241
sbasg209
(icmyPackage
CorE
p12242
(dp12243
g212
(lp12244
(I0
I8
tp12245
a(I0
I18
tp12246
asg215
g12221
sbsg216
(icmyPackage
CorE
p12247
(dp12248
g212
(lp12249
(I0
I0
tp12250
a(I0
I6
tp12251
asg215
g5
(g6
g7
(lp12252
g12043
ag12054
ag12061
ag12090
atp12253
Rp12254
(dp12255
g17
g226
sbsbsg227
g1000
sg264
(lp12256
(icmyPackage
Sent
p12257
(dp12258
g268
I3
sg269
I33
sg270
S'Circumscription further constrains the property or relation by requiring it to be true of a minimal set of objects.'
p12259
sg272
I0
sg273
I145
sg215
(lp12260
g12239
asbasba(icmyPackage
CELink
p12261
(dp12262
g3
(lp12263
g12239
ag5
(g6
g7
(lp12264
g5
(g6
g7
(lp12265
g5
(g6
g7
(lp12266
g5
(g6
g7
(lp12267
VAs
p12268
atp12269
Rp12270
(dp12271
g17
VIN
p12272
sbag5
(g6
g7
(lp12273
g5
(g6
g7
(lp12274
Van
p12275
atp12276
Rp12277
(dp12278
g17
VDT
p12279
sbag5
(g6
g7
(lp12280
Vexample
p12281
atp12282
Rp12283
(dp12284
g17
VNN
p12285
sbatp12286
Rp12287
(dp12288
g17
VNP
p12289
sbatp12290
Rp12291
(dp12292
g17
VPP
p12293
sbag5
(g6
g7
(lp12294
g601
atp12295
Rp12296
(dp12297
g17
g601
sbag5
(g6
g7
(lp12298
g5
(g6
g7
(lp12299
Vconsider
p12300
atp12301
Rp12302
(dp12303
g17
VVB
p12304
sbag5
(g6
g7
(lp12305
g5
(g6
g7
(lp12306
g5
(g6
g7
(lp12307
Vrepresenting
p12308
atp12309
Rp12310
(dp12311
g17
VVBG
p12312
sbag5
(g6
g7
(lp12313
g5
(g6
g7
(lp12314
Vthe
p12315
atp12316
Rp12317
(dp12318
g17
VDT
p12319
sbag5
(g6
g7
(lp12320
Vfacts
p12321
atp12322
Rp12323
(dp12324
g17
VNNS
p12325
sbatp12326
Rp12327
(dp12328
g17
VNP
p12329
sbag5
(g6
g7
(lp12330
g5
(g6
g7
(lp12331
Vabout
p12332
atp12333
Rp12334
(dp12335
g17
VIN
p12336
sbag5
(g6
g7
(lp12337
g5
(g6
g7
(lp12338
Vwhether
p12339
atp12340
Rp12341
(dp12342
g17
VIN
p12343
sbag5
(g6
g7
(lp12344
g5
(g6
g7
(lp12345
g5
(g6
g7
(lp12346
Van
p12347
atp12348
Rp12349
(dp12350
g17
VDT
p12351
sbag5
(g6
g7
(lp12352
Vobject
p12353
atp12354
Rp12355
(dp12356
g17
VNN
p12357
sbatp12358
Rp12359
(dp12360
g17
VNP
p12361
sbag5
(g6
g7
(lp12362
g5
(g6
g7
(lp12363
Vcan
p12364
atp12365
Rp12366
(dp12367
g17
VMD
p12368
sbag5
(g6
g7
(lp12369
g5
(g6
g7
(lp12370
Vfly
p12371
atp12372
Rp12373
(dp12374
g17
VVB
p12375
sbag5
(g6
g7
(lp12376
g5
(g6
g7
(lp12377
Vin
p12378
atp12379
Rp12380
(dp12381
g17
VIN
p12382
sbag5
(g6
g7
(lp12383
g5
(g6
g7
(lp12384
g5
(g6
g7
(lp12385
g394
atp12386
Rp12387
(dp12388
g17
VDT
p12389
sbag5
(g6
g7
(lp12390
Vdatabase
p12391
atp12392
Rp12393
(dp12394
g17
VNN
p12395
sbatp12396
Rp12397
(dp12398
g17
VNP
p12399
sbag5
(g6
g7
(lp12400
g5
(g6
g7
(lp12401
Vof
p12402
atp12403
Rp12404
(dp12405
g17
VIN
p12406
sbag5
(g6
g7
(lp12407
g5
(g6
g7
(lp12408
Vcommon
p12409
atp12410
Rp12411
(dp12412
g17
VJJ
p12413
sbag5
(g6
g7
(lp12414
Vsense
p12415
atp12416
Rp12417
(dp12418
g17
VNN
p12419
sbag5
(g6
g7
(lp12420
Vknowledge
p12421
atp12422
Rp12423
(dp12424
g17
VNN
p12425
sbatp12426
Rp12427
(dp12428
g17
VNP
p12429
sbatp12430
Rp12431
(dp12432
g17
VPP
p12433
sbatp12434
Rp12435
(dp12436
g17
VNP
p12437
sbatp12438
Rp12439
(dp12440
g17
VPP
p12441
sbatp12442
Rp12443
(dp12444
g17
VVP
p12445
sbatp12446
Rp12447
(dp12448
g17
VVP
p12449
sbatp12450
Rp12451
(dp12452
g17
g169
sbatp12453
Rp12454
(dp12455
g17
VSBAR
p12456
sbatp12457
Rp12458
(dp12459
g17
VPP
p12460
sbatp12461
Rp12462
(dp12463
g17
VVP
p12464
sbatp12465
Rp12466
(dp12467
g17
g169
sbatp12468
Rp12469
(dp12470
g17
VVP
p12471
sbag5
(g6
g7
(lp12472
g198
atp12473
Rp12474
(dp12475
g17
g198
sbatp12476
Rp12477
(dp12478
g17
g169
sbatp12479
Rp12480
(dp12481
g17
VROOT
p12482
sbasg209
(icmyPackage
CorE
p12483
(dp12484
g212
(lp12485
(I1
I1
tp12486
a(I1
I21
tp12487
asg215
g5
(g6
g7
(lp12488
g12287
ag12296
ag12469
ag12474
atp12489
Rp12490
(dp12491
g17
g226
sbsbsg216
(icmyPackage
CorE
p12492
(dp12493
g212
(lp12494
(I0
I0
tp12495
a(I0
I19
tp12496
asg215
g12239
sbsg227
g4649
sg264
(lp12497
g12257
a(icmyPackage
Sent
p12498
(dp12499
g268
I3
sg269
I34
sg270
S'As an example, consider representing the facts about whether an object can fly in a database of common sense knowledge.'
p12500
sg272
I0
sg273
I146
sg215
(lp12501
g12480
asbasba(icmyPackage
CELink
p12502
(dp12503
g3
(lp12504
g5
(g6
g7
(lp12505
g5
(g6
g7
(lp12506
g5
(g6
g7
(lp12507
g5
(g6
g7
(lp12508
VCircumscription
p12509
atp12510
Rp12511
(dp12512
g17
VNNP
p12513
sbatp12514
Rp12515
(dp12516
g17
VNP
p12517
sbag5
(g6
g7
(lp12518
g5
(g6
g7
(lp12519
Vallows
p12520
atp12521
Rp12522
(dp12523
g17
VVBZ
p12524
sbag5
(g6
g7
(lp12525
g5
(g6
g7
(lp12526
g5
(g6
g7
(lp12527
Vus
p12528
atp12529
Rp12530
(dp12531
g17
VPRP
p12532
sbatp12533
Rp12534
(dp12535
g17
VNP
p12536
sbag5
(g6
g7
(lp12537
g5
(g6
g7
(lp12538
Vto
p12539
atp12540
Rp12541
(dp12542
g17
VTO
p12543
sbag5
(g6
g7
(lp12544
g5
(g6
g7
(lp12545
Vexpress
p12546
atp12547
Rp12548
(dp12549
g17
VVB
p12550
sbag5
(g6
g7
(lp12551
g5
(g6
g7
(lp12552
Vthe
p12553
atp12554
Rp12555
(dp12556
g17
VDT
p12557
sbag5
(g6
g7
(lp12558
Vassumption
p12559
atp12560
Rp12561
(dp12562
g17
VNN
p12563
sbatp12564
Rp12565
(dp12566
g17
VNP
p12567
sbag5
(g6
g7
(lp12568
g5
(g6
g7
(lp12569
Vthat
p12570
atp12571
Rp12572
(dp12573
g17
VIN
p12574
sbag5
(g6
g7
(lp12575
g5
(g6
g7
(lp12576
g5
(g6
g7
(lp12577
Vonly
p12578
atp12579
Rp12580
(dp12581
g17
VRB
p12582
sbag5
(g6
g7
(lp12583
Vthose
p12584
atp12585
Rp12586
(dp12587
g17
VDT
p12588
sbag5
(g6
g7
(lp12589
Vobjects
p12590
atp12591
Rp12592
(dp12593
g17
VNNS
p12594
sbatp12595
Rp12596
(dp12597
g17
VNP
p12598
sbag5
(g6
g7
(lp12599
g5
(g6
g7
(lp12600
Vcan
p12601
atp12602
Rp12603
(dp12604
g17
VMD
p12605
sbag5
(g6
g7
(lp12606
g5
(g6
g7
(lp12607
Vfly
p12608
atp12609
Rp12610
(dp12611
g17
VVB
p12612
sbag5
(g6
g7
(lp12613
g5
(g6
g7
(lp12614
Vfor
p12615
atp12616
Rp12617
(dp12618
g17
VIN
p12619
sbag5
(g6
g7
(lp12620
g5
(g6
g7
(lp12621
g5
(g6
g7
(lp12622
Vwhich
p12623
atp12624
Rp12625
(dp12626
g17
VWDT
p12627
sbatp12628
Rp12629
(dp12630
g17
VWHNP
p12631
sbag5
(g6
g7
(lp12632
g5
(g6
g7
(lp12633
g5
(g6
g7
(lp12634
Vthere
p12635
atp12636
Rp12637
(dp12638
g17
VEX
p12639
sbatp12640
Rp12641
(dp12642
g17
VNP
p12643
sbag5
(g6
g7
(lp12644
g5
(g6
g7
(lp12645
Vis
p12646
atp12647
Rp12648
(dp12649
g17
VVBZ
p12650
sbag5
(g6
g7
(lp12651
g5
(g6
g7
(lp12652
g5
(g6
g7
(lp12653
g394
atp12654
Rp12655
(dp12656
g17
VDT
p12657
sbag5
(g6
g7
(lp12658
Vpositive
p12659
atp12660
Rp12661
(dp12662
g17
VJJ
p12663
sbag5
(g6
g7
(lp12664
Vstatement
p12665
atp12666
Rp12667
(dp12668
g17
VNN
p12669
sbatp12670
Rp12671
(dp12672
g17
VNP
p12673
sbag5
(g6
g7
(lp12674
g5
(g6
g7
(lp12675
Vabout
p12676
atp12677
Rp12678
(dp12679
g17
VIN
p12680
sbag5
(g6
g7
(lp12681
g5
(g6
g7
(lp12682
Vit
p12683
atp12684
Rp12685
(dp12686
g17
VPRP
p12687
sbatp12688
Rp12689
(dp12690
g17
VNP
p12691
sbatp12692
Rp12693
(dp12694
g17
VPP
p12695
sbatp12696
Rp12697
(dp12698
g17
VNP
p12699
sbatp12700
Rp12701
(dp12702
g17
VVP
p12703
sbatp12704
Rp12705
(dp12706
g17
g169
sbatp12707
Rp12708
(dp12709
g17
VSBAR
p12710
sbatp12711
Rp12712
(dp12713
g17
VPP
p12714
sbatp12715
Rp12716
(dp12717
g17
VVP
p12718
sbatp12719
Rp12720
(dp12721
g17
VVP
p12722
sbatp12723
Rp12724
(dp12725
g17
g169
sbatp12726
Rp12727
(dp12728
g17
VSBAR
p12729
sbatp12730
Rp12731
(dp12732
g17
VVP
p12733
sbatp12734
Rp12735
(dp12736
g17
VVP
p12737
sbatp12738
Rp12739
(dp12740
g17
g169
sbatp12741
Rp12742
(dp12743
g17
VVP
p12744
sbag5
(g6
g7
(lp12745
g198
atp12746
Rp12747
(dp12748
g17
g198
sbatp12749
Rp12750
(dp12751
g17
g169
sbatp12752
Rp12753
(dp12754
g17
VROOT
p12755
sbag5
(g6
g7
(lp12756
g5
(g6
g7
(lp12757
g5
(g6
g7
(lp12758
g5
(g6
g7
(lp12759
VThus
p12760
atp12761
Rp12762
(dp12763
g17
VRB
p12764
sbatp12765
Rp12766
(dp12767
g17
VADVP
p12768
sbag5
(g6
g7
(lp12769
g5
(g6
g7
(lp12770
Vthere
p12771
atp12772
Rp12773
(dp12774
g17
VEX
p12775
sbatp12776
Rp12777
(dp12778
g17
VNP
p12779
sbag5
(g6
g7
(lp12780
g5
(g6
g7
(lp12781
Vwill
p12782
atp12783
Rp12784
(dp12785
g17
VMD
p12786
sbag5
(g6
g7
(lp12787
g5
(g6
g7
(lp12788
Vbe
p12789
atp12790
Rp12791
(dp12792
g17
VVB
p12793
sbag5
(g6
g7
(lp12794
g5
(g6
g7
(lp12795
g5
(g6
g7
(lp12796
g5
(g6
g7
(lp12797
Vpositive
p12798
atp12799
Rp12800
(dp12801
g17
VJJ
p12802
sbag5
(g6
g7
(lp12803
Vstatements
p12804
atp12805
Rp12806
(dp12807
g17
VNNS
p12808
sbatp12809
Rp12810
(dp12811
g17
VNP
p12812
sbag5
(g6
g7
(lp12813
g5
(g6
g7
(lp12814
Vthat
p12815
atp12816
Rp12817
(dp12818
g17
VIN
p12819
sbag5
(g6
g7
(lp12820
g5
(g6
g7
(lp12821
g5
(g6
g7
(lp12822
Vbirds
p12823
atp12824
Rp12825
(dp12826
g17
VNNS
p12827
sbag5
(g6
g7
(lp12828
Vand
p12829
atp12830
Rp12831
(dp12832
g17
VCC
p12833
sbag5
(g6
g7
(lp12834
Vairplanes
p12835
atp12836
Rp12837
(dp12838
g17
VNNS
p12839
sbatp12840
Rp12841
(dp12842
g17
VNP
p12843
sbag5
(g6
g7
(lp12844
g5
(g6
g7
(lp12845
Vcan
p12846
atp12847
Rp12848
(dp12849
g17
VMD
p12850
sbag5
(g6
g7
(lp12851
g5
(g6
g7
(lp12852
Vfly
p12853
atp12854
Rp12855
(dp12856
g17
VVB
p12857
sbatp12858
Rp12859
(dp12860
g17
VVP
p12861
sbatp12862
Rp12863
(dp12864
g17
VVP
p12865
sbatp12866
Rp12867
(dp12868
g17
g169
sbatp12869
Rp12870
(dp12871
g17
VSBAR
p12872
sbatp12873
Rp12874
(dp12875
g17
VNP
p12876
sbag5
(g6
g7
(lp12877
Vand
p12878
atp12879
Rp12880
(dp12881
g17
VCC
p12882
sbag5
(g6
g7
(lp12883
g5
(g6
g7
(lp12884
g5
(g6
g7
(lp12885
Vno
p12886
atp12887
Rp12888
(dp12889
g17
VDT
p12890
sbag5
(g6
g7
(lp12891
Vstatement
p12892
atp12893
Rp12894
(dp12895
g17
VNN
p12896
sbatp12897
Rp12898
(dp12899
g17
VNP
p12900
sbag5
(g6
g7
(lp12901
g5
(g6
g7
(lp12902
Vthat
p12903
atp12904
Rp12905
(dp12906
g17
VIN
p12907
sbag5
(g6
g7
(lp12908
g5
(g6
g7
(lp12909
g5
(g6
g7
(lp12910
Vcamels
p12911
atp12912
Rp12913
(dp12914
g17
VNNS
p12915
sbatp12916
Rp12917
(dp12918
g17
VNP
p12919
sbag5
(g6
g7
(lp12920
g5
(g6
g7
(lp12921
Vcan
p12922
atp12923
Rp12924
(dp12925
g17
VMD
p12926
sbag5
(g6
g7
(lp12927
g5
(g6
g7
(lp12928
Vfly
p12929
atp12930
Rp12931
(dp12932
g17
VVB
p12933
sbatp12934
Rp12935
(dp12936
g17
VVP
p12937
sbatp12938
Rp12939
(dp12940
g17
VVP
p12941
sbatp12942
Rp12943
(dp12944
g17
g169
sbatp12945
Rp12946
(dp12947
g17
VSBAR
p12948
sbatp12949
Rp12950
(dp12951
g17
VNP
p12952
sbatp12953
Rp12954
(dp12955
g17
VNP
p12956
sbatp12957
Rp12958
(dp12959
g17
VVP
p12960
sbatp12961
Rp12962
(dp12963
g17
VVP
p12964
sbag5
(g6
g7
(lp12965
g198
atp12966
Rp12967
(dp12968
g17
g198
sbatp12969
Rp12970
(dp12971
g17
g169
sbatp12972
Rp12973
(dp12974
g17
VROOT
p12975
sbasg209
(icmyPackage
CorE
p12976
(dp12977
g212
(lp12978
(I0
I0
tp12979
a(I0
I21
tp12980
asg215
g5
(g6
g7
(lp12981
g12515
ag12742
atp12982
Rp12983
(dp12984
g17
g226
sbsbsg216
(icmyPackage
CorE
p12985
(dp12986
g212
(lp12987
(I1
I1
tp12988
a(I1
I19
tp12989
asg215
g5
(g6
g7
(lp12990
g12777
ag12962
ag12967
atp12991
Rp12992
(dp12993
g17
g226
sbsbsg227
g8748
sg264
(lp12994
(icmyPackage
Sent
p12995
(dp12996
g268
I3
sg269
I34
sg270
S'Circumscription allows us to express the assumption that only those objects can fly for which there is a positive statement about it.'
p12997
sg272
I0
sg273
I148
sg215
(lp12998
g12753
asba(icmyPackage
Sent
p12999
(dp13000
g268
I3
sg269
I34
sg270
S'Thus there will be positive statements that birds and airplanes can fly and no statement that camels can fly.'
p13001
sg272
I0
sg273
I149
sg215
(lp13002
g12973
asbasba(icmyPackage
CELink
p13003
(dp13004
g3
(lp13005
g5
(g6
g7
(lp13006
g5
(g6
g7
(lp13007
g5
(g6
g7
(lp13008
g5
(g6
g7
(lp13009
VSince
p13010
atp13011
Rp13012
(dp13013
g17
VIN
p13014
sbag5
(g6
g7
(lp13015
g5
(g6
g7
(lp13016
g5
(g6
g7
(lp13017
Vwe
p13018
atp13019
Rp13020
(dp13021
g17
VPRP
p13022
sbatp13023
Rp13024
(dp13025
g17
VNP
p13026
sbag5
(g6
g7
(lp13027
g5
(g6
g7
(lp13028
Vdo
p13029
atp13030
Rp13031
(dp13032
g17
VVBP
p13033
sbag5
(g6
g7
(lp13034
Vn't
p13035
atp13036
Rp13037
(dp13038
g17
VRB
p13039
sbag5
(g6
g7
(lp13040
g5
(g6
g7
(lp13041
Vinclude
p13042
atp13043
Rp13044
(dp13045
g17
VVB
p13046
sbag5
(g6
g7
(lp13047
g5
(g6
g7
(lp13048
Vnegative
p13049
atp13050
Rp13051
(dp13052
g17
VJJ
p13053
sbag5
(g6
g7
(lp13054
Vstatements
p13055
atp13056
Rp13057
(dp13058
g17
VNNS
p13059
sbatp13060
Rp13061
(dp13062
g17
VNP
p13063
sbag5
(g6
g7
(lp13064
g5
(g6
g7
(lp13065
Vin
p13066
atp13067
Rp13068
(dp13069
g17
VIN
p13070
sbag5
(g6
g7
(lp13071
g5
(g6
g7
(lp13072
Vthe
p13073
atp13074
Rp13075
(dp13076
g17
VDT
p13077
sbag5
(g6
g7
(lp13078
Vdatabase
p13079
atp13080
Rp13081
(dp13082
g17
VNN
p13083
sbatp13084
Rp13085
(dp13086
g17
VNP
p13087
sbatp13088
Rp13089
(dp13090
g17
VPP
p13091
sbatp13092
Rp13093
(dp13094
g17
VVP
p13095
sbatp13096
Rp13097
(dp13098
g17
VVP
p13099
sbatp13100
Rp13101
(dp13102
g17
g169
sbatp13103
Rp13104
(dp13105
g17
VSBAR
p13106
sbag5
(g6
g7
(lp13107
g601
atp13108
Rp13109
(dp13110
g17
g601
sbag5
(g6
g7
(lp13111
g5
(g6
g7
(lp13112
Vwe
p13113
atp13114
Rp13115
(dp13116
g17
VPRP
p13117
sbatp13118
Rp13119
(dp13120
g17
VNP
p13121
sbag5
(g6
g7
(lp13122
g5
(g6
g7
(lp13123
Vcould
p13124
atp13125
Rp13126
(dp13127
g17
VMD
p13128
sbag5
(g6
g7
(lp13129
g5
(g6
g7
(lp13130
Vprovide
p13131
atp13132
Rp13133
(dp13134
g17
VVB
p13135
sbag5
(g6
g7
(lp13136
g5
(g6
g7
(lp13137
Vfor
p13138
atp13139
Rp13140
(dp13141
g17
VIN
p13142
sbag5
(g6
g7
(lp13143
g5
(g6
g7
(lp13144
Vflying
p13145
atp13146
Rp13147
(dp13148
g17
VVBG
p13149
sbag5
(g6
g7
(lp13150
Vcamels
p13151
atp13152
Rp13153
(dp13154
g17
VNNS
p13155
sbatp13156
Rp13157
(dp13158
g17
VNP
p13159
sbatp13160
Rp13161
(dp13162
g17
VPP
p13163
sbag5
(g6
g7
(lp13164
g601
atp13165
Rp13166
(dp13167
g17
g601
sbag5
(g6
g7
(lp13168
g5
(g6
g7
(lp13169
Vif
p13170
atp13171
Rp13172
(dp13173
g17
VIN
p13174
sbag5
(g6
g7
(lp13175
g5
(g6
g7
(lp13176
g5
(g6
g7
(lp13177
Vthere
p13178
atp13179
Rp13180
(dp13181
g17
VEX
p13182
sbatp13183
Rp13184
(dp13185
g17
VNP
p13186
sbag5
(g6
g7
(lp13187
g5
(g6
g7
(lp13188
Vwere
p13189
atp13190
Rp13191
(dp13192
g17
VVBD
p13193
sbag5
(g6
g7
(lp13194
g5
(g6
g7
(lp13195
Vany
p13196
atp13197
Rp13198
(dp13199
g17
VDT
p13200
sbatp13201
Rp13202
(dp13203
g17
VNP
p13204
sbag5
(g6
g7
(lp13205
g601
atp13206
Rp13207
(dp13208
g17
g601
sbag5
(g6
g7
(lp13209
g5
(g6
g7
(lp13210
Vby
p13211
atp13212
Rp13213
(dp13214
g17
VIN
p13215
sbag5
(g6
g7
(lp13216
g5
(g6
g7
(lp13217
g5
(g6
g7
(lp13218
Vadding
p13219
atp13220
Rp13221
(dp13222
g17
VVBG
p13223
sbag5
(g6
g7
(lp13224
g5
(g6
g7
(lp13225
Vstatements
p13226
atp13227
Rp13228
(dp13229
g17
VNNS
p13230
sbatp13231
Rp13232
(dp13233
g17
VNP
p13234
sbag5
(g6
g7
(lp13235
g5
(g6
g7
(lp13236
Vwithout
p13237
atp13238
Rp13239
(dp13240
g17
VIN
p13241
sbag5
(g6
g7
(lp13242
g5
(g6
g7
(lp13243
g5
(g6
g7
(lp13244
Vremoving
p13245
atp13246
Rp13247
(dp13248
g17
VVBG
p13249
sbag5
(g6
g7
(lp13250
g5
(g6
g7
(lp13251
Vexisting
p13252
atp13253
Rp13254
(dp13255
g17
VVBG
p13256
sbag5
(g6
g7
(lp13257
Vstatements
p13258
atp13259
Rp13260
(dp13261
g17
VNNS
p13262
sbatp13263
Rp13264
(dp13265
g17
VNP
p13266
sbatp13267
Rp13268
(dp13269
g17
VVP
p13270
sbatp13271
Rp13272
(dp13273
g17
g169
sbatp13274
Rp13275
(dp13276
g17
VPP
p13277
sbatp13278
Rp13279
(dp13280
g17
VVP
p13281
sbatp13282
Rp13283
(dp13284
g17
g169
sbatp13285
Rp13286
(dp13287
g17
VPP
p13288
sbatp13289
Rp13290
(dp13291
g17
VVP
p13292
sbatp13293
Rp13294
(dp13295
g17
g169
sbatp13296
Rp13297
(dp13298
g17
VSBAR
p13299
sbatp13300
Rp13301
(dp13302
g17
VVP
p13303
sbatp13304
Rp13305
(dp13306
g17
VVP
p13307
sbag5
(g6
g7
(lp13308
g198
atp13309
Rp13310
(dp13311
g17
g198
sbatp13312
Rp13313
(dp13314
g17
g169
sbatp13315
Rp13316
(dp13317
g17
VROOT
p13318
sbasg209
(icmyPackage
CorE
p13319
(dp13320
g212
(lp13321
(I0
I1
tp13322
a(I0
I9
tp13323
asg215
g13101
sbsg216
(icmyPackage
CorE
p13324
(dp13325
g212
(lp13326
(I0
I11
tp13327
a(I0
I30
tp13328
asg215
g5
(g6
g7
(lp13329
g13119
ag13305
ag13310
atp13330
Rp13331
(dp13332
g17
g226
sbsbsg227
g5268
sg264
(lp13333
(icmyPackage
Sent
p13334
(dp13335
g268
I3
sg269
I34
sg270
S"Since we don't include negative statements in the database, we could provide for flying camels, if there were any, by adding statements without removing existing statements."
p13336
sg272
I0
sg273
I150
sg215
(lp13337
g13316
asbasba(icmyPackage
CELink
p13338
(dp13339
g3
(lp13340
g13331
asg209
(icmyPackage
CorE
p13341
(dp13342
g212
(lp13343
(I0
I8
tp13344
a(I0
I19
tp13345
asg215
g5
(g6
g7
(lp13346
g13294
ag13310
atp13347
Rp13348
(dp13349
g17
g226
sbsbsg216
(icmyPackage
CorE
p13350
(dp13351
g212
(lp13352
(I0
I0
tp13353
a(I0
I6
tp13354
asg215
g5
(g6
g7
(lp13355
g13119
ag13126
ag13133
ag13161
ag13166
atp13356
Rp13357
(dp13358
g17
g226
sbsbsg227
g3367
sg264
(lp13359
g13334
asba(icmyPackage
CELink
p13360
(dp13361
g3
(lp13362
g13348
asg209
(icmyPackage
CorE
p13363
(dp13364
g212
(lp13365
(I0
I5
tp13366
a(I0
I10
tp13367
asg215
g13283
sbsg216
(icmyPackage
CorE
p13368
(dp13369
g212
(lp13370
(I0
I0
tp13371
a(I0
I3
tp13372
asg215
g5
(g6
g7
(lp13373
g13184
ag13191
ag13202
ag13207
atp13374
Rp13375
(dp13376
g17
g226
sbsbsg227
g1000
sg264
(lp13377
g13334
asba(icmyPackage
CELink
p13378
(dp13379
g3
(lp13380
g5
(g6
g7
(lp13381
g5
(g6
g7
(lp13382
g5
(g6
g7
(lp13383
g5
(g6
g7
(lp13384
g5
(g6
g7
(lp13385
VSuppose
p13386
atp13387
Rp13388
(dp13389
g17
VVB
p13390
sbag5
(g6
g7
(lp13391
g5
(g6
g7
(lp13392
g5
(g6
g7
(lp13393
g282
atp13394
Rp13395
(dp13396
g17
VPRP
p13397
sbatp13398
Rp13399
(dp13400
g17
VNP
p13401
sbag5
(g6
g7
(lp13402
g5
(g6
g7
(lp13403
Vhire
p13404
atp13405
Rp13406
(dp13407
g17
VVB
p13408
sbag5
(g6
g7
(lp13409
g5
(g6
g7
(lp13410
g5
(g6
g7
(lp13411
Vyou
p13412
atp13413
Rp13414
(dp13415
g17
VPRP
p13416
sbatp13417
Rp13418
(dp13419
g17
VNP
p13420
sbag5
(g6
g7
(lp13421
g5
(g6
g7
(lp13422
Vto
p13423
atp13424
Rp13425
(dp13426
g17
VTO
p13427
sbag5
(g6
g7
(lp13428
g5
(g6
g7
(lp13429
Vbuild
p13430
atp13431
Rp13432
(dp13433
g17
VVB
p13434
sbag5
(g6
g7
(lp13435
g5
(g6
g7
(lp13436
g5
(g6
g7
(lp13437
Vme
p13438
atp13439
Rp13440
(dp13441
g17
VPRP
p13442
sbatp13443
Rp13444
(dp13445
g17
VNP
p13446
sbag5
(g6
g7
(lp13447
g5
(g6
g7
(lp13448
g394
atp13449
Rp13450
(dp13451
g17
VDT
p13452
sbag5
(g6
g7
(lp13453
Vbird
p13454
atp13455
Rp13456
(dp13457
g17
VNN
p13458
sbag5
(g6
g7
(lp13459
Vcage
p13460
atp13461
Rp13462
(dp13463
g17
VNN
p13464
sbatp13465
Rp13466
(dp13467
g17
VNP
p13468
sbatp13469
Rp13470
(dp13471
g17
g169
sbatp13472
Rp13473
(dp13474
g17
VVP
p13475
sbatp13476
Rp13477
(dp13478
g17
VVP
p13479
sbatp13480
Rp13481
(dp13482
g17
g169
sbatp13483
Rp13484
(dp13485
g17
VVP
p13486
sbatp13487
Rp13488
(dp13489
g17
g169
sbatp13490
Rp13491
(dp13492
g17
VVP
p13493
sbatp13494
Rp13495
(dp13496
g17
g169
sbag5
(g6
g7
(lp13497
g601
atp13498
Rp13499
(dp13500
g17
g601
sbag5
(g6
g7
(lp13501
Vand
p13502
atp13503
Rp13504
(dp13505
g17
VCC
p13506
sbag5
(g6
g7
(lp13507
g5
(g6
g7
(lp13508
g5
(g6
g7
(lp13509
Vyou
p13510
atp13511
Rp13512
(dp13513
g17
VPRP
p13514
sbatp13515
Rp13516
(dp13517
g17
VNP
p13518
sbag5
(g6
g7
(lp13519
g5
(g6
g7
(lp13520
Vbuild
p13521
atp13522
Rp13523
(dp13524
g17
VVBP
p13525
sbag5
(g6
g7
(lp13526
g5
(g6
g7
(lp13527
Vit
p13528
atp13529
Rp13530
(dp13531
g17
VPRP
p13532
sbatp13533
Rp13534
(dp13535
g17
VNP
p13536
sbag5
(g6
g7
(lp13537
g5
(g6
g7
(lp13538
Vwithout
p13539
atp13540
Rp13541
(dp13542
g17
VIN
p13543
sbag5
(g6
g7
(lp13544
g5
(g6
g7
(lp13545
g394
atp13546
Rp13547
(dp13548
g17
VDT
p13549
sbag5
(g6
g7
(lp13550
Vtop
p13551
atp13552
Rp13553
(dp13554
g17
VNN
p13555
sbatp13556
Rp13557
(dp13558
g17
VNP
p13559
sbatp13560
Rp13561
(dp13562
g17
VPP
p13563
sbatp13564
Rp13565
(dp13566
g17
VVP
p13567
sbatp13568
Rp13569
(dp13570
g17
g169
sbag5
(g6
g7
(lp13571
g601
atp13572
Rp13573
(dp13574
g17
g601
sbag5
(g6
g7
(lp13575
Vand
p13576
atp13577
Rp13578
(dp13579
g17
VCC
p13580
sbag5
(g6
g7
(lp13581
g5
(g6
g7
(lp13582
g5
(g6
g7
(lp13583
g282
atp13584
Rp13585
(dp13586
g17
VPRP
p13587
sbatp13588
Rp13589
(dp13590
g17
VNP
p13591
sbag5
(g6
g7
(lp13592
g5
(g6
g7
(lp13593
Vrefuse
p13594
atp13595
Rp13596
(dp13597
g17
VVBP
p13598
sbag5
(g6
g7
(lp13599
g5
(g6
g7
(lp13600
g5
(g6
g7
(lp13601
Vto
p13602
atp13603
Rp13604
(dp13605
g17
VTO
p13606
sbag5
(g6
g7
(lp13607
g5
(g6
g7
(lp13608
Vpay
p13609
atp13610
Rp13611
(dp13612
g17
VVB
p13613
sbag5
(g6
g7
(lp13614
g5
(g6
g7
(lp13615
Von
p13616
atp13617
Rp13618
(dp13619
g17
VIN
p13620
sbag5
(g6
g7
(lp13621
g5
(g6
g7
(lp13622
Vthe
p13623
atp13624
Rp13625
(dp13626
g17
VDT
p13627
sbag5
(g6
g7
(lp13628
Vgrounds
p13629
atp13630
Rp13631
(dp13632
g17
VNNS
p13633
sbatp13634
Rp13635
(dp13636
g17
VNP
p13637
sbatp13638
Rp13639
(dp13640
g17
VPP
p13641
sbag5
(g6
g7
(lp13642
g5
(g6
g7
(lp13643
Vthat
p13644
atp13645
Rp13646
(dp13647
g17
VIN
p13648
sbag5
(g6
g7
(lp13649
g5
(g6
g7
(lp13650
g5
(g6
g7
(lp13651
Vmy
p13652
atp13653
Rp13654
(dp13655
g17
VPRP$
p13656
sbag5
(g6
g7
(lp13657
Vbird
p13658
atp13659
Rp13660
(dp13661
g17
VNN
p13662
sbatp13663
Rp13664
(dp13665
g17
VNP
p13666
sbag5
(g6
g7
(lp13667
g5
(g6
g7
(lp13668
Vmight
p13669
atp13670
Rp13671
(dp13672
g17
VMD
p13673
sbag5
(g6
g7
(lp13674
g5
(g6
g7
(lp13675
Vfly
p13676
atp13677
Rp13678
(dp13679
g17
VVB
p13680
sbag5
(g6
g7
(lp13681
g5
(g6
g7
(lp13682
Vaway
p13683
atp13684
Rp13685
(dp13686
g17
VRP
p13687
sbatp13688
Rp13689
(dp13690
g17
VPRT
p13691
sbatp13692
Rp13693
(dp13694
g17
VVP
p13695
sbatp13696
Rp13697
(dp13698
g17
VVP
p13699
sbatp13700
Rp13701
(dp13702
g17
g169
sbatp13703
Rp13704
(dp13705
g17
VSBAR
p13706
sbatp13707
Rp13708
(dp13709
g17
VVP
p13710
sbatp13711
Rp13712
(dp13713
g17
VVP
p13714
sbatp13715
Rp13716
(dp13717
g17
g169
sbatp13718
Rp13719
(dp13720
g17
VVP
p13721
sbatp13722
Rp13723
(dp13724
g17
g169
sbag5
(g6
g7
(lp13725
g198
atp13726
Rp13727
(dp13728
g17
g198
sbatp13729
Rp13730
(dp13731
g17
g169
sbatp13732
Rp13733
(dp13734
g17
VROOT
p13735
sbasg209
(icmyPackage
CorE
p13736
(dp13737
g212
(lp13738
(I0
I28
tp13739
a(I0
I33
tp13740
asg215
g5
(g6
g7
(lp13741
g13701
ag13727
atp13742
Rp13743
(dp13744
g17
g226
sbsbsg216
(icmyPackage
CorE
p13745
(dp13746
g212
(lp13747
(I0
I0
tp13748
a(I0
I23
tp13749
asg215
g5
(g6
g7
(lp13750
g13495
ag13499
ag13504
ag13569
ag13573
ag13578
ag13589
ag13596
ag13604
ag13611
atp13751
Rp13752
(dp13753
g17
g226
sbsbsg227
(icmyPackage
pattern
p13754
(dp13755
g230
I3
sg231
I0
sg232
(lp13756
(lp13757
S'on'
p13758
aS'the'
p13759
a(lp13760
S'ground'
p13761
aS'grounds'
p13762
aaS'that'
p13763
aasg245
(lp13764
I1
aI2
aI1
asg247
(lp13765
S'I came to see you on the ground that your father said you were in trouble.'
p13766
asg250
I38
sg251
(lp13767
(lp13768
S'&R'
p13769
aS'(,)'
p13770
aa(lp13771
S'&C'
p13772
aasbsg264
(lp13773
(icmyPackage
Sent
p13774
(dp13775
g268
I3
sg269
I35
sg270
S'Suppose I hire you to build me a bird cage, and you build it without a top, and I refuse to pay on the grounds that my bird might fly away.'
p13776
sg272
I0
sg273
I157
sg215
(lp13777
g13733
asbasba(icmyPackage
CELink
p13778
(dp13779
g3
(lp13780
g5
(g6
g7
(lp13781
g5
(g6
g7
(lp13782
g5
(g6
g7
(lp13783
g5
(g6
g7
(lp13784
g5
(g6
g7
(lp13785
VOn
p13786
atp13787
Rp13788
(dp13789
g17
VIN
p13790
sbag5
(g6
g7
(lp13791
g5
(g6
g7
(lp13792
Vthe
p13793
atp13794
Rp13795
(dp13796
g17
VDT
p13797
sbag5
(g6
g7
(lp13798
Vother
p13799
atp13800
Rp13801
(dp13802
g17
VJJ
p13803
sbag5
(g6
g7
(lp13804
Vhand
p13805
atp13806
Rp13807
(dp13808
g17
VNN
p13809
sbatp13810
Rp13811
(dp13812
g17
VNP
p13813
sbatp13814
Rp13815
(dp13816
g17
VPP
p13817
sbag5
(g6
g7
(lp13818
g5
(g6
g7
(lp13819
Vsuppose
p13820
atp13821
Rp13822
(dp13823
g17
VVBP
p13824
sbag5
(g6
g7
(lp13825
g5
(g6
g7
(lp13826
g5
(g6
g7
(lp13827
Vyou
p13828
atp13829
Rp13830
(dp13831
g17
VPRP
p13832
sbatp13833
Rp13834
(dp13835
g17
VNP
p13836
sbag5
(g6
g7
(lp13837
g5
(g6
g7
(lp13838
Vbuild
p13839
atp13840
Rp13841
(dp13842
g17
VVB
p13843
sbag5
(g6
g7
(lp13844
g5
(g6
g7
(lp13845
Vit
p13846
atp13847
Rp13848
(dp13849
g17
VPRP
p13850
sbatp13851
Rp13852
(dp13853
g17
VNP
p13854
sbag5
(g6
g7
(lp13855
g5
(g6
g7
(lp13856
Vwith
p13857
atp13858
Rp13859
(dp13860
g17
VIN
p13861
sbag5
(g6
g7
(lp13862
g5
(g6
g7
(lp13863
g394
atp13864
Rp13865
(dp13866
g17
VDT
p13867
sbag5
(g6
g7
(lp13868
Vtop
p13869
atp13870
Rp13871
(dp13872
g17
VNN
p13873
sbatp13874
Rp13875
(dp13876
g17
VNP
p13877
sbatp13878
Rp13879
(dp13880
g17
VPP
p13881
sbatp13882
Rp13883
(dp13884
g17
VVP
p13885
sbatp13886
Rp13887
(dp13888
g17
g169
sbatp13889
Rp13890
(dp13891
g17
VVP
p13892
sbatp13893
Rp13894
(dp13895
g17
g169
sbag5
(g6
g7
(lp13896
g601
atp13897
Rp13898
(dp13899
g17
g601
sbag5
(g6
g7
(lp13900
Vand
p13901
atp13902
Rp13903
(dp13904
g17
VCC
p13905
sbag5
(g6
g7
(lp13906
g5
(g6
g7
(lp13907
g5
(g6
g7
(lp13908
g5
(g6
g7
(lp13909
g282
atp13910
Rp13911
(dp13912
g17
VPRP
p13913
sbatp13914
Rp13915
(dp13916
g17
VNP
p13917
sbag5
(g6
g7
(lp13918
g5
(g6
g7
(lp13919
Vrefuse
p13920
atp13921
Rp13922
(dp13923
g17
VVBP
p13924
sbag5
(g6
g7
(lp13925
g5
(g6
g7
(lp13926
g5
(g6
g7
(lp13927
Vto
p13928
atp13929
Rp13930
(dp13931
g17
VTO
p13932
sbag5
(g6
g7
(lp13933
g5
(g6
g7
(lp13934
Vpay
p13935
atp13936
Rp13937
(dp13938
g17
VVB
p13939
sbag5
(g6
g7
(lp13940
g5
(g6
g7
(lp13941
Vfull
p13942
atp13943
Rp13944
(dp13945
g17
VJJ
p13946
sbag5
(g6
g7
(lp13947
Vprice
p13948
atp13949
Rp13950
(dp13951
g17
VNN
p13952
sbatp13953
Rp13954
(dp13955
g17
VNP
p13956
sbag5
(g6
g7
(lp13957
g5
(g6
g7
(lp13958
Von
p13959
atp13960
Rp13961
(dp13962
g17
VIN
p13963
sbag5
(g6
g7
(lp13964
g5
(g6
g7
(lp13965
Vthe
p13966
atp13967
Rp13968
(dp13969
g17
VDT
p13970
sbag5
(g6
g7
(lp13971
Vgrounds
p13972
atp13973
Rp13974
(dp13975
g17
VNNS
p13976
sbatp13977
Rp13978
(dp13979
g17
VNP
p13980
sbatp13981
Rp13982
(dp13983
g17
VPP
p13984
sbag5
(g6
g7
(lp13985
g5
(g6
g7
(lp13986
Vthat
p13987
atp13988
Rp13989
(dp13990
g17
VIN
p13991
sbag5
(g6
g7
(lp13992
g5
(g6
g7
(lp13993
g5
(g6
g7
(lp13994
Vmy
p13995
atp13996
Rp13997
(dp13998
g17
VPRP$
p13999
sbag5
(g6
g7
(lp14000
Vbird
p14001
atp14002
Rp14003
(dp14004
g17
VNN
p14005
sbatp14006
Rp14007
(dp14008
g17
VNP
p14009
sbag5
(g6
g7
(lp14010
g5
(g6
g7
(lp14011
Vis
p14012
atp14013
Rp14014
(dp14015
g17
VVBZ
p14016
sbag5
(g6
g7
(lp14017
g5
(g6
g7
(lp14018
g394
atp14019
Rp14020
(dp14021
g17
VDT
p14022
sbag5
(g6
g7
(lp14023
Vpenguin
p14024
atp14025
Rp14026
(dp14027
g17
VNN
p14028
sbatp14029
Rp14030
(dp14031
g17
VNP
p14032
sbatp14033
Rp14034
(dp14035
g17
VVP
p14036
sbatp14037
Rp14038
(dp14039
g17
g169
sbatp14040
Rp14041
(dp14042
g17
VSBAR
p14043
sbatp14044
Rp14045
(dp14046
g17
VVP
p14047
sbatp14048
Rp14049
(dp14050
g17
VVP
p14051
sbatp14052
Rp14053
(dp14054
g17
g169
sbatp14055
Rp14056
(dp14057
g17
VVP
p14058
sbatp14059
Rp14060
(dp14061
g17
g169
sbag5
(g6
g7
(lp14062
g601
atp14063
Rp14064
(dp14065
g17
g601
sbag5
(g6
g7
(lp14066
Vand
p14067
atp14068
Rp14069
(dp14070
g17
VCC
p14071
sbag5
(g6
g7
(lp14072
g5
(g6
g7
(lp14073
g5
(g6
g7
(lp14074
Vthe
p14075
atp14076
Rp14077
(dp14078
g17
VDT
p14079
sbag5
(g6
g7
(lp14080
Vtop
p14081
atp14082
Rp14083
(dp14084
g17
VNN
p14085
sbatp14086
Rp14087
(dp14088
g17
VNP
p14089
sbag5
(g6
g7
(lp14090
g5
(g6
g7
(lp14091
Vis
p14092
atp14093
Rp14094
(dp14095
g17
VVBZ
p14096
sbag5
(g6
g7
(lp14097
g5
(g6
g7
(lp14098
g394
atp14099
Rp14100
(dp14101
g17
VDT
p14102
sbag5
(g6
g7
(lp14103
Vwaste
p14104
atp14105
Rp14106
(dp14107
g17
VNN
p14108
sbatp14109
Rp14110
(dp14111
g17
VNP
p14112
sbatp14113
Rp14114
(dp14115
g17
VVP
p14116
sbatp14117
Rp14118
(dp14119
g17
g169
sbatp14120
Rp14121
(dp14122
g17
g169
sbag5
(g6
g7
(lp14123
g198
atp14124
Rp14125
(dp14126
g17
g198
sbatp14127
Rp14128
(dp14129
g17
g169
sbatp14130
Rp14131
(dp14132
g17
VROOT
p14133
sbasg209
(icmyPackage
CorE
p14134
(dp14135
g212
(lp14136
(I0
I23
tp14137
a(I0
I35
tp14138
asg215
g5
(g6
g7
(lp14139
g14038
ag14064
ag14069
ag14118
ag14125
atp14140
Rp14141
(dp14142
g17
g226
sbsbsg216
(icmyPackage
CorE
p14143
(dp14144
g212
(lp14145
(I0
I0
tp14146
a(I0
I18
tp14147
asg215
g5
(g6
g7
(lp14148
g13894
ag13898
ag13903
ag13915
ag13922
ag13930
ag13937
ag13954
atp14149
Rp14150
(dp14151
g17
g226
sbsbsg227
g13754
sg264
(lp14152
(icmyPackage
Sent
p14153
(dp14154
g268
I3
sg269
I35
sg270
S'On the other hand suppose you build it with a top, and I refuse to pay full price on the grounds that my bird is a penguin, and the top is a waste.'
p14155
sg272
I0
sg273
I159
sg215
(lp14156
g14131
asbasba(icmyPackage
CELink
p14157
(dp14158
g3
(lp14159
g5
(g6
g7
(lp14160
g5
(g6
g7
(lp14161
g5
(g6
g7
(lp14162
g5
(g6
g7
(lp14163
VUnless
p14164
atp14165
Rp14166
(dp14167
g17
VIN
p14168
sbag5
(g6
g7
(lp14169
g5
(g6
g7
(lp14170
g5
(g6
g7
(lp14171
g282
atp14172
Rp14173
(dp14174
g17
VPRP
p14175
sbatp14176
Rp14177
(dp14178
g17
VNP
p14179
sbag5
(g6
g7
(lp14180
g5
(g6
g7
(lp14181
Vtold
p14182
atp14183
Rp14184
(dp14185
g17
VVBD
p14186
sbag5
(g6
g7
(lp14187
g5
(g6
g7
(lp14188
Vyou
p14189
atp14190
Rp14191
(dp14192
g17
VPRP
p14193
sbatp14194
Rp14195
(dp14196
g17
VNP
p14197
sbag5
(g6
g7
(lp14198
g5
(g6
g7
(lp14199
Vthat
p14200
atp14201
Rp14202
(dp14203
g17
VIN
p14204
sbag5
(g6
g7
(lp14205
g5
(g6
g7
(lp14206
g5
(g6
g7
(lp14207
Vmy
p14208
atp14209
Rp14210
(dp14211
g17
VPRP$
p14212
sbag5
(g6
g7
(lp14213
Vbird
p14214
atp14215
Rp14216
(dp14217
g17
VNN
p14218
sbatp14219
Rp14220
(dp14221
g17
VNP
p14222
sbag5
(g6
g7
(lp14223
g5
(g6
g7
(lp14224
Vcould
p14225
atp14226
Rp14227
(dp14228
g17
VMD
p14229
sbag5
(g6
g7
(lp14230
Vn't
p14231
atp14232
Rp14233
(dp14234
g17
VRB
p14235
sbag5
(g6
g7
(lp14236
g5
(g6
g7
(lp14237
Vfly
p14238
atp14239
Rp14240
(dp14241
g17
VVB
p14242
sbatp14243
Rp14244
(dp14245
g17
VVP
p14246
sbatp14247
Rp14248
(dp14249
g17
VVP
p14250
sbatp14251
Rp14252
(dp14253
g17
g169
sbatp14254
Rp14255
(dp14256
g17
VSBAR
p14257
sbatp14258
Rp14259
(dp14260
g17
VVP
p14261
sbatp14262
Rp14263
(dp14264
g17
g169
sbatp14265
Rp14266
(dp14267
g17
VSBAR
p14268
sbag5
(g6
g7
(lp14269
g601
atp14270
Rp14271
(dp14272
g17
g601
sbag5
(g6
g7
(lp14273
g5
(g6
g7
(lp14274
Vthe
p14275
atp14276
Rp14277
(dp14278
g17
VDT
p14279
sbag5
(g6
g7
(lp14280
Vjudge
p14281
atp14282
Rp14283
(dp14284
g17
VNN
p14285
sbatp14286
Rp14287
(dp14288
g17
VNP
p14289
sbag5
(g6
g7
(lp14290
g5
(g6
g7
(lp14291
Vwill
p14292
atp14293
Rp14294
(dp14295
g17
VMD
p14296
sbag5
(g6
g7
(lp14297
g5
(g6
g7
(lp14298
Vside
p14299
atp14300
Rp14301
(dp14302
g17
VVB
p14303
sbag5
(g6
g7
(lp14304
g5
(g6
g7
(lp14305
Vwith
p14306
atp14307
Rp14308
(dp14309
g17
VIN
p14310
sbag5
(g6
g7
(lp14311
g5
(g6
g7
(lp14312
Vyou
p14313
atp14314
Rp14315
(dp14316
g17
VPRP
p14317
sbatp14318
Rp14319
(dp14320
g17
VNP
p14321
sbatp14322
Rp14323
(dp14324
g17
VPP
p14325
sbatp14326
Rp14327
(dp14328
g17
VVP
p14329
sbatp14330
Rp14331
(dp14332
g17
VVP
p14333
sbag5
(g6
g7
(lp14334
g198
atp14335
Rp14336
(dp14337
g17
g198
sbatp14338
Rp14339
(dp14340
g17
g169
sbatp14341
Rp14342
(dp14343
g17
VROOT
p14344
sbag5
(g6
g7
(lp14345
g5
(g6
g7
(lp14346
g5
(g6
g7
(lp14347
g5
(g6
g7
(lp14348
g5
(g6
g7
(lp14349
VWe
p14350
atp14351
Rp14352
(dp14353
g17
VPRP
p14354
sbatp14355
Rp14356
(dp14357
g17
VNP
p14358
sbag5
(g6
g7
(lp14359
g5
(g6
g7
(lp14360
Vcan
p14361
atp14362
Rp14363
(dp14364
g17
VMD
p14365
sbag5
(g6
g7
(lp14366
g5
(g6
g7
(lp14367
Vtherefore
p14368
atp14369
Rp14370
(dp14371
g17
VRB
p14372
sbatp14373
Rp14374
(dp14375
g17
VADVP
p14376
sbag5
(g6
g7
(lp14377
g5
(g6
g7
(lp14378
Vregard
p14379
atp14380
Rp14381
(dp14382
g17
VVB
p14383
sbag5
(g6
g7
(lp14384
g5
(g6
g7
(lp14385
Vit
p14386
atp14387
Rp14388
(dp14389
g17
VPRP
p14390
sbatp14391
Rp14392
(dp14393
g17
VNP
p14394
sbag5
(g6
g7
(lp14395
g5
(g6
g7
(lp14396
Vas
p14397
atp14398
Rp14399
(dp14400
g17
VIN
p14401
sbag5
(g6
g7
(lp14402
g5
(g6
g7
(lp14403
g394
atp14404
Rp14405
(dp14406
g17
VDT
p14407
sbag5
(g6
g7
(lp14408
Vcommunication
p14409
atp14410
Rp14411
(dp14412
g17
VNN
p14413
sbag5
(g6
g7
(lp14414
Vconvention
p14415
atp14416
Rp14417
(dp14418
g17
VNN
p14419
sbatp14420
Rp14421
(dp14422
g17
VNP
p14423
sbatp14424
Rp14425
(dp14426
g17
VPP
p14427
sbag5
(g6
g7
(lp14428
g5
(g6
g7
(lp14429
Vthat
p14430
atp14431
Rp14432
(dp14433
g17
VIN
p14434
sbag5
(g6
g7
(lp14435
g5
(g6
g7
(lp14436
g5
(g6
g7
(lp14437
Vif
p14438
atp14439
Rp14440
(dp14441
g17
VIN
p14442
sbag5
(g6
g7
(lp14443
g5
(g6
g7
(lp14444
g5
(g6
g7
(lp14445
g394
atp14446
Rp14447
(dp14448
g17
VDT
p14449
sbag5
(g6
g7
(lp14450
Vbird
p14451
atp14452
Rp14453
(dp14454
g17
VNN
p14455
sbatp14456
Rp14457
(dp14458
g17
VNP
p14459
sbag5
(g6
g7
(lp14460
g5
(g6
g7
(lp14461
Vcan
p14462
atp14463
Rp14464
(dp14465
g17
VMD
p14466
sbag5
(g6
g7
(lp14467
g5
(g6
g7
(lp14468
Vfly
p14469
atp14470
Rp14471
(dp14472
g17
VVB
p14473
sbag5
(g6
g7
(lp14474
g5
(g6
g7
(lp14475
Vthe
p14476
atp14477
Rp14478
(dp14479
g17
VDT
p14480
sbag5
(g6
g7
(lp14481
Vfact
p14482
atp14483
Rp14484
(dp14485
g17
VNN
p14486
sbatp14487
Rp14488
(dp14489
g17
VNP
p14490
sbatp14491
Rp14492
(dp14493
g17
VVP
p14494
sbatp14495
Rp14496
(dp14497
g17
VVP
p14498
sbatp14499
Rp14500
(dp14501
g17
g169
sbatp14502
Rp14503
(dp14504
g17
VSBAR
p14505
sbag5
(g6
g7
(lp14506
g5
(g6
g7
(lp14507
Vneed
p14508
atp14509
Rp14510
(dp14511
g17
VVBP
p14512
sbag5
(g6
g7
(lp14513
Vnot
p14514
atp14515
Rp14516
(dp14517
g17
VRB
p14518
sbag5
(g6
g7
(lp14519
g5
(g6
g7
(lp14520
Vbe
p14521
atp14522
Rp14523
(dp14524
g17
VVB
p14525
sbag5
(g6
g7
(lp14526
g5
(g6
g7
(lp14527
Vmentioned
p14528
atp14529
Rp14530
(dp14531
g17
VVBN
p14532
sbatp14533
Rp14534
(dp14535
g17
VVP
p14536
sbatp14537
Rp14538
(dp14539
g17
VVP
p14540
sbatp14541
Rp14542
(dp14543
g17
VVP
p14544
sbatp14545
Rp14546
(dp14547
g17
g169
sbatp14548
Rp14549
(dp14550
g17
VSBAR
p14551
sbatp14552
Rp14553
(dp14554
g17
VVP
p14555
sbatp14556
Rp14557
(dp14558
g17
VVP
p14559
sbatp14560
Rp14561
(dp14562
g17
g169
sbag5
(g6
g7
(lp14563
g601
atp14564
Rp14565
(dp14566
g17
g601
sbag5
(g6
g7
(lp14567
Vbut
p14568
atp14569
Rp14570
(dp14571
g17
VCC
p14572
sbag5
(g6
g7
(lp14573
g5
(g6
g7
(lp14574
g5
(g6
g7
(lp14575
Vif
p14576
atp14577
Rp14578
(dp14579
g17
VIN
p14580
sbag5
(g6
g7
(lp14581
g5
(g6
g7
(lp14582
g5
(g6
g7
(lp14583
g5
(g6
g7
(lp14584
Vthe
p14585
atp14586
Rp14587
(dp14588
g17
VDT
p14589
sbag5
(g6
g7
(lp14590
Vbird
p14591
atp14592
Rp14593
(dp14594
g17
VNN
p14595
sbatp14596
Rp14597
(dp14598
g17
VNP
p14599
sbag5
(g6
g7
(lp14600
g5
(g6
g7
(lp14601
Vca
p14602
atp14603
Rp14604
(dp14605
g17
VMD
p14606
sbag5
(g6
g7
(lp14607
Vn't
p14608
atp14609
Rp14610
(dp14611
g17
VRB
p14612
sbag5
(g6
g7
(lp14613
g5
(g6
g7
(lp14614
Vfly
p14615
atp14616
Rp14617
(dp14618
g17
VVB
p14619
sbatp14620
Rp14621
(dp14622
g17
VVP
p14623
sbatp14624
Rp14625
(dp14626
g17
VVP
p14627
sbatp14628
Rp14629
(dp14630
g17
g169
sbag5
(g6
g7
(lp14631
Vand
p14632
atp14633
Rp14634
(dp14635
g17
VCC
p14636
sbag5
(g6
g7
(lp14637
g5
(g6
g7
(lp14638
g5
(g6
g7
(lp14639
Vit
p14640
atp14641
Rp14642
(dp14643
g17
VPRP
p14644
sbatp14645
Rp14646
(dp14647
g17
VNP
p14648
sbag5
(g6
g7
(lp14649
g5
(g6
g7
(lp14650
Vis
p14651
atp14652
Rp14653
(dp14654
g17
VVBZ
p14655
sbag5
(g6
g7
(lp14656
g5
(g6
g7
(lp14657
Vrelevant
p14658
atp14659
Rp14660
(dp14661
g17
VJJ
p14662
sbatp14663
Rp14664
(dp14665
g17
VADJP
p14666
sbatp14667
Rp14668
(dp14669
g17
VVP
p14670
sbatp14671
Rp14672
(dp14673
g17
g169
sbatp14674
Rp14675
(dp14676
g17
g169
sbatp14677
Rp14678
(dp14679
g17
VSBAR
p14680
sbag5
(g6
g7
(lp14681
g601
atp14682
Rp14683
(dp14684
g17
g601
sbag5
(g6
g7
(lp14685
g5
(g6
g7
(lp14686
Vthen
p14687
atp14688
Rp14689
(dp14690
g17
VRB
p14691
sbatp14692
Rp14693
(dp14694
g17
VADVP
p14695
sbag5
(g6
g7
(lp14696
g5
(g6
g7
(lp14697
Vthe
p14698
atp14699
Rp14700
(dp14701
g17
VDT
p14702
sbag5
(g6
g7
(lp14703
Vfact
p14704
atp14705
Rp14706
(dp14707
g17
VNN
p14708
sbatp14709
Rp14710
(dp14711
g17
VNP
p14712
sbag5
(g6
g7
(lp14713
g5
(g6
g7
(lp14714
Vmust
p14715
atp14716
Rp14717
(dp14718
g17
VMD
p14719
sbag5
(g6
g7
(lp14720
g5
(g6
g7
(lp14721
Vbe
p14722
atp14723
Rp14724
(dp14725
g17
VVB
p14726
sbag5
(g6
g7
(lp14727
g5
(g6
g7
(lp14728
Vmentioned
p14729
atp14730
Rp14731
(dp14732
g17
VVBN
p14733
sbatp14734
Rp14735
(dp14736
g17
VVP
p14737
sbatp14738
Rp14739
(dp14740
g17
VVP
p14741
sbatp14742
Rp14743
(dp14744
g17
VVP
p14745
sbatp14746
Rp14747
(dp14748
g17
g169
sbag5
(g6
g7
(lp14749
g198
atp14750
Rp14751
(dp14752
g17
g198
sbatp14753
Rp14754
(dp14755
g17
g169
sbatp14756
Rp14757
(dp14758
g17
VROOT
p14759
sbasg209
(icmyPackage
CorE
p14760
(dp14761
g212
(lp14762
(I0
I1
tp14763
a(I1
I1
tp14764
asg215
g5
(g6
g7
(lp14765
g14263
ag14271
ag14287
ag14331
ag14336
ag14356
ag14363
atp14766
Rp14767
(dp14768
g17
g226
sbsbsg216
(icmyPackage
CorE
p14769
(dp14770
g212
(lp14771
(I1
I3
tp14772
a(I1
I40
tp14773
asg215
g5
(g6
g7
(lp14774
g14553
ag14565
ag14570
ag14747
ag14751
atp14775
Rp14776
(dp14777
g17
g226
sbsbsg227
g1990
sg264
(lp14778
(icmyPackage
Sent
p14779
(dp14780
g268
I3
sg269
I35
sg270
S"Unless I told you that my bird couldn't fly, the judge will side with you."
p14781
sg272
I0
sg273
I160
sg215
(lp14782
g14342
asba(icmyPackage
Sent
p14783
(dp14784
g268
I3
sg269
I35
sg270
S"We can therefore regard it as a communication convention that if a bird can fly the fact need not be mentioned, but if the bird can't fly and it is relevant, then the fact must be mentioned."
p14785
sg272
I0
sg273
I161
sg215
(lp14786
g14757
asbasba.