(lp0
(icmyPackage
CELink
p1
(dp2
S'PTreelst'
p3
(lp4
ccopy_reg
_reconstructor
p5
(cnltk.tree
Tree
p6
c__builtin__
list
p7
(lp8
g5
(g6
g7
(lp9
g5
(g6
g7
(lp10
g5
(g6
g7
(lp11
g5
(g6
g7
(lp12
VThe
p13
atp14
Rp15
(dp16
S'_label'
p17
VDT
p18
sbag5
(g6
g7
(lp19
Vfirst
p20
atp21
Rp22
(dp23
g17
VJJ
p24
sbag5
(g6
g7
(lp25
Vstep
p26
atp27
Rp28
(dp29
g17
VNN
p30
sbatp31
Rp32
(dp33
g17
VNP
p34
sbag5
(g6
g7
(lp35
g5
(g6
g7
(lp36
g5
(g6
g7
(lp37
g5
(g6
g7
(lp38
Vis
p39
atp40
Rp41
(dp42
g17
VVBZ
p43
sbag5
(g6
g7
(lp44
g5
(g6
g7
(lp45
g5
(g6
g7
(lp46
Vto
p47
atp48
Rp49
(dp50
g17
VTO
p51
sbag5
(g6
g7
(lp52
g5
(g6
g7
(lp53
Vclassify
p54
atp55
Rp56
(dp57
g17
VVB
p58
sbatp59
Rp60
(dp61
g17
VVP
p62
sbatp63
Rp64
(dp65
g17
VVP
p66
sbatp67
Rp68
(dp69
g17
VS
p70
sbatp71
Rp72
(dp73
g17
VVP
p74
sbatp75
Rp76
(dp77
g17
g70
sbatp78
Rp79
(dp80
g17
VSBAR
p81
sbatp82
Rp83
(dp84
g17
VNP
p85
sbag5
(g6
g7
(lp86
g5
(g6
g7
(lp87
Vmisses
p88
atp89
Rp90
(dp91
g17
VVBZ
p92
sbag5
(g6
g7
(lp93
g5
(g6
g7
(lp94
Vas
p95
atp96
Rp97
(dp98
g17
VRB
p99
sbag5
(g6
g7
(lp100
Vephemeral
p101
atp102
Rp103
(dp104
g17
VJJ
p105
sbag5
(g6
g7
(lp106
g5
(g6
g7
(lp107
V--
p108
atp109
Rp110
(dp111
g17
V:
p112
sbag5
(g6
g7
(lp113
g5
(g6
g7
(lp114
g5
(g6
g7
(lp115
Vwhen
p116
atp117
Rp118
(dp119
g17
VWRB
p120
sbatp121
Rp122
(dp123
g17
VWHADVP
p124
sbag5
(g6
g7
(lp125
g5
(g6
g7
(lp126
g5
(g6
g7
(lp127
Vthe
p128
atp129
Rp130
(dp131
g17
VDT
p132
sbag5
(g6
g7
(lp133
Vobject
p134
atp135
Rp136
(dp137
g17
VNN
p138
sbatp139
Rp140
(dp141
g17
VNP
p142
sbag5
(g6
g7
(lp143
g5
(g6
g7
(lp144
g5
(g6
g7
(lp145
Vmoved
p146
atp147
Rp148
(dp149
g17
VVBD
p150
sbatp151
Rp152
(dp153
g17
VVP
p154
sbag5
(g6
g7
(lp155
Vor
p156
atp157
Rp158
(dp159
g17
VCC
p160
sbag5
(g6
g7
(lp161
g5
(g6
g7
(lp162
g5
(g6
g7
(lp163
Vsimply
p164
atp165
Rp166
(dp167
g17
VRB
p168
sbatp169
Rp170
(dp171
g17
VADVP
p172
sbag5
(g6
g7
(lp173
Vdisappeared
p174
atp175
Rp176
(dp177
g17
VVBD
p178
sbatp179
Rp180
(dp181
g17
VVP
p182
sbag5
(g6
g7
(lp183
V,
p184
atp185
Rp186
(dp187
g17
g184
sbag5
(g6
g7
(lp188
g5
(g6
g7
(lp189
Vmasked
p190
atp191
Rp192
(dp193
g17
VVBD
p194
sbatp195
Rp196
(dp197
g17
VVP
p198
sbag5
(g6
g7
(lp199
V--
p200
atp201
Rp202
(dp203
g17
g112
sbag5
(g6
g7
(lp204
g5
(g6
g7
(lp205
g5
(g6
g7
(lp206
Vwhen
p207
atp208
Rp209
(dp210
g17
VWRB
p211
sbatp212
Rp213
(dp214
g17
VWHADVP
p215
sbag5
(g6
g7
(lp216
g5
(g6
g7
(lp217
g5
(g6
g7
(lp218
Vnoise
p219
atp220
Rp221
(dp222
g17
VNN
p223
sbatp224
Rp225
(dp226
g17
VNP
p227
sbag5
(g6
g7
(lp228
g5
(g6
g7
(lp229
g5
(g6
g7
(lp230
Vhid
p231
atp232
Rp233
(dp234
g17
VVBP
p235
sbatp236
Rp237
(dp238
g17
VVP
p239
sbag5
(g6
g7
(lp240
Vor
p241
atp242
Rp243
(dp244
g17
VCC
p245
sbag5
(g6
g7
(lp246
g5
(g6
g7
(lp247
Vcorrupted
p248
atp249
Rp250
(dp251
g17
VVBD
p252
sbag5
(g6
g7
(lp253
g5
(g6
g7
(lp254
g5
(g6
g7
(lp255
Vthe
p256
atp257
Rp258
(dp259
g17
VDT
p260
sbag5
(g6
g7
(lp261
Vobject
p262
atp263
Rp264
(dp265
g17
VNN
p266
sbag5
(g6
g7
(lp267
Vobservation
p268
atp269
Rp270
(dp271
g17
VNN
p272
sbatp273
Rp274
(dp275
g17
VNP
p276
sbag5
(g6
g7
(lp277
g184
atp278
Rp279
(dp280
g17
g184
sbag5
(g6
g7
(lp281
Vor
p282
atp283
Rp284
(dp285
g17
VCC
p286
sbag5
(g6
g7
(lp287
g5
(g6
g7
(lp288
Vedge
p289
atp290
Rp291
(dp292
g17
VNN
p293
sbatp294
Rp295
(dp296
g17
VNP
p297
sbatp298
Rp299
(dp300
g17
VNP
p301
sbatp302
Rp303
(dp304
g17
VVP
p305
sbatp306
Rp307
(dp308
g17
VVP
p309
sbatp310
Rp311
(dp312
g17
g70
sbatp313
Rp314
(dp315
g17
VSBAR
p316
sbatp317
Rp318
(dp319
g17
VVP
p320
sbatp321
Rp322
(dp323
g17
g70
sbatp324
Rp325
(dp326
g17
VSBAR
p327
sbag5
(g6
g7
(lp328
V--
p329
atp330
Rp331
(dp332
g17
g112
sbatp333
Rp334
(dp335
g17
VPRN
p336
sbag5
(g6
g7
(lp337
g5
(g6
g7
(lp338
g5
(g6
g7
(lp339
Vwhen
p340
atp341
Rp342
(dp343
g17
VWRB
p344
sbatp345
Rp346
(dp347
g17
VWHADVP
p348
sbag5
(g6
g7
(lp349
g5
(g6
g7
(lp350
g5
(g6
g7
(lp351
Vthe
p352
atp353
Rp354
(dp355
g17
VDT
p356
sbag5
(g6
g7
(lp357
Vobject
p358
atp359
Rp360
(dp361
g17
VNN
p362
sbatp363
Rp364
(dp365
g17
VNP
p366
sbag5
(g6
g7
(lp367
g5
(g6
g7
(lp368
Vwas
p369
atp370
Rp371
(dp372
g17
VVBD
p373
sbag5
(g6
g7
(lp374
g5
(g6
g7
(lp375
Vnear
p376
atp377
Rp378
(dp379
g17
VIN
p380
sbag5
(g6
g7
(lp381
g5
(g6
g7
(lp382
g5
(g6
g7
(lp383
Vthe
p384
atp385
Rp386
(dp387
g17
VDT
p388
sbag5
(g6
g7
(lp389
Vedge
p390
atp391
Rp392
(dp393
g17
VNN
p394
sbatp395
Rp396
(dp397
g17
VNP
p398
sbag5
(g6
g7
(lp399
g5
(g6
g7
(lp400
Vof
p401
atp402
Rp403
(dp404
g17
VIN
p405
sbag5
(g6
g7
(lp406
g5
(g6
g7
(lp407
Vthe
p408
atp409
Rp410
(dp411
g17
VDT
p412
sbag5
(g6
g7
(lp413
Vobservational
p414
atp415
Rp416
(dp417
g17
VJJ
p418
sbag5
(g6
g7
(lp419
Vfield
p420
atp421
Rp422
(dp423
g17
VNN
p424
sbatp425
Rp426
(dp427
g17
VNP
p428
sbatp429
Rp430
(dp431
g17
VPP
p432
sbatp433
Rp434
(dp435
g17
VNP
p436
sbatp437
Rp438
(dp439
g17
VPP
p440
sbatp441
Rp442
(dp443
g17
VVP
p444
sbatp445
Rp446
(dp447
g17
g70
sbatp448
Rp449
(dp450
g17
VSBAR
p451
sbatp452
Rp453
(dp454
g17
VADJP
p455
sbatp456
Rp457
(dp458
g17
VVP
p459
sbag5
(g6
g7
(lp460
V.
p461
atp462
Rp463
(dp464
g17
g461
sbatp465
Rp466
(dp467
g17
g70
sbatp468
Rp469
(dp470
g17
VROOT
p471
sbasS'cause'
p472
(icmyPackage
CorE
p473
(dp474
S'span'
p475
(lp476
(I0
I8
tp477
a(I0
I41
tp478
asS'PTree'
p479
g5
(g6
g7
(lp480
g103
ag334
ag346
ag364
ag371
ag378
ag396
ag403
ag410
ag416
atp481
Rp482
(dp483
g17
S'ROOT'
p484
sbsbsS'effect'
p485
(icmyPackage
CorE
p486
(dp487
g475
(lp488
(I0
I0
tp489
a(I0
I6
tp490
asg479
g5
(g6
g7
(lp491
g83
ag90
atp492
Rp493
(dp494
g17
g484
sbsbsS'pt'
p495
(icmyPackage
pattern
p496
(dp497
S'pfreq'
p498
I26
sS'moresent'
p499
I1
sS'main_token'
p500
(lp501
(lp502
S'as'
p503
aasS'ptype'
p504
(lp505
I3
aI1
aI1
asS'cases'
p506
(lp507
S'You do not need to worry about the operation, as the software is very easy to use.'
p508
asS'id'
p509
I80
sS'constraints'
p510
(lp511
(lp512
S'&R@Complete@'
p513
aS'(,)'
p514
aS'(-such/-same/-seem/-regard/-regards/-regarded/-view/-views/-viewed/-denote/-denoted/-denotes)'
p515
aa(lp516
S'(-if/-follow/-follows/-&adv)'
p517
aS'&C@Complete@'
p518
aasbsS'sInfo'
p519
(lp520
(icmyPackage
Sent
p521
(dp522
S'Ctag'
p523
I0
sS'Ptag'
p524
I0
sS'text'
p525
S'The first step is to classify misses as ephemeral -- when the object moved or simply disappeared, masked -- when noise hid or corrupted the object observation, or edge -- when the object was near the edge of the observational field.'
p526
sS'SCtag'
p527
I0
sS'Stag'
p528
I7
sg479
(lp529
g469
asbasba(icmyPackage
CELink
p530
(dp531
g3
(lp532
g5
(g6
g7
(lp533
g5
(g6
g7
(lp534
g5
(g6
g7
(lp535
g5
(g6
g7
(lp536
VTwo
p537
atp538
Rp539
(dp540
g17
VCD
p541
sbag5
(g6
g7
(lp542
Vobjects
p543
atp544
Rp545
(dp546
g17
VNNS
p547
sbatp548
Rp549
(dp550
g17
VNP
p551
sbag5
(g6
g7
(lp552
g5
(g6
g7
(lp553
Vare
p554
atp555
Rp556
(dp557
g17
VVBP
p558
sbag5
(g6
g7
(lp559
g5
(g6
g7
(lp560
Vsaid
p561
atp562
Rp563
(dp564
g17
VVBN
p565
sbag5
(g6
g7
(lp566
g5
(g6
g7
(lp567
g5
(g6
g7
(lp568
Vto
p569
atp570
Rp571
(dp572
g17
VTO
p573
sbag5
(g6
g7
(lp574
g5
(g6
g7
(lp575
Vmatch
p576
atp577
Rp578
(dp579
g17
VVB
p580
sbag5
(g6
g7
(lp581
g5
(g6
g7
(lp582
g5
(g6
g7
(lp583
Vif
p584
atp585
Rp586
(dp587
g17
VIN
p588
sbag5
(g6
g7
(lp589
g5
(g6
g7
(lp590
g5
(g6
g7
(lp591
Vthey
p592
atp593
Rp594
(dp595
g17
VPRP
p596
sbatp597
Rp598
(dp599
g17
VNP
p600
sbag5
(g6
g7
(lp601
g5
(g6
g7
(lp602
Vcome
p603
atp604
Rp605
(dp606
g17
VVBP
p607
sbag5
(g6
g7
(lp608
g5
(g6
g7
(lp609
Vfrom
p610
atp611
Rp612
(dp613
g17
VIN
p614
sbag5
(g6
g7
(lp615
g5
(g6
g7
(lp616
Vdifferent
p617
atp618
Rp619
(dp620
g17
VJJ
p621
sbag5
(g6
g7
(lp622
Vruns
p623
atp624
Rp625
(dp626
g17
VNNS
p627
sbatp628
Rp629
(dp630
g17
VNP
p631
sbatp632
Rp633
(dp634
g17
VPP
p635
sbatp636
Rp637
(dp638
g17
VVP
p639
sbatp640
Rp641
(dp642
g17
g70
sbatp643
Rp644
(dp645
g17
VSBAR
p646
sbag5
(g6
g7
(lp647
Vand
p648
atp649
Rp650
(dp651
g17
VCC
p652
sbag5
(g6
g7
(lp653
g5
(g6
g7
(lp654
Vif
p655
atp656
Rp657
(dp658
g17
VIN
p659
sbag5
(g6
g7
(lp660
g5
(g6
g7
(lp661
g5
(g6
g7
(lp662
Vtheir
p663
atp664
Rp665
(dp666
g17
VPRP$
p667
sbag5
(g6
g7
(lp668
Vpositions
p669
atp670
Rp671
(dp672
g17
VNNS
p673
sbatp674
Rp675
(dp676
g17
VNP
p677
sbag5
(g6
g7
(lp678
g5
(g6
g7
(lp679
Vdiffer
p680
atp681
Rp682
(dp683
g17
VVBP
p684
sbag5
(g6
g7
(lp685
g5
(g6
g7
(lp686
Vby
p687
atp688
Rp689
(dp690
g17
VIN
p691
sbag5
(g6
g7
(lp692
g5
(g6
g7
(lp693
g5
(g6
g7
(lp694
Vless
p695
atp696
Rp697
(dp698
g17
VJJR
p699
sbatp700
Rp701
(dp702
g17
VNP
p703
sbag5
(g6
g7
(lp704
g5
(g6
g7
(lp705
Vthan
p706
atp707
Rp708
(dp709
g17
VIN
p710
sbag5
(g6
g7
(lp711
g5
(g6
g7
(lp712
Vtheir
p713
atp714
Rp715
(dp716
g17
VPRP$
p717
sbag5
(g6
g7
(lp718
Vclassification
p719
atp720
Rp721
(dp722
g17
VNN
p723
sbag5
(g6
g7
(lp724
Vdistance
p725
atp726
Rp727
(dp728
g17
VNN
p729
sbatp730
Rp731
(dp732
g17
VNP
p733
sbatp734
Rp735
(dp736
g17
VPP
p737
sbatp738
Rp739
(dp740
g17
VNP
p741
sbatp742
Rp743
(dp744
g17
VPP
p745
sbatp746
Rp747
(dp748
g17
VVP
p749
sbatp750
Rp751
(dp752
g17
g70
sbatp753
Rp754
(dp755
g17
VSBAR
p756
sbatp757
Rp758
(dp759
g17
VSBAR
p760
sbatp761
Rp762
(dp763
g17
VVP
p764
sbatp765
Rp766
(dp767
g17
VVP
p768
sbatp769
Rp770
(dp771
g17
g70
sbatp772
Rp773
(dp774
g17
VVP
p775
sbatp776
Rp777
(dp778
g17
VVP
p779
sbag5
(g6
g7
(lp780
g461
atp781
Rp782
(dp783
g17
g461
sbatp784
Rp785
(dp786
g17
g70
sbatp787
Rp788
(dp789
g17
VROOT
p790
sbasg472
(icmyPackage
CorE
p791
(dp792
g475
(lp793
(I0
I7
tp794
a(I0
I23
tp795
asg479
g5
(g6
g7
(lp796
g641
ag650
ag754
ag782
atp797
Rp798
(dp799
g17
g484
sbsbsg485
(icmyPackage
CorE
p800
(dp801
g475
(lp802
(I0
I0
tp803
a(I0
I5
tp804
asg479
g5
(g6
g7
(lp805
g549
ag556
ag563
ag571
ag578
atp806
Rp807
(dp808
g17
g484
sbsbsg495
(icmyPackage
pattern
p809
(dp810
g498
I0
sg499
I0
sg500
(lp811
(lp812
S'if'
p813
aasg504
(lp814
I1
aI1
aI1
asg506
(lp815
S'An effective knowledge flow network enables a research team to be very powerful in generating new knowledge if every node can innovate and output new knowledge to appropriate members.'
p816
asg509
I14
sg510
(lp817
(lp818
S'&R@Complete@'
p819
aa(lp820
S'&C@Complete@'
p821
aasbsg519
(lp822
(icmyPackage
Sent
p823
(dp824
g523
I1
sg524
I1
sg525
S'Two objects are said to match if they come from different runs and if their positions differ by less than their classification distance.'
p825
sg527
I0
sg528
I17
sg479
(lp826
g788
asbasba(icmyPackage
CELink
p827
(dp828
g3
(lp829
g798
asg472
(icmyPackage
CorE
p830
(dp831
g475
(lp832
(I0
I7
tp833
a(I0
I16
tp834
asg479
g5
(g6
g7
(lp835
g751
ag782
atp836
Rp837
(dp838
g17
g484
sbsbsg485
(icmyPackage
CorE
p839
(dp840
g475
(lp841
(I0
I0
tp842
a(I0
I5
tp843
asg479
g5
(g6
g7
(lp844
g641
ag650
atp845
Rp846
(dp847
g17
g484
sbsbsg495
g809
sg519
(lp848
g823
asba(icmyPackage
CELink
p849
(dp850
g3
(lp851
g5
(g6
g7
(lp852
g5
(g6
g7
(lp853
g5
(g6
g7
(lp854
g5
(g6
g7
(lp855
VIf
p856
atp857
Rp858
(dp859
g17
VIN
p860
sbag5
(g6
g7
(lp861
g5
(g6
g7
(lp862
g5
(g6
g7
(lp863
Vonly
p864
atp865
Rp866
(dp867
g17
VRB
p868
sbag5
(g6
g7
(lp869
Vstationary
p870
atp871
Rp872
(dp873
g17
VJJ
p874
sbag5
(g6
g7
(lp875
Vobjects
p876
atp877
Rp878
(dp879
g17
VNNS
p880
sbatp881
Rp882
(dp883
g17
VNP
p884
sbag5
(g6
g7
(lp885
g5
(g6
g7
(lp886
Vare
p887
atp888
Rp889
(dp890
g17
VVBP
p891
sbag5
(g6
g7
(lp892
g5
(g6
g7
(lp893
g5
(g6
g7
(lp894
Vto
p895
atp896
Rp897
(dp898
g17
VTO
p899
sbag5
(g6
g7
(lp900
g5
(g6
g7
(lp901
Vbe
p902
atp903
Rp904
(dp905
g17
VVB
p906
sbag5
(g6
g7
(lp907
g5
(g6
g7
(lp908
Vmatched
p909
atp910
Rp911
(dp912
g17
VVBN
p913
sbatp914
Rp915
(dp916
g17
VVP
p917
sbatp918
Rp919
(dp920
g17
VVP
p921
sbatp922
Rp923
(dp924
g17
VVP
p925
sbatp926
Rp927
(dp928
g17
g70
sbatp929
Rp930
(dp931
g17
VVP
p932
sbatp933
Rp934
(dp935
g17
g70
sbatp936
Rp937
(dp938
g17
VSBAR
p939
sbag5
(g6
g7
(lp940
g184
atp941
Rp942
(dp943
g17
g184
sbag5
(g6
g7
(lp944
g5
(g6
g7
(lp945
Vthen
p946
atp947
Rp948
(dp949
g17
VRB
p950
sbatp951
Rp952
(dp953
g17
VADVP
p954
sbag5
(g6
g7
(lp955
g5
(g6
g7
(lp956
Vthe
p957
atp958
Rp959
(dp960
g17
VDT
p961
sbag5
(g6
g7
(lp962
Vclassification
p963
atp964
Rp965
(dp966
g17
VNN
p967
sbag5
(g6
g7
(lp968
Vdistance
p969
atp970
Rp971
(dp972
g17
VNN
p973
sbatp974
Rp975
(dp976
g17
VNP
p977
sbag5
(g6
g7
(lp978
g5
(g6
g7
(lp979
Vcan
p980
atp981
Rp982
(dp983
g17
VMD
p984
sbag5
(g6
g7
(lp985
g5
(g6
g7
(lp986
Vbe
p987
atp988
Rp989
(dp990
g17
VVB
p991
sbag5
(g6
g7
(lp992
g5
(g6
g7
(lp993
g5
(g6
g7
(lp994
Va
p995
atp996
Rp997
(dp998
g17
VDT
p999
sbag5
(g6
g7
(lp1000
Vsmall
p1001
atp1002
Rp1003
(dp1004
g17
VJJ
p1005
sbag5
(g6
g7
(lp1006
Vmultiple
p1007
atp1008
Rp1009
(dp1010
g17
VNN
p1011
sbatp1012
Rp1013
(dp1014
g17
VNP
p1015
sbag5
(g6
g7
(lp1016
g5
(g6
g7
(lp1017
Vof
p1018
atp1019
Rp1020
(dp1021
g17
VIN
p1022
sbag5
(g6
g7
(lp1023
g5
(g6
g7
(lp1024
g5
(g6
g7
(lp1025
Vthe
p1026
atp1027
Rp1028
(dp1029
g17
VDT
p1030
sbag5
(g6
g7
(lp1031
Vmaximum
p1032
atp1033
Rp1034
(dp1035
g17
VNN
p1036
sbatp1037
Rp1038
(dp1039
g17
VNP
p1040
sbag5
(g6
g7
(lp1041
g5
(g6
g7
(lp1042
Vof
p1043
atp1044
Rp1045
(dp1046
g17
VIN
p1047
sbag5
(g6
g7
(lp1048
g5
(g6
g7
(lp1049
g5
(g6
g7
(lp1050
Vthe
p1051
atp1052
Rp1053
(dp1054
g17
VDT
p1055
sbag5
(g6
g7
(lp1056
Vtwo
p1057
atp1058
Rp1059
(dp1060
g17
VCD
p1061
sbag5
(g6
g7
(lp1062
Vobject
p1063
atp1064
Rp1065
(dp1066
g17
VNN
p1067
sbag5
(g6
g7
(lp1068
V's
p1069
atp1070
Rp1071
(dp1072
g17
VPOS
p1073
sbatp1074
Rp1075
(dp1076
g17
VNP
p1077
sbag5
(g6
g7
(lp1078
Vcircular
p1079
atp1080
Rp1081
(dp1082
g17
VJJ
p1083
sbag5
(g6
g7
(lp1084
Vrms
p1085
atp1086
Rp1087
(dp1088
g17
VNN
p1089
sbag5
(g6
g7
(lp1090
Vposition
p1091
atp1092
Rp1093
(dp1094
g17
VNN
p1095
sbag5
(g6
g7
(lp1096
Verrors
p1097
atp1098
Rp1099
(dp1100
g17
VNNS
p1101
sbatp1102
Rp1103
(dp1104
g17
VNP
p1105
sbatp1106
Rp1107
(dp1108
g17
VPP
p1109
sbatp1110
Rp1111
(dp1112
g17
VNP
p1113
sbatp1114
Rp1115
(dp1116
g17
VPP
p1117
sbatp1118
Rp1119
(dp1120
g17
VNP
p1121
sbatp1122
Rp1123
(dp1124
g17
VVP
p1125
sbatp1126
Rp1127
(dp1128
g17
VVP
p1129
sbag5
(g6
g7
(lp1130
g461
atp1131
Rp1132
(dp1133
g17
g461
sbatp1134
Rp1135
(dp1136
g17
g70
sbatp1137
Rp1138
(dp1139
g17
VROOT
p1140
sbasg472
(icmyPackage
CorE
p1141
(dp1142
g475
(lp1143
(I0
I1
tp1144
a(I0
I7
tp1145
asg479
g934
sbsg485
(icmyPackage
CorE
p1146
(dp1147
g475
(lp1148
(I0
I9
tp1149
a(I0
I30
tp1150
asg479
g5
(g6
g7
(lp1151
g952
ag975
ag1127
ag1132
atp1152
Rp1153
(dp1154
g17
g484
sbsbsg495
(icmyPackage
pattern
p1155
(dp1156
g498
I0
sg499
I0
sg500
(lp1157
(lp1158
(lp1159
S'if'
p1160
aS'once'
p1161
aaa(lp1162
S','
p1163
aasg504
(lp1164
I1
aI1
aI1
asg506
(lp1165
S'If some light and mobile detection devices can be invented in the future, many new applications can be imagined, for example, people can get some services while thinking.'
p1166
asg509
I15
sg510
(lp1167
(lp1168
a(lp1169
S'&C@Complete@'
p1170
aa(lp1171
S'&R@Complete@'
p1172
aasbsg519
(lp1173
(icmyPackage
Sent
p1174
(dp1175
g523
I1
sg524
I2
sg525
S"If only stationary objects are to be matched, then the classification distance can be a small multiple of the maximum of the two object's circular rms position errors."
p1176
sg527
I0
sg528
I19
sg479
(lp1177
g1138
asbasba(icmyPackage
CELink
p1178
(dp1179
g3
(lp1180
g5
(g6
g7
(lp1181
g5
(g6
g7
(lp1182
g5
(g6
g7
(lp1183
g5
(g6
g7
(lp1184
g5
(g6
g7
(lp1185
VIn
p1186
atp1187
Rp1188
(dp1189
g17
VIN
p1190
sbag5
(g6
g7
(lp1191
g5
(g6
g7
(lp1192
Vthose
p1193
atp1194
Rp1195
(dp1196
g17
VDT
p1197
sbag5
(g6
g7
(lp1198
Vcases
p1199
atp1200
Rp1201
(dp1202
g17
VNNS
p1203
sbatp1204
Rp1205
(dp1206
g17
VNP
p1207
sbatp1208
Rp1209
(dp1210
g17
VPP
p1211
sbag5
(g6
g7
(lp1212
g5
(g6
g7
(lp1213
g5
(g6
g7
(lp1214
Vthe
p1215
atp1216
Rp1217
(dp1218
g17
VDT
p1219
sbag5
(g6
g7
(lp1220
Vobject
p1221
atp1222
Rp1223
(dp1224
g17
VNN
p1225
sbag5
(g6
g7
(lp1226
V's
p1227
atp1228
Rp1229
(dp1230
g17
VPOS
p1231
sbatp1232
Rp1233
(dp1234
g17
VNP
p1235
sbag5
(g6
g7
(lp1236
Vapparent
p1237
atp1238
Rp1239
(dp1240
g17
VJJ
p1241
sbag5
(g6
g7
(lp1242
Vmovement
p1243
atp1244
Rp1245
(dp1246
g17
VNN
p1247
sbatp1248
Rp1249
(dp1250
g17
VNP
p1251
sbag5
(g6
g7
(lp1252
g5
(g6
g7
(lp1253
Vmay
p1254
atp1255
Rp1256
(dp1257
g17
VMD
p1258
sbag5
(g6
g7
(lp1259
g5
(g6
g7
(lp1260
Vexceed
p1261
atp1262
Rp1263
(dp1264
g17
VVB
p1265
sbag5
(g6
g7
(lp1266
g5
(g6
g7
(lp1267
Vthe
p1268
atp1269
Rp1270
(dp1271
g17
VDT
p1272
sbag5
(g6
g7
(lp1273
Vpositional
p1274
atp1275
Rp1276
(dp1277
g17
VJJ
p1278
sbag5
(g6
g7
(lp1279
Verror
p1280
atp1281
Rp1282
(dp1283
g17
VNN
p1284
sbatp1285
Rp1286
(dp1287
g17
VNP
p1288
sbatp1289
Rp1290
(dp1291
g17
VVP
p1292
sbatp1293
Rp1294
(dp1295
g17
VVP
p1296
sbatp1297
Rp1298
(dp1299
g17
g70
sbag5
(g6
g7
(lp1300
g184
atp1301
Rp1302
(dp1303
g17
g184
sbag5
(g6
g7
(lp1304
Vand
p1305
atp1306
Rp1307
(dp1308
g17
VCC
p1309
sbag5
(g6
g7
(lp1310
g5
(g6
g7
(lp1311
g5
(g6
g7
(lp1312
Vtherefore
p1313
atp1314
Rp1315
(dp1316
g17
VRB
p1317
sbatp1318
Rp1319
(dp1320
g17
VADVP
p1321
sbag5
(g6
g7
(lp1322
g5
(g6
g7
(lp1323
g995
atp1324
Rp1325
(dp1326
g17
VDT
p1327
sbag5
(g6
g7
(lp1328
Vlarger
p1329
atp1330
Rp1331
(dp1332
g17
VJJR
p1333
sbag5
(g6
g7
(lp1334
Vthreshold
p1335
atp1336
Rp1337
(dp1338
g17
VNN
p1339
sbatp1340
Rp1341
(dp1342
g17
VNP
p1343
sbag5
(g6
g7
(lp1344
g5
(g6
g7
(lp1345
Vis
p1346
atp1347
Rp1348
(dp1349
g17
VVBZ
p1350
sbag5
(g6
g7
(lp1351
g5
(g6
g7
(lp1352
Vneeded
p1353
atp1354
Rp1355
(dp1356
g17
VVBN
p1357
sbag5
(g6
g7
(lp1358
g5
(g6
g7
(lp1359
Vfor
p1360
atp1361
Rp1362
(dp1363
g17
VIN
p1364
sbag5
(g6
g7
(lp1365
g5
(g6
g7
(lp1366
Vthe
p1367
atp1368
Rp1369
(dp1370
g17
VDT
p1371
sbag5
(g6
g7
(lp1372
Vmatch
p1373
atp1374
Rp1375
(dp1376
g17
VNN
p1377
sbag5
(g6
g7
(lp1378
Vcriterion
p1379
atp1380
Rp1381
(dp1382
g17
VNN
p1383
sbatp1384
Rp1385
(dp1386
g17
VNP
p1387
sbatp1388
Rp1389
(dp1390
g17
VPP
p1391
sbatp1392
Rp1393
(dp1394
g17
VVP
p1395
sbatp1396
Rp1397
(dp1398
g17
VVP
p1399
sbatp1400
Rp1401
(dp1402
g17
g70
sbag5
(g6
g7
(lp1403
g461
atp1404
Rp1405
(dp1406
g17
g461
sbatp1407
Rp1408
(dp1409
g17
g70
sbatp1410
Rp1411
(dp1412
g17
VROOT
p1413
sbasg472
(icmyPackage
CorE
p1414
(dp1415
g475
(lp1416
(I0
I0
tp1417
a(I0
I12
tp1418
asg479
g1298
sbsg485
(icmyPackage
CorE
p1419
(dp1420
g475
(lp1421
(I0
I16
tp1422
a(I0
I25
tp1423
asg479
g5
(g6
g7
(lp1424
g1341
ag1397
ag1405
atp1425
Rp1426
(dp1427
g17
g484
sbsbsg495
(icmyPackage
pattern
p1428
(dp1429
g498
I62
sg499
I1
sg500
(lp1430
(lp1431
S'therefore'
p1432
aasg504
(lp1433
I1
aI1
aI1
asg506
(lp1434
S'He never lies; therefore, everyone likes to make friends with him.'
p1435
asg509
I1
sg510
(lp1436
(lp1437
S'&C'
p1438
aS'(,/;/./--)'
p1439
aS'(&AND)'
p1440
aa(lp1441
S'(,)'
p1442
aS'&R'
p1443
aasbsg519
(lp1444
(icmyPackage
Sent
p1445
(dp1446
g523
I1
sg524
I3
sg525
S"In those cases the object's apparent movement may exceed the positional error, and therefore a larger threshold is needed for the match criterion."
p1447
sg527
I0
sg528
I31
sg479
(lp1448
g1411
asbasba(icmyPackage
CELink
p1449
(dp1450
g3
(lp1451
g5
(g6
g7
(lp1452
g5
(g6
g7
(lp1453
g5
(g6
g7
(lp1454
g5
(g6
g7
(lp1455
VIf
p1456
atp1457
Rp1458
(dp1459
g17
VIN
p1460
sbag5
(g6
g7
(lp1461
g5
(g6
g7
(lp1462
g5
(g6
g7
(lp1463
Vthe
p1464
atp1465
Rp1466
(dp1467
g17
VDT
p1468
sbag5
(g6
g7
(lp1469
VSDSS
p1470
atp1471
Rp1472
(dp1473
g17
VNNS
p1474
sbatp1475
Rp1476
(dp1477
g17
VNP
p1478
sbag5
(g6
g7
(lp1479
g5
(g6
g7
(lp1480
Vwere
p1481
atp1482
Rp1483
(dp1484
g17
VVBD
p1485
sbag5
(g6
g7
(lp1486
g5
(g6
g7
(lp1487
Vin
p1488
atp1489
Rp1490
(dp1491
g17
VIN
p1492
sbag5
(g6
g7
(lp1493
g5
(g6
g7
(lp1494
g5
(g6
g7
(lp1495
Vthe
p1496
atp1497
Rp1498
(dp1499
g17
VDT
p1500
sbag5
(g6
g7
(lp1501
Vgalactic
p1502
atp1503
Rp1504
(dp1505
g17
VJJ
p1506
sbag5
(g6
g7
(lp1507
Vplane
p1508
atp1509
Rp1510
(dp1511
g17
VNN
p1512
sbatp1513
Rp1514
(dp1515
g17
VNP
p1516
sbag5
(g6
g7
(lp1517
g184
atp1518
Rp1519
(dp1520
g17
g184
sbag5
(g6
g7
(lp1521
g5
(g6
g7
(lp1522
Vnot
p1523
atp1524
Rp1525
(dp1526
g17
VRB
p1527
sbag5
(g6
g7
(lp1528
Vto
p1529
atp1530
Rp1531
(dp1532
g17
VTO
p1533
sbag5
(g6
g7
(lp1534
Vmention
p1535
atp1536
Rp1537
(dp1538
g17
VVB
p1539
sbatp1540
Rp1541
(dp1542
g17
VCONJP
p1543
sbag5
(g6
g7
(lp1544
g5
(g6
g7
(lp1545
g5
(g6
g7
(lp1546
Vthe
p1547
atp1548
Rp1549
(dp1550
g17
VDT
p1551
sbag5
(g6
g7
(lp1552
Vgalactic
p1553
atp1554
Rp1555
(dp1556
g17
VNN
p1557
sbatp1558
Rp1559
(dp1560
g17
VNP
p1561
sbag5
(g6
g7
(lp1562
g5
(g6
g7
(lp1563
Vcenter
p1564
atp1565
Rp1566
(dp1567
g17
VNN
p1568
sbatp1569
Rp1570
(dp1571
g17
VNP
p1572
sbatp1573
Rp1574
(dp1575
g17
VNP
p1576
sbatp1577
Rp1578
(dp1579
g17
VNP
p1580
sbatp1581
Rp1582
(dp1583
g17
VPP
p1584
sbatp1585
Rp1586
(dp1587
g17
VVP
p1588
sbatp1589
Rp1590
(dp1591
g17
g70
sbatp1592
Rp1593
(dp1594
g17
VSBAR
p1595
sbag5
(g6
g7
(lp1596
g184
atp1597
Rp1598
(dp1599
g17
g184
sbag5
(g6
g7
(lp1600
g5
(g6
g7
(lp1601
Vit
p1602
atp1603
Rp1604
(dp1605
g17
VPRP
p1606
sbatp1607
Rp1608
(dp1609
g17
VNP
p1610
sbag5
(g6
g7
(lp1611
g5
(g6
g7
(lp1612
g5
(g6
g7
(lp1613
Vwould
p1614
atp1615
Rp1616
(dp1617
g17
VMD
p1618
sbag5
(g6
g7
(lp1619
g5
(g6
g7
(lp1620
Vhave
p1621
atp1622
Rp1623
(dp1624
g17
VVB
p1625
sbag5
(g6
g7
(lp1626
g5
(g6
g7
(lp1627
g5
(g6
g7
(lp1628
Vvery
p1629
atp1630
Rp1631
(dp1632
g17
VRB
p1633
sbag5
(g6
g7
(lp1634
Vcrowded
p1635
atp1636
Rp1637
(dp1638
g17
VVBN
p1639
sbatp1640
Rp1641
(dp1642
g17
VADJP
p1643
sbag5
(g6
g7
(lp1644
Vfields
p1645
atp1646
Rp1647
(dp1648
g17
VNNS
p1649
sbatp1650
Rp1651
(dp1652
g17
VNP
p1653
sbatp1654
Rp1655
(dp1656
g17
VVP
p1657
sbatp1658
Rp1659
(dp1660
g17
VVP
p1661
sbag5
(g6
g7
(lp1662
g184
atp1663
Rp1664
(dp1665
g17
g184
sbag5
(g6
g7
(lp1666
Vand
p1667
atp1668
Rp1669
(dp1670
g17
VCC
p1671
sbag5
(g6
g7
(lp1672
g5
(g6
g7
(lp1673
Vwould
p1674
atp1675
Rp1676
(dp1677
g17
VMD
p1678
sbag5
(g6
g7
(lp1679
g5
(g6
g7
(lp1680
Vhave
p1681
atp1682
Rp1683
(dp1684
g17
VVB
p1685
sbag5
(g6
g7
(lp1686
g5
(g6
g7
(lp1687
g5
(g6
g7
(lp1688
g995
atp1689
Rp1690
(dp1691
g17
VDT
p1692
sbag5
(g6
g7
(lp1693
Vcombinatorial
p1694
atp1695
Rp1696
(dp1697
g17
VJJ
p1698
sbag5
(g6
g7
(lp1699
Vexplosion
p1700
atp1701
Rp1702
(dp1703
g17
VNN
p1704
sbatp1705
Rp1706
(dp1707
g17
VNP
p1708
sbag5
(g6
g7
(lp1709
g5
(g6
g7
(lp1710
Vusing
p1711
atp1712
Rp1713
(dp1714
g17
VVBG
p1715
sbag5
(g6
g7
(lp1716
g5
(g6
g7
(lp1717
Vsuch
p1718
atp1719
Rp1720
(dp1721
g17
VPDT
p1722
sbag5
(g6
g7
(lp1723
g995
atp1724
Rp1725
(dp1726
g17
VDT
p1727
sbag5
(g6
g7
(lp1728
Vlarge
p1729
atp1730
Rp1731
(dp1732
g17
VJJ
p1733
sbag5
(g6
g7
(lp1734
Vclassification
p1735
atp1736
Rp1737
(dp1738
g17
VNN
p1739
sbag5
(g6
g7
(lp1740
Vdistance
p1741
atp1742
Rp1743
(dp1744
g17
VNN
p1745
sbatp1746
Rp1747
(dp1748
g17
VNP
p1749
sbatp1750
Rp1751
(dp1752
g17
VVP
p1753
sbatp1754
Rp1755
(dp1756
g17
VNP
p1757
sbatp1758
Rp1759
(dp1760
g17
VVP
p1761
sbatp1762
Rp1763
(dp1764
g17
VVP
p1765
sbatp1766
Rp1767
(dp1768
g17
VVP
p1769
sbag5
(g6
g7
(lp1770
g461
atp1771
Rp1772
(dp1773
g17
g461
sbatp1774
Rp1775
(dp1776
g17
g70
sbatp1777
Rp1778
(dp1779
g17
VROOT
p1780
sbasg472
(icmyPackage
CorE
p1781
(dp1782
g475
(lp1783
(I0
I1
tp1784
a(I0
I7
tp1785
asg479
g5
(g6
g7
(lp1786
g1476
ag1483
ag1490
ag1514
atp1787
Rp1788
(dp1789
g17
g484
sbsbsg485
(icmyPackage
CorE
p1790
(dp1791
g475
(lp1792
(I0
I9
tp1793
a(I0
I35
tp1794
asg479
g5
(g6
g7
(lp1795
g1541
ag1574
ag1598
ag1608
ag1767
ag1772
atp1796
Rp1797
(dp1798
g17
g484
sbsbsg495
g1155
sg519
(lp1799
(icmyPackage
Sent
p1800
(dp1801
g523
I1
sg524
I4
sg525
S'If the SDSS were in the galactic plane, not to mention the galactic center, it would have very crowded fields, and would have a combinatorial explosion using such a large classification distance.'
p1802
sg527
I0
sg528
I37
sg479
(lp1803
g1778
asbasba(icmyPackage
CELink
p1804
(dp1805
g3
(lp1806
g5
(g6
g7
(lp1807
g5
(g6
g7
(lp1808
g5
(g6
g7
(lp1809
g5
(g6
g7
(lp1810
g5
(g6
g7
(lp1811
VHaving
p1812
atp1813
Rp1814
(dp1815
g17
VVBG
p1816
sbag5
(g6
g7
(lp1817
g5
(g6
g7
(lp1818
g5
(g6
g7
(lp1819
g5
(g6
g7
(lp1820
g995
atp1821
Rp1822
(dp1823
g17
VDT
p1824
sbag5
(g6
g7
(lp1825
Vshort
p1826
atp1827
Rp1828
(dp1829
g17
VJJ
p1830
sbag5
(g6
g7
(lp1831
Vlist
p1832
atp1833
Rp1834
(dp1835
g17
VNN
p1836
sbatp1837
Rp1838
(dp1839
g17
VNP
p1840
sbag5
(g6
g7
(lp1841
g5
(g6
g7
(lp1842
Vof
p1843
atp1844
Rp1845
(dp1846
g17
VIN
p1847
sbag5
(g6
g7
(lp1848
g5
(g6
g7
(lp1849
Vall
p1850
atp1851
Rp1852
(dp1853
g17
VDT
p1854
sbag5
(g6
g7
(lp1855
Vcandidate
p1856
atp1857
Rp1858
(dp1859
g17
VNN
p1860
sbatp1861
Rp1862
(dp1863
g17
VNP
p1864
sbatp1865
Rp1866
(dp1867
g17
VPP
p1868
sbatp1869
Rp1870
(dp1871
g17
VNP
p1872
sbag5
(g6
g7
(lp1873
g5
(g6
g7
(lp1874
Vmatch
p1875
atp1876
Rp1877
(dp1878
g17
VVB
p1879
sbag5
(g6
g7
(lp1880
g5
(g6
g7
(lp1881
Vobjects
p1882
atp1883
Rp1884
(dp1885
g17
VNNS
p1886
sbatp1887
Rp1888
(dp1889
g17
VNP
p1890
sbatp1891
Rp1892
(dp1893
g17
VVP
p1894
sbatp1895
Rp1896
(dp1897
g17
g70
sbatp1898
Rp1899
(dp1900
g17
VVP
p1901
sbatp1902
Rp1903
(dp1904
g17
g70
sbag5
(g6
g7
(lp1905
g5
(g6
g7
(lp1906
Vallows
p1907
atp1908
Rp1909
(dp1910
g17
VVBZ
p1911
sbag5
(g6
g7
(lp1912
g5
(g6
g7
(lp1913
g5
(g6
g7
(lp1914
Vmore
p1915
atp1916
Rp1917
(dp1918
g17
VRBR
p1919
sbag5
(g6
g7
(lp1920
Vsophisticated
p1921
atp1922
Rp1923
(dp1924
g17
VJJ
p1925
sbatp1926
Rp1927
(dp1928
g17
VADJP
p1929
sbag5
(g6
g7
(lp1930
Vtests
p1931
atp1932
Rp1933
(dp1934
g17
VNNS
p1935
sbatp1936
Rp1937
(dp1938
g17
VNP
p1939
sbag5
(g6
g7
(lp1940
g5
(g6
g7
(lp1941
g5
(g6
g7
(lp1942
Vto
p1943
atp1944
Rp1945
(dp1946
g17
VTO
p1947
sbag5
(g6
g7
(lp1948
g5
(g6
g7
(lp1949
Vwork
p1950
atp1951
Rp1952
(dp1953
g17
VVB
p1954
sbag5
(g6
g7
(lp1955
g5
(g6
g7
(lp1956
Vmuch
p1957
atp1958
Rp1959
(dp1960
g17
VRB
p1961
sbag5
(g6
g7
(lp1962
Vmore
p1963
atp1964
Rp1965
(dp1966
g17
VRBR
p1967
sbag5
(g6
g7
(lp1968
Vquickly
p1969
atp1970
Rp1971
(dp1972
g17
VRB
p1973
sbatp1974
Rp1975
(dp1976
g17
VADVP
p1977
sbag5
(g6
g7
(lp1978
g5
(g6
g7
(lp1979
Vby
p1980
atp1981
Rp1982
(dp1983
g17
VIN
p1984
sbag5
(g6
g7
(lp1985
g5
(g6
g7
(lp1986
g5
(g6
g7
(lp1987
Vlimiting
p1988
atp1989
Rp1990
(dp1991
g17
VVBG
p1992
sbag5
(g6
g7
(lp1993
g5
(g6
g7
(lp1994
Vtheir
p1995
atp1996
Rp1997
(dp1998
g17
VPRP$
p1999
sbag5
(g6
g7
(lp2000
Vsearch
p2001
atp2002
Rp2003
(dp2004
g17
VNN
p2005
sbag5
(g6
g7
(lp2006
Vspace
p2007
atp2008
Rp2009
(dp2010
g17
VNN
p2011
sbatp2012
Rp2013
(dp2014
g17
VNP
p2015
sbatp2016
Rp2017
(dp2018
g17
VVP
p2019
sbatp2020
Rp2021
(dp2022
g17
g70
sbatp2023
Rp2024
(dp2025
g17
VPP
p2026
sbatp2027
Rp2028
(dp2029
g17
VVP
p2030
sbatp2031
Rp2032
(dp2033
g17
VVP
p2034
sbatp2035
Rp2036
(dp2037
g17
g70
sbatp2038
Rp2039
(dp2040
g17
VVP
p2041
sbag5
(g6
g7
(lp2042
g461
atp2043
Rp2044
(dp2045
g17
g461
sbatp2046
Rp2047
(dp2048
g17
g70
sbatp2049
Rp2050
(dp2051
g17
VROOT
p2052
sbasg472
(icmyPackage
CorE
p2053
(dp2054
g475
(lp2055
(I0
I19
tp2056
a(I0
I22
tp2057
asg479
g2021
sbsg485
(icmyPackage
CorE
p2058
(dp2059
g475
(lp2060
(I0
I1
tp2061
a(I0
I17
tp2062
asg479
g5
(g6
g7
(lp2063
g1896
ag1909
ag1937
ag1945
ag1952
ag1975
atp2064
Rp2065
(dp2066
g17
g484
sbsbsg495
(icmyPackage
pattern
p2067
(dp2068
g498
I0
sg499
I0
sg500
(lp2069
(lp2070
(lp2071
S'by'
p2072
aS'through'
p2073
aaasg504
(lp2074
I2
aI1
aI1
asg506
(lp2075
S'The similar relation can be detected by analyzing the contents of nodes based on such approaches as the Latent Semantic Analysis (LSA) and the Vector Space Model (VSM)'
p2076
asg509
I68
sg510
(lp2077
(lp2078
S'&R@Complete@'
p2079
aa(lp2080
S'&V-ing@C@'
p2081
aasbsg519
(lp2082
(icmyPackage
Sent
p2083
(dp2084
g523
I1
sg524
I5
sg525
S'Having a short list of all candidate match objects allows more sophisticated tests to work much more quickly by limiting their search space.'
p2085
sg527
I0
sg528
I41
sg479
(lp2086
g2050
asbasba(icmyPackage
CELink
p2087
(dp2088
g3
(lp2089
g5
(g6
g7
(lp2090
g5
(g6
g7
(lp2091
g5
(g6
g7
(lp2092
g5
(g6
g7
(lp2093
VGiven
p2094
atp2095
Rp2096
(dp2097
g17
VVBN
p2098
sbag5
(g6
g7
(lp2099
g5
(g6
g7
(lp2100
g5
(g6
g7
(lp2101
Vtwo
p2102
atp2103
Rp2104
(dp2105
g17
VCD
p2106
sbag5
(g6
g7
(lp2107
Vruns
p2108
atp2109
Rp2110
(dp2111
g17
VNNS
p2112
sbatp2113
Rp2114
(dp2115
g17
VNP
p2116
sbag5
(g6
g7
(lp2117
g5
(g6
g7
(lp2118
g5
(g6
g7
(lp2119
Vthat
p2120
atp2121
Rp2122
(dp2123
g17
VWDT
p2124
sbatp2125
Rp2126
(dp2127
g17
VWHNP
p2128
sbag5
(g6
g7
(lp2129
g5
(g6
g7
(lp2130
g5
(g6
g7
(lp2131
Voverlap
p2132
atp2133
Rp2134
(dp2135
g17
VVBP
p2136
sbatp2137
Rp2138
(dp2139
g17
VVP
p2140
sbatp2141
Rp2142
(dp2143
g17
g70
sbatp2144
Rp2145
(dp2146
g17
VSBAR
p2147
sbatp2148
Rp2149
(dp2150
g17
VNP
p2151
sbatp2152
Rp2153
(dp2154
g17
VPP
p2155
sbag5
(g6
g7
(lp2156
g184
atp2157
Rp2158
(dp2159
g17
g184
sbag5
(g6
g7
(lp2160
g5
(g6
g7
(lp2161
Vif
p2162
atp2163
Rp2164
(dp2165
g17
VIN
p2166
sbag5
(g6
g7
(lp2167
g5
(g6
g7
(lp2168
g5
(g6
g7
(lp2169
Vobject
p2170
atp2171
Rp2172
(dp2173
g17
VNNP
p2174
sbag5
(g6
g7
(lp2175
VO1
p2176
atp2177
Rp2178
(dp2179
g17
VNNP
p2180
sbatp2181
Rp2182
(dp2183
g17
VNP
p2184
sbag5
(g6
g7
(lp2185
g5
(g6
g7
(lp2186
Vobserved
p2187
atp2188
Rp2189
(dp2190
g17
VVBD
p2191
sbag5
(g6
g7
(lp2192
g5
(g6
g7
(lp2193
Vin
p2194
atp2195
Rp2196
(dp2197
g17
VIN
p2198
sbag5
(g6
g7
(lp2199
g5
(g6
g7
(lp2200
g5
(g6
g7
(lp2201
Vrun1
p2202
atp2203
Rp2204
(dp2205
g17
VJJ
p2206
sbag5
(g6
g7
(lp2207
Vmatches
p2208
atp2209
Rp2210
(dp2211
g17
VJJ
p2212
sbag5
(g6
g7
(lp2213
Vobject
p2214
atp2215
Rp2216
(dp2217
g17
VNN
p2218
sbag5
(g6
g7
(lp2219
VO2
p2220
atp2221
Rp2222
(dp2223
g17
VNN
p2224
sbatp2225
Rp2226
(dp2227
g17
VNP
p2228
sbag5
(g6
g7
(lp2229
g5
(g6
g7
(lp2230
Vin
p2231
atp2232
Rp2233
(dp2234
g17
VIN
p2235
sbag5
(g6
g7
(lp2236
g5
(g6
g7
(lp2237
Vrun2
p2238
atp2239
Rp2240
(dp2241
g17
VCD
p2242
sbatp2243
Rp2244
(dp2245
g17
VNP
p2246
sbatp2247
Rp2248
(dp2249
g17
VPP
p2250
sbatp2251
Rp2252
(dp2253
g17
VNP
p2254
sbatp2255
Rp2256
(dp2257
g17
VPP
p2258
sbatp2259
Rp2260
(dp2261
g17
VVP
p2262
sbatp2263
Rp2264
(dp2265
g17
g70
sbatp2266
Rp2267
(dp2268
g17
VSBAR
p2269
sbag5
(g6
g7
(lp2270
g184
atp2271
Rp2272
(dp2273
g17
g184
sbag5
(g6
g7
(lp2274
g5
(g6
g7
(lp2275
Vwe
p2276
atp2277
Rp2278
(dp2279
g17
VPRP
p2280
sbatp2281
Rp2282
(dp2283
g17
VNP
p2284
sbag5
(g6
g7
(lp2285
g5
(g6
g7
(lp2286
Vcall
p2287
atp2288
Rp2289
(dp2290
g17
VVBP
p2291
sbag5
(g6
g7
(lp2292
g5
(g6
g7
(lp2293
g5
(g6
g7
(lp2294
Vthe
p2295
atp2296
Rp2297
(dp2298
g17
VDT
p2299
sbag5
(g6
g7
(lp2300
Vpair
p2301
atp2302
Rp2303
(dp2304
g17
VNN
p2305
sbatp2306
Rp2307
(dp2308
g17
VNP
p2309
sbag5
(g6
g7
(lp2310
g5
(g6
g7
(lp2311
g5
(g6
g7
(lp2312
g5
(g6
g7
(lp2313
Van
p2314
atp2315
Rp2316
(dp2317
g17
VDT
p2318
sbag5
(g6
g7
(lp2319
VO1-run2
p2320
atp2321
Rp2322
(dp2323
g17
VNN
p2324
sbatp2325
Rp2326
(dp2327
g17
VNP
p2328
sbag5
(g6
g7
(lp2329
g5
(g6
g7
(lp2330
Vhit
p2331
atp2332
Rp2333
(dp2334
g17
VVBD
p2335
sbatp2336
Rp2337
(dp2338
g17
VVP
p2339
sbatp2340
Rp2341
(dp2342
g17
g70
sbatp2343
Rp2344
(dp2345
g17
VSBAR
p2346
sbatp2347
Rp2348
(dp2349
g17
VNP
p2350
sbatp2351
Rp2352
(dp2353
g17
VVP
p2354
sbag5
(g6
g7
(lp2355
g461
atp2356
Rp2357
(dp2358
g17
g461
sbatp2359
Rp2360
(dp2361
g17
g70
sbatp2362
Rp2363
(dp2364
g17
VROOT
p2365
sbasg472
(icmyPackage
CorE
p2366
(dp2367
g475
(lp2368
(I0
I7
tp2369
a(I0
I25
tp2370
asg479
g5
(g6
g7
(lp2371
g2264
ag2272
ag2282
ag2352
ag2357
atp2372
Rp2373
(dp2374
g17
g484
sbsbsg485
(icmyPackage
CorE
p2375
(dp2376
g475
(lp2377
(I0
I3
tp2378
a(I0
I5
tp2379
asg479
g5
(g6
g7
(lp2380
g2145
ag2158
atp2381
Rp2382
(dp2383
g17
g484
sbsbsg495
g809
sg519
(lp2384
(icmyPackage
Sent
p2385
(dp2386
g523
I1
sg524
I6
sg525
S'Given two runs that overlap, if object O1 observed in run1 matches object O2 in run2, we call the pair an O1-run2 hit.'
p2387
sg527
I0
sg528
I42
sg479
(lp2388
g2363
asbasba(icmyPackage
CELink
p2389
(dp2390
g3
(lp2391
g5
(g6
g7
(lp2392
g5
(g6
g7
(lp2393
g5
(g6
g7
(lp2394
g5
(g6
g7
(lp2395
VIf
p2396
atp2397
Rp2398
(dp2399
g17
VIN
p2400
sbag5
(g6
g7
(lp2401
g5
(g6
g7
(lp2402
g5
(g6
g7
(lp2403
Vthere
p2404
atp2405
Rp2406
(dp2407
g17
VEX
p2408
sbatp2409
Rp2410
(dp2411
g17
VNP
p2412
sbag5
(g6
g7
(lp2413
g5
(g6
g7
(lp2414
Vare
p2415
atp2416
Rp2417
(dp2418
g17
VVBP
p2419
sbag5
(g6
g7
(lp2420
g5
(g6
g7
(lp2421
Vno
p2422
atp2423
Rp2424
(dp2425
g17
VDT
p2426
sbag5
(g6
g7
(lp2427
VO1-run2
p2428
atp2429
Rp2430
(dp2431
g17
VNN
p2432
sbag5
(g6
g7
(lp2433
Vhits
p2434
atp2435
Rp2436
(dp2437
g17
VNNS
p2438
sbatp2439
Rp2440
(dp2441
g17
VNP
p2442
sbatp2443
Rp2444
(dp2445
g17
VVP
p2446
sbatp2447
Rp2448
(dp2449
g17
g70
sbatp2450
Rp2451
(dp2452
g17
VSBAR
p2453
sbag5
(g6
g7
(lp2454
g184
atp2455
Rp2456
(dp2457
g17
g184
sbag5
(g6
g7
(lp2458
g5
(g6
g7
(lp2459
Vwe
p2460
atp2461
Rp2462
(dp2463
g17
VPRP
p2464
sbatp2465
Rp2466
(dp2467
g17
VNP
p2468
sbag5
(g6
g7
(lp2469
g5
(g6
g7
(lp2470
Vcall
p2471
atp2472
Rp2473
(dp2474
g17
VVBP
p2475
sbag5
(g6
g7
(lp2476
g5
(g6
g7
(lp2477
Vit
p2478
atp2479
Rp2480
(dp2481
g17
VPRP
p2482
sbatp2483
Rp2484
(dp2485
g17
VNP
p2486
sbag5
(g6
g7
(lp2487
g5
(g6
g7
(lp2488
g5
(g6
g7
(lp2489
g5
(g6
g7
(lp2490
Van
p2491
atp2492
Rp2493
(dp2494
g17
VDT
p2495
sbag5
(g6
g7
(lp2496
VO1-run2
p2497
atp2498
Rp2499
(dp2500
g17
VNN
p2501
sbatp2502
Rp2503
(dp2504
g17
VNP
p2505
sbag5
(g6
g7
(lp2506
g5
(g6
g7
(lp2507
Vmiss
p2508
atp2509
Rp2510
(dp2511
g17
VVBP
p2512
sbatp2513
Rp2514
(dp2515
g17
VVP
p2516
sbatp2517
Rp2518
(dp2519
g17
g70
sbatp2520
Rp2521
(dp2522
g17
VSBAR
p2523
sbatp2524
Rp2525
(dp2526
g17
VVP
p2527
sbag5
(g6
g7
(lp2528
g461
atp2529
Rp2530
(dp2531
g17
g461
sbatp2532
Rp2533
(dp2534
g17
g70
sbatp2535
Rp2536
(dp2537
g17
VROOT
p2538
sbasg472
(icmyPackage
CorE
p2539
(dp2540
g475
(lp2541
(I0
I1
tp2542
a(I0
I5
tp2543
asg479
g2448
sbsg485
(icmyPackage
CorE
p2544
(dp2545
g475
(lp2546
(I0
I7
tp2547
a(I0
I13
tp2548
asg479
g5
(g6
g7
(lp2549
g2466
ag2525
ag2530
atp2550
Rp2551
(dp2552
g17
g484
sbsbsg495
g1155
sg519
(lp2553
(icmyPackage
Sent
p2554
(dp2555
g523
I1
sg524
I6
sg525
S'If there are no O1-run2 hits, we call it an O1-run2 miss.'
p2556
sg527
I0
sg528
I44
sg479
(lp2557
g2536
asbasba(icmyPackage
CELink
p2558
(dp2559
g3
(lp2560
g5
(g6
g7
(lp2561
g5
(g6
g7
(lp2562
g5
(g6
g7
(lp2563
g5
(g6
g7
(lp2564
VO1
p2565
atp2566
Rp2567
(dp2568
g17
VNNP
p2569
sbatp2570
Rp2571
(dp2572
g17
VNP
p2573
sbag5
(g6
g7
(lp2574
g5
(g6
g7
(lp2575
Vis
p2576
atp2577
Rp2578
(dp2579
g17
VVBZ
p2580
sbag5
(g6
g7
(lp2581
g5
(g6
g7
(lp2582
Vat
p2583
atp2584
Rp2585
(dp2586
g17
VIN
p2587
sbag5
(g6
g7
(lp2588
g5
(g6
g7
(lp2589
g5
(g6
g7
(lp2590
g5
(g6
g7
(lp2591
g5
(g6
g7
(lp2592
Vthe
p2593
atp2594
Rp2595
(dp2596
g17
VDT
p2597
sbag5
(g6
g7
(lp2598
Vdetection
p2599
atp2600
Rp2601
(dp2602
g17
VNN
p2603
sbag5
(g6
g7
(lp2604
Vthreshold
p2605
atp2606
Rp2607
(dp2608
g17
VNN
p2609
sbatp2610
Rp2611
(dp2612
g17
VNP
p2613
sbag5
(g6
g7
(lp2614
Vand
p2615
atp2616
Rp2617
(dp2618
g17
VCC
p2619
sbag5
(g6
g7
(lp2620
g5
(g6
g7
(lp2621
Vthe
p2622
atp2623
Rp2624
(dp2625
g17
VDT
p2626
sbag5
(g6
g7
(lp2627
Vseeing
p2628
atp2629
Rp2630
(dp2631
g17
VNN
p2632
sbatp2633
Rp2634
(dp2635
g17
VNP
p2636
sbatp2637
Rp2638
(dp2639
g17
VNP
p2640
sbag5
(g6
g7
(lp2641
g5
(g6
g7
(lp2642
Vwas
p2643
atp2644
Rp2645
(dp2646
g17
VVBD
p2647
sbag5
(g6
g7
(lp2648
g5
(g6
g7
(lp2649
g5
(g6
g7
(lp2650
Vgood
p2651
atp2652
Rp2653
(dp2654
g17
VJJ
p2655
sbag5
(g6
g7
(lp2656
g5
(g6
g7
(lp2657
Vin
p2658
atp2659
Rp2660
(dp2661
g17
VIN
p2662
sbag5
(g6
g7
(lp2663
g5
(g6
g7
(lp2664
Vrun1
p2665
atp2666
Rp2667
(dp2668
g17
VCD
p2669
sbatp2670
Rp2671
(dp2672
g17
VNP
p2673
sbatp2674
Rp2675
(dp2676
g17
VPP
p2677
sbatp2678
Rp2679
(dp2680
g17
VADJP
p2681
sbag5
(g6
g7
(lp2682
Vbut
p2683
atp2684
Rp2685
(dp2686
g17
VCC
p2687
sbag5
(g6
g7
(lp2688
Vnot
p2689
atp2690
Rp2691
(dp2692
g17
VRB
p2693
sbag5
(g6
g7
(lp2694
g5
(g6
g7
(lp2695
Vas
p2696
atp2697
Rp2698
(dp2699
g17
VRB
p2700
sbag5
(g6
g7
(lp2701
Vgood
p2702
atp2703
Rp2704
(dp2705
g17
VJJ
p2706
sbatp2707
Rp2708
(dp2709
g17
VADJP
p2710
sbatp2711
Rp2712
(dp2713
g17
VADJP
p2714
sbag5
(g6
g7
(lp2715
g5
(g6
g7
(lp2716
Vin
p2717
atp2718
Rp2719
(dp2720
g17
VIN
p2721
sbag5
(g6
g7
(lp2722
g5
(g6
g7
(lp2723
Vrun2
p2724
atp2725
Rp2726
(dp2727
g17
VCD
p2728
sbatp2729
Rp2730
(dp2731
g17
VNP
p2732
sbatp2733
Rp2734
(dp2735
g17
VPP
p2736
sbatp2737
Rp2738
(dp2739
g17
VVP
p2740
sbatp2741
Rp2742
(dp2743
g17
g70
sbag5
(g6
g7
(lp2744
Vor
p2745
atp2746
Rp2747
(dp2748
g17
VCC
p2749
sbag5
(g6
g7
(lp2750
g5
(g6
g7
(lp2751
g5
(g6
g7
(lp2752
VO1
p2753
atp2754
Rp2755
(dp2756
g17
VNNP
p2757
sbatp2758
Rp2759
(dp2760
g17
VNP
p2761
sbag5
(g6
g7
(lp2762
g5
(g6
g7
(lp2763
Vmay
p2764
atp2765
Rp2766
(dp2767
g17
VMD
p2768
sbag5
(g6
g7
(lp2769
g5
(g6
g7
(lp2770
Vbe
p2771
atp2772
Rp2773
(dp2774
g17
VVB
p2775
sbag5
(g6
g7
(lp2776
g5
(g6
g7
(lp2777
Vinvisible
p2778
atp2779
Rp2780
(dp2781
g17
VJJ
p2782
sbatp2783
Rp2784
(dp2785
g17
VADJP
p2786
sbag5
(g6
g7
(lp2787
g5
(g6
g7
(lp2788
Vif
p2789
atp2790
Rp2791
(dp2792
g17
VIN
p2793
sbag5
(g6
g7
(lp2794
g5
(g6
g7
(lp2795
g5
(g6
g7
(lp2796
Vrun2
p2797
atp2798
Rp2799
(dp2800
g17
VNNS
p2801
sbatp2802
Rp2803
(dp2804
g17
VNP
p2805
sbag5
(g6
g7
(lp2806
g5
(g6
g7
(lp2807
Vis
p2808
atp2809
Rp2810
(dp2811
g17
VVBZ
p2812
sbag5
(g6
g7
(lp2813
g5
(g6
g7
(lp2814
g5
(g6
g7
(lp2815
g995
atp2816
Rp2817
(dp2818
g17
VDT
p2819
sbag5
(g6
g7
(lp2820
Vdifferent
p2821
atp2822
Rp2823
(dp2824
g17
VJJ
p2825
sbag5
(g6
g7
(lp2826
Vkind
p2827
atp2828
Rp2829
(dp2830
g17
VNN
p2831
sbatp2832
Rp2833
(dp2834
g17
VNP
p2835
sbag5
(g6
g7
(lp2836
Vof
p2837
atp2838
Rp2839
(dp2840
g17
VIN
p2841
sbag5
(g6
g7
(lp2842
g5
(g6
g7
(lp2843
Vinstrument
p2844
atp2845
Rp2846
(dp2847
g17
VNNP
p2848
sbag5
(g6
g7
(lp2849
V-LRB-
p2850
atp2851
Rp2852
(dp2853
g17
V-LRB-
p2854
sbag5
(g6
g7
(lp2855
Ve.g.
p2856
atp2857
Rp2858
(dp2859
g17
VNNP
p2860
sbatp2861
Rp2862
(dp2863
g17
VNP
p2864
sbatp2865
Rp2866
(dp2867
g17
VNP
p2868
sbatp2869
Rp2870
(dp2871
g17
VVP
p2872
sbatp2873
Rp2874
(dp2875
g17
g70
sbatp2876
Rp2877
(dp2878
g17
VSBAR
p2879
sbatp2880
Rp2881
(dp2882
g17
VVP
p2883
sbatp2884
Rp2885
(dp2886
g17
VVP
p2887
sbatp2888
Rp2889
(dp2890
g17
g70
sbatp2891
Rp2892
(dp2893
g17
g70
sbatp2894
Rp2895
(dp2896
g17
VPP
p2897
sbatp2898
Rp2899
(dp2900
g17
VVP
p2901
sbatp2902
Rp2903
(dp2904
g17
g70
sbatp2905
Rp2906
(dp2907
g17
VROOT
p2908
sbasg472
(icmyPackage
CorE
p2909
(dp2910
g475
(lp2911
(I0
I16
tp2912
a(I0
I32
tp2913
asg479
g5
(g6
g7
(lp2914
g2704
ag2734
ag2747
ag2759
ag2766
ag2773
ag2784
ag2791
ag2803
ag2810
ag2833
ag2839
ag2846
ag2852
atp2915
Rp2916
(dp2917
g17
g484
sbsbsg485
(icmyPackage
CorE
p2918
(dp2919
g475
(lp2920
(I0
I0
tp2921
a(I0
I14
tp2922
asg479
g5
(g6
g7
(lp2923
g2571
ag2578
ag2585
ag2638
ag2645
ag2679
ag2685
ag2691
atp2924
Rp2925
(dp2926
g17
g484
sbsbsg495
g496
sg519
(lp2927
(icmyPackage
Sent
p2928
(dp2929
g523
I1
sg524
I7
sg525
S'O1 is at the detection threshold and the seeing was good in run1 but not as good in run2 or O1 may be invisible if run2 is a different kind of instrument (e.g.'
p2930
sg527
I0
sg528
I47
sg479
(lp2931
g2906
asbasba(icmyPackage
CELink
p2932
(dp2933
g3
(lp2934
g2916
asg472
(icmyPackage
CorE
p2935
(dp2936
g475
(lp2937
(I0
I9
tp2938
a(I0
I16
tp2939
asg479
g5
(g6
g7
(lp2940
g2803
ag2810
ag2833
ag2839
ag2846
ag2852
atp2941
Rp2942
(dp2943
g17
g484
sbsbsg485
(icmyPackage
CorE
p2944
(dp2945
g475
(lp2946
(I0
I0
tp2947
a(I0
I7
tp2948
asg479
g5
(g6
g7
(lp2949
g2704
ag2734
ag2747
ag2759
ag2766
ag2773
ag2784
atp2950
Rp2951
(dp2952
g17
g484
sbsbsg495
g809
sg519
(lp2953
g2928
asba(icmyPackage
CELink
p2954
(dp2955
g3
(lp2956
g5
(g6
g7
(lp2957
g5
(g6
g7
(lp2958
g5
(g6
g7
(lp2959
g5
(g6
g7
(lp2960
g5
(g6
g7
(lp2961
VO1
p2962
atp2963
Rp2964
(dp2965
g17
VNNP
p2966
sbatp2967
Rp2968
(dp2969
g17
VNP
p2970
sbag5
(g6
g7
(lp2971
g5
(g6
g7
(lp2972
Vwas
p2973
atp2974
Rp2975
(dp2976
g17
VVBD
p2977
sbag5
(g6
g7
(lp2978
g5
(g6
g7
(lp2979
Von
p2980
atp2981
Rp2982
(dp2983
g17
VIN
p2984
sbag5
(g6
g7
(lp2985
g5
(g6
g7
(lp2986
g5
(g6
g7
(lp2987
Vthe
p2988
atp2989
Rp2990
(dp2991
g17
VDT
p2992
sbag5
(g6
g7
(lp2993
Vedge
p2994
atp2995
Rp2996
(dp2997
g17
VNN
p2998
sbatp2999
Rp3000
(dp3001
g17
VNP
p3002
sbag5
(g6
g7
(lp3003
g5
(g6
g7
(lp3004
Vof
p3005
atp3006
Rp3007
(dp3008
g17
VIN
p3009
sbag5
(g6
g7
(lp3010
g5
(g6
g7
(lp3011
Vthe
p3012
atp3013
Rp3014
(dp3015
g17
VDT
p3016
sbag5
(g6
g7
(lp3017
Vrun2
p3018
atp3019
Rp3020
(dp3021
g17
VJJ
p3022
sbag5
(g6
g7
(lp3023
Vfootprint
p3024
atp3025
Rp3026
(dp3027
g17
VNN
p3028
sbatp3029
Rp3030
(dp3031
g17
VNP
p3032
sbatp3033
Rp3034
(dp3035
g17
VPP
p3036
sbatp3037
Rp3038
(dp3039
g17
VNP
p3040
sbatp3041
Rp3042
(dp3043
g17
VPP
p3044
sbatp3045
Rp3046
(dp3047
g17
VVP
p3048
sbatp3049
Rp3050
(dp3051
g17
g70
sbag5
(g6
g7
(lp3052
Vand
p3053
atp3054
Rp3055
(dp3056
g17
VCC
p3057
sbag5
(g6
g7
(lp3058
g5
(g6
g7
(lp3059
g5
(g6
g7
(lp3060
Vso
p3061
atp3062
Rp3063
(dp3064
g17
VRB
p3065
sbag5
(g6
g7
(lp3066
Vnot
p3067
atp3068
Rp3069
(dp3070
g17
VRB
p3071
sbatp3072
Rp3073
(dp3074
g17
VADVP
p3075
sbag5
(g6
g7
(lp3076
g5
(g6
g7
(lp3077
Vall
p3078
atp3079
Rp3080
(dp3081
g17
VPDT
p3082
sbag5
(g6
g7
(lp3083
Vits
p3084
atp3085
Rp3086
(dp3087
g17
VPRP$
p3088
sbag5
(g6
g7
(lp3089
Vpixels
p3090
atp3091
Rp3092
(dp3093
g17
VNNS
p3094
sbatp3095
Rp3096
(dp3097
g17
VNP
p3098
sbag5
(g6
g7
(lp3099
g5
(g6
g7
(lp3100
Vwere
p3101
atp3102
Rp3103
(dp3104
g17
VVBD
p3105
sbag5
(g6
g7
(lp3106
g5
(g6
g7
(lp3107
Vobserved
p3108
atp3109
Rp3110
(dp3111
g17
VJJ
p3112
sbatp3113
Rp3114
(dp3115
g17
VADJP
p3116
sbatp3117
Rp3118
(dp3119
g17
VVP
p3120
sbatp3121
Rp3122
(dp3123
g17
g70
sbag5
(g6
g7
(lp3124
g461
atp3125
Rp3126
(dp3127
g17
g461
sbatp3128
Rp3129
(dp3130
g17
g70
sbatp3131
Rp3132
(dp3133
g17
VROOT
p3134
sbasg472
(icmyPackage
CorE
p3135
(dp3136
g475
(lp3137
(I0
I0
tp3138
a(I0
I8
tp3139
asg479
g3050
sbsg485
(icmyPackage
CorE
p3140
(dp3141
g475
(lp3142
(I0
I11
tp3143
a(I0
I17
tp3144
asg479
g5
(g6
g7
(lp3145
g3069
ag3096
ag3118
ag3126
atp3146
Rp3147
(dp3148
g17
g484
sbsbsg495
(icmyPackage
pattern
p3149
(dp3150
g498
I265
sg499
I1
sg500
(lp3151
(lp3152
S'so'
p3153
aasg504
(lp3154
I1
aI1
aI1
asg506
(lp3155
S'It was not long before he saw me looking at him, and so he began to move.'
p3156
asg509
I0
sg510
(lp3157
(lp3158
S'&C'
p3159
aS'(,/;/./--)'
p3160
aS'(&AND)'
p3161
aa(lp3162
S'(-far)'
p3163
aS'(,)'
p3164
aS'&R'
p3165
aasbsg519
(lp3166
(icmyPackage
Sent
p3167
(dp3168
g523
I1
sg524
I9
sg525
S'O1 was on the edge of the run2 footprint and so not all its pixels were observed.'
p3169
sg527
I0
sg528
I52
sg479
(lp3170
g3132
asbasba(icmyPackage
CELink
p3171
(dp3172
g3
(lp3173
g5
(g6
g7
(lp3174
g5
(g6
g7
(lp3175
g5
(g6
g7
(lp3176
g5
(g6
g7
(lp3177
g5
(g6
g7
(lp3178
g5
(g6
g7
(lp3179
VIn
p3180
atp3181
Rp3182
(dp3183
g17
VIN
p3184
sbag5
(g6
g7
(lp3185
g5
(g6
g7
(lp3186
g5
(g6
g7
(lp3187
Vthe
p3188
atp3189
Rp3190
(dp3191
g17
VDT
p3192
sbag5
(g6
g7
(lp3193
VSDSS
p3194
atp3195
Rp3196
(dp3197
g17
VNNS
p3198
sbatp3199
Rp3200
(dp3201
g17
VNP
p3202
sbag5
(g6
g7
(lp3203
g5
(g6
g7
(lp3204
Vabout
p3205
atp3206
Rp3207
(dp3208
g17
VIN
p3209
sbag5
(g6
g7
(lp3210
g5
(g6
g7
(lp3211
g5
(g6
g7
(lp3212
V84
p3213
atp3214
Rp3215
(dp3216
g17
VCD
p3217
sbag5
(g6
g7
(lp3218
V%
p3219
atp3220
Rp3221
(dp3222
g17
VNN
p3223
sbatp3224
Rp3225
(dp3226
g17
VNP
p3227
sbag5
(g6
g7
(lp3228
g5
(g6
g7
(lp3229
Vof
p3230
atp3231
Rp3232
(dp3233
g17
VIN
p3234
sbag5
(g6
g7
(lp3235
g5
(g6
g7
(lp3236
Vthe
p3237
atp3238
Rp3239
(dp3240
g17
VDT
p3241
sbag5
(g6
g7
(lp3242
Vmatch
p3243
atp3244
Rp3245
(dp3246
g17
VNN
p3247
sbatp3248
Rp3249
(dp3250
g17
VNP
p3251
sbatp3252
Rp3253
(dp3254
g17
VPP
p3255
sbatp3256
Rp3257
(dp3258
g17
VNP
p3259
sbatp3260
Rp3261
(dp3262
g17
VPP
p3263
sbatp3264
Rp3265
(dp3266
g17
VNP
p3267
sbatp3268
Rp3269
(dp3270
g17
VPP
p3271
sbag5
(g6
g7
(lp3272
g5
(g6
g7
(lp3273
Vpairs
p3274
atp3275
Rp3276
(dp3277
g17
VNNS
p3278
sbatp3279
Rp3280
(dp3281
g17
VNP
p3282
sbag5
(g6
g7
(lp3283
g5
(g6
g7
(lp3284
Vavoid
p3285
atp3286
Rp3287
(dp3288
g17
VVBP
p3289
sbag5
(g6
g7
(lp3290
g5
(g6
g7
(lp3291
Vthese
p3292
atp3293
Rp3294
(dp3295
g17
VDT
p3296
sbag5
(g6
g7
(lp3297
Vproblems
p3298
atp3299
Rp3300
(dp3301
g17
VNNS
p3302
sbatp3303
Rp3304
(dp3305
g17
VNP
p3306
sbatp3307
Rp3308
(dp3309
g17
VVP
p3310
sbatp3311
Rp3312
(dp3313
g17
g70
sbag5
(g6
g7
(lp3314
g184
atp3315
Rp3316
(dp3317
g17
g184
sbag5
(g6
g7
(lp3318
Vbut
p3319
atp3320
Rp3321
(dp3322
g17
VCC
p3323
sbag5
(g6
g7
(lp3324
g5
(g6
g7
(lp3325
g5
(g6
g7
(lp3326
g5
(g6
g7
(lp3327
V11
p3328
atp3329
Rp3330
(dp3331
g17
VCD
p3332
sbag5
(g6
g7
(lp3333
g3219
atp3334
Rp3335
(dp3336
g17
VNN
p3337
sbatp3338
Rp3339
(dp3340
g17
VNP
p3341
sbag5
(g6
g7
(lp3342
g5
(g6
g7
(lp3343
Vof
p3344
atp3345
Rp3346
(dp3347
g17
VIN
p3348
sbag5
(g6
g7
(lp3349
g5
(g6
g7
(lp3350
Vthe
p3351
atp3352
Rp3353
(dp3354
g17
VDT
p3355
sbag5
(g6
g7
(lp3356
Vmatches
p3357
atp3358
Rp3359
(dp3360
g17
VNN
p3361
sbatp3362
Rp3363
(dp3364
g17
VNP
p3365
sbatp3366
Rp3367
(dp3368
g17
VPP
p3369
sbatp3370
Rp3371
(dp3372
g17
VNP
p3373
sbag5
(g6
g7
(lp3374
g5
(g6
g7
(lp3375
Vare
p3376
atp3377
Rp3378
(dp3379
g17
VVBP
p3380
sbag5
(g6
g7
(lp3381
g5
(g6
g7
(lp3382
Vephemeral
p3383
atp3384
Rp3385
(dp3386
g17
VJJ
p3387
sbatp3388
Rp3389
(dp3390
g17
VADJP
p3391
sbatp3392
Rp3393
(dp3394
g17
VVP
p3395
sbatp3396
Rp3397
(dp3398
g17
g70
sbatp3399
Rp3400
(dp3401
g17
g70
sbag5
(g6
g7
(lp3402
g184
atp3403
Rp3404
(dp3405
g17
g184
sbag5
(g6
g7
(lp3406
g5
(g6
g7
(lp3407
g5
(g6
g7
(lp3408
g5
(g6
g7
(lp3409
Vabout
p3410
atp3411
Rp3412
(dp3413
g17
VRB
p3414
sbag5
(g6
g7
(lp3415
V0.5
p3416
atp3417
Rp3418
(dp3419
g17
VCD
p3420
sbatp3421
Rp3422
(dp3423
g17
VQP
p3424
sbag5
(g6
g7
(lp3425
g3219
atp3426
Rp3427
(dp3428
g17
VNN
p3429
sbatp3430
Rp3431
(dp3432
g17
VNP
p3433
sbag5
(g6
g7
(lp3434
g5
(g6
g7
(lp3435
Vare
p3436
atp3437
Rp3438
(dp3439
g17
VVBP
p3440
sbag5
(g6
g7
(lp3441
g5
(g6
g7
(lp3442
Vmasked
p3443
atp3444
Rp3445
(dp3446
g17
VVBN
p3447
sbatp3448
Rp3449
(dp3450
g17
VVP
p3451
sbatp3452
Rp3453
(dp3454
g17
VVP
p3455
sbatp3456
Rp3457
(dp3458
g17
g70
sbag5
(g6
g7
(lp3459
g184
atp3460
Rp3461
(dp3462
g17
g184
sbag5
(g6
g7
(lp3463
Vand
p3464
atp3465
Rp3466
(dp3467
g17
VCC
p3468
sbag5
(g6
g7
(lp3469
g5
(g6
g7
(lp3470
g5
(g6
g7
(lp3471
Vbecause
p3472
atp3473
Rp3474
(dp3475
g17
VIN
p3476
sbag5
(g6
g7
(lp3477
g5
(g6
g7
(lp3478
g5
(g6
g7
(lp3479
Vthe
p3480
atp3481
Rp3482
(dp3483
g17
VDT
p3484
sbag5
(g6
g7
(lp3485
VSDSS
p3486
atp3487
Rp3488
(dp3489
g17
VNNS
p3490
sbatp3491
Rp3492
(dp3493
g17
VNP
p3494
sbag5
(g6
g7
(lp3495
g5
(g6
g7
(lp3496
Voverlap
p3497
atp3498
Rp3499
(dp3500
g17
VVBP
p3501
sbag5
(g6
g7
(lp3502
g5
(g6
g7
(lp3503
g5
(g6
g7
(lp3504
g5
(g6
g7
(lp3505
Vareas
p3506
atp3507
Rp3508
(dp3509
g17
VNNS
p3510
sbatp3511
Rp3512
(dp3513
g17
VNP
p3514
sbag5
(g6
g7
(lp3515
g5
(g6
g7
(lp3516
Vare
p3517
atp3518
Rp3519
(dp3520
g17
VVBP
p3521
sbag5
(g6
g7
(lp3522
g5
(g6
g7
(lp3523
Vtypically
p3524
atp3525
Rp3526
(dp3527
g17
VRB
p3528
sbatp3529
Rp3530
(dp3531
g17
VADVP
p3532
sbag5
(g6
g7
(lp3533
g5
(g6
g7
(lp3534
Vlong-narrow
p3535
atp3536
Rp3537
(dp3538
g17
VJJ
p3539
sbag5
(g6
g7
(lp3540
Vstrips
p3541
atp3542
Rp3543
(dp3544
g17
VNNS
p3545
sbatp3546
Rp3547
(dp3548
g17
VNP
p3549
sbatp3550
Rp3551
(dp3552
g17
VVP
p3553
sbatp3554
Rp3555
(dp3556
g17
g70
sbatp3557
Rp3558
(dp3559
g17
VSBAR
p3560
sbatp3561
Rp3562
(dp3563
g17
VVP
p3564
sbatp3565
Rp3566
(dp3567
g17
g70
sbatp3568
Rp3569
(dp3570
g17
VSBAR
p3571
sbag5
(g6
g7
(lp3572
g184
atp3573
Rp3574
(dp3575
g17
g184
sbag5
(g6
g7
(lp3576
g5
(g6
g7
(lp3577
g5
(g6
g7
(lp3578
Vabout
p3579
atp3580
Rp3581
(dp3582
g17
VRB
p3583
sbag5
(g6
g7
(lp3584
V5
p3585
atp3586
Rp3587
(dp3588
g17
VCD
p3589
sbatp3590
Rp3591
(dp3592
g17
VQP
p3593
sbag5
(g6
g7
(lp3594
g3219
atp3595
Rp3596
(dp3597
g17
VNN
p3598
sbatp3599
Rp3600
(dp3601
g17
VNP
p3602
sbag5
(g6
g7
(lp3603
g5
(g6
g7
(lp3604
Vare
p3605
atp3606
Rp3607
(dp3608
g17
VVBP
p3609
sbag5
(g6
g7
(lp3610
g5
(g6
g7
(lp3611
Vedge
p3612
atp3613
Rp3614
(dp3615
g17
VNN
p3616
sbag5
(g6
g7
(lp3617
Vobjects
p3618
atp3619
Rp3620
(dp3621
g17
VNNS
p3622
sbatp3623
Rp3624
(dp3625
g17
VNP
p3626
sbatp3627
Rp3628
(dp3629
g17
VVP
p3630
sbatp3631
Rp3632
(dp3633
g17
g70
sbag5
(g6
g7
(lp3634
g461
atp3635
Rp3636
(dp3637
g17
g461
sbatp3638
Rp3639
(dp3640
g17
g70
sbatp3641
Rp3642
(dp3643
g17
VROOT
p3644
sbasg472
(icmyPackage
CorE
p3645
(dp3646
g475
(lp3647
(I0
I31
tp3648
a(I0
I38
tp3649
asg479
g3566
sbsg485
(icmyPackage
CorE
p3650
(dp3651
g475
(lp3652
(I0
I40
tp3653
a(I0
I46
tp3654
asg479
g5
(g6
g7
(lp3655
g3600
ag3628
ag3636
atp3656
Rp3657
(dp3658
g17
g484
sbsbsg495
(icmyPackage
pattern
p3659
(dp3660
g498
I18
sg499
I0
sg500
(lp3661
(lp3662
S'because'
p3663
aa(lp3664
g1163
aasg504
(lp3665
I3
aI1
aI1
asg506
(lp3666
S'Because he was absent for two weeks, the other students in his class are ahead of him.'
p3667
asg509
I75
sg510
(lp3668
(lp3669
a(lp3670
S'&C'
p3671
aa(lp3672
S'&R'
p3673
aasbsg519
(lp3674
(icmyPackage
Sent
p3675
(dp3676
g523
I1
sg524
I10
sg525
S'In the SDSS about 84% of the match pairs avoid these problems, but 11% of the matches are ephemeral, about 0.5% are masked, and because the SDSS overlap areas are typically long-narrow strips, about 5% are edge objects.'
p3677
sg527
I0
sg528
I55
sg479
(lp3678
g3642
asbasba(icmyPackage
CELink
p3679
(dp3680
g3
(lp3681
g5
(g6
g7
(lp3682
g5
(g6
g7
(lp3683
g5
(g6
g7
(lp3684
g5
(g6
g7
(lp3685
g5
(g6
g7
(lp3686
g5
(g6
g7
(lp3687
VWhen
p3688
atp3689
Rp3690
(dp3691
g17
VWRB
p3692
sbatp3693
Rp3694
(dp3695
g17
VWHADVP
p3696
sbag5
(g6
g7
(lp3697
g5
(g6
g7
(lp3698
g5
(g6
g7
(lp3699
Vcomparing
p3700
atp3701
Rp3702
(dp3703
g17
VNNP
p3704
sbatp3705
Rp3706
(dp3707
g17
VNP
p3708
sbag5
(g6
g7
(lp3709
g5
(g6
g7
(lp3710
Vruns
p3711
atp3712
Rp3713
(dp3714
g17
VVBZ
p3715
sbag5
(g6
g7
(lp3716
g5
(g6
g7
(lp3717
Vfrom
p3718
atp3719
Rp3720
(dp3721
g17
VIN
p3722
sbag5
(g6
g7
(lp3723
g5
(g6
g7
(lp3724
Vdifferent
p3725
atp3726
Rp3727
(dp3728
g17
VJJ
p3729
sbag5
(g6
g7
(lp3730
Vinstruments
p3731
atp3732
Rp3733
(dp3734
g17
VNNS
p3735
sbatp3736
Rp3737
(dp3738
g17
VNP
p3739
sbatp3740
Rp3741
(dp3742
g17
VPP
p3743
sbatp3744
Rp3745
(dp3746
g17
VVP
p3747
sbatp3748
Rp3749
(dp3750
g17
g70
sbatp3751
Rp3752
(dp3753
g17
VSBAR
p3754
sbag5
(g6
g7
(lp3755
g5
(g6
g7
(lp3756
Vthe
p3757
atp3758
Rp3759
(dp3760
g17
VDT
p3761
sbag5
(g6
g7
(lp3762
Vephemeral
p3763
atp3764
Rp3765
(dp3766
g17
VJJ
p3767
sbag5
(g6
g7
(lp3768
Vissues
p3769
atp3770
Rp3771
(dp3772
g17
VNNS
p3773
sbatp3774
Rp3775
(dp3776
g17
VNP
p3777
sbag5
(g6
g7
(lp3778
g5
(g6
g7
(lp3779
Vmay
p3780
atp3781
Rp3782
(dp3783
g17
VMD
p3784
sbag5
(g6
g7
(lp3785
g5
(g6
g7
(lp3786
Vbe
p3787
atp3788
Rp3789
(dp3790
g17
VVB
p3791
sbag5
(g6
g7
(lp3792
g5
(g6
g7
(lp3793
Veven
p3794
atp3795
Rp3796
(dp3797
g17
VRB
p3798
sbag5
(g6
g7
(lp3799
Vmore
p3800
atp3801
Rp3802
(dp3803
g17
VRBR
p3804
sbag5
(g6
g7
(lp3805
Vdramatic
p3806
atp3807
Rp3808
(dp3809
g17
VJJ
p3810
sbatp3811
Rp3812
(dp3813
g17
VADJP
p3814
sbatp3815
Rp3816
(dp3817
g17
VVP
p3818
sbatp3819
Rp3820
(dp3821
g17
VVP
p3822
sbatp3823
Rp3824
(dp3825
g17
g70
sbag5
(g6
g7
(lp3826
V--
p3827
atp3828
Rp3829
(dp3830
g17
g112
sbag5
(g6
g7
(lp3831
g5
(g6
g7
(lp3832
g5
(g6
g7
(lp3833
g5
(g6
g7
(lp3834
Vthe
p3835
atp3836
Rp3837
(dp3838
g17
VDT
p3839
sbag5
(g6
g7
(lp3840
Vobject
p3841
atp3842
Rp3843
(dp3844
g17
VNN
p3845
sbatp3846
Rp3847
(dp3848
g17
VNP
p3849
sbag5
(g6
g7
(lp3850
g5
(g6
g7
(lp3851
Vmay
p3852
atp3853
Rp3854
(dp3855
g17
VMD
p3856
sbag5
(g6
g7
(lp3857
Vnot
p3858
atp3859
Rp3860
(dp3861
g17
VRB
p3862
sbag5
(g6
g7
(lp3863
g5
(g6
g7
(lp3864
Vbe
p3865
atp3866
Rp3867
(dp3868
g17
VVB
p3869
sbag5
(g6
g7
(lp3870
g5
(g6
g7
(lp3871
Vvisible
p3872
atp3873
Rp3874
(dp3875
g17
VJJ
p3876
sbag5
(g6
g7
(lp3877
g5
(g6
g7
(lp3878
Vin
p3879
atp3880
Rp3881
(dp3882
g17
VIN
p3883
sbag5
(g6
g7
(lp3884
g5
(g6
g7
(lp3885
Vthe
p3886
atp3887
Rp3888
(dp3889
g17
VDT
p3890
sbag5
(g6
g7
(lp3891
Vsecond
p3892
atp3893
Rp3894
(dp3895
g17
VJJ
p3896
sbag5
(g6
g7
(lp3897
Vinstrument
p3898
atp3899
Rp3900
(dp3901
g17
VNN
p3902
sbatp3903
Rp3904
(dp3905
g17
VNP
p3906
sbatp3907
Rp3908
(dp3909
g17
VPP
p3910
sbatp3911
Rp3912
(dp3913
g17
VADJP
p3914
sbag5
(g6
g7
(lp3915
g5
(g6
g7
(lp3916
Vbecause
p3917
atp3918
Rp3919
(dp3920
g17
VIN
p3921
sbag5
(g6
g7
(lp3922
g5
(g6
g7
(lp3923
g5
(g6
g7
(lp3924
Vit
p3925
atp3926
Rp3927
(dp3928
g17
VPRP
p3929
sbatp3930
Rp3931
(dp3932
g17
VNP
p3933
sbag5
(g6
g7
(lp3934
g5
(g6
g7
(lp3935
Vdoes
p3936
atp3937
Rp3938
(dp3939
g17
VVBZ
p3940
sbag5
(g6
g7
(lp3941
Vnot
p3942
atp3943
Rp3944
(dp3945
g17
VRB
p3946
sbag5
(g6
g7
(lp3947
g5
(g6
g7
(lp3948
Vradiate
p3949
atp3950
Rp3951
(dp3952
g17
VVB
p3953
sbag5
(g6
g7
(lp3954
g5
(g6
g7
(lp3955
Vin
p3956
atp3957
Rp3958
(dp3959
g17
VIN
p3960
sbag5
(g6
g7
(lp3961
g5
(g6
g7
(lp3962
Vthat
p3963
atp3964
Rp3965
(dp3966
g17
VDT
p3967
sbag5
(g6
g7
(lp3968
Vspectral
p3969
atp3970
Rp3971
(dp3972
g17
VJJ
p3973
sbag5
(g6
g7
(lp3974
Vband
p3975
atp3976
Rp3977
(dp3978
g17
VNN
p3979
sbatp3980
Rp3981
(dp3982
g17
VNP
p3983
sbatp3984
Rp3985
(dp3986
g17
VPP
p3987
sbatp3988
Rp3989
(dp3990
g17
VVP
p3991
sbatp3992
Rp3993
(dp3994
g17
VVP
p3995
sbatp3996
Rp3997
(dp3998
g17
g70
sbatp3999
Rp4000
(dp4001
g17
VSBAR
p4002
sbatp4003
Rp4004
(dp4005
g17
VVP
p4006
sbatp4007
Rp4008
(dp4009
g17
VVP
p4010
sbatp4011
Rp4012
(dp4013
g17
g70
sbag5
(g6
g7
(lp4014
g184
atp4015
Rp4016
(dp4017
g17
g184
sbag5
(g6
g7
(lp4018
Vor
p4019
atp4020
Rp4021
(dp4022
g17
VCC
p4023
sbag5
(g6
g7
(lp4024
g5
(g6
g7
(lp4025
g5
(g6
g7
(lp4026
Vthe
p4027
atp4028
Rp4029
(dp4030
g17
VDT
p4031
sbag5
(g6
g7
(lp4032
Vtwo
p4033
atp4034
Rp4035
(dp4036
g17
VCD
p4037
sbag5
(g6
g7
(lp4038
Vinstruments
p4039
atp4040
Rp4041
(dp4042
g17
VNNS
p4043
sbatp4044
Rp4045
(dp4046
g17
VNP
p4047
sbag5
(g6
g7
(lp4048
g5
(g6
g7
(lp4049
Vmay
p4050
atp4051
Rp4052
(dp4053
g17
VMD
p4054
sbag5
(g6
g7
(lp4055
g5
(g6
g7
(lp4056
Vhave
p4057
atp4058
Rp4059
(dp4060
g17
VVB
p4061
sbag5
(g6
g7
(lp4062
g5
(g6
g7
(lp4063
g5
(g6
g7
(lp4064
Vvery
p4065
atp4066
Rp4067
(dp4068
g17
VRB
p4069
sbag5
(g6
g7
(lp4070
Vdifferent
p4071
atp4072
Rp4073
(dp4074
g17
VJJ
p4075
sbatp4076
Rp4077
(dp4078
g17
VADJP
p4079
sbag5
(g6
g7
(lp4080
Vsensitivity
p4081
atp4082
Rp4083
(dp4084
g17
VNN
p4085
sbatp4086
Rp4087
(dp4088
g17
VNP
p4089
sbatp4090
Rp4091
(dp4092
g17
VVP
p4093
sbatp4094
Rp4095
(dp4096
g17
VVP
p4097
sbatp4098
Rp4099
(dp4100
g17
g70
sbatp4101
Rp4102
(dp4103
g17
g70
sbag5
(g6
g7
(lp4104
g461
atp4105
Rp4106
(dp4107
g17
g461
sbatp4108
Rp4109
(dp4110
g17
g70
sbatp4111
Rp4112
(dp4113
g17
VROOT
p4114
sbasg472
(icmyPackage
CorE
p4115
(dp4116
g475
(lp4117
(I0
I26
tp4118
a(I0
I33
tp4119
asg479
g3997
sbsg485
(icmyPackage
CorE
p4120
(dp4121
g475
(lp4122
(I0
I35
tp4123
a(I0
I44
tp4124
asg479
g5
(g6
g7
(lp4125
g4021
ag4099
ag4106
atp4126
Rp4127
(dp4128
g17
g484
sbsbsg495
g3659
sg519
(lp4129
(icmyPackage
Sent
p4130
(dp4131
g523
I1
sg524
I11
sg525
S'When comparing runs from different instruments the ephemeral issues may be even more dramatic -- the object may not be visible in the second instrument because it does not radiate in that spectral band, or the two instruments may have very different sensitivity.'
p4132
sg527
I0
sg528
I56
sg479
(lp4133
g4112
asbasba(icmyPackage
CELink
p4134
(dp4135
g3
(lp4136
g5
(g6
g7
(lp4137
g5
(g6
g7
(lp4138
g5
(g6
g7
(lp4139
g5
(g6
g7
(lp4140
VIndeed
p4141
atp4142
Rp4143
(dp4144
g17
VRB
p4145
sbatp4146
Rp4147
(dp4148
g17
VADVP
p4149
sbag5
(g6
g7
(lp4150
g184
atp4151
Rp4152
(dp4153
g17
g184
sbag5
(g6
g7
(lp4154
g5
(g6
g7
(lp4155
Vthe
p4156
atp4157
Rp4158
(dp4159
g17
VDT
p4160
sbag5
(g6
g7
(lp4161
VSDSS
p4162
atp4163
Rp4164
(dp4165
g17
VNNP
p4166
sbag5
(g6
g7
(lp4167
Vcatalog
p4168
atp4169
Rp4170
(dp4171
g17
VNN
p4172
sbatp4173
Rp4174
(dp4175
g17
VNP
p4176
sbag5
(g6
g7
(lp4177
g5
(g6
g7
(lp4178
Vpre-computes
p4179
atp4180
Rp4181
(dp4182
g17
VVBZ
p4183
sbag5
(g6
g7
(lp4184
g5
(g6
g7
(lp4185
g5
(g6
g7
(lp4186
Vthe
p4187
atp4188
Rp4189
(dp4190
g17
VDT
p4191
sbag5
(g6
g7
(lp4192
Vspatial
p4193
atp4194
Rp4195
(dp4196
g17
VNN
p4197
sbatp4198
Rp4199
(dp4200
g17
VNP
p4201
sbag5
(g6
g7
(lp4202
g5
(g6
g7
(lp4203
Vjoin
p4204
atp4205
Rp4206
(dp4207
g17
VVB
p4208
sbag5
(g6
g7
(lp4209
g5
(g6
g7
(lp4210
Vas
p4211
atp4212
Rp4213
(dp4214
g17
VIN
p4215
sbag5
(g6
g7
(lp4216
g5
(g6
g7
(lp4217
Vthe
p4218
atp4219
Rp4220
(dp4221
g17
VDT
p4222
sbag5
(g6
g7
(lp4223
VNeighbors
p4224
atp4225
Rp4226
(dp4227
g17
VNNP
p4228
sbag5
(g6
g7
(lp4229
Vtable
p4230
atp4231
Rp4232
(dp4233
g17
VNN
p4234
sbatp4235
Rp4236
(dp4237
g17
VNP
p4238
sbatp4239
Rp4240
(dp4241
g17
VPP
p4242
sbag5
(g6
g7
(lp4243
g5
(g6
g7
(lp4244
g5
(g6
g7
(lp4245
Vusing
p4246
atp4247
Rp4248
(dp4249
g17
VVBG
p4250
sbag5
(g6
g7
(lp4251
g5
(g6
g7
(lp4252
g5
(g6
g7
(lp4253
Vthe
p4254
atp4255
Rp4256
(dp4257
g17
VDT
p4258
sbag5
(g6
g7
(lp4259
VZones
p4260
atp4261
Rp4262
(dp4263
g17
VNNS
p4264
sbag5
(g6
g7
(lp4265
Valgorithm
p4266
atp4267
Rp4268
(dp4269
g17
VNN
p4270
sbatp4271
Rp4272
(dp4273
g17
VNP
p4274
sbag5
(g6
g7
(lp4275
g5
(g6
g7
(lp4276
Vdescribed
p4277
atp4278
Rp4279
(dp4280
g17
VVBN
p4281
sbag5
(g6
g7
(lp4282
g5
(g6
g7
(lp4283
Vin
p4284
atp4285
Rp4286
(dp4287
g17
VIN
p4288
sbag5
(g6
g7
(lp4289
g5
(g6
g7
(lp4290
g5
(g6
g7
(lp4291
V-LSB-
p4292
atp4293
Rp4294
(dp4295
g17
VCD
p4296
sbag5
(g6
g7
(lp4297
V2
p4298
atp4299
Rp4300
(dp4301
g17
VCD
p4302
sbatp4303
Rp4304
(dp4305
g17
VQP
p4306
sbag5
(g6
g7
(lp4307
V-RSB-
p4308
atp4309
Rp4310
(dp4311
g17
VNNS
p4312
sbatp4313
Rp4314
(dp4315
g17
VNP
p4316
sbatp4317
Rp4318
(dp4319
g17
VPP
p4320
sbatp4321
Rp4322
(dp4323
g17
VVP
p4324
sbatp4325
Rp4326
(dp4327
g17
VNP
p4328
sbatp4329
Rp4330
(dp4331
g17
VVP
p4332
sbatp4333
Rp4334
(dp4335
g17
g70
sbatp4336
Rp4337
(dp4338
g17
VVP
p4339
sbatp4340
Rp4341
(dp4342
g17
g70
sbatp4343
Rp4344
(dp4345
g17
VVP
p4346
sbag5
(g6
g7
(lp4347
g461
atp4348
Rp4349
(dp4350
g17
g461
sbatp4351
Rp4352
(dp4353
g17
g70
sbatp4354
Rp4355
(dp4356
g17
VROOT
p4357
sbasg472
(icmyPackage
CorE
p4358
(dp4359
g475
(lp4360
(I0
I10
tp4361
a(I0
I22
tp4362
asg479
g5
(g6
g7
(lp4363
g4236
ag4334
ag4349
atp4364
Rp4365
(dp4366
g17
g484
sbsbsg485
(icmyPackage
CorE
p4367
(dp4368
g475
(lp4369
(I0
I0
tp4370
a(I0
I8
tp4371
asg479
g5
(g6
g7
(lp4372
g4147
ag4152
ag4174
ag4181
ag4199
ag4206
atp4373
Rp4374
(dp4375
g17
g484
sbsbsg495
g496
sg519
(lp4376
(icmyPackage
Sent
p4377
(dp4378
g523
I2
sg524
I20
sg525
S'Indeed, the SDSS catalog pre-computes the spatial join as the Neighbors table using the Zones algorithm described in [2].'
p4379
sg527
I0
sg528
I68
sg479
(lp4380
g4355
asbasba(icmyPackage
CELink
p4381
(dp4382
g3
(lp4383
g5
(g6
g7
(lp4384
g5
(g6
g7
(lp4385
g5
(g6
g7
(lp4386
VSo
p4387
atp4388
Rp4389
(dp4390
g17
VIN
p4391
sbag5
(g6
g7
(lp4392
g5
(g6
g7
(lp4393
Vthe
p4394
atp4395
Rp4396
(dp4397
g17
VDT
p4398
sbag5
(g6
g7
(lp4399
Vhit
p4400
atp4401
Rp4402
(dp4403
g17
VNN
p4404
sbag5
(g6
g7
(lp4405
Vquery
p4406
atp4407
Rp4408
(dp4409
g17
VNN
p4410
sbatp4411
Rp4412
(dp4413
g17
VNP
p4414
sbag5
(g6
g7
(lp4415
g5
(g6
g7
(lp4416
Vis
p4417
atp4418
Rp4419
(dp4420
g17
VVBZ
p4421
sbag5
(g6
g7
(lp4422
g5
(g6
g7
(lp4423
g5
(g6
g7
(lp4424
Veven
p4425
atp4426
Rp4427
(dp4428
g17
VRB
p4429
sbag5
(g6
g7
(lp4430
Vsimpler
p4431
atp4432
Rp4433
(dp4434
g17
VJJR
p4435
sbatp4436
Rp4437
(dp4438
g17
VADJP
p4439
sbag5
(g6
g7
(lp4440
g5
(g6
g7
(lp4441
V--
p4442
atp4443
Rp4444
(dp4445
g17
g112
sbag5
(g6
g7
(lp4446
g5
(g6
g7
(lp4447
g5
(g6
g7
(lp4448
Vone
p4449
atp4450
Rp4451
(dp4452
g17
VPRP
p4453
sbatp4454
Rp4455
(dp4456
g17
VNP
p4457
sbag5
(g6
g7
(lp4458
g5
(g6
g7
(lp4459
g5
(g6
g7
(lp4460
Vjust
p4461
atp4462
Rp4463
(dp4464
g17
VRB
p4465
sbatp4466
Rp4467
(dp4468
g17
VADVP
p4469
sbag5
(g6
g7
(lp4470
Vlooks
p4471
atp4472
Rp4473
(dp4474
g17
VVBZ
p4475
sbag5
(g6
g7
(lp4476
g5
(g6
g7
(lp4477
Vfor
p4478
atp4479
Rp4480
(dp4481
g17
VIN
p4482
sbag5
(g6
g7
(lp4483
g5
(g6
g7
(lp4484
g5
(g6
g7
(lp4485
Vneighbors
p4486
atp4487
Rp4488
(dp4489
g17
VNNS
p4490
sbatp4491
Rp4492
(dp4493
g17
VNP
p4494
sbag5
(g6
g7
(lp4495
g5
(g6
g7
(lp4496
Vwithin
p4497
atp4498
Rp4499
(dp4500
g17
VIN
p4501
sbag5
(g6
g7
(lp4502
g5
(g6
g7
(lp4503
V1
p4504
atp4505
Rp4506
(dp4507
g17
VCD
p4508
sbatp4509
Rp4510
(dp4511
g17
VNP
p4512
sbatp4513
Rp4514
(dp4515
g17
VPP
p4516
sbatp4517
Rp4518
(dp4519
g17
VNP
p4520
sbatp4521
Rp4522
(dp4523
g17
VPP
p4524
sbag5
(g6
g7
(lp4525
V''
p4526
atp4527
Rp4528
(dp4529
g17
V''
p4530
sbag5
(g6
g7
(lp4531
g5
(g6
g7
(lp4532
Vwith
p4533
atp4534
Rp4535
(dp4536
g17
VIN
p4537
sbag5
(g6
g7
(lp4538
g5
(g6
g7
(lp4539
Vrun1
p4540
atp4541
Rp4542
(dp4543
g17
VJJ
p4544
sbag5
(g6
g7
(lp4545
V\u005c
p4546
atp4547
Rp4548
(dp4549
g17
VJJ
p4550
sbag5
(g6
g7
(lp4551
Vneq
p4552
atp4553
Rp4554
(dp4555
g17
VNN
p4556
sbag5
(g6
g7
(lp4557
Vrun2
p4558
atp4559
Rp4560
(dp4561
g17
VNNS
p4562
sbatp4563
Rp4564
(dp4565
g17
VNP
p4566
sbatp4567
Rp4568
(dp4569
g17
VPP
p4570
sbatp4571
Rp4572
(dp4573
g17
VVP
p4574
sbatp4575
Rp4576
(dp4577
g17
g70
sbatp4578
Rp4579
(dp4580
g17
VPRN
p4581
sbag5
(g6
g7
(lp4582
g5
(g6
g7
(lp4583
Vsince
p4584
atp4585
Rp4586
(dp4587
g17
VIN
p4588
sbag5
(g6
g7
(lp4589
g5
(g6
g7
(lp4590
g5
(g6
g7
(lp4591
VNeighbors
p4592
atp4593
Rp4594
(dp4595
g17
VNNP
p4596
sbatp4597
Rp4598
(dp4599
g17
VNP
p4600
sbag5
(g6
g7
(lp4601
g5
(g6
g7
(lp4602
Vstores
p4603
atp4604
Rp4605
(dp4606
g17
VVBZ
p4607
sbag5
(g6
g7
(lp4608
Vall
p4609
atp4610
Rp4611
(dp4612
g17
VRB
p4613
sbag5
(g6
g7
(lp4614
g5
(g6
g7
(lp4615
Vobject
p4616
atp4617
Rp4618
(dp4619
g17
VVB
p4620
sbag5
(g6
g7
(lp4621
g5
(g6
g7
(lp4622
Vpairs
p4623
atp4624
Rp4625
(dp4626
g17
VNNS
p4627
sbatp4628
Rp4629
(dp4630
g17
VNP
p4631
sbatp4632
Rp4633
(dp4634
g17
VVP
p4635
sbatp4636
Rp4637
(dp4638
g17
VVP
p4639
sbatp4640
Rp4641
(dp4642
g17
g70
sbatp4643
Rp4644
(dp4645
g17
VSBAR
p4646
sbatp4647
Rp4648
(dp4649
g17
VADJP
p4650
sbag5
(g6
g7
(lp4651
g5
(g6
g7
(lp4652
Vwithin
p4653
atp4654
Rp4655
(dp4656
g17
VIN
p4657
sbag5
(g6
g7
(lp4658
g5
(g6
g7
(lp4659
V30
p4660
atp4661
Rp4662
(dp4663
g17
VCD
p4664
sbatp4665
Rp4666
(dp4667
g17
VNP
p4668
sbatp4669
Rp4670
(dp4671
g17
VPP
p4672
sbag5
(g6
g7
(lp4673
V''
p4674
atp4675
Rp4676
(dp4677
g17
V''
p4678
sbatp4679
Rp4680
(dp4681
g17
VVP
p4682
sbag5
(g6
g7
(lp4683
g461
atp4684
Rp4685
(dp4686
g17
g461
sbatp4687
Rp4688
(dp4689
g17
g70
sbatp4690
Rp4691
(dp4692
g17
VROOT
p4693
sbasg472
(icmyPackage
CorE
p4694
(dp4695
g475
(lp4696
(I0
I22
tp4697
a(I0
I26
tp4698
asg479
g4641
sbsg485
(icmyPackage
CorE
p4699
(dp4700
g475
(lp4701
(I0
I0
tp4702
a(I0
I20
tp4703
asg479
g5
(g6
g7
(lp4704
g4389
ag4412
ag4419
ag4437
ag4579
atp4705
Rp4706
(dp4707
g17
g484
sbsbsg495
(icmyPackage
pattern
p4708
(dp4709
g498
I23
sg499
I1
sg500
(lp4710
(lp4711
S'since'
p4712
aasg504
(lp4713
I3
aI1
aI1
asg506
(lp4714
S'This is one of the simplest cases since the surface is so thin.'
p4715
aS'He could not answer the question, since he had not made up his mind.'
p4716
aS'That manager has been a basket case here since his wife left him.'
p4717
asg509
I79
sg510
(lp4718
(lp4719
S'&R@NCTime@'
p4720
aS'(,)'
p4721
aa(lp4722
S'&C@NCTime@'
p4723
aasbsg519
(lp4724
(icmyPackage
Sent
p4725
(dp4726
g523
I2
sg524
I20
sg525
S'So the hit query is even simpler -- one just looks for neighbors within 1" with run1 \\neq run2 since Neighbors stores all object pairs within 30".'
p4727
sg527
I0
sg528
I69
sg479
(lp4728
g4691
asbasba(icmyPackage
CELink
p4729
(dp4730
g3
(lp4731
g5
(g6
g7
(lp4732
g5
(g6
g7
(lp4733
g5
(g6
g7
(lp4734
g5
(g6
g7
(lp4735
VGiven
p4736
atp4737
Rp4738
(dp4739
g17
VVBN
p4740
sbag5
(g6
g7
(lp4741
g5
(g6
g7
(lp4742
Vsuch
p4743
atp4744
Rp4745
(dp4746
g17
VPDT
p4747
sbag5
(g6
g7
(lp4748
g995
atp4749
Rp4750
(dp4751
g17
VDT
p4752
sbag5
(g6
g7
(lp4753
Vrun2
p4754
atp4755
Rp4756
(dp4757
g17
VNNS
p4758
sbatp4759
Rp4760
(dp4761
g17
VNP
p4762
sbatp4763
Rp4764
(dp4765
g17
VPP
p4766
sbag5
(g6
g7
(lp4767
g184
atp4768
Rp4769
(dp4770
g17
g184
sbag5
(g6
g7
(lp4771
g5
(g6
g7
(lp4772
Vwe
p4773
atp4774
Rp4775
(dp4776
g17
VPRP
p4777
sbatp4778
Rp4779
(dp4780
g17
VNP
p4781
sbag5
(g6
g7
(lp4782
g5
(g6
g7
(lp4783
Vneed
p4784
atp4785
Rp4786
(dp4787
g17
VVBP
p4788
sbag5
(g6
g7
(lp4789
g5
(g6
g7
(lp4790
g5
(g6
g7
(lp4791
Vto
p4792
atp4793
Rp4794
(dp4795
g17
VTO
p4796
sbag5
(g6
g7
(lp4797
g5
(g6
g7
(lp4798
Vknow
p4799
atp4800
Rp4801
(dp4802
g17
VVB
p4803
sbag5
(g6
g7
(lp4804
g5
(g6
g7
(lp4805
Vif
p4806
atp4807
Rp4808
(dp4809
g17
VIN
p4810
sbag5
(g6
g7
(lp4811
g5
(g6
g7
(lp4812
g5
(g6
g7
(lp4813
Vthe
p4814
atp4815
Rp4816
(dp4817
g17
VDT
p4818
sbag5
(g6
g7
(lp4819
Vmissing
p4820
atp4821
Rp4822
(dp4823
g17
VJJ
p4824
sbag5
(g6
g7
(lp4825
Vobject
p4826
atp4827
Rp4828
(dp4829
g17
VNN
p4830
sbag5
(g6
g7
(lp4831
VO1
p4832
atp4833
Rp4834
(dp4835
g17
VNN
p4836
sbatp4837
Rp4838
(dp4839
g17
VNP
p4840
sbag5
(g6
g7
(lp4841
g5
(g6
g7
(lp4842
g5
(g6
g7
(lp4843
Vis
p4844
atp4845
Rp4846
(dp4847
g17
VVBZ
p4848
sbag5
(g6
g7
(lp4849
g5
(g6
g7
(lp4850
Veither
p4851
atp4852
Rp4853
(dp4854
g17
VRB
p4855
sbatp4856
Rp4857
(dp4858
g17
VADVP
p4859
sbag5
(g6
g7
(lp4860
g5
(g6
g7
(lp4861
Vnear
p4862
atp4863
Rp4864
(dp4865
g17
VIN
p4866
sbag5
(g6
g7
(lp4867
g5
(g6
g7
(lp4868
Vthe
p4869
atp4870
Rp4871
(dp4872
g17
VDT
p4873
sbag5
(g6
g7
(lp4874
Vrun2
p4875
atp4876
Rp4877
(dp4878
g17
VJJ
p4879
sbag5
(g6
g7
(lp4880
Vfootprint
p4881
atp4882
Rp4883
(dp4884
g17
VNN
p4885
sbag5
(g6
g7
(lp4886
Vedge
p4887
atp4888
Rp4889
(dp4890
g17
VNN
p4891
sbatp4892
Rp4893
(dp4894
g17
VNP
p4895
sbatp4896
Rp4897
(dp4898
g17
VPP
p4899
sbatp4900
Rp4901
(dp4902
g17
VVP
p4903
sbag5
(g6
g7
(lp4904
Vor
p4905
atp4906
Rp4907
(dp4908
g17
VCC
p4909
sbag5
(g6
g7
(lp4910
g5
(g6
g7
(lp4911
Vis
p4912
atp4913
Rp4914
(dp4915
g17
VVBZ
p4916
sbag5
(g6
g7
(lp4917
g5
(g6
g7
(lp4918
Vinside
p4919
atp4920
Rp4921
(dp4922
g17
VIN
p4923
sbag5
(g6
g7
(lp4924
g5
(g6
g7
(lp4925
g995
atp4926
Rp4927
(dp4928
g17
VDT
p4929
sbag5
(g6
g7
(lp4930
Vrun2
p4931
atp4932
Rp4933
(dp4934
g17
VJJ
p4935
sbag5
(g6
g7
(lp4936
Vmask
p4937
atp4938
Rp4939
(dp4940
g17
VNN
p4941
sbatp4942
Rp4943
(dp4944
g17
VNP
p4945
sbatp4946
Rp4947
(dp4948
g17
VPP
p4949
sbatp4950
Rp4951
(dp4952
g17
VVP
p4953
sbatp4954
Rp4955
(dp4956
g17
VVP
p4957
sbatp4958
Rp4959
(dp4960
g17
g70
sbatp4961
Rp4962
(dp4963
g17
VSBAR
p4964
sbatp4965
Rp4966
(dp4967
g17
VVP
p4968
sbatp4969
Rp4970
(dp4971
g17
VVP
p4972
sbatp4973
Rp4974
(dp4975
g17
g70
sbatp4976
Rp4977
(dp4978
g17
VVP
p4979
sbag5
(g6
g7
(lp4980
g461
atp4981
Rp4982
(dp4983
g17
g461
sbatp4984
Rp4985
(dp4986
g17
g70
sbatp4987
Rp4988
(dp4989
g17
VROOT
p4990
sbasg472
(icmyPackage
CorE
p4991
(dp4992
g475
(lp4993
(I0
I10
tp4994
a(I0
I27
tp4995
asg479
g5
(g6
g7
(lp4996
g4959
ag4982
atp4997
Rp4998
(dp4999
g17
g484
sbsbsg485
(icmyPackage
CorE
p5000
(dp5001
g475
(lp5002
(I0
I0
tp5003
a(I0
I8
tp5004
asg479
g5
(g6
g7
(lp5005
g4764
ag4769
ag4779
ag4786
ag4794
ag4801
atp5006
Rp5007
(dp5008
g17
g484
sbsbsg495
g809
sg519
(lp5009
(icmyPackage
Sent
p5010
(dp5011
g523
I3
sg524
I21
sg525
S'Given such a run2, we need to know if the missing object O1 is either near the run2 footprint edge or is inside a run2 mask.'
p5012
sg527
I0
sg528
I72
sg479
(lp5013
g4988
asbasba(icmyPackage
CELink
p5014
(dp5015
g3
(lp5016
g5
(g6
g7
(lp5017
g5
(g6
g7
(lp5018
g5
(g6
g7
(lp5019
g5
(g6
g7
(lp5020
VWe
p5021
atp5022
Rp5023
(dp5024
g17
VPRP
p5025
sbatp5026
Rp5027
(dp5028
g17
VNP
p5029
sbag5
(g6
g7
(lp5030
g5
(g6
g7
(lp5031
Vadopted
p5032
atp5033
Rp5034
(dp5035
g17
VVBD
p5036
sbag5
(g6
g7
(lp5037
g5
(g6
g7
(lp5038
g5
(g6
g7
(lp5039
g5
(g6
g7
(lp5040
g5
(g6
g7
(lp5041
Vthe
p5042
atp5043
Rp5044
(dp5045
g17
VDT
p5046
sbag5
(g6
g7
(lp5047
VInternational
p5048
atp5049
Rp5050
(dp5051
g17
VNNP
p5052
sbag5
(g6
g7
(lp5053
VVirtual
p5054
atp5055
Rp5056
(dp5057
g17
VNNP
p5058
sbag5
(g6
g7
(lp5059
VObservatory
p5060
atp5061
Rp5062
(dp5063
g17
VNNP
p5064
sbag5
(g6
g7
(lp5065
Vdefinition
p5066
atp5067
Rp5068
(dp5069
g17
VNN
p5070
sbatp5071
Rp5072
(dp5073
g17
VNP
p5074
sbag5
(g6
g7
(lp5075
g5
(g6
g7
(lp5076
Vfor
p5077
atp5078
Rp5079
(dp5080
g17
VIN
p5081
sbag5
(g6
g7
(lp5082
g5
(g6
g7
(lp5083
Vfootprints
p5084
atp5085
Rp5086
(dp5087
g17
VNNS
p5088
sbatp5089
Rp5090
(dp5091
g17
VNP
p5092
sbatp5093
Rp5094
(dp5095
g17
VPP
p5096
sbatp5097
Rp5098
(dp5099
g17
VNP
p5100
sbag5
(g6
g7
(lp5101
g5
(g6
g7
(lp5102
g5
(g6
g7
(lp5103
V-LSB-
p5104
atp5105
Rp5106
(dp5107
g17
VVBZ
p5108
sbag5
(g6
g7
(lp5109
g5
(g6
g7
(lp5110
g4504
atp5111
Rp5112
(dp5113
g17
VCD
p5114
sbag5
(g6
g7
(lp5115
V-RSB-
p5116
atp5117
Rp5118
(dp5119
g17
VNNS
p5120
sbatp5121
Rp5122
(dp5123
g17
VNP
p5124
sbatp5125
Rp5126
(dp5127
g17
VVP
p5128
sbag5
(g6
g7
(lp5129
Vand
p5130
atp5131
Rp5132
(dp5133
g17
VCC
p5134
sbag5
(g6
g7
(lp5135
g5
(g6
g7
(lp5136
Vhave
p5137
atp5138
Rp5139
(dp5140
g17
VVBP
p5141
sbag5
(g6
g7
(lp5142
g5
(g6
g7
(lp5143
Vimplemented
p5144
atp5145
Rp5146
(dp5147
g17
VVBN
p5148
sbag5
(g6
g7
(lp5149
g5
(g6
g7
(lp5150
g995
atp5151
Rp5152
(dp5153
g17
VDT
p5154
sbag5
(g6
g7
(lp5155
Vfootprint
p5156
atp5157
Rp5158
(dp5159
g17
VJJ
p5160
sbag5
(g6
g7
(lp5161
Vservice
p5162
atp5163
Rp5164
(dp5165
g17
VNN
p5166
sbatp5167
Rp5168
(dp5169
g17
VNP
p5170
sbag5
(g6
g7
(lp5171
g5
(g6
g7
(lp5172
Vboth
p5173
atp5174
Rp5175
(dp5176
g17
VDT
p5177
sbag5
(g6
g7
(lp5178
g5
(g6
g7
(lp5179
Vinside
p5180
atp5181
Rp5182
(dp5183
g17
VIN
p5184
sbag5
(g6
g7
(lp5185
g5
(g6
g7
(lp5186
VSQL
p5187
atp5188
Rp5189
(dp5190
g17
VNNP
p5191
sbag5
(g6
g7
(lp5192
V-LSB-
p5193
atp5194
Rp5195
(dp5196
g17
VNNP
p5197
sbag5
(g6
g7
(lp5198
g4298
atp5199
Rp5200
(dp5201
g17
VCD
p5202
sbag5
(g6
g7
(lp5203
V-RSB-
p5204
atp5205
Rp5206
(dp5207
g17
VNNS
p5208
sbatp5209
Rp5210
(dp5211
g17
VNP
p5212
sbatp5213
Rp5214
(dp5215
g17
VPP
p5216
sbag5
(g6
g7
(lp5217
Vand
p5218
atp5219
Rp5220
(dp5221
g17
VCC
p5222
sbag5
(g6
g7
(lp5223
g5
(g6
g7
(lp5224
Von
p5225
atp5226
Rp5227
(dp5228
g17
VIN
p5229
sbag5
(g6
g7
(lp5230
g5
(g6
g7
(lp5231
g5
(g6
g7
(lp5232
Vthe
p5233
atp5234
Rp5235
(dp5236
g17
VDT
p5237
sbag5
(g6
g7
(lp5238
Vweb
p5239
atp5240
Rp5241
(dp5242
g17
VNN
p5243
sbatp5244
Rp5245
(dp5246
g17
VNP
p5247
sbag5
(g6
g7
(lp5248
g5
(g6
g7
(lp5249
g5
(g6
g7
(lp5250
V-LSB-
p5251
atp5252
Rp5253
(dp5254
g17
VNNP
p5255
sbag5
(g6
g7
(lp5256
V3
p5257
atp5258
Rp5259
(dp5260
g17
VCD
p5261
sbag5
(g6
g7
(lp5262
g184
atp5263
Rp5264
(dp5265
g17
g184
sbag5
(g6
g7
(lp5266
V4
p5267
atp5268
Rp5269
(dp5270
g17
VCD
p5271
sbatp5272
Rp5273
(dp5274
g17
VNP
p5275
sbag5
(g6
g7
(lp5276
V-RSB-
p5277
atp5278
Rp5279
(dp5280
g17
VJJ
p5281
sbatp5282
Rp5283
(dp5284
g17
VADJP
p5285
sbatp5286
Rp5287
(dp5288
g17
VNP
p5289
sbatp5290
Rp5291
(dp5292
g17
VPP
p5293
sbatp5294
Rp5295
(dp5296
g17
VPP
p5297
sbatp5298
Rp5299
(dp5300
g17
VVP
p5301
sbatp5302
Rp5303
(dp5304
g17
VVP
p5305
sbatp5306
Rp5307
(dp5308
g17
VVP
p5309
sbatp5310
Rp5311
(dp5312
g17
g70
sbatp5313
Rp5314
(dp5315
g17
VSBAR
p5316
sbatp5317
Rp5318
(dp5319
g17
VVP
p5320
sbag5
(g6
g7
(lp5321
g461
atp5322
Rp5323
(dp5324
g17
g461
sbatp5325
Rp5326
(dp5327
g17
g70
sbatp5328
Rp5329
(dp5330
g17
VROOT
p5331
sbag5
(g6
g7
(lp5332
g5
(g6
g7
(lp5333
g5
(g6
g7
(lp5334
g5
(g6
g7
(lp5335
VAs
p5336
atp5337
Rp5338
(dp5339
g17
VIN
p5340
sbag5
(g6
g7
(lp5341
g5
(g6
g7
(lp5342
g5
(g6
g7
(lp5343
Vexplained
p5344
atp5345
Rp5346
(dp5347
g17
VVBD
p5348
sbag5
(g6
g7
(lp5349
g5
(g6
g7
(lp5350
Vin
p5351
atp5352
Rp5353
(dp5354
g17
VIN
p5355
sbag5
(g6
g7
(lp5356
g5
(g6
g7
(lp5357
V-LSB-
p5358
atp5359
Rp5360
(dp5361
g17
VNNP
p5362
sbag5
(g6
g7
(lp5363
g4298
atp5364
Rp5365
(dp5366
g17
VCD
p5367
sbag5
(g6
g7
(lp5368
g184
atp5369
Rp5370
(dp5371
g17
g184
sbag5
(g6
g7
(lp5372
g5267
atp5373
Rp5374
(dp5375
g17
VCD
p5376
sbatp5377
Rp5378
(dp5379
g17
VNP
p5380
sbatp5381
Rp5382
(dp5383
g17
VPP
p5384
sbag5
(g6
g7
(lp5385
g5
(g6
g7
(lp5386
V-RSB-
p5387
atp5388
Rp5389
(dp5390
g17
VRB
p5391
sbatp5392
Rp5393
(dp5394
g17
VADVP
p5395
sbatp5396
Rp5397
(dp5398
g17
VVP
p5399
sbatp5400
Rp5401
(dp5402
g17
g70
sbatp5403
Rp5404
(dp5405
g17
VSBAR
p5406
sbag5
(g6
g7
(lp5407
g184
atp5408
Rp5409
(dp5410
g17
g184
sbag5
(g6
g7
(lp5411
g5
(g6
g7
(lp5412
Vspherical
p5413
atp5414
Rp5415
(dp5416
g17
VJJ
p5417
sbag5
(g6
g7
(lp5418
Vregions
p5419
atp5420
Rp5421
(dp5422
g17
VNNS
p5423
sbatp5424
Rp5425
(dp5426
g17
VNP
p5427
sbag5
(g6
g7
(lp5428
g5
(g6
g7
(lp5429
Vare
p5430
atp5431
Rp5432
(dp5433
g17
VVBP
p5434
sbag5
(g6
g7
(lp5435
g5
(g6
g7
(lp5436
Vrepresented
p5437
atp5438
Rp5439
(dp5440
g17
VVBN
p5441
sbag5
(g6
g7
(lp5442
g5
(g6
g7
(lp5443
Vas
p5444
atp5445
Rp5446
(dp5447
g17
VIN
p5448
sbag5
(g6
g7
(lp5449
g5
(g6
g7
(lp5450
g5
(g6
g7
(lp5451
Vthe
p5452
atp5453
Rp5454
(dp5455
g17
VDT
p5456
sbag5
(g6
g7
(lp5457
Vunion
p5458
atp5459
Rp5460
(dp5461
g17
VNN
p5462
sbatp5463
Rp5464
(dp5465
g17
VNP
p5466
sbag5
(g6
g7
(lp5467
g5
(g6
g7
(lp5468
Vof
p5469
atp5470
Rp5471
(dp5472
g17
VIN
p5473
sbag5
(g6
g7
(lp5474
g5
(g6
g7
(lp5475
Vconvex
p5476
atp5477
Rp5478
(dp5479
g17
VNN
p5480
sbag5
(g6
g7
(lp5481
Vhulls
p5482
atp5483
Rp5484
(dp5485
g17
VNNS
p5486
sbatp5487
Rp5488
(dp5489
g17
VNP
p5490
sbatp5491
Rp5492
(dp5493
g17
VPP
p5494
sbag5
(g6
g7
(lp5495
g5
(g6
g7
(lp5496
g5
(g6
g7
(lp5497
Vthat
p5498
atp5499
Rp5500
(dp5501
g17
VWDT
p5502
sbatp5503
Rp5504
(dp5505
g17
VWHNP
p5506
sbag5
(g6
g7
(lp5507
g5
(g6
g7
(lp5508
g5
(g6
g7
(lp5509
Vare
p5510
atp5511
Rp5512
(dp5513
g17
VVBP
p5514
sbag5
(g6
g7
(lp5515
g5
(g6
g7
(lp5516
Veach
p5517
atp5518
Rp5519
(dp5520
g17
VDT
p5521
sbatp5522
Rp5523
(dp5524
g17
VNP
p5525
sbag5
(g6
g7
(lp5526
g5
(g6
g7
(lp5527
Vthe
p5528
atp5529
Rp5530
(dp5531
g17
VDT
p5532
sbag5
(g6
g7
(lp5533
Vintersection
p5534
atp5535
Rp5536
(dp5537
g17
VNN
p5538
sbatp5539
Rp5540
(dp5541
g17
VNP
p5542
sbag5
(g6
g7
(lp5543
g5
(g6
g7
(lp5544
Vof
p5545
atp5546
Rp5547
(dp5548
g17
VIN
p5549
sbag5
(g6
g7
(lp5550
g5
(g6
g7
(lp5551
g5
(g6
g7
(lp5552
g995
atp5553
Rp5554
(dp5555
g17
VDT
p5556
sbag5
(g6
g7
(lp5557
Vset
p5558
atp5559
Rp5560
(dp5561
g17
VNN
p5562
sbatp5563
Rp5564
(dp5565
g17
VNP
p5566
sbag5
(g6
g7
(lp5567
g5
(g6
g7
(lp5568
Vof
p5569
atp5570
Rp5571
(dp5572
g17
VIN
p5573
sbag5
(g6
g7
(lp5574
g5
(g6
g7
(lp5575
Vhalf-spaces
p5576
atp5577
Rp5578
(dp5579
g17
VNNS
p5580
sbatp5581
Rp5582
(dp5583
g17
VNP
p5584
sbatp5585
Rp5586
(dp5587
g17
VPP
p5588
sbatp5589
Rp5590
(dp5591
g17
VNP
p5592
sbatp5593
Rp5594
(dp5595
g17
VPP
p5596
sbatp5597
Rp5598
(dp5599
g17
VVP
p5600
sbatp5601
Rp5602
(dp5603
g17
g70
sbatp5604
Rp5605
(dp5606
g17
VSBAR
p5607
sbatp5608
Rp5609
(dp5610
g17
VNP
p5611
sbatp5612
Rp5613
(dp5614
g17
VPP
p5615
sbatp5616
Rp5617
(dp5618
g17
VVP
p5619
sbatp5620
Rp5621
(dp5622
g17
VVP
p5623
sbag5
(g6
g7
(lp5624
g461
atp5625
Rp5626
(dp5627
g17
g461
sbatp5628
Rp5629
(dp5630
g17
g70
sbatp5631
Rp5632
(dp5633
g17
VROOT
p5634
sbasg472
(icmyPackage
CorE
p5635
(dp5636
g475
(lp5637
(I1
I1
tp5638
a(I1
I29
tp5639
asg479
g5
(g6
g7
(lp5640
g5401
ag5409
ag5425
ag5621
ag5626
atp5641
Rp5642
(dp5643
g17
g484
sbsbsg485
(icmyPackage
CorE
p5644
(dp5645
g475
(lp5646
(I0
I0
tp5647
a(I0
I33
tp5648
asg479
g5329
sbsg495
g496
sg519
(lp5649
(icmyPackage
Sent
p5650
(dp5651
g523
I3
sg524
I22
sg525
S'We adopted the International Virtual Observatory definition for footprints [1] and have implemented a footprint service both inside SQL [2] and on the web [3, 4].'
p5652
sg527
I0
sg528
I75
sg479
(lp5653
g5329
asba(icmyPackage
Sent
p5654
(dp5655
g523
I3
sg524
I23
sg525
S'As explained in [2, 4], spherical regions are represented as the union of convex hulls that are each the intersection of a set of half-spaces.'
p5656
sg527
I0
sg528
I76
sg479
(lp5657
g5632
asbasba(icmyPackage
CELink
p5658
(dp5659
g3
(lp5660
g5
(g6
g7
(lp5661
g5
(g6
g7
(lp5662
g5
(g6
g7
(lp5663
g5
(g6
g7
(lp5664
VIf
p5665
atp5666
Rp5667
(dp5668
g17
VIN
p5669
sbag5
(g6
g7
(lp5670
g5
(g6
g7
(lp5671
g5
(g6
g7
(lp5672
Vthis
p5673
atp5674
Rp5675
(dp5676
g17
VDT
p5677
sbatp5678
Rp5679
(dp5680
g17
VNP
p5681
sbag5
(g6
g7
(lp5682
g5
(g6
g7
(lp5683
Vis
p5684
atp5685
Rp5686
(dp5687
g17
VVBZ
p5688
sbag5
(g6
g7
(lp5689
g5
(g6
g7
(lp5690
g5
(g6
g7
(lp5691
Van
p5692
atp5693
Rp5694
(dp5695
g17
VDT
p5696
sbag5
(g6
g7
(lp5697
Vinexpensive
p5698
atp5699
Rp5700
(dp5701
g17
VJJ
p5702
sbag5
(g6
g7
(lp5703
Vtest
p5704
atp5705
Rp5706
(dp5707
g17
VNN
p5708
sbatp5709
Rp5710
(dp5711
g17
VNP
p5712
sbag5
(g6
g7
(lp5713
Vand
p5714
atp5715
Rp5716
(dp5717
g17
VCC
p5718
sbag5
(g6
g7
(lp5719
g5
(g6
g7
(lp5720
Vif
p5721
atp5722
Rp5723
(dp5724
g17
VIN
p5725
sbag5
(g6
g7
(lp5726
g5
(g6
g7
(lp5727
g5
(g6
g7
(lp5728
Vthere
p5729
atp5730
Rp5731
(dp5732
g17
VEX
p5733
sbatp5734
Rp5735
(dp5736
g17
VNP
p5737
sbag5
(g6
g7
(lp5738
g5
(g6
g7
(lp5739
Vare
p5740
atp5741
Rp5742
(dp5743
g17
VVBP
p5744
sbag5
(g6
g7
(lp5745
g5
(g6
g7
(lp5746
g5
(g6
g7
(lp5747
Vless
p5748
atp5749
Rp5750
(dp5751
g17
VJJR
p5752
sbag5
(g6
g7
(lp5753
Vthan
p5754
atp5755
Rp5756
(dp5757
g17
VIN
p5758
sbag5
(g6
g7
(lp5759
g995
atp5760
Rp5761
(dp5762
g17
VDT
p5763
sbag5
(g6
g7
(lp5764
Vthousand
p5765
atp5766
Rp5767
(dp5768
g17
VCD
p5769
sbatp5770
Rp5771
(dp5772
g17
VQP
p5773
sbag5
(g6
g7
(lp5774
Vruns
p5775
atp5776
Rp5777
(dp5778
g17
VNNS
p5779
sbatp5780
Rp5781
(dp5782
g17
VNP
p5783
sbatp5784
Rp5785
(dp5786
g17
VVP
p5787
sbatp5788
Rp5789
(dp5790
g17
g70
sbatp5791
Rp5792
(dp5793
g17
VSBAR
p5794
sbatp5795
Rp5796
(dp5797
g17
VUCP
p5798
sbatp5799
Rp5800
(dp5801
g17
VVP
p5802
sbatp5803
Rp5804
(dp5805
g17
g70
sbatp5806
Rp5807
(dp5808
g17
VSBAR
p5809
sbag5
(g6
g7
(lp5810
g184
atp5811
Rp5812
(dp5813
g17
g184
sbag5
(g6
g7
(lp5814
g5
(g6
g7
(lp5815
Vthen
p5816
atp5817
Rp5818
(dp5819
g17
VRB
p5820
sbag5
(g6
g7
(lp5821
Vone
p5822
atp5823
Rp5824
(dp5825
g17
VCD
p5826
sbatp5827
Rp5828
(dp5829
g17
VNP
p5830
sbag5
(g6
g7
(lp5831
g5
(g6
g7
(lp5832
Vcan
p5833
atp5834
Rp5835
(dp5836
g17
VMD
p5837
sbag5
(g6
g7
(lp5838
g5
(g6
g7
(lp5839
Vcompute
p5840
atp5841
Rp5842
(dp5843
g17
VVB
p5844
sbag5
(g6
g7
(lp5845
g5
(g6
g7
(lp5846
Vthe
p5847
atp5848
Rp5849
(dp5850
g17
VDT
p5851
sbag5
(g6
g7
(lp5852
Voverlapping
p5853
atp5854
Rp5855
(dp5856
g17
VVBG
p5857
sbag5
(g6
g7
(lp5858
Vrun
p5859
atp5860
Rp5861
(dp5862
g17
VNN
p5863
sbag5
(g6
g7
(lp5864
Vpairs
p5865
atp5866
Rp5867
(dp5868
g17
VNNS
p5869
sbatp5870
Rp5871
(dp5872
g17
VNP
p5873
sbag5
(g6
g7
(lp5874
g5
(g6
g7
(lp5875
Vby
p5876
atp5877
Rp5878
(dp5879
g17
VIN
p5880
sbag5
(g6
g7
(lp5881
g5
(g6
g7
(lp5882
g5
(g6
g7
(lp5883
Vsimply
p5884
atp5885
Rp5886
(dp5887
g17
VRB
p5888
sbatp5889
Rp5890
(dp5891
g17
VADVP
p5892
sbag5
(g6
g7
(lp5893
g5
(g6
g7
(lp5894
Vcomparing
p5895
atp5896
Rp5897
(dp5898
g17
VVBG
p5899
sbag5
(g6
g7
(lp5900
g5
(g6
g7
(lp5901
Vall
p5902
atp5903
Rp5904
(dp5905
g17
VDT
p5906
sbag5
(g6
g7
(lp5907
Vruns
p5908
atp5909
Rp5910
(dp5911
g17
VNNS
p5912
sbatp5913
Rp5914
(dp5915
g17
VNP
p5916
sbag5
(g6
g7
(lp5917
g5
(g6
g7
(lp5918
Vto
p5919
atp5920
Rp5921
(dp5922
g17
VTO
p5923
sbag5
(g6
g7
(lp5924
g5
(g6
g7
(lp5925
Vall
p5926
atp5927
Rp5928
(dp5929
g17
VDT
p5930
sbag5
(g6
g7
(lp5931
Vothers
p5932
atp5933
Rp5934
(dp5935
g17
VNNS
p5936
sbatp5937
Rp5938
(dp5939
g17
VNP
p5940
sbatp5941
Rp5942
(dp5943
g17
VPP
p5944
sbatp5945
Rp5946
(dp5947
g17
VVP
p5948
sbatp5949
Rp5950
(dp5951
g17
g70
sbatp5952
Rp5953
(dp5954
g17
VPP
p5955
sbatp5956
Rp5957
(dp5958
g17
VVP
p5959
sbatp5960
Rp5961
(dp5962
g17
VVP
p5963
sbag5
(g6
g7
(lp5964
g461
atp5965
Rp5966
(dp5967
g17
g461
sbatp5968
Rp5969
(dp5970
g17
g70
sbatp5971
Rp5972
(dp5973
g17
VROOT
p5974
sbasg472
(icmyPackage
CorE
p5975
(dp5976
g475
(lp5977
(I0
I8
tp5978
a(I0
I14
tp5979
asg479
g5789
sbsg485
(icmyPackage
CorE
p5980
(dp5981
g475
(lp5982
(I0
I16
tp5983
a(I0
I32
tp5984
asg479
g5
(g6
g7
(lp5985
g5828
ag5961
ag5966
atp5986
Rp5987
(dp5988
g17
g484
sbsbsg495
g1155
sg519
(lp5989
(icmyPackage
Sent
p5990
(dp5991
g523
I3
sg524
I26
sg525
S'If this is an inexpensive test and if there are less than a thousand runs, then one can compute the overlapping run pairs by simply comparing all runs to all others.'
p5992
sg527
I0
sg528
I85
sg479
(lp5993
g5972
asbasba(icmyPackage
CELink
p5994
(dp5995
g3
(lp5996
g5
(g6
g7
(lp5997
g5
(g6
g7
(lp5998
g5
(g6
g7
(lp5999
g5
(g6
g7
(lp6000
VThe
p6001
atp6002
Rp6003
(dp6004
g17
VDT
p6005
sbag5
(g6
g7
(lp6006
Vresidual
p6007
atp6008
Rp6009
(dp6010
g17
VJJ
p6011
sbag5
(g6
g7
(lp6012
Vmisses
p6013
atp6014
Rp6015
(dp6016
g17
VNN
p6017
sbatp6018
Rp6019
(dp6020
g17
VNP
p6021
sbag5
(g6
g7
(lp6022
g5
(g6
g7
(lp6023
Vare
p6024
atp6025
Rp6026
(dp6027
g17
VVBP
p6028
sbag5
(g6
g7
(lp6029
g5
(g6
g7
(lp6030
g5
(g6
g7
(lp6031
Vneither
p6032
atp6033
Rp6034
(dp6035
g17
VDT
p6036
sbag5
(g6
g7
(lp6037
Vedge
p6038
atp6039
Rp6040
(dp6041
g17
VNN
p6042
sbatp6043
Rp6044
(dp6045
g17
VNP
p6046
sbag5
(g6
g7
(lp6047
Vnor
p6048
atp6049
Rp6050
(dp6051
g17
VCC
p6052
sbag5
(g6
g7
(lp6053
g5
(g6
g7
(lp6054
Vmasked
p6055
atp6056
Rp6057
(dp6058
g17
VVBN
p6059
sbag5
(g6
g7
(lp6060
g5
(g6
g7
(lp6061
Vso
p6062
atp6063
Rp6064
(dp6065
g17
VIN
p6066
sbag5
(g6
g7
(lp6067
g5
(g6
g7
(lp6068
g5
(g6
g7
(lp6069
Vthey
p6070
atp6071
Rp6072
(dp6073
g17
VPRP
p6074
sbatp6075
Rp6076
(dp6077
g17
VNP
p6078
sbag5
(g6
g7
(lp6079
g5
(g6
g7
(lp6080
Vmust
p6081
atp6082
Rp6083
(dp6084
g17
VMD
p6085
sbag5
(g6
g7
(lp6086
g5
(g6
g7
(lp6087
Vbe
p6088
atp6089
Rp6090
(dp6091
g17
VVB
p6092
sbag5
(g6
g7
(lp6093
g5
(g6
g7
(lp6094
Vephemeral
p6095
atp6096
Rp6097
(dp6098
g17
VJJ
p6099
sbatp6100
Rp6101
(dp6102
g17
VADJP
p6103
sbatp6104
Rp6105
(dp6106
g17
VVP
p6107
sbatp6108
Rp6109
(dp6110
g17
VVP
p6111
sbatp6112
Rp6113
(dp6114
g17
g70
sbatp6115
Rp6116
(dp6117
g17
VSBAR
p6118
sbatp6119
Rp6120
(dp6121
g17
VVP
p6122
sbatp6123
Rp6124
(dp6125
g17
VUCP
p6126
sbatp6127
Rp6128
(dp6129
g17
VVP
p6130
sbag5
(g6
g7
(lp6131
g461
atp6132
Rp6133
(dp6134
g17
g461
sbatp6135
Rp6136
(dp6137
g17
g70
sbatp6138
Rp6139
(dp6140
g17
VROOT
p6141
sbasg472
(icmyPackage
CorE
p6142
(dp6143
g475
(lp6144
(I0
I0
tp6145
a(I0
I7
tp6146
asg479
g5
(g6
g7
(lp6147
g6019
ag6026
ag6044
ag6050
ag6057
atp6148
Rp6149
(dp6150
g17
g484
sbsbsg485
(icmyPackage
CorE
p6151
(dp6152
g475
(lp6153
(I0
I9
tp6154
a(I0
I13
tp6155
asg479
g5
(g6
g7
(lp6156
g6113
ag6133
atp6157
Rp6158
(dp6159
g17
g484
sbsbsg495
g3149
sg519
(lp6160
(icmyPackage
Sent
p6161
(dp6162
g523
I3
sg524
I57
sg525
S'The residual misses are neither edge nor masked so they must be ephemeral.'
p6163
sg527
I0
sg528
I123
sg479
(lp6164
g6139
asbasba(icmyPackage
CELink
p6165
(dp6166
g3
(lp6167
g5
(g6
g7
(lp6168
g5
(g6
g7
(lp6169
g5
(g6
g7
(lp6170
g5
(g6
g7
(lp6171
g5
(g6
g7
(lp6172
VWhen
p6173
atp6174
Rp6175
(dp6176
g17
VWRB
p6177
sbatp6178
Rp6179
(dp6180
g17
VWHADVP
p6181
sbag5
(g6
g7
(lp6182
g5
(g6
g7
(lp6183
g5
(g6
g7
(lp6184
Vbundles
p6185
atp6186
Rp6187
(dp6188
g17
VNNS
p6189
sbatp6190
Rp6191
(dp6192
g17
VNP
p6193
sbag5
(g6
g7
(lp6194
g5
(g6
g7
(lp6195
Voverlap
p6196
atp6197
Rp6198
(dp6199
g17
VVBP
p6200
sbag5
(g6
g7
(lp6201
g5
(g6
g7
(lp6202
g5
(g6
g7
(lp6203
g5
(g6
g7
(lp6204
Vit
p6205
atp6206
Rp6207
(dp6208
g17
VPRP
p6209
sbatp6210
Rp6211
(dp6212
g17
VNP
p6213
sbag5
(g6
g7
(lp6214
g5
(g6
g7
(lp6215
Vmay
p6216
atp6217
Rp6218
(dp6219
g17
VMD
p6220
sbag5
(g6
g7
(lp6221
g5
(g6
g7
(lp6222
Vmake
p6223
atp6224
Rp6225
(dp6226
g17
VVB
p6227
sbatp6228
Rp6229
(dp6230
g17
VVP
p6231
sbatp6232
Rp6233
(dp6234
g17
VVP
p6235
sbatp6236
Rp6237
(dp6238
g17
g70
sbatp6239
Rp6240
(dp6241
g17
VSBAR
p6242
sbatp6243
Rp6244
(dp6245
g17
VVP
p6246
sbatp6247
Rp6248
(dp6249
g17
g70
sbatp6250
Rp6251
(dp6252
g17
VSBAR
p6253
sbag5
(g6
g7
(lp6254
g5
(g6
g7
(lp6255
Vsense
p6256
atp6257
Rp6258
(dp6259
g17
VVBP
p6260
sbag5
(g6
g7
(lp6261
g5
(g6
g7
(lp6262
g5
(g6
g7
(lp6263
Vto
p6264
atp6265
Rp6266
(dp6267
g17
VTO
p6268
sbag5
(g6
g7
(lp6269
g5
(g6
g7
(lp6270
Vmerge
p6271
atp6272
Rp6273
(dp6274
g17
VVB
p6275
sbag5
(g6
g7
(lp6276
g5
(g6
g7
(lp6277
Vthem
p6278
atp6279
Rp6280
(dp6281
g17
VPRP
p6282
sbatp6283
Rp6284
(dp6285
g17
VNP
p6286
sbag5
(g6
g7
(lp6287
g5
(g6
g7
(lp6288
Vinto
p6289
atp6290
Rp6291
(dp6292
g17
VIN
p6293
sbag5
(g6
g7
(lp6294
g5
(g6
g7
(lp6295
g5
(g6
g7
(lp6296
Vone
p6297
atp6298
Rp6299
(dp6300
g17
VCD
p6301
sbag5
(g6
g7
(lp6302
Vbundle
p6303
atp6304
Rp6305
(dp6306
g17
VNN
p6307
sbatp6308
Rp6309
(dp6310
g17
VNP
p6311
sbag5
(g6
g7
(lp6312
g5
(g6
g7
(lp6313
Vwith
p6314
atp6315
Rp6316
(dp6317
g17
VIN
p6318
sbag5
(g6
g7
(lp6319
g5
(g6
g7
(lp6320
Vone
p6321
atp6322
Rp6323
(dp6324
g17
VCD
p6325
sbag5
(g6
g7
(lp6326
VBundle
p6327
atp6328
Rp6329
(dp6330
g17
VNNP
p6331
sbag5
(g6
g7
(lp6332
Vrecord
p6333
atp6334
Rp6335
(dp6336
g17
VNN
p6337
sbatp6338
Rp6339
(dp6340
g17
VNP
p6341
sbatp6342
Rp6343
(dp6344
g17
VPP
p6345
sbatp6346
Rp6347
(dp6348
g17
VNP
p6349
sbatp6350
Rp6351
(dp6352
g17
VPP
p6353
sbatp6354
Rp6355
(dp6356
g17
VVP
p6357
sbatp6358
Rp6359
(dp6360
g17
VVP
p6361
sbatp6362
Rp6363
(dp6364
g17
g70
sbatp6365
Rp6366
(dp6367
g17
VVP
p6368
sbag5
(g6
g7
(lp6369
g461
atp6370
Rp6371
(dp6372
g17
g461
sbatp6373
Rp6374
(dp6375
g17
g70
sbatp6376
Rp6377
(dp6378
g17
VROOT
p6379
sbag5
(g6
g7
(lp6380
g5
(g6
g7
(lp6381
g5
(g6
g7
(lp6382
g5
(g6
g7
(lp6383
g5
(g6
g7
(lp6384
VAs
p6385
atp6386
Rp6387
(dp6388
g17
VIN
p6389
sbag5
(g6
g7
(lp6390
g5
(g6
g7
(lp6391
g5
(g6
g7
(lp6392
Vnew
p6393
atp6394
Rp6395
(dp6396
g17
VJJ
p6397
sbag5
(g6
g7
(lp6398
Vruns
p6399
atp6400
Rp6401
(dp6402
g17
VNNS
p6403
sbatp6404
Rp6405
(dp6406
g17
VNP
p6407
sbag5
(g6
g7
(lp6408
g5
(g6
g7
(lp6409
Vare
p6410
atp6411
Rp6412
(dp6413
g17
VVBP
p6414
sbag5
(g6
g7
(lp6415
g5
(g6
g7
(lp6416
Vacquired
p6417
atp6418
Rp6419
(dp6420
g17
VVBN
p6421
sbatp6422
Rp6423
(dp6424
g17
VVP
p6425
sbatp6426
Rp6427
(dp6428
g17
VVP
p6429
sbatp6430
Rp6431
(dp6432
g17
g70
sbatp6433
Rp6434
(dp6435
g17
VSBAR
p6436
sbag5
(g6
g7
(lp6437
g184
atp6438
Rp6439
(dp6440
g17
g184
sbag5
(g6
g7
(lp6441
g5
(g6
g7
(lp6442
Vnew
p6443
atp6444
Rp6445
(dp6446
g17
VJJ
p6447
sbag5
(g6
g7
(lp6448
Vrecords
p6449
atp6450
Rp6451
(dp6452
g17
VNNS
p6453
sbatp6454
Rp6455
(dp6456
g17
VNP
p6457
sbag5
(g6
g7
(lp6458
g5
(g6
g7
(lp6459
Vare
p6460
atp6461
Rp6462
(dp6463
g17
VVBP
p6464
sbag5
(g6
g7
(lp6465
g5
(g6
g7
(lp6466
Vadded
p6467
atp6468
Rp6469
(dp6470
g17
VVBN
p6471
sbag5
(g6
g7
(lp6472
g5
(g6
g7
(lp6473
Vto
p6474
atp6475
Rp6476
(dp6477
g17
VTO
p6478
sbag5
(g6
g7
(lp6479
g5
(g6
g7
(lp6480
Vthe
p6481
atp6482
Rp6483
(dp6484
g17
VDT
p6485
sbag5
(g6
g7
(lp6486
Vcatalog
p6487
atp6488
Rp6489
(dp6490
g17
VNN
p6491
sbatp6492
Rp6493
(dp6494
g17
VNP
p6495
sbatp6496
Rp6497
(dp6498
g17
VPP
p6499
sbatp6500
Rp6501
(dp6502
g17
VVP
p6503
sbatp6504
Rp6505
(dp6506
g17
VVP
p6507
sbatp6508
Rp6509
(dp6510
g17
g70
sbag5
(g6
g7
(lp6511
Vand
p6512
atp6513
Rp6514
(dp6515
g17
VCC
p6516
sbag5
(g6
g7
(lp6517
g5
(g6
g7
(lp6518
g5
(g6
g7
(lp6519
Vnew
p6520
atp6521
Rp6522
(dp6523
g17
VJJ
p6524
sbag5
(g6
g7
(lp6525
Vrecords
p6526
atp6527
Rp6528
(dp6529
g17
VNNS
p6530
sbatp6531
Rp6532
(dp6533
g17
VNP
p6534
sbag5
(g6
g7
(lp6535
g5
(g6
g7
(lp6536
Vare
p6537
atp6538
Rp6539
(dp6540
g17
VVBP
p6541
sbag5
(g6
g7
(lp6542
g5
(g6
g7
(lp6543
Vadded
p6544
atp6545
Rp6546
(dp6547
g17
VVBN
p6548
sbag5
(g6
g7
(lp6549
g5
(g6
g7
(lp6550
Vto
p6551
atp6552
Rp6553
(dp6554
g17
VTO
p6555
sbag5
(g6
g7
(lp6556
g5
(g6
g7
(lp6557
g5
(g6
g7
(lp6558
Vthe
p6559
atp6560
Rp6561
(dp6562
g17
VDT
p6563
sbag5
(g6
g7
(lp6564
VMatch
p6565
atp6566
Rp6567
(dp6568
g17
VNNP
p6569
sbag5
(g6
g7
(lp6570
Vtable
p6571
atp6572
Rp6573
(dp6574
g17
VNN
p6575
sbatp6576
Rp6577
(dp6578
g17
VNP
p6579
sbag5
(g6
g7
(lp6580
g5
(g6
g7
(lp6581
g5
(g6
g7
(lp6582
V-LRB-
p6583
atp6584
Rp6585
(dp6586
g17
V-LRB-
p6587
sbag5
(g6
g7
(lp6588
g5
(g6
g7
(lp6589
Vwhich
p6590
atp6591
Rp6592
(dp6593
g17
VWDT
p6594
sbatp6595
Rp6596
(dp6597
g17
VNP
p6598
sbag5
(g6
g7
(lp6599
g5
(g6
g7
(lp6600
Vis
p6601
atp6602
Rp6603
(dp6604
g17
VVBZ
p6605
sbag5
(g6
g7
(lp6606
g5
(g6
g7
(lp6607
Veasily
p6608
atp6609
Rp6610
(dp6611
g17
VRB
p6612
sbatp6613
Rp6614
(dp6615
g17
VADVP
p6616
sbag5
(g6
g7
(lp6617
g5
(g6
g7
(lp6618
Vcomputed
p6619
atp6620
Rp6621
(dp6622
g17
VVBN
p6623
sbag5
(g6
g7
(lp6624
g5
(g6
g7
(lp6625
Vincrementally
p6626
atp6627
Rp6628
(dp6629
g17
VRB
p6630
sbatp6631
Rp6632
(dp6633
g17
VADVP
p6634
sbatp6635
Rp6636
(dp6637
g17
VVP
p6638
sbatp6639
Rp6640
(dp6641
g17
VVP
p6642
sbatp6643
Rp6644
(dp6645
g17
g70
sbatp6646
Rp6647
(dp6648
g17
VSBAR
p6649
sbatp6650
Rp6651
(dp6652
g17
VNP
p6653
sbatp6654
Rp6655
(dp6656
g17
VPP
p6657
sbatp6658
Rp6659
(dp6660
g17
VVP
p6661
sbatp6662
Rp6663
(dp6664
g17
VVP
p6665
sbatp6666
Rp6667
(dp6668
g17
g70
sbag5
(g6
g7
(lp6669
g461
atp6670
Rp6671
(dp6672
g17
g461
sbatp6673
Rp6674
(dp6675
g17
g70
sbatp6676
Rp6677
(dp6678
g17
VROOT
p6679
sbasg472
(icmyPackage
CorE
p6680
(dp6681
g475
(lp6682
(I1
I1
tp6683
a(I1
I15
tp6684
asg479
g5
(g6
g7
(lp6685
g6431
ag6439
ag6455
ag6505
ag6514
ag6532
atp6686
Rp6687
(dp6688
g17
g484
sbsbsg485
(icmyPackage
CorE
p6689
(dp6690
g475
(lp6691
(I0
I1
tp6692
a(I0
I17
tp6693
asg479
g5
(g6
g7
(lp6694
g6248
ag6366
ag6371
atp6695
Rp6696
(dp6697
g17
g484
sbsbsg495
g496
sg519
(lp6698
(icmyPackage
Sent
p6699
(dp6700
g523
I5
sg524
I78
sg525
S'When bundles overlap it may make sense to merge them into one bundle with one Bundle record.'
p6701
sg527
I0
sg528
I151
sg479
(lp6702
g6377
asba(icmyPackage
Sent
p6703
(dp6704
g523
I5
sg524
I78
sg525
S'As new runs are acquired, new records are added to the catalog and new records are added to the Match table (which is easily computed incrementally.'
p6705
sg527
I0
sg528
I152
sg479
(lp6706
g6677
asbasba(icmyPackage
CELink
p6707
(dp6708
g3
(lp6709
g5
(g6
g7
(lp6710
g5
(g6
g7
(lp6711
g5
(g6
g7
(lp6712
g5
(g6
g7
(lp6713
VOne
p6714
atp6715
Rp6716
(dp6717
g17
VCD
p6718
sbag5
(g6
g7
(lp6719
Vcomplication
p6720
atp6721
Rp6722
(dp6723
g17
VNN
p6724
sbatp6725
Rp6726
(dp6727
g17
VNP
p6728
sbag5
(g6
g7
(lp6729
g5
(g6
g7
(lp6730
Vis
p6731
atp6732
Rp6733
(dp6734
g17
VVBZ
p6735
sbag5
(g6
g7
(lp6736
g5
(g6
g7
(lp6737
Vthat
p6738
atp6739
Rp6740
(dp6741
g17
VIN
p6742
sbag5
(g6
g7
(lp6743
g5
(g6
g7
(lp6744
g5
(g6
g7
(lp6745
g5
(g6
g7
(lp6746
Vadding
p6747
atp6748
Rp6749
(dp6750
g17
VVBG
p6751
sbag5
(g6
g7
(lp6752
g5
(g6
g7
(lp6753
Vrecords
p6754
atp6755
Rp6756
(dp6757
g17
VNNS
p6758
sbatp6759
Rp6760
(dp6761
g17
VNP
p6762
sbatp6763
Rp6764
(dp6765
g17
VVP
p6766
sbatp6767
Rp6768
(dp6769
g17
g70
sbag5
(g6
g7
(lp6770
g5
(g6
g7
(lp6771
Vmay
p6772
atp6773
Rp6774
(dp6775
g17
VMD
p6776
sbag5
(g6
g7
(lp6777
g5
(g6
g7
(lp6778
Vcause
p6779
atp6780
Rp6781
(dp6782
g17
VVB
p6783
sbag5
(g6
g7
(lp6784
g5
(g6
g7
(lp6785
g5
(g6
g7
(lp6786
Vbundles
p6787
atp6788
Rp6789
(dp6790
g17
VNNS
p6791
sbatp6792
Rp6793
(dp6794
g17
VNP
p6795
sbag5
(g6
g7
(lp6796
g5
(g6
g7
(lp6797
Vto
p6798
atp6799
Rp6800
(dp6801
g17
VTO
p6802
sbag5
(g6
g7
(lp6803
g5
(g6
g7
(lp6804
Vmerge
p6805
atp6806
Rp6807
(dp6808
g17
VVB
p6809
sbag5
(g6
g7
(lp6810
g5
(g6
g7
(lp6811
Vif
p6812
atp6813
Rp6814
(dp6815
g17
VIN
p6816
sbag5
(g6
g7
(lp6817
g5
(g6
g7
(lp6818
g5
(g6
g7
(lp6819
Vthe
p6820
atp6821
Rp6822
(dp6823
g17
VDT
p6824
sbag5
(g6
g7
(lp6825
Vnew
p6826
atp6827
Rp6828
(dp6829
g17
VJJ
p6830
sbag5
(g6
g7
(lp6831
Vrecord
p6832
atp6833
Rp6834
(dp6835
g17
VNN
p6836
sbatp6837
Rp6838
(dp6839
g17
VNP
p6840
sbag5
(g6
g7
(lp6841
g5
(g6
g7
(lp6842
Vcauses
p6843
atp6844
Rp6845
(dp6846
g17
VVBZ
p6847
sbag5
(g6
g7
(lp6848
g5
(g6
g7
(lp6849
g5
(g6
g7
(lp6850
Vone
p6851
atp6852
Rp6853
(dp6854
g17
VCD
p6855
sbag5
(g6
g7
(lp6856
Vbundle
p6857
atp6858
Rp6859
(dp6860
g17
VNN
p6861
sbatp6862
Rp6863
(dp6864
g17
VNP
p6865
sbag5
(g6
g7
(lp6866
g5
(g6
g7
(lp6867
Vto
p6868
atp6869
Rp6870
(dp6871
g17
VTO
p6872
sbag5
(g6
g7
(lp6873
g5
(g6
g7
(lp6874
Voverlap
p6875
atp6876
Rp6877
(dp6878
g17
VVB
p6879
sbag5
(g6
g7
(lp6880
g5
(g6
g7
(lp6881
Vanother
p6882
atp6883
Rp6884
(dp6885
g17
VDT
p6886
sbatp6887
Rp6888
(dp6889
g17
VNP
p6890
sbatp6891
Rp6892
(dp6893
g17
VVP
p6894
sbatp6895
Rp6896
(dp6897
g17
VVP
p6898
sbatp6899
Rp6900
(dp6901
g17
g70
sbatp6902
Rp6903
(dp6904
g17
VVP
p6905
sbatp6906
Rp6907
(dp6908
g17
g70
sbatp6909
Rp6910
(dp6911
g17
VSBAR
p6912
sbatp6913
Rp6914
(dp6915
g17
VVP
p6916
sbatp6917
Rp6918
(dp6919
g17
VVP
p6920
sbatp6921
Rp6922
(dp6923
g17
g70
sbatp6924
Rp6925
(dp6926
g17
VVP
p6927
sbatp6928
Rp6929
(dp6930
g17
VVP
p6931
sbatp6932
Rp6933
(dp6934
g17
g70
sbatp6935
Rp6936
(dp6937
g17
VSBAR
p6938
sbatp6939
Rp6940
(dp6941
g17
VVP
p6942
sbag5
(g6
g7
(lp6943
g461
atp6944
Rp6945
(dp6946
g17
g461
sbatp6947
Rp6948
(dp6949
g17
g70
sbatp6950
Rp6951
(dp6952
g17
VROOT
p6953
sbasg472
(icmyPackage
CorE
p6954
(dp6955
g475
(lp6956
(I0
I12
tp6957
a(I0
I21
tp6958
asg479
g5
(g6
g7
(lp6959
g6907
ag6945
atp6960
Rp6961
(dp6962
g17
g484
sbsbsg485
(icmyPackage
CorE
p6963
(dp6964
g475
(lp6965
(I0
I0
tp6966
a(I0
I10
tp6967
asg479
g5
(g6
g7
(lp6968
g6726
ag6733
ag6740
ag6768
ag6774
ag6781
ag6793
ag6800
ag6807
atp6969
Rp6970
(dp6971
g17
g484
sbsbsg495
g809
sg519
(lp6972
(icmyPackage
Sent
p6973
(dp6974
g523
I5
sg524
I78
sg525
S'One complication is that adding records may cause bundles to merge if the new record causes one bundle to overlap another.'
p6975
sg527
I0
sg528
I154
sg479
(lp6976
g6951
asbasba(icmyPackage
CELink
p6977
(dp6978
g3
(lp6979
g5
(g6
g7
(lp6980
g5
(g6
g7
(lp6981
g5
(g6
g7
(lp6982
g5
(g6
g7
(lp6983
VComputing
p6984
atp6985
Rp6986
(dp6987
g17
VRB
p6988
sbatp6989
Rp6990
(dp6991
g17
VADVP
p6992
sbag5
(g6
g7
(lp6993
g5
(g6
g7
(lp6994
Vthe
p6995
atp6996
Rp6997
(dp6998
g17
VDT
p6999
sbag5
(g6
g7
(lp7000
Vbundle
p7001
atp7002
Rp7003
(dp7004
g17
VNN
p7005
sbag5
(g6
g7
(lp7006
VIDs
p7007
atp7008
Rp7009
(dp7010
g17
VNN
p7011
sbatp7012
Rp7013
(dp7014
g17
VNP
p7015
sbag5
(g6
g7
(lp7016
g5
(g6
g7
(lp7017
Vis
p7018
atp7019
Rp7020
(dp7021
g17
VVBZ
p7022
sbag5
(g6
g7
(lp7023
g5
(g6
g7
(lp7024
g5
(g6
g7
(lp7025
g995
atp7026
Rp7027
(dp7028
g17
VDT
p7029
sbag5
(g6
g7
(lp7030
Vbit
p7031
atp7032
Rp7033
(dp7034
g17
VRB
p7035
sbatp7036
Rp7037
(dp7038
g17
VNP
p7039
sbag5
(g6
g7
(lp7040
Vtricky
p7041
atp7042
Rp7043
(dp7044
g17
VJJ
p7045
sbatp7046
Rp7047
(dp7048
g17
VADJP
p7049
sbag5
(g6
g7
(lp7050
g5
(g6
g7
(lp7051
Vso
p7052
atp7053
Rp7054
(dp7055
g17
VRB
p7056
sbag5
(g6
g7
(lp7057
Vthat
p7058
atp7059
Rp7060
(dp7061
g17
VIN
p7062
sbag5
(g6
g7
(lp7063
g5
(g6
g7
(lp7064
g5
(g6
g7
(lp7065
Vcode
p7066
atp7067
Rp7068
(dp7069
g17
VNN
p7070
sbatp7071
Rp7072
(dp7073
g17
VNP
p7074
sbag5
(g6
g7
(lp7075
g5
(g6
g7
(lp7076
Vis
p7077
atp7078
Rp7079
(dp7080
g17
VVBZ
p7081
sbag5
(g6
g7
(lp7082
g5
(g6
g7
(lp7083
Vincluded
p7084
atp7085
Rp7086
(dp7087
g17
VVBN
p7088
sbag5
(g6
g7
(lp7089
g5
(g6
g7
(lp7090
Vhere
p7091
atp7092
Rp7093
(dp7094
g17
VRB
p7095
sbatp7096
Rp7097
(dp7098
g17
VADVP
p7099
sbatp7100
Rp7101
(dp7102
g17
VVP
p7103
sbatp7104
Rp7105
(dp7106
g17
VVP
p7107
sbatp7108
Rp7109
(dp7110
g17
g70
sbatp7111
Rp7112
(dp7113
g17
VSBAR
p7114
sbatp7115
Rp7116
(dp7117
g17
VVP
p7118
sbag5
(g6
g7
(lp7119
g461
atp7120
Rp7121
(dp7122
g17
g461
sbatp7123
Rp7124
(dp7125
g17
g70
sbatp7126
Rp7127
(dp7128
g17
VROOT
p7129
sbasg472
(icmyPackage
CorE
p7130
(dp7131
g475
(lp7132
(I0
I0
tp7133
a(I0
I7
tp7134
asg479
g5
(g6
g7
(lp7135
g6990
ag7013
ag7020
ag7047
atp7136
Rp7137
(dp7138
g17
g484
sbsbsg485
(icmyPackage
CorE
p7139
(dp7140
g475
(lp7141
(I0
I10
tp7142
a(I0
I14
tp7143
asg479
g5
(g6
g7
(lp7144
g7109
ag7121
atp7145
Rp7146
(dp7147
g17
g484
sbsbsg495
(icmyPackage
pattern
p7148
(dp7149
g498
I45
sg499
I0
sg500
(lp7150
(lp7151
S'so'
p7152
aS'that'
p7153
aasg504
(lp7154
I3
aI1
aI1
asg506
(lp7155
S'The teacher then decided to ask him some very easy questions so that he could get a few right.'
p7156
asg509
I77
sg510
(lp7157
(lp7158
S'&C'
p7159
aa(lp7160
S'&R'
p7161
aasbsg519
(lp7162
(icmyPackage
Sent
p7163
(dp7164
g523
I5
sg524
I79
sg525
S'Computing the bundle IDs is a bit tricky so that code is included here.'
p7165
sg527
I0
sg528
I156
sg479
(lp7166
g7127
asbasba(icmyPackage
CELink
p7167
(dp7168
g3
(lp7169
g5
(g6
g7
(lp7170
g5
(g6
g7
(lp7171
g5
(g6
g7
(lp7172
g5
(g6
g7
(lp7173
VOf
p7174
atp7175
Rp7176
(dp7177
g17
VIN
p7178
sbag5
(g6
g7
(lp7179
g5
(g6
g7
(lp7180
g5
(g6
g7
(lp7181
Vthe
p7182
atp7183
Rp7184
(dp7185
g17
VDT
p7186
sbag5
(g6
g7
(lp7187
V16
p7188
atp7189
Rp7190
(dp7191
g17
VCD
p7192
sbag5
(g6
g7
(lp7193
g3219
atp7194
Rp7195
(dp7196
g17
VNN
p7197
sbatp7198
Rp7199
(dp7200
g17
VNP
p7201
sbag5
(g6
g7
(lp7202
g5
(g6
g7
(lp7203
g5
(g6
g7
(lp7204
Vthat
p7205
atp7206
Rp7207
(dp7208
g17
VWDT
p7209
sbatp7210
Rp7211
(dp7212
g17
VWHNP
p7213
sbag5
(g6
g7
(lp7214
g5
(g6
g7
(lp7215
g5
(g6
g7
(lp7216
Vare
p7217
atp7218
Rp7219
(dp7220
g17
VVBP
p7221
sbag5
(g6
g7
(lp7222
g5
(g6
g7
(lp7223
Vmisses
p7224
atp7225
Rp7226
(dp7227
g17
VJJ
p7228
sbatp7229
Rp7230
(dp7231
g17
VADJP
p7232
sbatp7233
Rp7234
(dp7235
g17
VVP
p7236
sbatp7237
Rp7238
(dp7239
g17
g70
sbatp7240
Rp7241
(dp7242
g17
VSBAR
p7243
sbatp7244
Rp7245
(dp7246
g17
VNP
p7247
sbatp7248
Rp7249
(dp7250
g17
VPP
p7251
sbag5
(g6
g7
(lp7252
g184
atp7253
Rp7254
(dp7255
g17
g184
sbag5
(g6
g7
(lp7256
g5
(g6
g7
(lp7257
g5
(g6
g7
(lp7258
V11
p7259
atp7260
Rp7261
(dp7262
g17
VCD
p7263
sbag5
(g6
g7
(lp7264
g3219
atp7265
Rp7266
(dp7267
g17
VNN
p7268
sbatp7269
Rp7270
(dp7271
g17
VNP
p7272
sbag5
(g6
g7
(lp7273
g5
(g6
g7
(lp7274
Vare
p7275
atp7276
Rp7277
(dp7278
g17
VVBP
p7279
sbag5
(g6
g7
(lp7280
g5
(g6
g7
(lp7281
Vephemeral
p7282
atp7283
Rp7284
(dp7285
g17
VJJ
p7286
sbatp7287
Rp7288
(dp7289
g17
VADJP
p7290
sbatp7291
Rp7292
(dp7293
g17
VVP
p7294
sbatp7295
Rp7296
(dp7297
g17
g70
sbag5
(g6
g7
(lp7298
g5
(g6
g7
(lp7299
g184
atp7300
Rp7301
(dp7302
g17
g184
sbag5
(g6
g7
(lp7303
g5
(g6
g7
(lp7304
V0.5
p7305
atp7306
Rp7307
(dp7308
g17
VCD
p7309
sbag5
(g6
g7
(lp7310
g3219
atp7311
Rp7312
(dp7313
g17
VNN
p7314
sbatp7315
Rp7316
(dp7317
g17
VNP
p7318
sbag5
(g6
g7
(lp7319
g5
(g6
g7
(lp7320
Vare
p7321
atp7322
Rp7323
(dp7324
g17
VVBP
p7325
sbag5
(g6
g7
(lp7326
g5
(g6
g7
(lp7327
Vmasked
p7328
atp7329
Rp7330
(dp7331
g17
VVBN
p7332
sbatp7333
Rp7334
(dp7335
g17
VVP
p7336
sbatp7337
Rp7338
(dp7339
g17
VVP
p7340
sbag5
(g6
g7
(lp7341
g184
atp7342
Rp7343
(dp7344
g17
g184
sbatp7345
Rp7346
(dp7347
g17
VPRN
p7348
sbag5
(g6
g7
(lp7349
Vand
p7350
atp7351
Rp7352
(dp7353
g17
VCC
p7354
sbag5
(g6
g7
(lp7355
g5
(g6
g7
(lp7356
g5
(g6
g7
(lp7357
g3585
atp7358
Rp7359
(dp7360
g17
VCD
p7361
sbag5
(g6
g7
(lp7362
g3219
atp7363
Rp7364
(dp7365
g17
VNN
p7366
sbatp7367
Rp7368
(dp7369
g17
VNP
p7370
sbag5
(g6
g7
(lp7371
g5
(g6
g7
(lp7372
Vare
p7373
atp7374
Rp7375
(dp7376
g17
VVBP
p7377
sbag5
(g6
g7
(lp7378
g5
(g6
g7
(lp7379
g5
(g6
g7
(lp7380
Vedge
p7381
atp7382
Rp7383
(dp7384
g17
VNN
p7385
sbatp7386
Rp7387
(dp7388
g17
VNP
p7389
sbag5
(g6
g7
(lp7390
g5
(g6
g7
(lp7391
Vbecause
p7392
atp7393
Rp7394
(dp7395
g17
VIN
p7396
sbag5
(g6
g7
(lp7397
g5
(g6
g7
(lp7398
g5
(g6
g7
(lp7399
Vthe
p7400
atp7401
Rp7402
(dp7403
g17
VDT
p7404
sbag5
(g6
g7
(lp7405
VSDSS
p7406
atp7407
Rp7408
(dp7409
g17
VNNS
p7410
sbatp7411
Rp7412
(dp7413
g17
VNP
p7414
sbag5
(g6
g7
(lp7415
g5
(g6
g7
(lp7416
Voverlap
p7417
atp7418
Rp7419
(dp7420
g17
VVBP
p7421
sbag5
(g6
g7
(lp7422
g5
(g6
g7
(lp7423
g5
(g6
g7
(lp7424
g5
(g6
g7
(lp7425
Vareas
p7426
atp7427
Rp7428
(dp7429
g17
VNNS
p7430
sbatp7431
Rp7432
(dp7433
g17
VNP
p7434
sbag5
(g6
g7
(lp7435
g5
(g6
g7
(lp7436
Vare
p7437
atp7438
Rp7439
(dp7440
g17
VVBP
p7441
sbag5
(g6
g7
(lp7442
g5
(g6
g7
(lp7443
Vtypically
p7444
atp7445
Rp7446
(dp7447
g17
VRB
p7448
sbatp7449
Rp7450
(dp7451
g17
VADVP
p7452
sbag5
(g6
g7
(lp7453
g5
(g6
g7
(lp7454
Vlongnarrow
p7455
atp7456
Rp7457
(dp7458
g17
VNN
p7459
sbag5
(g6
g7
(lp7460
Vstrips
p7461
atp7462
Rp7463
(dp7464
g17
VNNS
p7465
sbatp7466
Rp7467
(dp7468
g17
VNP
p7469
sbatp7470
Rp7471
(dp7472
g17
VVP
p7473
sbatp7474
Rp7475
(dp7476
g17
g70
sbatp7477
Rp7478
(dp7479
g17
VSBAR
p7480
sbatp7481
Rp7482
(dp7483
g17
VVP
p7484
sbatp7485
Rp7486
(dp7487
g17
g70
sbatp7488
Rp7489
(dp7490
g17
VSBAR
p7491
sbatp7492
Rp7493
(dp7494
g17
VNP
p7495
sbatp7496
Rp7497
(dp7498
g17
VVP
p7499
sbatp7500
Rp7501
(dp7502
g17
g70
sbag5
(g6
g7
(lp7503
g461
atp7504
Rp7505
(dp7506
g17
g461
sbatp7507
Rp7508
(dp7509
g17
g70
sbatp7510
Rp7511
(dp7512
g17
VROOT
p7513
sbasg472
(icmyPackage
CorE
p7514
(dp7515
g475
(lp7516
(I0
I24
tp7517
a(I0
I32
tp7518
asg479
g5
(g6
g7
(lp7519
g7486
ag7505
atp7520
Rp7521
(dp7522
g17
g484
sbsbsg485
(icmyPackage
CorE
p7523
(dp7524
g475
(lp7525
(I0
I0
tp7526
a(I0
I22
tp7527
asg479
g5
(g6
g7
(lp7528
g7249
ag7254
ag7296
ag7346
ag7352
ag7368
ag7375
ag7387
atp7529
Rp7530
(dp7531
g17
g484
sbsbsg495
(icmyPackage
pattern
p7532
(dp7533
g498
I407
sg499
I1
sg500
(lp7534
(lp7535
S'because'
p7536
aasg504
(lp7537
I3
aI1
aI1
asg506
(lp7538
S'It ends up in burnout and less production, because we inevitably run out of energy.'
p7539
asg509
I76
sg510
(lp7540
(lp7541
S'&R'
p7542
aS'(,)'
p7543
aS'(&ADV)'
p7544
aa(lp7545
S'&C'
p7546
aasbsg519
(lp7547
(icmyPackage
Sent
p7548
(dp7549
g523
I6
sg524
I109
sg525
S'Of the 16% that are misses, 11% are ephemeral, 0.5% are masked, and 5% are edge because the SDSS overlap areas are typically longnarrow strips.'
p7550
sg527
I1
sg528
I190
sg479
(lp7551
g7511
asbasba(icmyPackage
CELink
p7552
(dp7553
g3
(lp7554
g5
(g6
g7
(lp7555
g5
(g6
g7
(lp7556
g5
(g6
g7
(lp7557
g5
(g6
g7
(lp7558
VMost
p7559
atp7560
Rp7561
(dp7562
g17
VJJS
p7563
sbag5
(g6
g7
(lp7564
Vobjects
p7565
atp7566
Rp7567
(dp7568
g17
VNNS
p7569
sbatp7570
Rp7571
(dp7572
g17
VNP
p7573
sbag5
(g6
g7
(lp7574
g5
(g6
g7
(lp7575
Vare
p7576
atp7577
Rp7578
(dp7579
g17
VVBP
p7580
sbag5
(g6
g7
(lp7581
g5
(g6
g7
(lp7582
Vslow-moving
p7583
atp7584
Rp7585
(dp7586
g17
VVBG
p7587
sbag5
(g6
g7
(lp7588
g5
(g6
g7
(lp7589
Vso
p7590
atp7591
Rp7592
(dp7593
g17
VIN
p7594
sbag5
(g6
g7
(lp7595
g5
(g6
g7
(lp7596
g5
(g6
g7
(lp7597
g5
(g6
g7
(lp7598
Vtheir
p7599
atp7600
Rp7601
(dp7602
g17
VPRP$
p7603
sbag5
(g6
g7
(lp7604
Vdisplacement
p7605
atp7606
Rp7607
(dp7608
g17
VNN
p7609
sbatp7610
Rp7611
(dp7612
g17
VNP
p7613
sbag5
(g6
g7
(lp7614
g5
(g6
g7
(lp7615
Vbetween
p7616
atp7617
Rp7618
(dp7619
g17
VIN
p7620
sbag5
(g6
g7
(lp7621
g5
(g6
g7
(lp7622
Vobservations
p7623
atp7624
Rp7625
(dp7626
g17
VNNS
p7627
sbatp7628
Rp7629
(dp7630
g17
VNP
p7631
sbatp7632
Rp7633
(dp7634
g17
VPP
p7635
sbatp7636
Rp7637
(dp7638
g17
VNP
p7639
sbag5
(g6
g7
(lp7640
g5
(g6
g7
(lp7641
Vis
p7642
atp7643
Rp7644
(dp7645
g17
VVBZ
p7646
sbag5
(g6
g7
(lp7647
g5
(g6
g7
(lp7648
Vsmall
p7649
atp7650
Rp7651
(dp7652
g17
VJJ
p7653
sbatp7654
Rp7655
(dp7656
g17
VADJP
p7657
sbag5
(g6
g7
(lp7658
g5
(g6
g7
(lp7659
Vcompared
p7660
atp7661
Rp7662
(dp7663
g17
VVBN
p7664
sbag5
(g6
g7
(lp7665
g5
(g6
g7
(lp7666
Vto
p7667
atp7668
Rp7669
(dp7670
g17
VTO
p7671
sbag5
(g6
g7
(lp7672
g5
(g6
g7
(lp7673
Vthe
p7674
atp7675
Rp7676
(dp7677
g17
VDT
p7678
sbag5
(g6
g7
(lp7679
Vaverage
p7680
atp7681
Rp7682
(dp7683
g17
VJJ
p7684
sbag5
(g6
g7
(lp7685
Vinter-object
p7686
atp7687
Rp7688
(dp7689
g17
VJJ
p7690
sbag5
(g6
g7
(lp7691
Vdifference
p7692
atp7693
Rp7694
(dp7695
g17
VNN
p7696
sbatp7697
Rp7698
(dp7699
g17
VNP
p7700
sbatp7701
Rp7702
(dp7703
g17
VPP
p7704
sbatp7705
Rp7706
(dp7707
g17
VPP
p7708
sbatp7709
Rp7710
(dp7711
g17
VVP
p7712
sbatp7713
Rp7714
(dp7715
g17
g70
sbatp7716
Rp7717
(dp7718
g17
VSBAR
p7719
sbatp7720
Rp7721
(dp7722
g17
VVP
p7723
sbatp7724
Rp7725
(dp7726
g17
VVP
p7727
sbag5
(g6
g7
(lp7728
g461
atp7729
Rp7730
(dp7731
g17
g461
sbatp7732
Rp7733
(dp7734
g17
g70
sbatp7735
Rp7736
(dp7737
g17
VROOT
p7738
sbasg472
(icmyPackage
CorE
p7739
(dp7740
g475
(lp7741
(I0
I0
tp7742
a(I0
I3
tp7743
asg479
g5
(g6
g7
(lp7744
g7571
ag7578
ag7585
atp7745
Rp7746
(dp7747
g17
g484
sbsbsg485
(icmyPackage
CorE
p7748
(dp7749
g475
(lp7750
(I0
I5
tp7751
a(I0
I17
tp7752
asg479
g5
(g6
g7
(lp7753
g7714
ag7730
atp7754
Rp7755
(dp7756
g17
g484
sbsbsg495
g3149
sg519
(lp7757
(icmyPackage
Sent
p7758
(dp7759
g523
I6
sg524
I110
sg525
S'Most objects are slow-moving so their displacement between observations is small compared to the average inter-object difference.'
p7760
sg527
I2
sg528
I191
sg479
(lp7761
g7736
asbasba(icmyPackage
CELink
p7762
(dp7763
g3
(lp7764
g5
(g6
g7
(lp7765
g5
(g6
g7
(lp7766
g5
(g6
g7
(lp7767
g5
(g6
g7
(lp7768
VNear-Earth
p7769
atp7770
Rp7771
(dp7772
g17
VNNP
p7773
sbatp7774
Rp7775
(dp7776
g17
VNP
p7777
sbag5
(g6
g7
(lp7778
g5
(g6
g7
(lp7779
Vobject
p7780
atp7781
Rp7782
(dp7783
g17
VVBP
p7784
sbag5
(g6
g7
(lp7785
g5
(g6
g7
(lp7786
g5
(g6
g7
(lp7787
g5
(g6
g7
(lp7788
g5
(g6
g7
(lp7789
Vapparent
p7790
atp7791
Rp7792
(dp7793
g17
VJJ
p7794
sbag5
(g6
g7
(lp7795
Vmotions
p7796
atp7797
Rp7798
(dp7799
g17
VNNS
p7800
sbatp7801
Rp7802
(dp7803
g17
VNP
p7804
sbag5
(g6
g7
(lp7805
g5
(g6
g7
(lp7806
Vare
p7807
atp7808
Rp7809
(dp7810
g17
VVBP
p7811
sbag5
(g6
g7
(lp7812
g5
(g6
g7
(lp7813
Vtypically
p7814
atp7815
Rp7816
(dp7817
g17
VRB
p7818
sbatp7819
Rp7820
(dp7821
g17
VADVP
p7822
sbag5
(g6
g7
(lp7823
g5
(g6
g7
(lp7824
Vlarge
p7825
atp7826
Rp7827
(dp7828
g17
VJJ
p7829
sbatp7830
Rp7831
(dp7832
g17
VADJP
p7833
sbatp7834
Rp7835
(dp7836
g17
VVP
p7837
sbatp7838
Rp7839
(dp7840
g17
g70
sbatp7841
Rp7842
(dp7843
g17
VSBAR
p7844
sbag5
(g6
g7
(lp7845
Vand
p7846
atp7847
Rp7848
(dp7849
g17
VCC
p7850
sbag5
(g6
g7
(lp7851
g5
(g6
g7
(lp7852
Vso
p7853
atp7854
Rp7855
(dp7856
g17
VIN
p7857
sbag5
(g6
g7
(lp7858
g5
(g6
g7
(lp7859
g5
(g6
g7
(lp7860
Vmeasurements
p7861
atp7862
Rp7863
(dp7864
g17
VNNS
p7865
sbatp7866
Rp7867
(dp7868
g17
VNP
p7869
sbag5
(g6
g7
(lp7870
g5
(g6
g7
(lp7871
Vmust
p7872
atp7873
Rp7874
(dp7875
g17
VMD
p7876
sbag5
(g6
g7
(lp7877
g5
(g6
g7
(lp7878
Vbe
p7879
atp7880
Rp7881
(dp7882
g17
VVB
p7883
sbag5
(g6
g7
(lp7884
g5
(g6
g7
(lp7885
Vwithin
p7886
atp7887
Rp7888
(dp7889
g17
VIN
p7890
sbag5
(g6
g7
(lp7891
g5
(g6
g7
(lp7892
g5
(g6
g7
(lp7893
Vminutes
p7894
atp7895
Rp7896
(dp7897
g17
VNNS
p7898
sbatp7899
Rp7900
(dp7901
g17
VNP
p7902
sbag5
(g6
g7
(lp7903
g5
(g6
g7
(lp7904
Vfor
p7905
atp7906
Rp7907
(dp7908
g17
VIN
p7909
sbag5
(g6
g7
(lp7910
g5
(g6
g7
(lp7911
g5
(g6
g7
(lp7912
Vthe
p7913
atp7914
Rp7915
(dp7916
g17
VDT
p7917
sbag5
(g6
g7
(lp7918
Vtechniques
p7919
atp7920
Rp7921
(dp7922
g17
VNNS
p7923
sbatp7924
Rp7925
(dp7926
g17
VNP
p7927
sbag5
(g6
g7
(lp7928
g5
(g6
g7
(lp7929
Vdescribed
p7930
atp7931
Rp7932
(dp7933
g17
VVBN
p7934
sbag5
(g6
g7
(lp7935
g5
(g6
g7
(lp7936
Vhere
p7937
atp7938
Rp7939
(dp7940
g17
VRB
p7941
sbatp7942
Rp7943
(dp7944
g17
VADVP
p7945
sbag5
(g6
g7
(lp7946
g5
(g6
g7
(lp7947
g5
(g6
g7
(lp7948
Vto
p7949
atp7950
Rp7951
(dp7952
g17
VTO
p7953
sbag5
(g6
g7
(lp7954
g5
(g6
g7
(lp7955
Vdetect
p7956
atp7957
Rp7958
(dp7959
g17
VVB
p7960
sbag5
(g6
g7
(lp7961
g5
(g6
g7
(lp7962
Vobject
p7963
atp7964
Rp7965
(dp7966
g17
VNN
p7967
sbag5
(g6
g7
(lp7968
Vpairs
p7969
atp7970
Rp7971
(dp7972
g17
VNNS
p7973
sbatp7974
Rp7975
(dp7976
g17
VNP
p7977
sbatp7978
Rp7979
(dp7980
g17
VVP
p7981
sbatp7982
Rp7983
(dp7984
g17
VVP
p7985
sbatp7986
Rp7987
(dp7988
g17
g70
sbatp7989
Rp7990
(dp7991
g17
VVP
p7992
sbatp7993
Rp7994
(dp7995
g17
VNP
p7996
sbatp7997
Rp7998
(dp7999
g17
VPP
p8000
sbatp8001
Rp8002
(dp8003
g17
VNP
p8004
sbatp8005
Rp8006
(dp8007
g17
VPP
p8008
sbatp8009
Rp8010
(dp8011
g17
VVP
p8012
sbatp8013
Rp8014
(dp8015
g17
VVP
p8016
sbatp8017
Rp8018
(dp8019
g17
g70
sbatp8020
Rp8021
(dp8022
g17
VSBAR
p8023
sbatp8024
Rp8025
(dp8026
g17
VSBAR
p8027
sbatp8028
Rp8029
(dp8030
g17
VVP
p8031
sbag5
(g6
g7
(lp8032
g461
atp8033
Rp8034
(dp8035
g17
g461
sbatp8036
Rp8037
(dp8038
g17
g70
sbatp8039
Rp8040
(dp8041
g17
VROOT
p8042
sbasg472
(icmyPackage
CorE
p8043
(dp8044
g475
(lp8045
(I0
I0
tp8046
a(I0
I6
tp8047
asg479
g5
(g6
g7
(lp8048
g7775
ag7782
ag7842
atp8049
Rp8050
(dp8051
g17
g484
sbsbsg485
(icmyPackage
CorE
p8052
(dp8053
g475
(lp8054
(I0
I9
tp8055
a(I0
I23
tp8056
asg479
g5
(g6
g7
(lp8057
g8018
ag8034
atp8058
Rp8059
(dp8060
g17
g484
sbsbsg495
g3149
sg519
(lp8061
(icmyPackage
Sent
p8062
(dp8063
g523
I6
sg524
I110
sg525
S'Near-Earth object apparent motions are typically large and so measurements must be within minutes for the techniques described here to detect object pairs.'
p8064
sg527
I2
sg528
I192
sg479
(lp8065
g8040
asbasba(icmyPackage
CELink
p8066
(dp8067
g3
(lp8068
g5
(g6
g7
(lp8069
g5
(g6
g7
(lp8070
g5
(g6
g7
(lp8071
g5
(g6
g7
(lp8072
VFor
p8073
atp8074
Rp8075
(dp8076
g17
VIN
p8077
sbag5
(g6
g7
(lp8078
g5
(g6
g7
(lp8079
Vfaint
p8080
atp8081
Rp8082
(dp8083
g17
VJJ
p8084
sbag5
(g6
g7
(lp8085
g5
(g6
g7
(lp8086
Vstellar
p8087
atp8088
Rp8089
(dp8090
g17
VJJ
p8091
sbag5
(g6
g7
(lp8092
Vand
p8093
atp8094
Rp8095
(dp8096
g17
VCC
p8097
sbag5
(g6
g7
(lp8098
Vgalactic
p8099
atp8100
Rp8101
(dp8102
g17
VJJ
p8103
sbatp8104
Rp8105
(dp8106
g17
VADJP
p8107
sbag5
(g6
g7
(lp8108
Vobjects
p8109
atp8110
Rp8111
(dp8112
g17
VNNS
p8113
sbatp8114
Rp8115
(dp8116
g17
VNP
p8117
sbatp8118
Rp8119
(dp8120
g17
VPP
p8121
sbag5
(g6
g7
(lp8122
g184
atp8123
Rp8124
(dp8125
g17
g184
sbag5
(g6
g7
(lp8126
g5
(g6
g7
(lp8127
g5
(g6
g7
(lp8128
g5
(g6
g7
(lp8129
Vthe
p8130
atp8131
Rp8132
(dp8133
g17
VDT
p8134
sbag5
(g6
g7
(lp8135
Vapparent
p8136
atp8137
Rp8138
(dp8139
g17
VJJ
p8140
sbag5
(g6
g7
(lp8141
Vmotion
p8142
atp8143
Rp8144
(dp8145
g17
VNN
p8146
sbatp8147
Rp8148
(dp8149
g17
VNP
p8150
sbag5
(g6
g7
(lp8151
g5
(g6
g7
(lp8152
Vis
p8153
atp8154
Rp8155
(dp8156
g17
VVBZ
p8157
sbag5
(g6
g7
(lp8158
g5
(g6
g7
(lp8159
Vtypically
p8160
atp8161
Rp8162
(dp8163
g17
VRB
p8164
sbatp8165
Rp8166
(dp8167
g17
VADVP
p8168
sbag5
(g6
g7
(lp8169
g5
(g6
g7
(lp8170
Vmuch
p8171
atp8172
Rp8173
(dp8174
g17
VRB
p8175
sbag5
(g6
g7
(lp8176
Vsmaller
p8177
atp8178
Rp8179
(dp8180
g17
VJJR
p8181
sbatp8182
Rp8183
(dp8184
g17
VADJP
p8185
sbatp8186
Rp8187
(dp8188
g17
VVP
p8189
sbatp8190
Rp8191
(dp8192
g17
g70
sbag5
(g6
g7
(lp8193
Vand
p8194
atp8195
Rp8196
(dp8197
g17
VCC
p8198
sbag5
(g6
g7
(lp8199
g5
(g6
g7
(lp8200
Vso
p8201
atp8202
Rp8203
(dp8204
g17
VIN
p8205
sbag5
(g6
g7
(lp8206
g5
(g6
g7
(lp8207
Vthe
p8208
atp8209
Rp8210
(dp8211
g17
VDT
p8212
sbag5
(g6
g7
(lp8213
Vobservations
p8214
atp8215
Rp8216
(dp8217
g17
VNNS
p8218
sbatp8219
Rp8220
(dp8221
g17
VNP
p8222
sbag5
(g6
g7
(lp8223
g5
(g6
g7
(lp8224
Vcan
p8225
atp8226
Rp8227
(dp8228
g17
VMD
p8229
sbag5
(g6
g7
(lp8230
g5
(g6
g7
(lp8231
Vbe
p8232
atp8233
Rp8234
(dp8235
g17
VVB
p8236
sbag5
(g6
g7
(lp8237
g5
(g6
g7
(lp8238
Vmonths
p8239
atp8240
Rp8241
(dp8242
g17
VNNS
p8243
sbag5
(g6
g7
(lp8244
Vor
p8245
atp8246
Rp8247
(dp8248
g17
VCC
p8249
sbag5
(g6
g7
(lp8250
Vyears
p8251
atp8252
Rp8253
(dp8254
g17
VNNS
p8255
sbatp8256
Rp8257
(dp8258
g17
VNP
p8259
sbag5
(g6
g7
(lp8260
g5
(g6
g7
(lp8261
Vapart
p8262
atp8263
Rp8264
(dp8265
g17
VRB
p8266
sbatp8267
Rp8268
(dp8269
g17
VADVP
p8270
sbatp8271
Rp8272
(dp8273
g17
VVP
p8274
sbatp8275
Rp8276
(dp8277
g17
VVP
p8278
sbatp8279
Rp8280
(dp8281
g17
g70
sbatp8282
Rp8283
(dp8284
g17
g70
sbag5
(g6
g7
(lp8285
Vand
p8286
atp8287
Rp8288
(dp8289
g17
VCC
p8290
sbag5
(g6
g7
(lp8291
g5
(g6
g7
(lp8292
Vyet
p8293
atp8294
Rp8295
(dp8296
g17
VRB
p8297
sbatp8298
Rp8299
(dp8300
g17
VADVP
p8301
sbag5
(g6
g7
(lp8302
g5
(g6
g7
(lp8303
g5
(g6
g7
(lp8304
Vthe
p8305
atp8306
Rp8307
(dp8308
g17
VDT
p8309
sbag5
(g6
g7
(lp8310
Vtechniques
p8311
atp8312
Rp8313
(dp8314
g17
VNNS
p8315
sbatp8316
Rp8317
(dp8318
g17
VNP
p8319
sbag5
(g6
g7
(lp8320
g5
(g6
g7
(lp8321
Vhere
p8322
atp8323
Rp8324
(dp8325
g17
VRB
p8326
sbatp8327
Rp8328
(dp8329
g17
VADVP
p8330
sbag5
(g6
g7
(lp8331
g5
(g6
g7
(lp8332
Vcan
p8333
atp8334
Rp8335
(dp8336
g17
VMD
p8337
sbag5
(g6
g7
(lp8338
g5
(g6
g7
(lp8339
Vcorrelate
p8340
atp8341
Rp8342
(dp8343
g17
VVB
p8344
sbag5
(g6
g7
(lp8345
g5
(g6
g7
(lp8346
Vthe
p8347
atp8348
Rp8349
(dp8350
g17
VDT
p8351
sbag5
(g6
g7
(lp8352
Vtwo
p8353
atp8354
Rp8355
(dp8356
g17
VCD
p8357
sbag5
(g6
g7
(lp8358
Vobservations
p8359
atp8360
Rp8361
(dp8362
g17
VNNS
p8363
sbatp8364
Rp8365
(dp8366
g17
VNP
p8367
sbatp8368
Rp8369
(dp8370
g17
VVP
p8371
sbatp8372
Rp8373
(dp8374
g17
VVP
p8375
sbatp8376
Rp8377
(dp8378
g17
g70
sbag5
(g6
g7
(lp8379
g461
atp8380
Rp8381
(dp8382
g17
g461
sbatp8383
Rp8384
(dp8385
g17
g70
sbatp8386
Rp8387
(dp8388
g17
VROOT
p8389
sbasg472
(icmyPackage
CorE
p8390
(dp8391
g475
(lp8392
(I0
I6
tp8393
a(I0
I13
tp8394
asg479
g5
(g6
g7
(lp8395
g8124
ag8191
atp8396
Rp8397
(dp8398
g17
g484
sbsbsg485
(icmyPackage
CorE
p8399
(dp8400
g475
(lp8401
(I0
I16
tp8402
a(I0
I34
tp8403
asg479
g5
(g6
g7
(lp8404
g8220
ag8276
ag8288
ag8299
ag8377
ag8381
atp8405
Rp8406
(dp8407
g17
g484
sbsbsg495
g3149
sg519
(lp8408
(icmyPackage
Sent
p8409
(dp8410
g523
I6
sg524
I110
sg525
S'For faint stellar and galactic objects, the apparent motion is typically much smaller and so the observations can be months or years apart and yet the techniques here can correlate the two observations.'
p8411
sg527
I2
sg528
I193
sg479
(lp8412
g8387
asbasba(icmyPackage
CELink
p8413
(dp8414
g3
(lp8415
g5
(g6
g7
(lp8416
g5
(g6
g7
(lp8417
g5
(g6
g7
(lp8418
g5
(g6
g7
(lp8419
VGiven
p8420
atp8421
Rp8422
(dp8423
g17
VVBN
p8424
sbag5
(g6
g7
(lp8425
g5
(g6
g7
(lp8426
g5
(g6
g7
(lp8427
Vthis
p8428
atp8429
Rp8430
(dp8431
g17
VDT
p8432
sbag5
(g6
g7
(lp8433
g5
(g6
g7
(lp8434
Vrather
p8435
atp8436
Rp8437
(dp8438
g17
VRB
p8439
sbag5
(g6
g7
(lp8440
Vlow
p8441
atp8442
Rp8443
(dp8444
g17
VJJ
p8445
sbatp8446
Rp8447
(dp8448
g17
VADJP
p8449
sbag5
(g6
g7
(lp8450
Vobject
p8451
atp8452
Rp8453
(dp8454
g17
VNN
p8455
sbag5
(g6
g7
(lp8456
Vsurface
p8457
atp8458
Rp8459
(dp8460
g17
VNN
p8461
sbag5
(g6
g7
(lp8462
Vdensity
p8463
atp8464
Rp8465
(dp8466
g17
VNN
p8467
sbatp8468
Rp8469
(dp8470
g17
VNP
p8471
sbag5
(g6
g7
(lp8472
g5
(g6
g7
(lp8473
V-LRB-
p8474
atp8475
Rp8476
(dp8477
g17
V-LRB-
p8478
sbag5
(g6
g7
(lp8479
g5
(g6
g7
(lp8480
g5
(g6
g7
(lp8481
Vwhen
p8482
atp8483
Rp8484
(dp8485
g17
VWRB
p8486
sbatp8487
Rp8488
(dp8489
g17
VWHADVP
p8490
sbag5
(g6
g7
(lp8491
g5
(g6
g7
(lp8492
g5
(g6
g7
(lp8493
Vcompared
p8494
atp8495
Rp8496
(dp8497
g17
VVBN
p8498
sbag5
(g6
g7
(lp8499
g5
(g6
g7
(lp8500
Vto
p8501
atp8502
Rp8503
(dp8504
g17
VTO
p8505
sbag5
(g6
g7
(lp8506
g5
(g6
g7
(lp8507
g5
(g6
g7
(lp8508
Vthe
p8509
atp8510
Rp8511
(dp8512
g17
VDT
p8513
sbag5
(g6
g7
(lp8514
VGalactic
p8515
atp8516
Rp8517
(dp8518
g17
VNNP
p8519
sbag5
(g6
g7
(lp8520
VPlane
p8521
atp8522
Rp8523
(dp8524
g17
VNNP
p8525
sbatp8526
Rp8527
(dp8528
g17
VNP
p8529
sbag5
(g6
g7
(lp8530
Vor
p8531
atp8532
Rp8533
(dp8534
g17
VCC
p8535
sbag5
(g6
g7
(lp8536
g5
(g6
g7
(lp8537
Vthe
p8538
atp8539
Rp8540
(dp8541
g17
VDT
p8542
sbag5
(g6
g7
(lp8543
VGalactic
p8544
atp8545
Rp8546
(dp8547
g17
VNNP
p8548
sbag5
(g6
g7
(lp8549
VCenter
p8550
atp8551
Rp8552
(dp8553
g17
VNNP
p8554
sbatp8555
Rp8556
(dp8557
g17
VNP
p8558
sbatp8559
Rp8560
(dp8561
g17
VNP
p8562
sbatp8563
Rp8564
(dp8565
g17
VPP
p8566
sbatp8567
Rp8568
(dp8569
g17
VVP
p8570
sbatp8571
Rp8572
(dp8573
g17
g70
sbatp8574
Rp8575
(dp8576
g17
VSBAR
p8577
sbag5
(g6
g7
(lp8578
V-RRB-
p8579
atp8580
Rp8581
(dp8582
g17
V-RRB-
p8583
sbatp8584
Rp8585
(dp8586
g17
VPRN
p8587
sbatp8588
Rp8589
(dp8590
g17
VNP
p8591
sbatp8592
Rp8593
(dp8594
g17
VPP
p8595
sbag5
(g6
g7
(lp8596
g184
atp8597
Rp8598
(dp8599
g17
g184
sbag5
(g6
g7
(lp8600
g5
(g6
g7
(lp8601
Vthe
p8602
atp8603
Rp8604
(dp8605
g17
VDT
p8606
sbag5
(g6
g7
(lp8607
Vtechniques
p8608
atp8609
Rp8610
(dp8611
g17
VNNS
p8612
sbatp8613
Rp8614
(dp8615
g17
VNP
p8616
sbag5
(g6
g7
(lp8617
g5
(g6
g7
(lp8618
Vdescribed
p8619
atp8620
Rp8621
(dp8622
g17
VVBD
p8623
sbag5
(g6
g7
(lp8624
g5
(g6
g7
(lp8625
g5
(g6
g7
(lp8626
g5
(g6
g7
(lp8627
Vhere
p8628
atp8629
Rp8630
(dp8631
g17
VRB
p8632
sbatp8633
Rp8634
(dp8635
g17
VNP
p8636
sbag5
(g6
g7
(lp8637
g5
(g6
g7
(lp8638
Vcan
p8639
atp8640
Rp8641
(dp8642
g17
VMD
p8643
sbag5
(g6
g7
(lp8644
g5
(g6
g7
(lp8645
Vfind
p8646
atp8647
Rp8648
(dp8649
g17
VVB
p8650
sbag5
(g6
g7
(lp8651
g5
(g6
g7
(lp8652
Vslowly
p8653
atp8654
Rp8655
(dp8656
g17
VRB
p8657
sbatp8658
Rp8659
(dp8660
g17
VADVP
p8661
sbag5
(g6
g7
(lp8662
g5
(g6
g7
(lp8663
Vmoving
p8664
atp8665
Rp8666
(dp8667
g17
VVBG
p8668
sbag5
(g6
g7
(lp8669
Vobjects
p8670
atp8671
Rp8672
(dp8673
g17
VNNS
p8674
sbatp8675
Rp8676
(dp8677
g17
VNP
p8678
sbag5
(g6
g7
(lp8679
g5
(g6
g7
(lp8680
Vby
p8681
atp8682
Rp8683
(dp8684
g17
VIN
p8685
sbag5
(g6
g7
(lp8686
g5
(g6
g7
(lp8687
g5
(g6
g7
(lp8688
Vusing
p8689
atp8690
Rp8691
(dp8692
g17
VVBG
p8693
sbag5
(g6
g7
(lp8694
g5
(g6
g7
(lp8695
g995
atp8696
Rp8697
(dp8698
g17
VDT
p8699
sbag5
(g6
g7
(lp8700
Vlarger
p8701
atp8702
Rp8703
(dp8704
g17
VJJR
p8705
sbag5
(g6
g7
(lp8706
Vclassification
p8707
atp8708
Rp8709
(dp8710
g17
VNN
p8711
sbag5
(g6
g7
(lp8712
Vdistance
p8713
atp8714
Rp8715
(dp8716
g17
VNN
p8717
sbatp8718
Rp8719
(dp8720
g17
VNP
p8721
sbatp8722
Rp8723
(dp8724
g17
VVP
p8725
sbatp8726
Rp8727
(dp8728
g17
g70
sbatp8729
Rp8730
(dp8731
g17
VPP
p8732
sbatp8733
Rp8734
(dp8735
g17
VVP
p8736
sbatp8737
Rp8738
(dp8739
g17
VVP
p8740
sbatp8741
Rp8742
(dp8743
g17
g70
sbatp8744
Rp8745
(dp8746
g17
VSBAR
p8747
sbatp8748
Rp8749
(dp8750
g17
VVP
p8751
sbag5
(g6
g7
(lp8752
g461
atp8753
Rp8754
(dp8755
g17
g461
sbatp8756
Rp8757
(dp8758
g17
g70
sbatp8759
Rp8760
(dp8761
g17
VROOT
p8762
sbasg472
(icmyPackage
CorE
p8763
(dp8764
g475
(lp8765
(I0
I30
tp8766
a(I0
I34
tp8767
asg479
g8727
sbsg485
(icmyPackage
CorE
p8768
(dp8769
g475
(lp8770
(I0
I0
tp8771
a(I0
I28
tp8772
asg479
g5
(g6
g7
(lp8773
g8593
ag8598
ag8614
ag8621
ag8634
ag8641
ag8648
ag8659
ag8676
atp8774
Rp8775
(dp8776
g17
g484
sbsbsg495
g2067
sg519
(lp8777
(icmyPackage
Sent
p8778
(dp8779
g523
I6
sg524
I113
sg525
S'Given this rather low object surface density (when compared to the Galactic Plane or the Galactic Center), the techniques described here can find slowly moving objects by using a larger classification distance.'
p8780
sg527
I2
sg528
I201
sg479
(lp8781
g8760
asbasba(icmyPackage
CELink
p8782
(dp8783
g3
(lp8784
g5
(g6
g7
(lp8785
g5
(g6
g7
(lp8786
g5
(g6
g7
(lp8787
VBut
p8788
atp8789
Rp8790
(dp8791
g17
VCC
p8792
sbag5
(g6
g7
(lp8793
g5
(g6
g7
(lp8794
g5
(g6
g7
(lp8795
Vif
p8796
atp8797
Rp8798
(dp8799
g17
VIN
p8800
sbag5
(g6
g7
(lp8801
g5
(g6
g7
(lp8802
g5
(g6
g7
(lp8803
Vthe
p8804
atp8805
Rp8806
(dp8807
g17
VDT
p8808
sbag5
(g6
g7
(lp8809
Vobject
p8810
atp8811
Rp8812
(dp8813
g17
VNN
p8814
sbatp8815
Rp8816
(dp8817
g17
VNP
p8818
sbag5
(g6
g7
(lp8819
g5
(g6
g7
(lp8820
Vmoves
p8821
atp8822
Rp8823
(dp8824
g17
VVBZ
p8825
sbag5
(g6
g7
(lp8826
g5
(g6
g7
(lp8827
g5
(g6
g7
(lp8828
g5
(g6
g7
(lp8829
Vmore
p8830
atp8831
Rp8832
(dp8833
g17
VJJR
p8834
sbag5
(g6
g7
(lp8835
Vthan
p8836
atp8837
Rp8838
(dp8839
g17
VIN
p8840
sbag5
(g6
g7
(lp8841
g995
atp8842
Rp8843
(dp8844
g17
VDT
p8845
sbag5
(g6
g7
(lp8846
Vfew
p8847
atp8848
Rp8849
(dp8850
g17
VJJ
p8851
sbatp8852
Rp8853
(dp8854
g17
VQP
p8855
sbag5
(g6
g7
(lp8856
Varcseconds
p8857
atp8858
Rp8859
(dp8860
g17
VNNS
p8861
sbatp8862
Rp8863
(dp8864
g17
VNP
p8865
sbag5
(g6
g7
(lp8866
g5
(g6
g7
(lp8867
Vper
p8868
atp8869
Rp8870
(dp8871
g17
VIN
p8872
sbag5
(g6
g7
(lp8873
g5
(g6
g7
(lp8874
Vyear
p8875
atp8876
Rp8877
(dp8878
g17
VNN
p8879
sbatp8880
Rp8881
(dp8882
g17
VNP
p8883
sbatp8884
Rp8885
(dp8886
g17
VPP
p8887
sbatp8888
Rp8889
(dp8890
g17
VNP
p8891
sbatp8892
Rp8893
(dp8894
g17
VVP
p8895
sbatp8896
Rp8897
(dp8898
g17
g70
sbatp8899
Rp8900
(dp8901
g17
VSBAR
p8902
sbag5
(g6
g7
(lp8903
Vor
p8904
atp8905
Rp8906
(dp8907
g17
VCC
p8908
sbag5
(g6
g7
(lp8909
g5
(g6
g7
(lp8910
Vif
p8911
atp8912
Rp8913
(dp8914
g17
VIN
p8915
sbag5
(g6
g7
(lp8916
g5
(g6
g7
(lp8917
g5
(g6
g7
(lp8918
Vthe
p8919
atp8920
Rp8921
(dp8922
g17
VDT
p8923
sbag5
(g6
g7
(lp8924
Vobject
p8925
atp8926
Rp8927
(dp8928
g17
VNN
p8929
sbag5
(g6
g7
(lp8930
Vdensity
p8931
atp8932
Rp8933
(dp8934
g17
VNN
p8935
sbatp8936
Rp8937
(dp8938
g17
VNP
p8939
sbag5
(g6
g7
(lp8940
g5
(g6
g7
(lp8941
Vis
p8942
atp8943
Rp8944
(dp8945
g17
VVBZ
p8946
sbag5
(g6
g7
(lp8947
g5
(g6
g7
(lp8948
Vmuch
p8949
atp8950
Rp8951
(dp8952
g17
VRB
p8953
sbag5
(g6
g7
(lp8954
Vhigher
p8955
atp8956
Rp8957
(dp8958
g17
VJJR
p8959
sbatp8960
Rp8961
(dp8962
g17
VADJP
p8963
sbatp8964
Rp8965
(dp8966
g17
VVP
p8967
sbatp8968
Rp8969
(dp8970
g17
g70
sbatp8971
Rp8972
(dp8973
g17
VSBAR
p8974
sbatp8975
Rp8976
(dp8977
g17
VSBAR
p8978
sbag5
(g6
g7
(lp8979
g184
atp8980
Rp8981
(dp8982
g17
g184
sbag5
(g6
g7
(lp8983
g5
(g6
g7
(lp8984
Vthen
p8985
atp8986
Rp8987
(dp8988
g17
VRB
p8989
sbatp8990
Rp8991
(dp8992
g17
VADVP
p8993
sbag5
(g6
g7
(lp8994
g5
(g6
g7
(lp8995
Vthe
p8996
atp8997
Rp8998
(dp8999
g17
VDT
p9000
sbag5
(g6
g7
(lp9001
Vclassification
p9002
atp9003
Rp9004
(dp9005
g17
VNN
p9006
sbag5
(g6
g7
(lp9007
Vdistance
p9008
atp9009
Rp9010
(dp9011
g17
VNN
p9012
sbag5
(g6
g7
(lp9013
Vtechnique
p9014
atp9015
Rp9016
(dp9017
g17
VNN
p9018
sbatp9019
Rp9020
(dp9021
g17
VNP
p9022
sbag5
(g6
g7
(lp9023
g5
(g6
g7
(lp9024
Vwill
p9025
atp9026
Rp9027
(dp9028
g17
VMD
p9029
sbag5
(g6
g7
(lp9030
g5
(g6
g7
(lp9031
Vhit
p9032
atp9033
Rp9034
(dp9035
g17
VVB
p9036
sbag5
(g6
g7
(lp9037
g5
(g6
g7
(lp9038
g995
atp9039
Rp9040
(dp9041
g17
VDT
p9042
sbag5
(g6
g7
(lp9043
Vcombinatorial
p9044
atp9045
Rp9046
(dp9047
g17
VJJ
p9048
sbag5
(g6
g7
(lp9049
Vexplosion
p9050
atp9051
Rp9052
(dp9053
g17
VNN
p9054
sbatp9055
Rp9056
(dp9057
g17
VNP
p9058
sbag5
(g6
g7
(lp9059
g5
(g6
g7
(lp9060
Vwith
p9061
atp9062
Rp9063
(dp9064
g17
VIN
p9065
sbag5
(g6
g7
(lp9066
g5
(g6
g7
(lp9067
g5
(g6
g7
(lp9068
Vtoo
p9069
atp9070
Rp9071
(dp9072
g17
VRB
p9073
sbag5
(g6
g7
(lp9074
Vmany
p9075
atp9076
Rp9077
(dp9078
g17
VJJ
p9079
sbatp9080
Rp9081
(dp9082
g17
VADJP
p9083
sbag5
(g6
g7
(lp9084
Vfalse-positives
p9085
atp9086
Rp9087
(dp9088
g17
VNNS
p9089
sbatp9090
Rp9091
(dp9092
g17
VNP
p9093
sbatp9094
Rp9095
(dp9096
g17
VPP
p9097
sbatp9098
Rp9099
(dp9100
g17
VVP
p9101
sbatp9102
Rp9103
(dp9104
g17
VVP
p9105
sbag5
(g6
g7
(lp9106
g461
atp9107
Rp9108
(dp9109
g17
g461
sbatp9110
Rp9111
(dp9112
g17
g70
sbatp9113
Rp9114
(dp9115
g17
VROOT
p9116
sbasg472
(icmyPackage
CorE
p9117
(dp9118
g475
(lp9119
(I0
I14
tp9120
a(I0
I19
tp9121
asg479
g8969
sbsg485
(icmyPackage
CorE
p9122
(dp9123
g475
(lp9124
(I0
I21
tp9125
a(I0
I35
tp9126
asg479
g5
(g6
g7
(lp9127
g8991
ag9020
ag9103
ag9108
atp9128
Rp9129
(dp9130
g17
g484
sbsbsg495
g1155
sg519
(lp9131
(icmyPackage
Sent
p9132
(dp9133
g523
I6
sg524
I114
sg525
S'But if the object moves more than a few arcseconds per year or if the object density is much higher, then the classification distance technique will hit a combinatorial explosion with too many false-positives.'
p9134
sg527
I2
sg528
I202
sg479
(lp9135
g9114
asbasba(icmyPackage
CELink
p9136
(dp9137
g3
(lp9138
g5
(g6
g7
(lp9139
g5
(g6
g7
(lp9140
g5
(g6
g7
(lp9141
g5
(g6
g7
(lp9142
VIf
p9143
atp9144
Rp9145
(dp9146
g17
VIN
p9147
sbag5
(g6
g7
(lp9148
g5
(g6
g7
(lp9149
g5
(g6
g7
(lp9150
Vthere
p9151
atp9152
Rp9153
(dp9154
g17
VEX
p9155
sbatp9156
Rp9157
(dp9158
g17
VNP
p9159
sbag5
(g6
g7
(lp9160
g5
(g6
g7
(lp9161
Vare
p9162
atp9163
Rp9164
(dp9165
g17
VVBP
p9166
sbag5
(g6
g7
(lp9167
g5
(g6
g7
(lp9168
g5
(g6
g7
(lp9169
Vno
p9170
atp9171
Rp9172
(dp9173
g17
VDT
p9174
sbag5
(g6
g7
(lp9175
Vmatches
p9176
atp9177
Rp9178
(dp9179
g17
VNN
p9180
sbatp9181
Rp9182
(dp9183
g17
VNP
p9184
sbag5
(g6
g7
(lp9185
g5
(g6
g7
(lp9186
Vin
p9187
atp9188
Rp9189
(dp9190
g17
VIN
p9191
sbag5
(g6
g7
(lp9192
g5
(g6
g7
(lp9193
g995
atp9194
Rp9195
(dp9196
g17
VDT
p9197
sbag5
(g6
g7
(lp9198
Vcatalog
p9199
atp9200
Rp9201
(dp9202
g17
VNN
p9203
sbatp9204
Rp9205
(dp9206
g17
VNP
p9207
sbatp9208
Rp9209
(dp9210
g17
VPP
p9211
sbatp9212
Rp9213
(dp9214
g17
VNP
p9215
sbag5
(g6
g7
(lp9216
g5
(g6
g7
(lp9217
Vthen
p9218
atp9219
Rp9220
(dp9221
g17
VRB
p9222
sbatp9223
Rp9224
(dp9225
g17
VADVP
p9226
sbatp9227
Rp9228
(dp9229
g17
VVP
p9230
sbatp9231
Rp9232
(dp9233
g17
g70
sbatp9234
Rp9235
(dp9236
g17
VSBAR
p9237
sbag5
(g6
g7
(lp9238
g5
(g6
g7
(lp9239
Vthat
p9240
atp9241
Rp9242
(dp9243
g17
VDT
p9244
sbag5
(g6
g7
(lp9245
Vfield
p9246
atp9247
Rp9248
(dp9249
g17
VNN
p9250
sbatp9251
Rp9252
(dp9253
g17
VNP
p9254
sbag5
(g6
g7
(lp9255
g5
(g6
g7
(lp9256
Vis
p9257
atp9258
Rp9259
(dp9260
g17
VVBZ
p9261
sbag5
(g6
g7
(lp9262
g5
(g6
g7
(lp9263
Vfilled
p9264
atp9265
Rp9266
(dp9267
g17
VVBN
p9268
sbag5
(g6
g7
(lp9269
g5
(g6
g7
(lp9270
Vin
p9271
atp9272
Rp9273
(dp9274
g17
VIN
p9275
sbag5
(g6
g7
(lp9276
g5
(g6
g7
(lp9277
Vwith
p9278
atp9279
Rp9280
(dp9281
g17
VIN
p9282
sbag5
(g6
g7
(lp9283
g5
(g6
g7
(lp9284
Vthe
p9285
atp9286
Rp9287
(dp9288
g17
VDT
p9289
sbag5
(g6
g7
(lp9290
Vrelational
p9291
atp9292
Rp9293
(dp9294
g17
VJJ
p9295
sbag5
(g6
g7
(lp9296
Vnull
p9297
atp9298
Rp9299
(dp9300
g17
VJJ
p9301
sbag5
(g6
g7
(lp9302
Vvalue
p9303
atp9304
Rp9305
(dp9306
g17
VNN
p9307
sbatp9308
Rp9309
(dp9310
g17
VNP
p9311
sbatp9312
Rp9313
(dp9314
g17
VPP
p9315
sbatp9316
Rp9317
(dp9318
g17
VPP
p9319
sbatp9320
Rp9321
(dp9322
g17
VVP
p9323
sbatp9324
Rp9325
(dp9326
g17
VVP
p9327
sbag5
(g6
g7
(lp9328
g461
atp9329
Rp9330
(dp9331
g17
g461
sbatp9332
Rp9333
(dp9334
g17
g70
sbatp9335
Rp9336
(dp9337
g17
VROOT
p9338
sbasg472
(icmyPackage
CorE
p9339
(dp9340
g475
(lp9341
(I0
I1
tp9342
a(I0
I7
tp9343
asg479
g5
(g6
g7
(lp9344
g9157
ag9164
ag9213
atp9345
Rp9346
(dp9347
g17
g484
sbsbsg485
(icmyPackage
CorE
p9348
(dp9349
g475
(lp9350
(I0
I9
tp9351
a(I0
I19
tp9352
asg479
g5
(g6
g7
(lp9353
g9252
ag9325
ag9330
atp9354
Rp9355
(dp9356
g17
g484
sbsbsg495
(icmyPackage
pattern
p9357
(dp9358
g498
I0
sg499
I0
sg500
(lp9359
(lp9360
S'if'
p9361
aa(lp9362
S'then'
p9363
aasg504
(lp9364
I1
aI1
aI1
asg506
(lp9365
S'If representation A cites a set of representations B, and A is cited by a set of representations C, then both B and C constitute the extension of A.'
p9366
asg509
I16
sg510
(lp9367
(lp9368
a(lp9369
S'&C'
p9370
aS'(,)'
p9371
aa(lp9372
S'&R'
p9373
aasbsg519
(lp9374
(icmyPackage
Sent
p9375
(dp9376
g523
I6
sg524
I117
sg525
S'If there are no matches in a catalog then that field is filled in with the relational null value.'
p9377
sg527
I3
sg528
I213
sg479
(lp9378
g9336
asbasba(icmyPackage
CELink
p9379
(dp9380
g3
(lp9381
g5
(g6
g7
(lp9382
g5
(g6
g7
(lp9383
g5
(g6
g7
(lp9384
g5
(g6
g7
(lp9385
VWe
p9386
atp9387
Rp9388
(dp9389
g17
VPRP
p9390
sbatp9391
Rp9392
(dp9393
g17
VNP
p9394
sbag5
(g6
g7
(lp9395
g5
(g6
g7
(lp9396
Vcall
p9397
atp9398
Rp9399
(dp9400
g17
VVBP
p9401
sbag5
(g6
g7
(lp9402
g5
(g6
g7
(lp9403
g5
(g6
g7
(lp9404
g5
(g6
g7
(lp9405
Vsuch
p9406
atp9407
Rp9408
(dp9409
g17
VPDT
p9410
sbag5
(g6
g7
(lp9411
g995
atp9412
Rp9413
(dp9414
g17
VDT
p9415
sbag5
(g6
g7
(lp9416
Vcross-match
p9417
atp9418
Rp9419
(dp9420
g17
VNN
p9421
sbatp9422
Rp9423
(dp9424
g17
VNP
p9425
sbag5
(g6
g7
(lp9426
g5
(g6
g7
(lp9427
Vrepresentations
p9428
atp9429
Rp9430
(dp9431
g17
VVBD
p9432
sbag5
(g6
g7
(lp9433
g5
(g6
g7
(lp9434
g995
atp9435
Rp9436
(dp9437
g17
VDT
p9438
sbag5
(g6
g7
(lp9439
Vpivoted
p9440
atp9441
Rp9442
(dp9443
g17
VJJ
p9444
sbag5
(g6
g7
(lp9445
Vcross-match
p9446
atp9447
Rp9448
(dp9449
g17
VNN
p9450
sbatp9451
Rp9452
(dp9453
g17
VNP
p9454
sbag5
(g6
g7
(lp9455
g5
(g6
g7
(lp9456
V-LRB-
p9457
atp9458
Rp9459
(dp9460
g17
V-LRB-
p9461
sbag5
(g6
g7
(lp9462
g5
(g6
g7
(lp9463
Vas
p9464
atp9465
Rp9466
(dp9467
g17
VRB
p9468
sbag5
(g6
g7
(lp9469
Vopposed
p9470
atp9471
Rp9472
(dp9473
g17
VVBN
p9474
sbag5
(g6
g7
(lp9475
g5
(g6
g7
(lp9476
Vto
p9477
atp9478
Rp9479
(dp9480
g17
VTO
p9481
sbag5
(g6
g7
(lp9482
g5
(g6
g7
(lp9483
g995
atp9484
Rp9485
(dp9486
g17
VDT
p9487
sbag5
(g6
g7
(lp9488
Vpair-table
p9489
atp9490
Rp9491
(dp9492
g17
VJJ
p9493
sbag5
(g6
g7
(lp9494
Vcross-match
p9495
atp9496
Rp9497
(dp9498
g17
VNN
p9499
sbatp9500
Rp9501
(dp9502
g17
VNP
p9503
sbatp9504
Rp9505
(dp9506
g17
VPP
p9507
sbatp9508
Rp9509
(dp9510
g17
VADJP
p9511
sbag5
(g6
g7
(lp9512
V-RRB-
p9513
atp9514
Rp9515
(dp9516
g17
V-RRB-
p9517
sbatp9518
Rp9519
(dp9520
g17
VPRN
p9521
sbag5
(g6
g7
(lp9522
g5
(g6
g7
(lp9523
Vbecause
p9524
atp9525
Rp9526
(dp9527
g17
VIN
p9528
sbag5
(g6
g7
(lp9529
g5
(g6
g7
(lp9530
g5
(g6
g7
(lp9531
Vthis
p9532
atp9533
Rp9534
(dp9535
g17
VDT
p9536
sbag5
(g6
g7
(lp9537
Vrepresentation
p9538
atp9539
Rp9540
(dp9541
g17
VNN
p9542
sbatp9543
Rp9544
(dp9545
g17
VNP
p9546
sbag5
(g6
g7
(lp9547
g5
(g6
g7
(lp9548
Vis
p9549
atp9550
Rp9551
(dp9552
g17
VVBZ
p9553
sbag5
(g6
g7
(lp9554
g5
(g6
g7
(lp9555
g5
(g6
g7
(lp9556
Vthe
p9557
atp9558
Rp9559
(dp9560
g17
VDT
p9561
sbag5
(g6
g7
(lp9562
g5
(g6
g7
(lp9563
Vpivot
p9564
atp9565
Rp9566
(dp9567
g17
VJJ
p9568
sbag5
(g6
g7
(lp9569
g5
(g6
g7
(lp9570
Vof
p9571
atp9572
Rp9573
(dp9574
g17
VIN
p9575
sbag5
(g6
g7
(lp9576
g5
(g6
g7
(lp9577
Vthe
p9578
atp9579
Rp9580
(dp9581
g17
VDT
p9582
sbag5
(g6
g7
(lp9583
Vpairs
p9584
atp9585
Rp9586
(dp9587
g17
VNNS
p9588
sbatp9589
Rp9590
(dp9591
g17
VNP
p9592
sbatp9593
Rp9594
(dp9595
g17
VPP
p9596
sbatp9597
Rp9598
(dp9599
g17
VADJP
p9600
sbag5
(g6
g7
(lp9601
Vtable
p9602
atp9603
Rp9604
(dp9605
g17
VNN
p9606
sbatp9607
Rp9608
(dp9609
g17
VNP
p9610
sbag5
(g6
g7
(lp9611
g5
(g6
g7
(lp9612
Von
p9613
atp9614
Rp9615
(dp9616
g17
VIN
p9617
sbag5
(g6
g7
(lp9618
g5
(g6
g7
(lp9619
Vthe
p9620
atp9621
Rp9622
(dp9623
g17
VDT
p9624
sbag5
(g6
g7
(lp9625
Vmatch-head
p9626
atp9627
Rp9628
(dp9629
g17
VJJ
p9630
sbag5
(g6
g7
(lp9631
Vand
p9632
atp9633
Rp9634
(dp9635
g17
VCC
p9636
sbag5
(g6
g7
(lp9637
Vrun
p9638
atp9639
Rp9640
(dp9641
g17
VNN
p9642
sbag5
(g6
g7
(lp9643
Vnumber
p9644
atp9645
Rp9646
(dp9647
g17
VNN
p9648
sbatp9649
Rp9650
(dp9651
g17
VNP
p9652
sbatp9653
Rp9654
(dp9655
g17
VPP
p9656
sbatp9657
Rp9658
(dp9659
g17
VNP
p9660
sbatp9661
Rp9662
(dp9663
g17
VVP
p9664
sbatp9665
Rp9666
(dp9667
g17
g70
sbatp9668
Rp9669
(dp9670
g17
VSBAR
p9671
sbatp9672
Rp9673
(dp9674
g17
VVP
p9675
sbatp9676
Rp9677
(dp9678
g17
g70
sbatp9679
Rp9680
(dp9681
g17
VSBAR
p9682
sbatp9683
Rp9684
(dp9685
g17
VVP
p9686
sbag5
(g6
g7
(lp9687
g461
atp9688
Rp9689
(dp9690
g17
g461
sbatp9691
Rp9692
(dp9693
g17
g70
sbatp9694
Rp9695
(dp9696
g17
VROOT
p9697
sbasg472
(icmyPackage
CorE
p9698
(dp9699
g475
(lp9700
(I0
I18
tp9701
a(I0
I33
tp9702
asg479
g5
(g6
g7
(lp9703
g9666
ag9689
atp9704
Rp9705
(dp9706
g17
g484
sbsbsg485
(icmyPackage
CorE
p9707
(dp9708
g475
(lp9709
(I0
I0
tp9710
a(I0
I16
tp9711
asg479
g5
(g6
g7
(lp9712
g9392
ag9399
ag9423
ag9430
ag9452
ag9519
atp9713
Rp9714
(dp9715
g17
g484
sbsbsg495
g7532
sg519
(lp9716
(icmyPackage
Sent
p9717
(dp9718
g523
I6
sg524
I118
sg525
S'We call such a cross-match representations a pivoted cross-match (as opposed to a pair-table cross-match) because this representation is the pivot of the pairs table on the match-head and run number.'
p9719
sg527
I3
sg528
I217
sg479
(lp9720
g9695
asbasba.