(lp0
(icmyPackage
CELink
p1
(dp2
S'PTreelst'
p3
(lp4
ccopy_reg
_reconstructor
p5
(cnltk.tree
Tree
p6
c__builtin__
list
p7
(lp8
g5
(g6
g7
(lp9
g5
(g6
g7
(lp10
g5
(g6
g7
(lp11
VThe
p12
atp13
Rp14
(dp15
S'_label'
p16
VDT
p17
sbag5
(g6
g7
(lp18
Videa
p19
atp20
Rp21
(dp22
g16
VNN
p23
sbatp24
Rp25
(dp26
g16
VNP
p27
sbag5
(g6
g7
(lp28
g5
(g6
g7
(lp29
Vis
p30
atp31
Rp32
(dp33
g16
VVBZ
p34
sbag5
(g6
g7
(lp35
g5
(g6
g7
(lp36
Vto
p37
atp38
Rp39
(dp40
g16
VTO
p41
sbag5
(g6
g7
(lp42
g5
(g6
g7
(lp43
g5
(g6
g7
(lp44
Vchip
p45
atp46
Rp47
(dp48
g16
VNN
p49
sbatp50
Rp51
(dp52
g16
VNP
p53
sbag5
(g6
g7
(lp54
g5
(g6
g7
(lp55
g5
(g6
g7
(lp56
g5
(g6
g7
(lp57
Va
p58
atp59
Rp60
(dp61
g16
VDT
p62
sbag5
(g6
g7
(lp63
Vpiece
p64
atp65
Rp66
(dp67
g16
VNN
p68
sbatp69
Rp70
(dp71
g16
VNP
p72
sbag5
(g6
g7
(lp73
Vout
p74
atp75
Rp76
(dp77
g16
VIN
p78
sbatp79
Rp80
(dp81
g16
VADVP
p82
sbag5
(g6
g7
(lp83
Vof
p84
atp85
Rp86
(dp87
g16
VIN
p88
sbag5
(g6
g7
(lp89
g5
(g6
g7
(lp90
g5
(g6
g7
(lp91
Vthe
p92
atp93
Rp94
(dp95
g16
VDT
p96
sbag5
(g6
g7
(lp97
Vproblem
p98
atp99
Rp100
(dp101
g16
VNN
p102
sbatp103
Rp104
(dp105
g16
VNP
p106
sbag5
(g6
g7
(lp107
g5
(g6
g7
(lp108
Vof
p109
atp110
Rp111
(dp112
g16
VIN
p113
sbag5
(g6
g7
(lp114
g5
(g6
g7
(lp115
Vcreativity
p116
atp117
Rp118
(dp119
g16
VNN
p120
sbatp121
Rp122
(dp123
g16
VNP
p124
sbatp125
Rp126
(dp127
g16
VPP
p128
sbatp129
Rp130
(dp131
g16
VNP
p132
sbatp133
Rp134
(dp135
g16
VPP
p136
sbag5
(g6
g7
(lp137
g5
(g6
g7
(lp138
Vby
p139
atp140
Rp141
(dp142
g16
VIN
p143
sbag5
(g6
g7
(lp144
g5
(g6
g7
(lp145
g5
(g6
g7
(lp146
Vdefining
p147
atp148
Rp149
(dp150
g16
VVBG
p151
sbag5
(g6
g7
(lp152
g5
(g6
g7
(lp153
g58
atp154
Rp155
(dp156
g16
VDT
p157
sbag5
(g6
g7
(lp158
Vcreative
p159
atp160
Rp161
(dp162
g16
VJJ
p163
sbag5
(g6
g7
(lp164
Vsolution
p165
atp166
Rp167
(dp168
g16
VNN
p169
sbatp170
Rp171
(dp172
g16
VNP
p173
sbag5
(g6
g7
(lp174
g5
(g6
g7
(lp175
Vto
p176
atp177
Rp178
(dp179
g16
VTO
p180
sbag5
(g6
g7
(lp181
g5
(g6
g7
(lp182
g58
atp183
Rp184
(dp185
g16
VDT
p186
sbag5
(g6
g7
(lp187
Vproblem
p188
atp189
Rp190
(dp191
g16
VNN
p192
sbatp193
Rp194
(dp195
g16
VNP
p196
sbatp197
Rp198
(dp199
g16
VPP
p200
sbatp201
Rp202
(dp203
g16
VVP
p204
sbatp205
Rp206
(dp207
g16
VS
p208
sbatp209
Rp210
(dp211
g16
VPP
p212
sbatp213
Rp214
(dp215
g16
VNP
p216
sbatp217
Rp218
(dp219
g16
VPP
p220
sbag5
(g6
g7
(lp221
g5
(g6
g7
(lp222
Vrelative
p223
atp224
Rp225
(dp226
g16
VJJ
p227
sbag5
(g6
g7
(lp228
g5
(g6
g7
(lp229
Vto
p230
atp231
Rp232
(dp233
g16
VTO
p234
sbag5
(g6
g7
(lp235
g5
(g6
g7
(lp236
g5
(g6
g7
(lp237
Vthe
p238
atp239
Rp240
(dp241
g16
VDT
p242
sbag5
(g6
g7
(lp243
Vfunctions
p244
atp245
Rp246
(dp247
g16
VNNS
p248
sbag5
(g6
g7
(lp249
Vand
p250
atp251
Rp252
(dp253
g16
VCC
p254
sbag5
(g6
g7
(lp255
Vpredicates
p256
atp257
Rp258
(dp259
g16
VNNS
p260
sbatp261
Rp262
(dp263
g16
VNP
p264
sbag5
(g6
g7
(lp265
g5
(g6
g7
(lp266
Vused
p267
atp268
Rp269
(dp270
g16
VVBN
p271
sbag5
(g6
g7
(lp272
g5
(g6
g7
(lp273
Vin
p274
atp275
Rp276
(dp277
g16
VIN
p278
sbag5
(g6
g7
(lp279
g5
(g6
g7
(lp280
g5
(g6
g7
(lp281
Vposing
p282
atp283
Rp284
(dp285
g16
VVBG
p286
sbag5
(g6
g7
(lp287
g5
(g6
g7
(lp288
Vthe
p289
atp290
Rp291
(dp292
g16
VDT
p293
sbag5
(g6
g7
(lp294
Vproblem
p295
atp296
Rp297
(dp298
g16
VNN
p299
sbatp300
Rp301
(dp302
g16
VNP
p303
sbatp304
Rp305
(dp306
g16
VVP
p307
sbatp308
Rp309
(dp310
g16
g208
sbatp311
Rp312
(dp313
g16
VPP
p314
sbatp315
Rp316
(dp317
g16
VVP
p318
sbatp319
Rp320
(dp321
g16
VNP
p322
sbatp323
Rp324
(dp325
g16
VPP
p326
sbatp327
Rp328
(dp329
g16
VADVP
p330
sbatp331
Rp332
(dp333
g16
VVP
p334
sbag5
(g6
g7
(lp335
V.
p336
atp337
Rp338
(dp339
g16
g336
sbatp340
Rp341
(dp342
g16
g208
sbatp343
Rp344
(dp345
g16
VROOT
p346
sbasS'cause'
p347
(icmyPackage
CorE
p348
(dp349
S'span'
p350
(lp351
(I0
I14
tp352
a(I0
I20
tp353
asS'PTree'
p354
g206
sbsS'effect'
p355
(icmyPackage
CorE
p356
(dp357
g350
(lp358
(I0
I21
tp359
a(I0
I30
tp360
asg354
g5
(g6
g7
(lp361
g225
ag232
ag262
ag269
ag276
ag284
ag291
atp362
Rp363
(dp364
g16
S'ROOT'
p365
sbsbsS'pt'
p366
(icmyPackage
pattern
p367
(dp368
S'pfreq'
p369
I0
sS'moresent'
p370
I0
sS'main_token'
p371
(lp372
(lp373
(lp374
S'by'
p375
aS'through'
p376
aaasS'ptype'
p377
(lp378
I2
aI1
aI1
asS'cases'
p379
(lp380
S'By extracting comments and comparisons of the cited articles and then organizing them according to the time of publication discovers and displays how the area has developed as a research literature.'
p381
asS'id'
p382
I67
sS'constraints'
p383
(lp384
(lp385
a(lp386
S'&V-ing@C@'
p387
aS'&R'
p388
aasbsS'sInfo'
p389
(lp390
(icmyPackage
Sent
p391
(dp392
S'Ctag'
p393
I0
sS'Ptag'
p394
I0
sS'text'
p395
S'The idea is to chip a piece out of the problem of creativity by defining a creative solution to a problem relative to the functions and predicates used in posing the problem.'
p396
sS'SCtag'
p397
I0
sS'Stag'
p398
I0
sg354
(lp399
g344
asbasba(icmyPackage
CELink
p400
(dp401
g3
(lp402
g5
(g6
g7
(lp403
g5
(g6
g7
(lp404
g5
(g6
g7
(lp405
g5
(g6
g7
(lp406
g5
(g6
g7
(lp407
VA
p408
atp409
Rp410
(dp411
g16
VDT
p412
sbag5
(g6
g7
(lp413
Vsolution
p414
atp415
Rp416
(dp417
g16
VNN
p418
sbatp419
Rp420
(dp421
g16
VNP
p422
sbag5
(g6
g7
(lp423
g5
(g6
g7
(lp424
Vto
p425
atp426
Rp427
(dp428
g16
VTO
p429
sbag5
(g6
g7
(lp430
g5
(g6
g7
(lp431
g58
atp432
Rp433
(dp434
g16
VDT
p435
sbag5
(g6
g7
(lp436
Vproblem
p437
atp438
Rp439
(dp440
g16
VNN
p441
sbatp442
Rp443
(dp444
g16
VNP
p445
sbatp446
Rp447
(dp448
g16
VPP
p449
sbatp450
Rp451
(dp452
g16
VNP
p453
sbag5
(g6
g7
(lp454
g5
(g6
g7
(lp455
Vis
p456
atp457
Rp458
(dp459
g16
VVBZ
p460
sbag5
(g6
g7
(lp461
g5
(g6
g7
(lp462
Vcreative
p463
atp464
Rp465
(dp466
g16
VJJ
p467
sbatp468
Rp469
(dp470
g16
VADJP
p471
sbag5
(g6
g7
(lp472
g5
(g6
g7
(lp473
Vif
p474
atp475
Rp476
(dp477
g16
VIN
p478
sbag5
(g6
g7
(lp479
g5
(g6
g7
(lp480
g5
(g6
g7
(lp481
Vit
p482
atp483
Rp484
(dp485
g16
VPRP
p486
sbatp487
Rp488
(dp489
g16
VNP
p490
sbag5
(g6
g7
(lp491
g5
(g6
g7
(lp492
Vinvolves
p493
atp494
Rp495
(dp496
g16
VVBZ
p497
sbag5
(g6
g7
(lp498
g5
(g6
g7
(lp499
g5
(g6
g7
(lp500
Vconcepts
p501
atp502
Rp503
(dp504
g16
VNNS
p505
sbatp506
Rp507
(dp508
g16
VNP
p509
sbag5
(g6
g7
(lp510
g5
(g6
g7
(lp511
Vnot
p512
atp513
Rp514
(dp515
g16
VRB
p516
sbag5
(g6
g7
(lp517
Vpresent
p518
atp519
Rp520
(dp521
g16
VJJ
p522
sbag5
(g6
g7
(lp523
g5
(g6
g7
(lp524
Vin
p525
atp526
Rp527
(dp528
g16
VIN
p529
sbag5
(g6
g7
(lp530
g5
(g6
g7
(lp531
g5
(g6
g7
(lp532
Vstatement
p533
atp534
Rp535
(dp536
g16
VNN
p537
sbatp538
Rp539
(dp540
g16
VNP
p541
sbag5
(g6
g7
(lp542
g5
(g6
g7
(lp543
Vof
p544
atp545
Rp546
(dp547
g16
VIN
p548
sbag5
(g6
g7
(lp549
g5
(g6
g7
(lp550
g5
(g6
g7
(lp551
Vthe
p552
atp553
Rp554
(dp555
g16
VDT
p556
sbag5
(g6
g7
(lp557
Vproblem
p558
atp559
Rp560
(dp561
g16
VNN
p562
sbatp563
Rp564
(dp565
g16
VNP
p566
sbag5
(g6
g7
(lp567
Vand
p568
atp569
Rp570
(dp571
g16
VCC
p572
sbag5
(g6
g7
(lp573
g5
(g6
g7
(lp574
Vthe
p575
atp576
Rp577
(dp578
g16
VDT
p579
sbag5
(g6
g7
(lp580
Vgeneral
p581
atp582
Rp583
(dp584
g16
VJJ
p585
sbag5
(g6
g7
(lp586
Vknowledge
p587
atp588
Rp589
(dp590
g16
VNN
p591
sbatp592
Rp593
(dp594
g16
VNP
p595
sbatp596
Rp597
(dp598
g16
VNP
p599
sbatp600
Rp601
(dp602
g16
VPP
p603
sbatp604
Rp605
(dp606
g16
VNP
p607
sbatp608
Rp609
(dp610
g16
VPP
p611
sbatp612
Rp613
(dp614
g16
VADJP
p615
sbag5
(g6
g7
(lp616
g5
(g6
g7
(lp617
g5
(g6
g7
(lp618
Vsurrounding
p619
atp620
Rp621
(dp622
g16
VVBG
p623
sbag5
(g6
g7
(lp624
g5
(g6
g7
(lp625
Vit
p626
atp627
Rp628
(dp629
g16
VPRP
p630
sbatp631
Rp632
(dp633
g16
VNP
p634
sbatp635
Rp636
(dp637
g16
VVP
p638
sbatp639
Rp640
(dp641
g16
g208
sbatp642
Rp643
(dp644
g16
g208
sbatp645
Rp646
(dp647
g16
VVP
p648
sbatp649
Rp650
(dp651
g16
g208
sbatp652
Rp653
(dp654
g16
VSBAR
p655
sbatp656
Rp657
(dp658
g16
VVP
p659
sbag5
(g6
g7
(lp660
g336
atp661
Rp662
(dp663
g16
g336
sbatp664
Rp665
(dp666
g16
g208
sbatp667
Rp668
(dp669
g16
VROOT
p670
sbasg347
(icmyPackage
CorE
p671
(dp672
g350
(lp673
(I0
I8
tp674
a(I0
I24
tp675
asg354
g5
(g6
g7
(lp676
g650
ag662
atp677
Rp678
(dp679
g16
g365
sbsbsg355
(icmyPackage
CorE
p680
(dp681
g350
(lp682
(I0
I0
tp683
a(I0
I6
tp684
asg354
g5
(g6
g7
(lp685
g451
ag458
ag469
atp686
Rp687
(dp688
g16
g365
sbsbsg366
(icmyPackage
pattern
p689
(dp690
g369
I0
sg370
I0
sg371
(lp691
(lp692
S'if'
p693
aasg377
(lp694
I1
aI1
aI1
asg379
(lp695
S'An effective knowledge flow network enables a research team to be very powerful in generating new knowledge if every node can innovate and output new knowledge to appropriate members.'
p696
asg382
I14
sg383
(lp697
(lp698
S'&R@Complete@'
p699
aa(lp700
S'&C@Complete@'
p701
aasbsg389
(lp702
(icmyPackage
Sent
p703
(dp704
g393
I0
sg394
I1
sg395
S'A solution to a problem is creative if it involves concepts not present in statement of the problem and the general knowledge surrounding it.'
p705
sg397
I0
sg398
I3
sg354
(lp706
g668
asbasba(icmyPackage
CELink
p707
(dp708
g3
(lp709
g5
(g6
g7
(lp710
g5
(g6
g7
(lp711
g5
(g6
g7
(lp712
g5
(g6
g7
(lp713
g5
(g6
g7
(lp714
VMaking
p715
atp716
Rp717
(dp718
g16
VVBG
p719
sbag5
(g6
g7
(lp720
g5
(g6
g7
(lp721
g5
(g6
g7
(lp722
Vgenuinely
p723
atp724
Rp725
(dp726
g16
VRB
p727
sbag5
(g6
g7
(lp728
Vcreative
p729
atp730
Rp731
(dp732
g16
VJJ
p733
sbatp734
Rp735
(dp736
g16
VADJP
p737
sbag5
(g6
g7
(lp738
Vprograms
p739
atp740
Rp741
(dp742
g16
VNNS
p743
sbatp744
Rp745
(dp746
g16
VNP
p747
sbatp748
Rp749
(dp750
g16
VVP
p751
sbatp752
Rp753
(dp754
g16
g208
sbag5
(g6
g7
(lp755
g5
(g6
g7
(lp756
Vis
p757
atp758
Rp759
(dp760
g16
VVBZ
p761
sbag5
(g6
g7
(lp762
g5
(g6
g7
(lp763
Vlikely
p764
atp765
Rp766
(dp767
g16
VJJ
p768
sbag5
(g6
g7
(lp769
g5
(g6
g7
(lp770
g5
(g6
g7
(lp771
Vto
p772
atp773
Rp774
(dp775
g16
VTO
p776
sbag5
(g6
g7
(lp777
g5
(g6
g7
(lp778
Vremain
p779
atp780
Rp781
(dp782
g16
VVB
p783
sbag5
(g6
g7
(lp784
g5
(g6
g7
(lp785
g58
atp786
Rp787
(dp788
g16
VDT
p789
sbag5
(g6
g7
(lp790
Vdistant
p791
atp792
Rp793
(dp794
g16
VJJ
p795
sbag5
(g6
g7
(lp796
Vgoal
p797
atp798
Rp799
(dp800
g16
VNN
p801
sbatp802
Rp803
(dp804
g16
VNP
p805
sbag5
(g6
g7
(lp806
g5
(g6
g7
(lp807
Vfor
p808
atp809
Rp810
(dp811
g16
VIN
p812
sbag5
(g6
g7
(lp813
g5
(g6
g7
(lp814
VAI
p815
atp816
Rp817
(dp818
g16
VNNP
p819
sbatp820
Rp821
(dp822
g16
VNP
p823
sbatp824
Rp825
(dp826
g16
VPP
p827
sbag5
(g6
g7
(lp828
g5
(g6
g7
(lp829
Vuntil
p830
atp831
Rp832
(dp833
g16
VIN
p834
sbag5
(g6
g7
(lp835
g5
(g6
g7
(lp836
g5
(g6
g7
(lp837
Vsomeone
p838
atp839
Rp840
(dp841
g16
VNN
p842
sbatp843
Rp844
(dp845
g16
VNP
p846
sbag5
(g6
g7
(lp847
g5
(g6
g7
(lp848
Vcomes
p849
atp850
Rp851
(dp852
g16
VVBZ
p853
sbag5
(g6
g7
(lp854
g5
(g6
g7
(lp855
Vup
p856
atp857
Rp858
(dp859
g16
VRP
p860
sbatp861
Rp862
(dp863
g16
VPRT
p864
sbag5
(g6
g7
(lp865
g5
(g6
g7
(lp866
Vwith
p867
atp868
Rp869
(dp870
g16
VIN
p871
sbag5
(g6
g7
(lp872
g5
(g6
g7
(lp873
g58
atp874
Rp875
(dp876
g16
VDT
p877
sbag5
(g6
g7
(lp878
Vsuitable
p879
atp880
Rp881
(dp882
g16
VJJ
p883
sbag5
(g6
g7
(lp884
Vnew
p885
atp886
Rp887
(dp888
g16
VJJ
p889
sbag5
(g6
g7
(lp890
Videa
p891
atp892
Rp893
(dp894
g16
VNN
p895
sbatp896
Rp897
(dp898
g16
VNP
p899
sbatp900
Rp901
(dp902
g16
VPP
p903
sbatp904
Rp905
(dp906
g16
VVP
p907
sbatp908
Rp909
(dp910
g16
g208
sbatp911
Rp912
(dp913
g16
VSBAR
p914
sbatp915
Rp916
(dp917
g16
VVP
p918
sbatp919
Rp920
(dp921
g16
VVP
p922
sbatp923
Rp924
(dp925
g16
g208
sbatp926
Rp927
(dp928
g16
VADJP
p929
sbatp930
Rp931
(dp932
g16
VVP
p933
sbag5
(g6
g7
(lp934
g336
atp935
Rp936
(dp937
g16
g336
sbatp938
Rp939
(dp940
g16
g208
sbatp941
Rp942
(dp943
g16
VROOT
p944
sbag5
(g6
g7
(lp945
g5
(g6
g7
(lp946
g5
(g6
g7
(lp947
g5
(g6
g7
(lp948
VTherefore
p949
atp950
Rp951
(dp952
g16
VRB
p953
sbatp954
Rp955
(dp956
g16
VADVP
p957
sbag5
(g6
g7
(lp958
V,
p959
atp960
Rp961
(dp962
g16
g959
sbag5
(g6
g7
(lp963
g5
(g6
g7
(lp964
Vit
p965
atp966
Rp967
(dp968
g16
VPRP
p969
sbatp970
Rp971
(dp972
g16
VNP
p973
sbag5
(g6
g7
(lp974
g5
(g6
g7
(lp975
g5
(g6
g7
(lp976
Vis
p977
atp978
Rp979
(dp980
g16
VVBZ
p981
sbag5
(g6
g7
(lp982
g5
(g6
g7
(lp983
Vworthwhile
p984
atp985
Rp986
(dp987
g16
VJJ
p988
sbag5
(g6
g7
(lp989
g5
(g6
g7
(lp990
Vto
p991
atp992
Rp993
(dp994
g16
VTO
p995
sbag5
(g6
g7
(lp996
g5
(g6
g7
(lp997
Vchip
p998
atp999
Rp1000
(dp1001
g16
VNN
p1002
sbag5
(g6
g7
(lp1003
Vpieces
p1004
atp1005
Rp1006
(dp1007
g16
VNNS
p1008
sbatp1009
Rp1010
(dp1011
g16
VNP
p1012
sbatp1013
Rp1014
(dp1015
g16
VPP
p1016
sbatp1017
Rp1018
(dp1019
g16
VADJP
p1020
sbag5
(g6
g7
(lp1021
g5
(g6
g7
(lp1022
Voff
p1023
atp1024
Rp1025
(dp1026
g16
VIN
p1027
sbag5
(g6
g7
(lp1028
g5
(g6
g7
(lp1029
Vthe
p1030
atp1031
Rp1032
(dp1033
g16
VDT
p1034
sbag5
(g6
g7
(lp1035
Vcreativity
p1036
atp1037
Rp1038
(dp1039
g16
VNN
p1040
sbag5
(g6
g7
(lp1041
Vproblem
p1042
atp1043
Rp1044
(dp1045
g16
VNN
p1046
sbatp1047
Rp1048
(dp1049
g16
VNP
p1050
sbatp1051
Rp1052
(dp1053
g16
VPP
p1054
sbatp1055
Rp1056
(dp1057
g16
VVP
p1058
sbag5
(g6
g7
(lp1059
Vand
p1060
atp1061
Rp1062
(dp1063
g16
VCC
p1064
sbag5
(g6
g7
(lp1065
g5
(g6
g7
(lp1066
Vwork
p1067
atp1068
Rp1069
(dp1070
g16
VVBP
p1071
sbag5
(g6
g7
(lp1072
g5
(g6
g7
(lp1073
Von
p1074
atp1075
Rp1076
(dp1077
g16
VIN
p1078
sbag5
(g6
g7
(lp1079
g5
(g6
g7
(lp1080
Vthem
p1081
atp1082
Rp1083
(dp1084
g16
VPRP
p1085
sbatp1086
Rp1087
(dp1088
g16
VNP
p1089
sbatp1090
Rp1091
(dp1092
g16
VPP
p1093
sbag5
(g6
g7
(lp1094
g5
(g6
g7
(lp1095
Vseparately
p1096
atp1097
Rp1098
(dp1099
g16
VRB
p1100
sbatp1101
Rp1102
(dp1103
g16
VADVP
p1104
sbatp1105
Rp1106
(dp1107
g16
VVP
p1108
sbatp1109
Rp1110
(dp1111
g16
VVP
p1112
sbag5
(g6
g7
(lp1113
g336
atp1114
Rp1115
(dp1116
g16
g336
sbatp1117
Rp1118
(dp1119
g16
g208
sbatp1120
Rp1121
(dp1122
g16
VROOT
p1123
sbasg347
(icmyPackage
CorE
p1124
(dp1125
g350
(lp1126
(I0
I0
tp1127
a(I0
I21
tp1128
asg354
g5
(g6
g7
(lp1129
g753
ag931
atp1130
Rp1131
(dp1132
g16
g365
sbsbsg355
(icmyPackage
CorE
p1133
(dp1134
g350
(lp1135
(I1
I2
tp1136
a(I1
I17
tp1137
asg354
g5
(g6
g7
(lp1138
g971
ag1110
ag1115
atp1139
Rp1140
(dp1141
g16
g365
sbsbsg366
(icmyPackage
pattern
p1142
(dp1143
g369
I62
sg370
I1
sg371
(lp1144
(lp1145
S'therefore'
p1146
aasg377
(lp1147
I1
aI1
aI1
asg379
(lp1148
S'He never lies; therefore, everyone likes to make friends with him.'
p1149
asg382
I1
sg383
(lp1150
(lp1151
S'&C'
p1152
aS'(,/;/./--)'
p1153
aS'(&AND)'
p1154
aa(lp1155
S'(,)'
p1156
aS'&R'
p1157
aasbsg389
(lp1158
(icmyPackage
Sent
p1159
(dp1160
g393
I1
sg394
I4
sg395
S'Making genuinely creative programs is likely to remain a distant goal for AI until someone comes up with a suitable new idea.'
p1161
sg397
I0
sg398
I9
sg354
(lp1162
g942
asba(icmyPackage
Sent
p1163
(dp1164
g393
I1
sg394
I4
sg395
S'Therefore, it is worthwhile to chip pieces off the creativity problem and work on them separately.'
p1165
sg397
I0
sg398
I10
sg354
(lp1166
g1121
asbasba(icmyPackage
CELink
p1167
(dp1168
g3
(lp1169
g5
(g6
g7
(lp1170
g5
(g6
g7
(lp1171
g5
(g6
g7
(lp1172
g5
(g6
g7
(lp1173
g5
(g6
g7
(lp1174
g408
atp1175
Rp1176
(dp1177
g16
VDT
p1178
sbag5
(g6
g7
(lp1179
Vsolution
p1180
atp1181
Rp1182
(dp1183
g16
VNN
p1184
sbatp1185
Rp1186
(dp1187
g16
VNP
p1188
sbag5
(g6
g7
(lp1189
g5
(g6
g7
(lp1190
Vto
p1191
atp1192
Rp1193
(dp1194
g16
VTO
p1195
sbag5
(g6
g7
(lp1196
g5
(g6
g7
(lp1197
g58
atp1198
Rp1199
(dp1200
g16
VDT
p1201
sbag5
(g6
g7
(lp1202
Vproblem
p1203
atp1204
Rp1205
(dp1206
g16
VNN
p1207
sbatp1208
Rp1209
(dp1210
g16
VNP
p1211
sbatp1212
Rp1213
(dp1214
g16
VPP
p1215
sbatp1216
Rp1217
(dp1218
g16
VNP
p1219
sbag5
(g6
g7
(lp1220
g5
(g6
g7
(lp1221
Vis
p1222
atp1223
Rp1224
(dp1225
g16
VVBZ
p1226
sbag5
(g6
g7
(lp1227
g5
(g6
g7
(lp1228
Vcreative
p1229
atp1230
Rp1231
(dp1232
g16
VJJ
p1233
sbatp1234
Rp1235
(dp1236
g16
VADJP
p1237
sbag5
(g6
g7
(lp1238
g5
(g6
g7
(lp1239
Vif
p1240
atp1241
Rp1242
(dp1243
g16
VIN
p1244
sbag5
(g6
g7
(lp1245
g5
(g6
g7
(lp1246
g5
(g6
g7
(lp1247
Vit
p1248
atp1249
Rp1250
(dp1251
g16
VPRP
p1252
sbatp1253
Rp1254
(dp1255
g16
VNP
p1256
sbag5
(g6
g7
(lp1257
g5
(g6
g7
(lp1258
Vinvolves
p1259
atp1260
Rp1261
(dp1262
g16
VVBZ
p1263
sbag5
(g6
g7
(lp1264
g5
(g6
g7
(lp1265
g5
(g6
g7
(lp1266
Vconcepts
p1267
atp1268
Rp1269
(dp1270
g16
VNNS
p1271
sbatp1272
Rp1273
(dp1274
g16
VNP
p1275
sbag5
(g6
g7
(lp1276
g5
(g6
g7
(lp1277
Vnot
p1278
atp1279
Rp1280
(dp1281
g16
VRB
p1282
sbag5
(g6
g7
(lp1283
Vpresent
p1284
atp1285
Rp1286
(dp1287
g16
VJJ
p1288
sbag5
(g6
g7
(lp1289
g5
(g6
g7
(lp1290
Vin
p1291
atp1292
Rp1293
(dp1294
g16
VIN
p1295
sbag5
(g6
g7
(lp1296
g5
(g6
g7
(lp1297
g5
(g6
g7
(lp1298
Vstatement
p1299
atp1300
Rp1301
(dp1302
g16
VNN
p1303
sbatp1304
Rp1305
(dp1306
g16
VNP
p1307
sbag5
(g6
g7
(lp1308
g5
(g6
g7
(lp1309
Vof
p1310
atp1311
Rp1312
(dp1313
g16
VIN
p1314
sbag5
(g6
g7
(lp1315
g5
(g6
g7
(lp1316
g5
(g6
g7
(lp1317
Vthe
p1318
atp1319
Rp1320
(dp1321
g16
VDT
p1322
sbag5
(g6
g7
(lp1323
Vproblem
p1324
atp1325
Rp1326
(dp1327
g16
VNN
p1328
sbatp1329
Rp1330
(dp1331
g16
VNP
p1332
sbag5
(g6
g7
(lp1333
Vand
p1334
atp1335
Rp1336
(dp1337
g16
VCC
p1338
sbag5
(g6
g7
(lp1339
g5
(g6
g7
(lp1340
Vthe
p1341
atp1342
Rp1343
(dp1344
g16
VDT
p1345
sbag5
(g6
g7
(lp1346
Vgeneral
p1347
atp1348
Rp1349
(dp1350
g16
VJJ
p1351
sbag5
(g6
g7
(lp1352
Vknowledge
p1353
atp1354
Rp1355
(dp1356
g16
VNN
p1357
sbatp1358
Rp1359
(dp1360
g16
VNP
p1361
sbatp1362
Rp1363
(dp1364
g16
VNP
p1365
sbatp1366
Rp1367
(dp1368
g16
VPP
p1369
sbatp1370
Rp1371
(dp1372
g16
VNP
p1373
sbatp1374
Rp1375
(dp1376
g16
VPP
p1377
sbatp1378
Rp1379
(dp1380
g16
VADJP
p1381
sbag5
(g6
g7
(lp1382
g5
(g6
g7
(lp1383
g5
(g6
g7
(lp1384
Vsurrounding
p1385
atp1386
Rp1387
(dp1388
g16
VVBG
p1389
sbag5
(g6
g7
(lp1390
g5
(g6
g7
(lp1391
Vit
p1392
atp1393
Rp1394
(dp1395
g16
VPRP
p1396
sbatp1397
Rp1398
(dp1399
g16
VNP
p1400
sbatp1401
Rp1402
(dp1403
g16
VVP
p1404
sbatp1405
Rp1406
(dp1407
g16
g208
sbatp1408
Rp1409
(dp1410
g16
g208
sbatp1411
Rp1412
(dp1413
g16
VVP
p1414
sbatp1415
Rp1416
(dp1417
g16
g208
sbatp1418
Rp1419
(dp1420
g16
VSBAR
p1421
sbatp1422
Rp1423
(dp1424
g16
VVP
p1425
sbag5
(g6
g7
(lp1426
g336
atp1427
Rp1428
(dp1429
g16
g336
sbatp1430
Rp1431
(dp1432
g16
g208
sbatp1433
Rp1434
(dp1435
g16
VROOT
p1436
sbasg347
(icmyPackage
CorE
p1437
(dp1438
g350
(lp1439
(I0
I8
tp1440
a(I0
I24
tp1441
asg354
g5
(g6
g7
(lp1442
g1416
ag1428
atp1443
Rp1444
(dp1445
g16
g365
sbsbsg355
(icmyPackage
CorE
p1446
(dp1447
g350
(lp1448
(I0
I0
tp1449
a(I0
I6
tp1450
asg354
g5
(g6
g7
(lp1451
g1217
ag1224
ag1235
atp1452
Rp1453
(dp1454
g16
g365
sbsbsg366
g689
sg389
(lp1455
(icmyPackage
Sent
p1456
(dp1457
g393
I1
sg394
I5
sg395
S'A solution to a problem is creative if it involves concepts not present in statement of the problem and the general knowledge surrounding it.'
p1458
sg397
I0
sg398
I13
sg354
(lp1459
g1434
asbasba(icmyPackage
CELink
p1460
(dp1461
g3
(lp1462
g1434
ag5
(g6
g7
(lp1463
g5
(g6
g7
(lp1464
g5
(g6
g7
(lp1465
g5
(g6
g7
(lp1466
VAs
p1467
atp1468
Rp1469
(dp1470
g16
VIN
p1471
sbag5
(g6
g7
(lp1472
g5
(g6
g7
(lp1473
g5
(g6
g7
(lp1474
g58
atp1475
Rp1476
(dp1477
g16
VDT
p1478
sbag5
(g6
g7
(lp1479
Vsmall
p1480
atp1481
Rp1482
(dp1483
g16
VJJ
p1484
sbag5
(g6
g7
(lp1485
Vstep
p1486
atp1487
Rp1488
(dp1489
g16
VNN
p1490
sbatp1491
Rp1492
(dp1493
g16
VNP
p1494
sbag5
(g6
g7
(lp1495
g5
(g6
g7
(lp1496
Vtoward
p1497
atp1498
Rp1499
(dp1500
g16
VIN
p1501
sbag5
(g6
g7
(lp1502
g5
(g6
g7
(lp1503
g5
(g6
g7
(lp1504
Vprograms
p1505
atp1506
Rp1507
(dp1508
g16
VNNS
p1509
sbatp1510
Rp1511
(dp1512
g16
VNP
p1513
sbag5
(g6
g7
(lp1514
g5
(g6
g7
(lp1515
g5
(g6
g7
(lp1516
Vthat
p1517
atp1518
Rp1519
(dp1520
g16
VWDT
p1521
sbatp1522
Rp1523
(dp1524
g16
VWHNP
p1525
sbag5
(g6
g7
(lp1526
g5
(g6
g7
(lp1527
g5
(g6
g7
(lp1528
Vfind
p1529
atp1530
Rp1531
(dp1532
g16
VVBP
p1533
sbag5
(g6
g7
(lp1534
g5
(g6
g7
(lp1535
Vcreative
p1536
atp1537
Rp1538
(dp1539
g16
VJJ
p1540
sbag5
(g6
g7
(lp1541
Vsolutions
p1542
atp1543
Rp1544
(dp1545
g16
VNNS
p1546
sbatp1547
Rp1548
(dp1549
g16
VNP
p1550
sbatp1551
Rp1552
(dp1553
g16
VVP
p1554
sbatp1555
Rp1556
(dp1557
g16
g208
sbatp1558
Rp1559
(dp1560
g16
VSBAR
p1561
sbatp1562
Rp1563
(dp1564
g16
VNP
p1565
sbatp1566
Rp1567
(dp1568
g16
VPP
p1569
sbatp1570
Rp1571
(dp1572
g16
VNP
p1573
sbatp1574
Rp1575
(dp1576
g16
VPP
p1577
sbag5
(g6
g7
(lp1578
g959
atp1579
Rp1580
(dp1581
g16
g959
sbag5
(g6
g7
(lp1582
g5
(g6
g7
(lp1583
Vwe
p1584
atp1585
Rp1586
(dp1587
g16
VPRP
p1588
sbatp1589
Rp1590
(dp1591
g16
VNP
p1592
sbag5
(g6
g7
(lp1593
g5
(g6
g7
(lp1594
Vconsider
p1595
atp1596
Rp1597
(dp1598
g16
VVBP
p1599
sbag5
(g6
g7
(lp1600
g5
(g6
g7
(lp1601
g5
(g6
g7
(lp1602
Vhow
p1603
atp1604
Rp1605
(dp1606
g16
VWRB
p1607
sbatp1608
Rp1609
(dp1610
g16
VWHADVP
p1611
sbag5
(g6
g7
(lp1612
g5
(g6
g7
(lp1613
g5
(g6
g7
(lp1614
Vto
p1615
atp1616
Rp1617
(dp1618
g16
VTO
p1619
sbag5
(g6
g7
(lp1620
g5
(g6
g7
(lp1621
Vexpress
p1622
atp1623
Rp1624
(dp1625
g16
VVB
p1626
sbag5
(g6
g7
(lp1627
g5
(g6
g7
(lp1628
g5
(g6
g7
(lp1629
Vthe
p1630
atp1631
Rp1632
(dp1633
g16
VDT
p1634
sbag5
(g6
g7
(lp1635
Videa
p1636
atp1637
Rp1638
(dp1639
g16
VNN
p1640
sbatp1641
Rp1642
(dp1643
g16
VNP
p1644
sbag5
(g6
g7
(lp1645
g5
(g6
g7
(lp1646
Vof
p1647
atp1648
Rp1649
(dp1650
g16
VIN
p1651
sbag5
(g6
g7
(lp1652
g5
(g6
g7
(lp1653
g58
atp1654
Rp1655
(dp1656
g16
VDT
p1657
sbag5
(g6
g7
(lp1658
Vsolution
p1659
atp1660
Rp1661
(dp1662
g16
VNN
p1663
sbag5
(g6
g7
(lp1664
Vconcisely
p1665
atp1666
Rp1667
(dp1668
g16
VNN
p1669
sbatp1670
Rp1671
(dp1672
g16
VNP
p1673
sbatp1674
Rp1675
(dp1676
g16
VPP
p1677
sbatp1678
Rp1679
(dp1680
g16
VNP
p1681
sbatp1682
Rp1683
(dp1684
g16
VVP
p1685
sbatp1686
Rp1687
(dp1688
g16
VVP
p1689
sbatp1690
Rp1691
(dp1692
g16
g208
sbatp1693
Rp1694
(dp1695
g16
VSBAR
p1696
sbatp1697
Rp1698
(dp1699
g16
VVP
p1700
sbag5
(g6
g7
(lp1701
g336
atp1702
Rp1703
(dp1704
g16
g336
sbatp1705
Rp1706
(dp1707
g16
g208
sbatp1708
Rp1709
(dp1710
g16
VROOT
p1711
sbasg347
(icmyPackage
CorE
p1712
(dp1713
g350
(lp1714
(I1
I1
tp1715
a(I1
I22
tp1716
asg354
g5
(g6
g7
(lp1717
g1571
ag1580
ag1590
ag1698
ag1703
atp1718
Rp1719
(dp1720
g16
g365
sbsbsg355
(icmyPackage
CorE
p1721
(dp1722
g350
(lp1723
(I0
I0
tp1724
a(I0
I24
tp1725
asg354
g1434
sbsg366
(icmyPackage
pattern
p1726
(dp1727
g369
I26
sg370
I1
sg371
(lp1728
(lp1729
S'as'
p1730
aasg377
(lp1731
I3
aI1
aI1
asg379
(lp1732
S'You do not need to worry about the operation, as the software is very easy to use.'
p1733
asg382
I80
sg383
(lp1734
(lp1735
S'&R@Complete@'
p1736
aS'(,)'
p1737
aS'(-such/-same/-seem/-regard/-regards/-regarded/-view/-views/-viewed/-denote/-denoted/-denotes)'
p1738
aa(lp1739
S'(-if/-follow/-follows/-&adv)'
p1740
aS'&C@Complete@'
p1741
aasbsg389
(lp1742
g1456
a(icmyPackage
Sent
p1743
(dp1744
g393
I1
sg394
I6
sg395
S'As a small step toward programs that find creative solutions, we consider how to express the idea of a solution concisely.'
p1745
sg397
I0
sg398
I14
sg354
(lp1746
g1709
asbasba(icmyPackage
CELink
p1747
(dp1748
g3
(lp1749
g5
(g6
g7
(lp1750
g5
(g6
g7
(lp1751
g5
(g6
g7
(lp1752
g5
(g6
g7
(lp1753
g5
(g6
g7
(lp1754
g5
(g6
g7
(lp1755
VThe
p1756
atp1757
Rp1758
(dp1759
g16
VDT
p1760
sbag5
(g6
g7
(lp1761
Vstandard
p1762
atp1763
Rp1764
(dp1765
g16
VJJ
p1766
sbag5
(g6
g7
(lp1767
Vproof
p1768
atp1769
Rp1770
(dp1771
g16
VNN
p1772
sbatp1773
Rp1774
(dp1775
g16
VNP
p1776
sbag5
(g6
g7
(lp1777
g5
(g6
g7
(lp1778
Vthat
p1779
atp1780
Rp1781
(dp1782
g16
VIN
p1783
sbag5
(g6
g7
(lp1784
g5
(g6
g7
(lp1785
g5
(g6
g7
(lp1786
Vthis
p1787
atp1788
Rp1789
(dp1790
g16
VDT
p1791
sbatp1792
Rp1793
(dp1794
g16
VNP
p1795
sbag5
(g6
g7
(lp1796
g5
(g6
g7
(lp1797
Vis
p1798
atp1799
Rp1800
(dp1801
g16
VVBZ
p1802
sbag5
(g6
g7
(lp1803
g5
(g6
g7
(lp1804
Vimpossible
p1805
atp1806
Rp1807
(dp1808
g16
VJJ
p1809
sbatp1810
Rp1811
(dp1812
g16
VADJP
p1813
sbatp1814
Rp1815
(dp1816
g16
VVP
p1817
sbatp1818
Rp1819
(dp1820
g16
g208
sbatp1821
Rp1822
(dp1823
g16
VSBAR
p1824
sbatp1825
Rp1826
(dp1827
g16
VNP
p1828
sbag5
(g6
g7
(lp1829
g5
(g6
g7
(lp1830
Vnotes
p1831
atp1832
Rp1833
(dp1834
g16
VVBZ
p1835
sbag5
(g6
g7
(lp1836
g5
(g6
g7
(lp1837
Vthat
p1838
atp1839
Rp1840
(dp1841
g16
VIN
p1842
sbag5
(g6
g7
(lp1843
g5
(g6
g7
(lp1844
g5
(g6
g7
(lp1845
g58
atp1846
Rp1847
(dp1848
g16
VDT
p1849
sbag5
(g6
g7
(lp1850
Vdomino
p1851
atp1852
Rp1853
(dp1854
g16
VNN
p1855
sbatp1856
Rp1857
(dp1858
g16
VNP
p1859
sbag5
(g6
g7
(lp1860
g5
(g6
g7
(lp1861
Vcovers
p1862
atp1863
Rp1864
(dp1865
g16
VVBZ
p1866
sbag5
(g6
g7
(lp1867
g5
(g6
g7
(lp1868
g5
(g6
g7
(lp1869
Vone
p1870
atp1871
Rp1872
(dp1873
g16
VCD
p1874
sbag5
(g6
g7
(lp1875
Vblack
p1876
atp1877
Rp1878
(dp1879
g16
VJJ
p1880
sbag5
(g6
g7
(lp1881
Vsquare
p1882
atp1883
Rp1884
(dp1885
g16
VNN
p1886
sbatp1887
Rp1888
(dp1889
g16
VNP
p1890
sbag5
(g6
g7
(lp1891
Vand
p1892
atp1893
Rp1894
(dp1895
g16
VCC
p1896
sbag5
(g6
g7
(lp1897
g5
(g6
g7
(lp1898
Vone
p1899
atp1900
Rp1901
(dp1902
g16
VCD
p1903
sbag5
(g6
g7
(lp1904
Vwhite
p1905
atp1906
Rp1907
(dp1908
g16
VJJ
p1909
sbag5
(g6
g7
(lp1910
Vsquare
p1911
atp1912
Rp1913
(dp1914
g16
VNN
p1915
sbatp1916
Rp1917
(dp1918
g16
VNP
p1919
sbatp1920
Rp1921
(dp1922
g16
VNP
p1923
sbatp1924
Rp1925
(dp1926
g16
VVP
p1927
sbatp1928
Rp1929
(dp1930
g16
g208
sbatp1931
Rp1932
(dp1933
g16
VSBAR
p1934
sbatp1935
Rp1936
(dp1937
g16
VVP
p1938
sbatp1939
Rp1940
(dp1941
g16
g208
sbag5
(g6
g7
(lp1942
g959
atp1943
Rp1944
(dp1945
g16
g959
sbag5
(g6
g7
(lp1946
Vand
p1947
atp1948
Rp1949
(dp1950
g16
VCC
p1951
sbag5
(g6
g7
(lp1952
g5
(g6
g7
(lp1953
Vtherefore
p1954
atp1955
Rp1956
(dp1957
g16
VRB
p1958
sbatp1959
Rp1960
(dp1961
g16
VADVP
p1962
sbag5
(g6
g7
(lp1963
g5
(g6
g7
(lp1964
g5
(g6
g7
(lp1965
g5
(g6
g7
(lp1966
Vany
p1967
atp1968
Rp1969
(dp1970
g16
VDT
p1971
sbag5
(g6
g7
(lp1972
Vcovering
p1973
atp1974
Rp1975
(dp1976
g16
VNN
p1977
sbatp1978
Rp1979
(dp1980
g16
VNP
p1981
sbag5
(g6
g7
(lp1982
g5
(g6
g7
(lp1983
Vby
p1984
atp1985
Rp1986
(dp1987
g16
VIN
p1988
sbag5
(g6
g7
(lp1989
g5
(g6
g7
(lp1990
Vdominoes
p1991
atp1992
Rp1993
(dp1994
g16
VNNS
p1995
sbatp1996
Rp1997
(dp1998
g16
VNP
p1999
sbatp2000
Rp2001
(dp2002
g16
VPP
p2003
sbatp2004
Rp2005
(dp2006
g16
VNP
p2007
sbag5
(g6
g7
(lp2008
g5
(g6
g7
(lp2009
Vcovers
p2010
atp2011
Rp2012
(dp2013
g16
VVBZ
p2014
sbag5
(g6
g7
(lp2015
g5
(g6
g7
(lp2016
g5
(g6
g7
(lp2017
Vequal
p2018
atp2019
Rp2020
(dp2021
g16
VJJ
p2022
sbag5
(g6
g7
(lp2023
Vnumbers
p2024
atp2025
Rp2026
(dp2027
g16
VNNS
p2028
sbatp2029
Rp2030
(dp2031
g16
VNP
p2032
sbag5
(g6
g7
(lp2033
g5
(g6
g7
(lp2034
Vof
p2035
atp2036
Rp2037
(dp2038
g16
VIN
p2039
sbag5
(g6
g7
(lp2040
g5
(g6
g7
(lp2041
g5
(g6
g7
(lp2042
Vsquares
p2043
atp2044
Rp2045
(dp2046
g16
VNNS
p2047
sbatp2048
Rp2049
(dp2050
g16
VNP
p2051
sbag5
(g6
g7
(lp2052
g5
(g6
g7
(lp2053
Vof
p2054
atp2055
Rp2056
(dp2057
g16
VIN
p2058
sbag5
(g6
g7
(lp2059
g5
(g6
g7
(lp2060
Vthe
p2061
atp2062
Rp2063
(dp2064
g16
VDT
p2065
sbag5
(g6
g7
(lp2066
Vtwo
p2067
atp2068
Rp2069
(dp2070
g16
VCD
p2071
sbag5
(g6
g7
(lp2072
Vcolors
p2073
atp2074
Rp2075
(dp2076
g16
VNNS
p2077
sbatp2078
Rp2079
(dp2080
g16
VNP
p2081
sbatp2082
Rp2083
(dp2084
g16
VPP
p2085
sbatp2086
Rp2087
(dp2088
g16
VNP
p2089
sbatp2090
Rp2091
(dp2092
g16
VPP
p2093
sbatp2094
Rp2095
(dp2096
g16
VNP
p2097
sbatp2098
Rp2099
(dp2100
g16
VVP
p2101
sbatp2102
Rp2103
(dp2104
g16
g208
sbag5
(g6
g7
(lp2105
g336
atp2106
Rp2107
(dp2108
g16
g336
sbatp2109
Rp2110
(dp2111
g16
g208
sbatp2112
Rp2113
(dp2114
g16
VROOT
p2115
sbasg347
(icmyPackage
CorE
p2116
(dp2117
g350
(lp2118
(I0
I0
tp2119
a(I0
I18
tp2120
asg354
g1940
sbsg355
(icmyPackage
CorE
p2121
(dp2122
g350
(lp2123
(I0
I22
tp2124
a(I0
I35
tp2125
asg354
g5
(g6
g7
(lp2126
g2103
ag2107
atp2127
Rp2128
(dp2129
g16
g365
sbsbsg366
g1142
sg389
(lp2130
(icmyPackage
Sent
p2131
(dp2132
g393
I2
sg394
I9
sg395
S'The standard proof that this is impossible notes that a domino covers one black square and one white square, and therefore any covering by dominoes covers equal numbers of squares of the two colors.'
p2133
sg397
I0
sg398
I22
sg354
(lp2134
g2113
asbasba(icmyPackage
CELink
p2135
(dp2136
g3
(lp2137
g5
(g6
g7
(lp2138
g5
(g6
g7
(lp2139
g5
(g6
g7
(lp2140
g5
(g6
g7
(lp2141
VWe
p2142
atp2143
Rp2144
(dp2145
g16
VPRP
p2146
sbatp2147
Rp2148
(dp2149
g16
VNP
p2150
sbag5
(g6
g7
(lp2151
g5
(g6
g7
(lp2152
Vregard
p2153
atp2154
Rp2155
(dp2156
g16
VVBP
p2157
sbag5
(g6
g7
(lp2158
g5
(g6
g7
(lp2159
g5
(g6
g7
(lp2160
Vthis
p2161
atp2162
Rp2163
(dp2164
g16
VDT
p2165
sbag5
(g6
g7
(lp2166
Vproof
p2167
atp2168
Rp2169
(dp2170
g16
VNN
p2171
sbatp2172
Rp2173
(dp2174
g16
VNP
p2175
sbag5
(g6
g7
(lp2176
g5
(g6
g7
(lp2177
Vas
p2178
atp2179
Rp2180
(dp2181
g16
VRB
p2182
sbag5
(g6
g7
(lp2183
Vcreative
p2184
atp2185
Rp2186
(dp2187
g16
VJJ
p2188
sbatp2189
Rp2190
(dp2191
g16
VADJP
p2192
sbatp2193
Rp2194
(dp2195
g16
g208
sbag5
(g6
g7
(lp2196
g959
atp2197
Rp2198
(dp2199
g16
g959
sbag5
(g6
g7
(lp2200
g5
(g6
g7
(lp2201
Vbecause
p2202
atp2203
Rp2204
(dp2205
g16
VIN
p2206
sbag5
(g6
g7
(lp2207
g5
(g6
g7
(lp2208
g5
(g6
g7
(lp2209
Vit
p2210
atp2211
Rp2212
(dp2213
g16
VPRP
p2214
sbatp2215
Rp2216
(dp2217
g16
VNP
p2218
sbag5
(g6
g7
(lp2219
g5
(g6
g7
(lp2220
Vinvolves
p2221
atp2222
Rp2223
(dp2224
g16
VVBZ
p2225
sbag5
(g6
g7
(lp2226
g5
(g6
g7
(lp2227
Van
p2228
atp2229
Rp2230
(dp2231
g16
VDT
p2232
sbag5
(g6
g7
(lp2233
Velement
p2234
atp2235
Rp2236
(dp2237
g16
VNN
p2238
sbatp2239
Rp2240
(dp2241
g16
VNP
p2242
sbag5
(g6
g7
(lp2243
g5
(g6
g7
(lp2244
Vnot
p2245
atp2246
Rp2247
(dp2248
g16
VRB
p2249
sbag5
(g6
g7
(lp2250
Vpresent
p2251
atp2252
Rp2253
(dp2254
g16
VJJ
p2255
sbag5
(g6
g7
(lp2256
g5
(g6
g7
(lp2257
Vin
p2258
atp2259
Rp2260
(dp2261
g16
VIN
p2262
sbag5
(g6
g7
(lp2263
g5
(g6
g7
(lp2264
g5
(g6
g7
(lp2265
Vthe
p2266
atp2267
Rp2268
(dp2269
g16
VDT
p2270
sbag5
(g6
g7
(lp2271
Vformulation
p2272
atp2273
Rp2274
(dp2275
g16
VNN
p2276
sbatp2277
Rp2278
(dp2279
g16
VNP
p2280
sbag5
(g6
g7
(lp2281
g5
(g6
g7
(lp2282
Vof
p2283
atp2284
Rp2285
(dp2286
g16
VIN
p2287
sbag5
(g6
g7
(lp2288
g5
(g6
g7
(lp2289
Vthe
p2290
atp2291
Rp2292
(dp2293
g16
VDT
p2294
sbag5
(g6
g7
(lp2295
Vproblem
p2296
atp2297
Rp2298
(dp2299
g16
VNN
p2300
sbatp2301
Rp2302
(dp2303
g16
VNP
p2304
sbatp2305
Rp2306
(dp2307
g16
VPP
p2308
sbatp2309
Rp2310
(dp2311
g16
VNP
p2312
sbatp2313
Rp2314
(dp2315
g16
VPP
p2316
sbatp2317
Rp2318
(dp2319
g16
VADJP
p2320
sbag5
(g6
g7
(lp2321
V--
p2322
atp2323
Rp2324
(dp2325
g16
V:
p2326
sbag5
(g6
g7
(lp2327
g5
(g6
g7
(lp2328
g5
(g6
g7
(lp2329
Vnamely
p2330
atp2331
Rp2332
(dp2333
g16
VRB
p2334
sbag5
(g6
g7
(lp2335
Vthe
p2336
atp2337
Rp2338
(dp2339
g16
VDT
p2340
sbag5
(g6
g7
(lp2341
Vcolors
p2342
atp2343
Rp2344
(dp2345
g16
VNNS
p2346
sbatp2347
Rp2348
(dp2349
g16
VNP
p2350
sbag5
(g6
g7
(lp2351
g5
(g6
g7
(lp2352
Vof
p2353
atp2354
Rp2355
(dp2356
g16
VIN
p2357
sbag5
(g6
g7
(lp2358
g5
(g6
g7
(lp2359
Vthe
p2360
atp2361
Rp2362
(dp2363
g16
VDT
p2364
sbag5
(g6
g7
(lp2365
Vsquares
p2366
atp2367
Rp2368
(dp2369
g16
VNNS
p2370
sbatp2371
Rp2372
(dp2373
g16
VNP
p2374
sbatp2375
Rp2376
(dp2377
g16
VPP
p2378
sbatp2379
Rp2380
(dp2381
g16
VNP
p2382
sbatp2383
Rp2384
(dp2385
g16
VVP
p2386
sbatp2387
Rp2388
(dp2389
g16
g208
sbatp2390
Rp2391
(dp2392
g16
VSBAR
p2393
sbatp2394
Rp2395
(dp2396
g16
VVP
p2397
sbag5
(g6
g7
(lp2398
g336
atp2399
Rp2400
(dp2401
g16
g336
sbatp2402
Rp2403
(dp2404
g16
g208
sbatp2405
Rp2406
(dp2407
g16
VROOT
p2408
sbasg347
(icmyPackage
CorE
p2409
(dp2410
g350
(lp2411
(I0
I8
tp2412
a(I0
I27
tp2413
asg354
g5
(g6
g7
(lp2414
g2388
ag2400
atp2415
Rp2416
(dp2417
g16
g365
sbsbsg355
(icmyPackage
CorE
p2418
(dp2419
g350
(lp2420
(I0
I0
tp2421
a(I0
I5
tp2422
asg354
g5
(g6
g7
(lp2423
g2148
ag2155
ag2194
atp2424
Rp2425
(dp2426
g16
g365
sbsbsg366
(icmyPackage
pattern
p2427
(dp2428
g369
I407
sg370
I1
sg371
(lp2429
(lp2430
S'because'
p2431
aasg377
(lp2432
I3
aI1
aI1
asg379
(lp2433
S'It ends up in burnout and less production, because we inevitably run out of energy.'
p2434
asg382
I76
sg383
(lp2435
(lp2436
S'&R'
p2437
aS'(,)'
p2438
aS'(&ADV)'
p2439
aa(lp2440
S'&C'
p2441
aasbsg389
(lp2442
(icmyPackage
Sent
p2443
(dp2444
g393
I2
sg394
I10
sg395
S'We regard this proof as creative, because it involves an element not present in the formulation of the problem -- namely the colors of the squares.'
p2445
sg397
I0
sg398
I24
sg354
(lp2446
g2406
asbasba(icmyPackage
CELink
p2447
(dp2448
g3
(lp2449
g5
(g6
g7
(lp2450
g5
(g6
g7
(lp2451
g5
(g6
g7
(lp2452
g5
(g6
g7
(lp2453
g5
(g6
g7
(lp2454
VOne
p2455
atp2456
Rp2457
(dp2458
g16
VPRP
p2459
sbatp2460
Rp2461
(dp2462
g16
VNP
p2463
sbag5
(g6
g7
(lp2464
g5
(g6
g7
(lp2465
Vcould
p2466
atp2467
Rp2468
(dp2469
g16
VMD
p2470
sbag5
(g6
g7
(lp2471
g5
(g6
g7
(lp2472
Vargue
p2473
atp2474
Rp2475
(dp2476
g16
VVB
p2477
sbag5
(g6
g7
(lp2478
g5
(g6
g7
(lp2479
Vthat
p2480
atp2481
Rp2482
(dp2483
g16
VIN
p2484
sbag5
(g6
g7
(lp2485
g5
(g6
g7
(lp2486
g5
(g6
g7
(lp2487
Vthe
p2488
atp2489
Rp2490
(dp2491
g16
VDT
p2492
sbag5
(g6
g7
(lp2493
Vcolors
p2494
atp2495
Rp2496
(dp2497
g16
VNNS
p2498
sbatp2499
Rp2500
(dp2501
g16
VNP
p2502
sbag5
(g6
g7
(lp2503
g5
(g6
g7
(lp2504
Vare
p2505
atp2506
Rp2507
(dp2508
g16
VVBP
p2509
sbag5
(g6
g7
(lp2510
g5
(g6
g7
(lp2511
Vpresent
p2512
atp2513
Rp2514
(dp2515
g16
VJJ
p2516
sbatp2517
Rp2518
(dp2519
g16
VADJP
p2520
sbag5
(g6
g7
(lp2521
g5
(g6
g7
(lp2522
g5
(g6
g7
(lp2523
Vimplicitly
p2524
atp2525
Rp2526
(dp2527
g16
VRB
p2528
sbatp2529
Rp2530
(dp2531
g16
VADVP
p2532
sbag5
(g6
g7
(lp2533
g5
(g6
g7
(lp2534
Vwhen
p2535
atp2536
Rp2537
(dp2538
g16
VWRB
p2539
sbatp2540
Rp2541
(dp2542
g16
VWHADVP
p2543
sbag5
(g6
g7
(lp2544
g5
(g6
g7
(lp2545
g5
(g6
g7
(lp2546
g58
atp2547
Rp2548
(dp2549
g16
VDT
p2550
sbag5
(g6
g7
(lp2551
Vcheckerboard
p2552
atp2553
Rp2554
(dp2555
g16
VNN
p2556
sbatp2557
Rp2558
(dp2559
g16
VNP
p2560
sbag5
(g6
g7
(lp2561
g5
(g6
g7
(lp2562
Vis
p2563
atp2564
Rp2565
(dp2566
g16
VVBZ
p2567
sbag5
(g6
g7
(lp2568
g5
(g6
g7
(lp2569
Vmentioned
p2570
atp2571
Rp2572
(dp2573
g16
VVBN
p2574
sbatp2575
Rp2576
(dp2577
g16
VVP
p2578
sbatp2579
Rp2580
(dp2581
g16
VVP
p2582
sbatp2583
Rp2584
(dp2585
g16
g208
sbatp2586
Rp2587
(dp2588
g16
VSBAR
p2589
sbatp2590
Rp2591
(dp2592
g16
VVP
p2593
sbatp2594
Rp2595
(dp2596
g16
g208
sbatp2597
Rp2598
(dp2599
g16
VSBAR
p2600
sbatp2601
Rp2602
(dp2603
g16
VVP
p2604
sbatp2605
Rp2606
(dp2607
g16
VVP
p2608
sbatp2609
Rp2610
(dp2611
g16
g208
sbag5
(g6
g7
(lp2612
g959
atp2613
Rp2614
(dp2615
g16
g959
sbag5
(g6
g7
(lp2616
Vand
p2617
atp2618
Rp2619
(dp2620
g16
VCC
p2621
sbag5
(g6
g7
(lp2622
g5
(g6
g7
(lp2623
g5
(g6
g7
(lp2624
Vperhaps
p2625
atp2626
Rp2627
(dp2628
g16
VRB
p2629
sbatp2630
Rp2631
(dp2632
g16
VADVP
p2633
sbag5
(g6
g7
(lp2634
g5
(g6
g7
(lp2635
Vthe
p2636
atp2637
Rp2638
(dp2639
g16
VDT
p2640
sbag5
(g6
g7
(lp2641
Vproblem
p2642
atp2643
Rp2644
(dp2645
g16
VNN
p2646
sbatp2647
Rp2648
(dp2649
g16
VNP
p2650
sbag5
(g6
g7
(lp2651
g5
(g6
g7
(lp2652
Vwould
p2653
atp2654
Rp2655
(dp2656
g16
VMD
p2657
sbag5
(g6
g7
(lp2658
g5
(g6
g7
(lp2659
Vbe
p2660
atp2661
Rp2662
(dp2663
g16
VVB
p2664
sbag5
(g6
g7
(lp2665
g5
(g6
g7
(lp2666
Vpurer
p2667
atp2668
Rp2669
(dp2670
g16
VJJ
p2671
sbatp2672
Rp2673
(dp2674
g16
VADJP
p2675
sbag5
(g6
g7
(lp2676
g5
(g6
g7
(lp2677
Vif
p2678
atp2679
Rp2680
(dp2681
g16
VIN
p2682
sbag5
(g6
g7
(lp2683
g5
(g6
g7
(lp2684
g5
(g6
g7
(lp2685
Vit
p2686
atp2687
Rp2688
(dp2689
g16
VPRP
p2690
sbatp2691
Rp2692
(dp2693
g16
VNP
p2694
sbag5
(g6
g7
(lp2695
g5
(g6
g7
(lp2696
Vreferred
p2697
atp2698
Rp2699
(dp2700
g16
VVBD
p2701
sbag5
(g6
g7
(lp2702
g5
(g6
g7
(lp2703
Vto
p2704
atp2705
Rp2706
(dp2707
g16
VTO
p2708
sbag5
(g6
g7
(lp2709
g5
(g6
g7
(lp2710
g5
(g6
g7
(lp2711
Van
p2712
atp2713
Rp2714
(dp2715
g16
VDT
p2716
sbag5
(g6
g7
(lp2717
V8
p2718
atp2719
Rp2720
(dp2721
g16
VCD
p2722
sbag5
(g6
g7
(lp2723
V\u005c
p2724
atp2725
Rp2726
(dp2727
g16
VNNS
p2728
sbatp2729
Rp2730
(dp2731
g16
VNP
p2732
sbag5
(g6
g7
(lp2733
g5
(g6
g7
(lp2734
Vtimes
p2735
atp2736
Rp2737
(dp2738
g16
VCC
p2739
sbag5
(g6
g7
(lp2740
g5
(g6
g7
(lp2741
g2718
atp2742
Rp2743
(dp2744
g16
VCD
p2745
sbag5
(g6
g7
(lp2746
Varray
p2747
atp2748
Rp2749
(dp2750
g16
VNN
p2751
sbatp2752
Rp2753
(dp2754
g16
VNP
p2755
sbatp2756
Rp2757
(dp2758
g16
VPP
p2759
sbatp2760
Rp2761
(dp2762
g16
VNP
p2763
sbatp2764
Rp2765
(dp2766
g16
VPP
p2767
sbatp2768
Rp2769
(dp2770
g16
VVP
p2771
sbatp2772
Rp2773
(dp2774
g16
g208
sbatp2775
Rp2776
(dp2777
g16
VSBAR
p2778
sbatp2779
Rp2780
(dp2781
g16
VVP
p2782
sbatp2783
Rp2784
(dp2785
g16
VVP
p2786
sbatp2787
Rp2788
(dp2789
g16
g208
sbag5
(g6
g7
(lp2790
g336
atp2791
Rp2792
(dp2793
g16
g336
sbatp2794
Rp2795
(dp2796
g16
g208
sbatp2797
Rp2798
(dp2799
g16
VROOT
p2800
sbasg347
(icmyPackage
CorE
p2801
(dp2802
g350
(lp2803
(I0
I23
tp2804
a(I0
I32
tp2805
asg354
g5
(g6
g7
(lp2806
g2773
ag2792
atp2807
Rp2808
(dp2809
g16
g365
sbsbsg355
(icmyPackage
CorE
p2810
(dp2811
g350
(lp2812
(I0
I16
tp2813
a(I0
I21
tp2814
asg354
g5
(g6
g7
(lp2815
g2631
ag2648
ag2655
ag2662
ag2673
atp2816
Rp2817
(dp2818
g16
g365
sbsbsg366
g689
sg389
(lp2819
(icmyPackage
Sent
p2820
(dp2821
g393
I2
sg394
I15
sg395
S'One could argue that the colors are present implicitly when a checkerboard is mentioned, and perhaps the problem would be purer if it referred to an 8 \\times 8 array.'
p2822
sg397
I0
sg398
I30
sg354
(lp2823
g2798
asbasba(icmyPackage
CELink
p2824
(dp2825
g3
(lp2826
g5
(g6
g7
(lp2827
g5
(g6
g7
(lp2828
g5
(g6
g7
(lp2829
g5
(g6
g7
(lp2830
VHowever
p2831
atp2832
Rp2833
(dp2834
g16
VRB
p2835
sbatp2836
Rp2837
(dp2838
g16
VADVP
p2839
sbag5
(g6
g7
(lp2840
g959
atp2841
Rp2842
(dp2843
g16
g959
sbag5
(g6
g7
(lp2844
g5
(g6
g7
(lp2845
g5
(g6
g7
(lp2846
g5
(g6
g7
(lp2847
g5
(g6
g7
(lp2848
Vone
p2849
atp2850
Rp2851
(dp2852
g16
VCD
p2853
sbag5
(g6
g7
(lp2854
V's
p2855
atp2856
Rp2857
(dp2858
g16
VPOS
p2859
sbatp2860
Rp2861
(dp2862
g16
VNP
p2863
sbag5
(g6
g7
(lp2864
Vinitial
p2865
atp2866
Rp2867
(dp2868
g16
VJJ
p2869
sbag5
(g6
g7
(lp2870
Vreaction
p2871
atp2872
Rp2873
(dp2874
g16
VNN
p2875
sbatp2876
Rp2877
(dp2878
g16
VNP
p2879
sbag5
(g6
g7
(lp2880
g5
(g6
g7
(lp2881
Vto
p2882
atp2883
Rp2884
(dp2885
g16
VTO
p2886
sbag5
(g6
g7
(lp2887
g5
(g6
g7
(lp2888
Vthe
p2889
atp2890
Rp2891
(dp2892
g16
VDT
p2893
sbag5
(g6
g7
(lp2894
Vproblem
p2895
atp2896
Rp2897
(dp2898
g16
VNN
p2899
sbatp2900
Rp2901
(dp2902
g16
VNP
p2903
sbatp2904
Rp2905
(dp2906
g16
VPP
p2907
sbatp2908
Rp2909
(dp2910
g16
VNP
p2911
sbag5
(g6
g7
(lp2912
g5
(g6
g7
(lp2913
Vis
p2914
atp2915
Rp2916
(dp2917
g16
VVBZ
p2918
sbag5
(g6
g7
(lp2919
g5
(g6
g7
(lp2920
g5
(g6
g7
(lp2921
Vto
p2922
atp2923
Rp2924
(dp2925
g16
VTO
p2926
sbag5
(g6
g7
(lp2927
g5
(g6
g7
(lp2928
Vconsider
p2929
atp2930
Rp2931
(dp2932
g16
VVB
p2933
sbag5
(g6
g7
(lp2934
g5
(g6
g7
(lp2935
g5
(g6
g7
(lp2936
Vthere
p2937
atp2938
Rp2939
(dp2940
g16
VEX
p2941
sbatp2942
Rp2943
(dp2944
g16
VNP
p2945
sbag5
(g6
g7
(lp2946
g5
(g6
g7
(lp2947
Vbeing
p2948
atp2949
Rp2950
(dp2951
g16
VVBG
p2952
sbag5
(g6
g7
(lp2953
g5
(g6
g7
(lp2954
g5
(g6
g7
(lp2955
Vtwo
p2956
atp2957
Rp2958
(dp2959
g16
VCD
p2960
sbag5
(g6
g7
(lp2961
Vcolors
p2962
atp2963
Rp2964
(dp2965
g16
VNNS
p2966
sbatp2967
Rp2968
(dp2969
g16
VNP
p2970
sbag5
(g6
g7
(lp2971
g5
(g6
g7
(lp2972
Vas
p2973
atp2974
Rp2975
(dp2976
g16
VRB
p2977
sbag5
(g6
g7
(lp2978
Virrelevant
p2979
atp2980
Rp2981
(dp2982
g16
VJJ
p2983
sbatp2984
Rp2985
(dp2986
g16
VADJP
p2987
sbatp2988
Rp2989
(dp2990
g16
VNP
p2991
sbatp2992
Rp2993
(dp2994
g16
VVP
p2995
sbatp2996
Rp2997
(dp2998
g16
g208
sbatp2999
Rp3000
(dp3001
g16
VVP
p3002
sbatp3003
Rp3004
(dp3005
g16
VVP
p3006
sbatp3007
Rp3008
(dp3009
g16
g208
sbatp3010
Rp3011
(dp3012
g16
VVP
p3013
sbatp3014
Rp3015
(dp3016
g16
g208
sbag5
(g6
g7
(lp3017
g959
atp3018
Rp3019
(dp3020
g16
g959
sbag5
(g6
g7
(lp3021
g5
(g6
g7
(lp3022
g5
(g6
g7
(lp3023
Vjust
p3024
atp3025
Rp3026
(dp3027
g16
VRB
p3028
sbag5
(g6
g7
(lp3029
Vas
p3030
atp3031
Rp3032
(dp3033
g16
VIN
p3034
sbag5
(g6
g7
(lp3035
g5
(g6
g7
(lp3036
g5
(g6
g7
(lp3037
Vit
p3038
atp3039
Rp3040
(dp3041
g16
VPRP
p3042
sbatp3043
Rp3044
(dp3045
g16
VNP
p3046
sbag5
(g6
g7
(lp3047
g5
(g6
g7
(lp3048
Vis
p3049
atp3050
Rp3051
(dp3052
g16
VVBZ
p3053
sbag5
(g6
g7
(lp3054
g5
(g6
g7
(lp3055
Virrelevant
p3056
atp3057
Rp3058
(dp3059
g16
VJJ
p3060
sbatp3061
Rp3062
(dp3063
g16
VADJP
p3064
sbag5
(g6
g7
(lp3065
g5
(g6
g7
(lp3066
g5
(g6
g7
(lp3067
Vwhat
p3068
atp3069
Rp3070
(dp3071
g16
VWP
p3072
sbatp3073
Rp3074
(dp3075
g16
VWHNP
p3076
sbag5
(g6
g7
(lp3077
g5
(g6
g7
(lp3078
g5
(g6
g7
(lp3079
Vthe
p3080
atp3081
Rp3082
(dp3083
g16
VDT
p3084
sbag5
(g6
g7
(lp3085
Vtwo
p3086
atp3087
Rp3088
(dp3089
g16
VCD
p3090
sbag5
(g6
g7
(lp3091
Vcolors
p3092
atp3093
Rp3094
(dp3095
g16
VNNS
p3096
sbatp3097
Rp3098
(dp3099
g16
VNP
p3100
sbag5
(g6
g7
(lp3101
g5
(g6
g7
(lp3102
Vare
p3103
atp3104
Rp3105
(dp3106
g16
VVBP
p3107
sbag5
(g6
g7
(lp3108
V--
p3109
atp3110
Rp3111
(dp3112
g16
g2326
sbag5
(g6
g7
(lp3113
g5
(g6
g7
(lp3114
g5
(g6
g7
(lp3115
Vsome
p3116
atp3117
Rp3118
(dp3119
g16
VDT
p3120
sbag5
(g6
g7
(lp3121
Vboards
p3122
atp3123
Rp3124
(dp3125
g16
VNNS
p3126
sbatp3127
Rp3128
(dp3129
g16
VNP
p3130
sbag5
(g6
g7
(lp3131
g5
(g6
g7
(lp3132
g5
(g6
g7
(lp3133
g5
(g6
g7
(lp3134
Vhave
p3135
atp3136
Rp3137
(dp3138
g16
VVBP
p3139
sbag5
(g6
g7
(lp3140
g5
(g6
g7
(lp3141
Vblack
p3142
atp3143
Rp3144
(dp3145
g16
VJJ
p3146
sbag5
(g6
g7
(lp3147
Vand
p3148
atp3149
Rp3150
(dp3151
g16
VCC
p3152
sbag5
(g6
g7
(lp3153
Vwhite
p3154
atp3155
Rp3156
(dp3157
g16
VJJ
p3158
sbag5
(g6
g7
(lp3159
Vsquares
p3160
atp3161
Rp3162
(dp3163
g16
VNNS
p3164
sbatp3165
Rp3166
(dp3167
g16
VNP
p3168
sbatp3169
Rp3170
(dp3171
g16
VVP
p3172
sbatp3173
Rp3174
(dp3175
g16
g208
sbatp3176
Rp3177
(dp3178
g16
VSBAR
p3179
sbatp3180
Rp3181
(dp3182
g16
VNP
p3183
sbatp3184
Rp3185
(dp3186
g16
VVP
p3187
sbatp3188
Rp3189
(dp3190
g16
g208
sbatp3191
Rp3192
(dp3193
g16
VSBAR
p3194
sbatp3195
Rp3196
(dp3197
g16
VVP
p3198
sbatp3199
Rp3200
(dp3201
g16
g208
sbatp3202
Rp3203
(dp3204
g16
VSBAR
p3205
sbag5
(g6
g7
(lp3206
g959
atp3207
Rp3208
(dp3209
g16
g959
sbag5
(g6
g7
(lp3210
g5
(g6
g7
(lp3211
Vsome
p3212
atp3213
Rp3214
(dp3215
g16
VDT
p3216
sbatp3217
Rp3218
(dp3219
g16
VNP
p3220
sbag5
(g6
g7
(lp3221
g5
(g6
g7
(lp3222
Vhave
p3223
atp3224
Rp3225
(dp3226
g16
VVBP
p3227
sbag5
(g6
g7
(lp3228
g5
(g6
g7
(lp3229
g5
(g6
g7
(lp3230
Vred
p3231
atp3232
Rp3233
(dp3234
g16
VJJ
p3235
sbag5
(g6
g7
(lp3236
Vand
p3237
atp3238
Rp3239
(dp3240
g16
VCC
p3241
sbag5
(g6
g7
(lp3242
Vblack
p3243
atp3244
Rp3245
(dp3246
g16
VJJ
p3247
sbatp3248
Rp3249
(dp3250
g16
VADJP
p3251
sbatp3252
Rp3253
(dp3254
g16
g208
sbatp3255
Rp3256
(dp3257
g16
VVP
p3258
sbatp3259
Rp3260
(dp3261
g16
g208
sbag5
(g6
g7
(lp3262
g959
atp3263
Rp3264
(dp3265
g16
g959
sbag5
(g6
g7
(lp3266
Vand
p3267
atp3268
Rp3269
(dp3270
g16
VCC
p3271
sbag5
(g6
g7
(lp3272
g5
(g6
g7
(lp3273
g5
(g6
g7
(lp3274
Vsome
p3275
atp3276
Rp3277
(dp3278
g16
VDT
p3279
sbatp3280
Rp3281
(dp3282
g16
VNP
p3283
sbag5
(g6
g7
(lp3284
g5
(g6
g7
(lp3285
Vhave
p3286
atp3287
Rp3288
(dp3289
g16
VVBP
p3290
sbag5
(g6
g7
(lp3291
g5
(g6
g7
(lp3292
g5
(g6
g7
(lp3293
g5
(g6
g7
(lp3294
Vgreen
p3295
atp3296
Rp3297
(dp3298
g16
VJJ
p3299
sbag5
(g6
g7
(lp3300
Vand
p3301
atp3302
Rp3303
(dp3304
g16
VCC
p3305
sbag5
(g6
g7
(lp3306
Voff-white
p3307
atp3308
Rp3309
(dp3310
g16
VJJ
p3311
sbatp3312
Rp3313
(dp3314
g16
VADJP
p3315
sbatp3316
Rp3317
(dp3318
g16
VNP
p3319
sbag5
(g6
g7
(lp3320
g5
(g6
g7
(lp3321
V-LRB-
p3322
atp3323
Rp3324
(dp3325
g16
V-LRB-
p3326
sbag5
(g6
g7
(lp3327
g5
(g6
g7
(lp3328
g5
(g6
g7
(lp3329
Vperhaps
p3330
atp3331
Rp3332
(dp3333
g16
VRB
p3334
sbatp3335
Rp3336
(dp3337
g16
VADVP
p3338
sbag5
(g6
g7
(lp3339
Vthought
p3340
atp3341
Rp3342
(dp3343
g16
VVBN
p3344
sbag5
(g6
g7
(lp3345
g5
(g6
g7
(lp3346
g5
(g6
g7
(lp3347
Vto
p3348
atp3349
Rp3350
(dp3351
g16
VTO
p3352
sbag5
(g6
g7
(lp3353
g5
(g6
g7
(lp3354
Vbe
p3355
atp3356
Rp3357
(dp3358
g16
VVB
p3359
sbag5
(g6
g7
(lp3360
g5
(g6
g7
(lp3361
Vmore
p3362
atp3363
Rp3364
(dp3365
g16
VRBR
p3366
sbag5
(g6
g7
(lp3367
Vrelaxing
p3368
atp3369
Rp3370
(dp3371
g16
VJJ
p3372
sbag5
(g6
g7
(lp3373
g5
(g6
g7
(lp3374
Vfor
p3375
atp3376
Rp3377
(dp3378
g16
VIN
p3379
sbag5
(g6
g7
(lp3380
g5
(g6
g7
(lp3381
Vthe
p3382
atp3383
Rp3384
(dp3385
g16
VDT
p3386
sbag5
(g6
g7
(lp3387
Vplayers
p3388
atp3389
Rp3390
(dp3391
g16
VNNS
p3392
sbatp3393
Rp3394
(dp3395
g16
VNP
p3396
sbatp3397
Rp3398
(dp3399
g16
VPP
p3400
sbatp3401
Rp3402
(dp3403
g16
VADJP
p3404
sbatp3405
Rp3406
(dp3407
g16
VVP
p3408
sbatp3409
Rp3410
(dp3411
g16
VVP
p3412
sbatp3413
Rp3414
(dp3415
g16
g208
sbatp3416
Rp3417
(dp3418
g16
VVP
p3419
sbag5
(g6
g7
(lp3420
V-RRB-
p3421
atp3422
Rp3423
(dp3424
g16
V-RRB-
p3425
sbatp3426
Rp3427
(dp3428
g16
VPRN
p3429
sbatp3430
Rp3431
(dp3432
g16
VNP
p3433
sbatp3434
Rp3435
(dp3436
g16
VVP
p3437
sbatp3438
Rp3439
(dp3440
g16
g208
sbag5
(g6
g7
(lp3441
g336
atp3442
Rp3443
(dp3444
g16
g336
sbatp3445
Rp3446
(dp3447
g16
g208
sbatp3448
Rp3449
(dp3450
g16
VROOT
p3451
sbasg347
(icmyPackage
CorE
p3452
(dp3453
g350
(lp3454
(I0
I17
tp3455
a(I0
I59
tp3456
asg354
g5
(g6
g7
(lp3457
g2981
ag3019
ag3260
ag3264
ag3269
ag3281
ag3288
ag3317
ag3324
ag3417
atp3458
Rp3459
(dp3460
g16
g365
sbsbsg355
(icmyPackage
CorE
p3461
(dp3462
g350
(lp3463
(I0
I0
tp3464
a(I0
I15
tp3465
asg354
g5
(g6
g7
(lp3466
g2837
ag2842
ag2909
ag2916
ag2924
ag2931
ag2943
ag2950
ag2968
atp3467
Rp3468
(dp3469
g16
g365
sbsbsg366
g1726
sg389
(lp3470
(icmyPackage
Sent
p3471
(dp3472
g393
I2
sg394
I15
sg395
S"However, one's initial reaction to the problem is to consider there being two colors as irrelevant, just as it is irrelevant what the two colors are -- some boards have black and white squares, some have red and black, and some have green and off-white (perhaps thought to be more relaxing for the players)."
p3473
sg397
I0
sg398
I31
sg354
(lp3474
g3449
asbasba(icmyPackage
CELink
p3475
(dp3476
g3
(lp3477
g5
(g6
g7
(lp3478
g5
(g6
g7
(lp3479
g5
(g6
g7
(lp3480
g5
(g6
g7
(lp3481
g5
(g6
g7
(lp3482
V-LRB-
p3483
atp3484
Rp3485
(dp3486
g16
V-LRB-
p3487
sbag5
(g6
g7
(lp3488
g5
(g6
g7
(lp3489
VMcCarthy
p3490
atp3491
Rp3492
(dp3493
g16
VNNP
p3494
sbag5
(g6
g7
(lp3495
V1964
p3496
atp3497
Rp3498
(dp3499
g16
VCD
p3500
sbatp3501
Rp3502
(dp3503
g16
VNP
p3504
sbag5
(g6
g7
(lp3505
V-RRB-
p3506
atp3507
Rp3508
(dp3509
g16
V-RRB-
p3510
sbatp3511
Rp3512
(dp3513
g16
VPRN
p3514
sbatp3515
Rp3516
(dp3517
g16
VNP
p3518
sbag5
(g6
g7
(lp3519
g5
(g6
g7
(lp3520
Vpresented
p3521
atp3522
Rp3523
(dp3524
g16
VVBD
p3525
sbag5
(g6
g7
(lp3526
g5
(g6
g7
(lp3527
Vthe
p3528
atp3529
Rp3530
(dp3531
g16
VDT
p3532
sbag5
(g6
g7
(lp3533
Vproblem
p3534
atp3535
Rp3536
(dp3537
g16
VNN
p3538
sbatp3539
Rp3540
(dp3541
g16
VNP
p3542
sbag5
(g6
g7
(lp3543
g5
(g6
g7
(lp3544
Vas
p3545
atp3546
Rp3547
(dp3548
g16
VIN
p3549
sbag5
(g6
g7
(lp3550
g5
(g6
g7
(lp3551
g5
(g6
g7
(lp3552
g58
atp3553
Rp3554
(dp3555
g16
VDT
p3556
sbag5
(g6
g7
(lp3557
Vtough
p3558
atp3559
Rp3560
(dp3561
g16
VJJ
p3562
sbag5
(g6
g7
(lp3563
Vnut
p3564
atp3565
Rp3566
(dp3567
g16
VNN
p3568
sbatp3569
Rp3570
(dp3571
g16
VNP
p3572
sbag5
(g6
g7
(lp3573
g5
(g6
g7
(lp3574
Vfor
p3575
atp3576
Rp3577
(dp3578
g16
VIN
p3579
sbag5
(g6
g7
(lp3580
g5
(g6
g7
(lp3581
Vfirst
p3582
atp3583
Rp3584
(dp3585
g16
VJJ
p3586
sbag5
(g6
g7
(lp3587
Vorder
p3588
atp3589
Rp3590
(dp3591
g16
VNN
p3592
sbag5
(g6
g7
(lp3593
Vtheorem
p3594
atp3595
Rp3596
(dp3597
g16
VNN
p3598
sbag5
(g6
g7
(lp3599
Vprovers
p3600
atp3601
Rp3602
(dp3603
g16
VNNS
p3604
sbatp3605
Rp3606
(dp3607
g16
VNP
p3608
sbatp3609
Rp3610
(dp3611
g16
VPP
p3612
sbatp3613
Rp3614
(dp3615
g16
VNP
p3616
sbatp3617
Rp3618
(dp3619
g16
VPP
p3620
sbag5
(g6
g7
(lp3621
g959
atp3622
Rp3623
(dp3624
g16
g959
sbag5
(g6
g7
(lp3625
g5
(g6
g7
(lp3626
Vbecause
p3627
atp3628
Rp3629
(dp3630
g16
VIN
p3631
sbag5
(g6
g7
(lp3632
g5
(g6
g7
(lp3633
g5
(g6
g7
(lp3634
g5
(g6
g7
(lp3635
g58
atp3636
Rp3637
(dp3638
g16
VDT
p3639
sbag5
(g6
g7
(lp3640
g5
(g6
g7
(lp3641
Vstraightforward
p3642
atp3643
Rp3644
(dp3645
g16
VJJ
p3646
sbatp3647
Rp3648
(dp3649
g16
VADJP
p3650
sbag5
(g6
g7
(lp3651
Vformalization
p3652
atp3653
Rp3654
(dp3655
g16
VNN
p3656
sbatp3657
Rp3658
(dp3659
g16
VNP
p3660
sbag5
(g6
g7
(lp3661
g5
(g6
g7
(lp3662
Vof
p3663
atp3664
Rp3665
(dp3666
g16
VIN
p3667
sbag5
(g6
g7
(lp3668
g5
(g6
g7
(lp3669
Vthe
p3670
atp3671
Rp3672
(dp3673
g16
VDT
p3674
sbag5
(g6
g7
(lp3675
Vproblem
p3676
atp3677
Rp3678
(dp3679
g16
VNN
p3680
sbatp3681
Rp3682
(dp3683
g16
VNP
p3684
sbatp3685
Rp3686
(dp3687
g16
VPP
p3688
sbatp3689
Rp3690
(dp3691
g16
VNP
p3692
sbag5
(g6
g7
(lp3693
g5
(g6
g7
(lp3694
Vprovides
p3695
atp3696
Rp3697
(dp3698
g16
VVBZ
p3699
sbag5
(g6
g7
(lp3700
g5
(g6
g7
(lp3701
g5
(g6
g7
(lp3702
Vno
p3703
atp3704
Rp3705
(dp3706
g16
VDT
p3707
sbag5
(g6
g7
(lp3708
Vway
p3709
atp3710
Rp3711
(dp3712
g16
VNN
p3713
sbatp3714
Rp3715
(dp3716
g16
VNP
p3717
sbag5
(g6
g7
(lp3718
g5
(g6
g7
(lp3719
Vof
p3720
atp3721
Rp3722
(dp3723
g16
VIN
p3724
sbag5
(g6
g7
(lp3725
g5
(g6
g7
(lp3726
g5
(g6
g7
(lp3727
Vmaking
p3728
atp3729
Rp3730
(dp3731
g16
VVBG
p3732
sbag5
(g6
g7
(lp3733
g5
(g6
g7
(lp3734
Vthe
p3735
atp3736
Rp3737
(dp3738
g16
VDT
p3739
sbag5
(g6
g7
(lp3740
Vargument
p3741
atp3742
Rp3743
(dp3744
g16
VNN
p3745
sbatp3746
Rp3747
(dp3748
g16
VNP
p3749
sbag5
(g6
g7
(lp3750
g5
(g6
g7
(lp3751
Vin
p3752
atp3753
Rp3754
(dp3755
g16
VIN
p3756
sbag5
(g6
g7
(lp3757
g5
(g6
g7
(lp3758
g5
(g6
g7
(lp3759
Vthe
p3760
atp3761
Rp3762
(dp3763
g16
VDT
p3764
sbag5
(g6
g7
(lp3765
Vlanguage
p3766
atp3767
Rp3768
(dp3769
g16
VNN
p3770
sbatp3771
Rp3772
(dp3773
g16
VNP
p3774
sbag5
(g6
g7
(lp3775
g5
(g6
g7
(lp3776
Vof
p3777
atp3778
Rp3779
(dp3780
g16
VIN
p3781
sbag5
(g6
g7
(lp3782
g5
(g6
g7
(lp3783
Vthe
p3784
atp3785
Rp3786
(dp3787
g16
VDT
p3788
sbag5
(g6
g7
(lp3789
Vformalization
p3790
atp3791
Rp3792
(dp3793
g16
VNN
p3794
sbatp3795
Rp3796
(dp3797
g16
VNP
p3798
sbatp3799
Rp3800
(dp3801
g16
VPP
p3802
sbatp3803
Rp3804
(dp3805
g16
VNP
p3806
sbatp3807
Rp3808
(dp3809
g16
VPP
p3810
sbatp3811
Rp3812
(dp3813
g16
VVP
p3814
sbatp3815
Rp3816
(dp3817
g16
g208
sbatp3818
Rp3819
(dp3820
g16
VPP
p3821
sbatp3822
Rp3823
(dp3824
g16
VNP
p3825
sbatp3826
Rp3827
(dp3828
g16
VVP
p3829
sbatp3830
Rp3831
(dp3832
g16
g208
sbatp3833
Rp3834
(dp3835
g16
VSBAR
p3836
sbatp3837
Rp3838
(dp3839
g16
VVP
p3840
sbag5
(g6
g7
(lp3841
g336
atp3842
Rp3843
(dp3844
g16
g336
sbatp3845
Rp3846
(dp3847
g16
g208
sbatp3848
Rp3849
(dp3850
g16
VROOT
p3851
sbasg347
(icmyPackage
CorE
p3852
(dp3853
g350
(lp3854
(I0
I18
tp3855
a(I0
I37
tp3856
asg354
g5
(g6
g7
(lp3857
g3831
ag3843
atp3858
Rp3859
(dp3860
g16
g365
sbsbsg355
(icmyPackage
CorE
p3861
(dp3862
g350
(lp3863
(I0
I0
tp3864
a(I0
I15
tp3865
asg354
g5
(g6
g7
(lp3866
g3516
ag3523
ag3540
ag3618
atp3867
Rp3868
(dp3869
g16
g365
sbsbsg366
g2427
sg389
(lp3870
(icmyPackage
Sent
p3871
(dp3872
g393
I2
sg394
I16
sg395
S'(McCarthy 1964) presented the problem as a tough nut for first order theorem provers, because a straightforward formalization of the problem provides no way of making the argument in the language of the formalization.'
p3873
sg397
I0
sg398
I32
sg354
(lp3874
g3849
asbasba(icmyPackage
CELink
p3875
(dp3876
g3
(lp3877
g5
(g6
g7
(lp3878
g5
(g6
g7
(lp3879
g5
(g6
g7
(lp3880
g5
(g6
g7
(lp3881
g5
(g6
g7
(lp3882
VCreativity
p3883
atp3884
Rp3885
(dp3886
g16
VNNP
p3887
sbatp3888
Rp3889
(dp3890
g16
VNP
p3891
sbag5
(g6
g7
(lp3892
g5
(g6
g7
(lp3893
Vwas
p3894
atp3895
Rp3896
(dp3897
g16
VVBD
p3898
sbag5
(g6
g7
(lp3899
Vnot
p3900
atp3901
Rp3902
(dp3903
g16
VRB
p3904
sbag5
(g6
g7
(lp3905
g5
(g6
g7
(lp3906
Vmentioned
p3907
atp3908
Rp3909
(dp3910
g16
VVBN
p3911
sbag5
(g6
g7
(lp3912
g5
(g6
g7
(lp3913
Vin
p3914
atp3915
Rp3916
(dp3917
g16
VIN
p3918
sbag5
(g6
g7
(lp3919
g5
(g6
g7
(lp3920
Vthat
p3921
atp3922
Rp3923
(dp3924
g16
VDT
p3925
sbag5
(g6
g7
(lp3926
V1964
p3927
atp3928
Rp3929
(dp3930
g16
VCD
p3931
sbag5
(g6
g7
(lp3932
Vmemo
p3933
atp3934
Rp3935
(dp3936
g16
VNN
p3937
sbatp3938
Rp3939
(dp3940
g16
VNP
p3941
sbatp3942
Rp3943
(dp3944
g16
VPP
p3945
sbatp3946
Rp3947
(dp3948
g16
VVP
p3949
sbatp3950
Rp3951
(dp3952
g16
VVP
p3953
sbatp3954
Rp3955
(dp3956
g16
g208
sbag5
(g6
g7
(lp3957
g959
atp3958
Rp3959
(dp3960
g16
g959
sbag5
(g6
g7
(lp3961
Vbut
p3962
atp3963
Rp3964
(dp3965
g16
VCC
p3966
sbag5
(g6
g7
(lp3967
g5
(g6
g7
(lp3968
g5
(g6
g7
(lp3969
VI
p3970
atp3971
Rp3972
(dp3973
g16
VPRP
p3974
sbatp3975
Rp3976
(dp3977
g16
VNP
p3978
sbag5
(g6
g7
(lp3979
g5
(g6
g7
(lp3980
Vevidently
p3981
atp3982
Rp3983
(dp3984
g16
VRB
p3985
sbatp3986
Rp3987
(dp3988
g16
VADVP
p3989
sbag5
(g6
g7
(lp3990
g5
(g6
g7
(lp3991
Vmentioned
p3992
atp3993
Rp3994
(dp3995
g16
VVBD
p3996
sbag5
(g6
g7
(lp3997
g5
(g6
g7
(lp3998
Vit
p3999
atp4000
Rp4001
(dp4002
g16
VPRP
p4003
sbatp4004
Rp4005
(dp4006
g16
VNP
p4007
sbag5
(g6
g7
(lp4008
g5
(g6
g7
(lp4009
Vin
p4010
atp4011
Rp4012
(dp4013
g16
VIN
p4014
sbag5
(g6
g7
(lp4015
g5
(g6
g7
(lp4016
Vlectures
p4017
atp4018
Rp4019
(dp4020
g16
VNNP
p4021
sbatp4022
Rp4023
(dp4024
g16
VNP
p4025
sbatp4026
Rp4027
(dp4028
g16
VPP
p4029
sbag5
(g6
g7
(lp4030
g959
atp4031
Rp4032
(dp4033
g16
g959
sbag5
(g6
g7
(lp4034
g5
(g6
g7
(lp4035
Vbecause
p4036
atp4037
Rp4038
(dp4039
g16
VIN
p4040
sbag5
(g6
g7
(lp4041
g5
(g6
g7
(lp4042
g5
(g6
g7
(lp4043
Vthe
p4044
atp4045
Rp4046
(dp4047
g16
VDT
p4048
sbag5
(g6
g7
(lp4049
Vproblem
p4050
atp4051
Rp4052
(dp4053
g16
VNN
p4054
sbatp4055
Rp4056
(dp4057
g16
VNP
p4058
sbag5
(g6
g7
(lp4059
g5
(g6
g7
(lp4060
Vgave
p4061
atp4062
Rp4063
(dp4064
g16
VVBD
p4065
sbag5
(g6
g7
(lp4066
g5
(g6
g7
(lp4067
Vrise
p4068
atp4069
Rp4070
(dp4071
g16
VNN
p4072
sbatp4073
Rp4074
(dp4075
g16
VNP
p4076
sbag5
(g6
g7
(lp4077
g5
(g6
g7
(lp4078
Vto
p4079
atp4080
Rp4081
(dp4082
g16
VTO
p4083
sbag5
(g6
g7
(lp4084
g5
(g6
g7
(lp4085
g5
(g6
g7
(lp4086
Van
p4087
atp4088
Rp4089
(dp4090
g16
VDT
p4091
sbag5
(g6
g7
(lp4092
Vinformal
p4093
atp4094
Rp4095
(dp4096
g16
VJJ
p4097
sbag5
(g6
g7
(lp4098
Vcompetition
p4099
atp4100
Rp4101
(dp4102
g16
VNN
p4103
sbatp4104
Rp4105
(dp4106
g16
VNP
p4107
sbag5
(g6
g7
(lp4108
g5
(g6
g7
(lp4109
Vaimed
p4110
atp4111
Rp4112
(dp4113
g16
VVBN
p4114
sbag5
(g6
g7
(lp4115
g5
(g6
g7
(lp4116
Vat
p4117
atp4118
Rp4119
(dp4120
g16
VIN
p4121
sbag5
(g6
g7
(lp4122
g5
(g6
g7
(lp4123
g5
(g6
g7
(lp4124
Vfinding
p4125
atp4126
Rp4127
(dp4128
g16
VVBG
p4129
sbag5
(g6
g7
(lp4130
g5
(g6
g7
(lp4131
Vthe
p4132
atp4133
Rp4134
(dp4135
g16
VDT
p4136
sbag5
(g6
g7
(lp4137
g5
(g6
g7
(lp4138
Vmost
p4139
atp4140
Rp4141
(dp4142
g16
VRBS
p4143
sbag5
(g6
g7
(lp4144
Vnon-creative
p4145
atp4146
Rp4147
(dp4148
g16
VJJ
p4149
sbatp4150
Rp4151
(dp4152
g16
VADJP
p4153
sbag5
(g6
g7
(lp4154
Vsolution
p4155
atp4156
Rp4157
(dp4158
g16
VNN
p4159
sbatp4160
Rp4161
(dp4162
g16
VNP
p4163
sbag5
(g6
g7
(lp4164
g5
(g6
g7
(lp4165
Vto
p4166
atp4167
Rp4168
(dp4169
g16
VTO
p4170
sbag5
(g6
g7
(lp4171
g5
(g6
g7
(lp4172
Vthe
p4173
atp4174
Rp4175
(dp4176
g16
VDT
p4177
sbag5
(g6
g7
(lp4178
Vproblem
p4179
atp4180
Rp4181
(dp4182
g16
VNN
p4183
sbatp4184
Rp4185
(dp4186
g16
VNP
p4187
sbatp4188
Rp4189
(dp4190
g16
VPP
p4191
sbatp4192
Rp4193
(dp4194
g16
VVP
p4195
sbatp4196
Rp4197
(dp4198
g16
g208
sbatp4199
Rp4200
(dp4201
g16
VPP
p4202
sbatp4203
Rp4204
(dp4205
g16
VVP
p4206
sbatp4207
Rp4208
(dp4209
g16
VNP
p4210
sbatp4211
Rp4212
(dp4213
g16
VPP
p4214
sbatp4215
Rp4216
(dp4217
g16
VVP
p4218
sbatp4219
Rp4220
(dp4221
g16
g208
sbatp4222
Rp4223
(dp4224
g16
VSBAR
p4225
sbatp4226
Rp4227
(dp4228
g16
VVP
p4229
sbatp4230
Rp4231
(dp4232
g16
g208
sbag5
(g6
g7
(lp4233
g336
atp4234
Rp4235
(dp4236
g16
g336
sbatp4237
Rp4238
(dp4239
g16
g208
sbatp4240
Rp4241
(dp4242
g16
VROOT
p4243
sbasg347
(icmyPackage
CorE
p4244
(dp4245
g350
(lp4246
(I0
I18
tp4247
a(I0
I36
tp4248
asg354
g5
(g6
g7
(lp4249
g4220
ag4235
atp4250
Rp4251
(dp4252
g16
g365
sbsbsg355
(icmyPackage
CorE
p4253
(dp4254
g350
(lp4255
(I0
I0
tp4256
a(I0
I15
tp4257
asg354
g5
(g6
g7
(lp4258
g3955
ag3959
ag3964
ag3976
ag3987
ag3994
ag4005
ag4027
atp4259
Rp4260
(dp4261
g16
g365
sbsbsg366
g2427
sg389
(lp4262
(icmyPackage
Sent
p4263
(dp4264
g393
I2
sg394
I16
sg395
S'Creativity was not mentioned in that 1964 memo, but I evidently mentioned it in lectures, because the problem gave rise to an informal competition aimed at finding the most non-creative solution to the problem.'
p4265
sg397
I0
sg398
I33
sg354
(lp4266
g4241
asbasba(icmyPackage
CELink
p4267
(dp4268
g3
(lp4269
g5
(g6
g7
(lp4270
g5
(g6
g7
(lp4271
g5
(g6
g7
(lp4272
g5
(g6
g7
(lp4273
VHe
p4274
atp4275
Rp4276
(dp4277
g16
VPRP
p4278
sbatp4279
Rp4280
(dp4281
g16
VNP
p4282
sbag5
(g6
g7
(lp4283
g5
(g6
g7
(lp4284
Vclaimed
p4285
atp4286
Rp4287
(dp4288
g16
VVBD
p4289
sbag5
(g6
g7
(lp4290
g5
(g6
g7
(lp4291
g5
(g6
g7
(lp4292
g5
(g6
g7
(lp4293
Vit
p4294
atp4295
Rp4296
(dp4297
g16
VPRP
p4298
sbatp4299
Rp4300
(dp4301
g16
VNP
p4302
sbag5
(g6
g7
(lp4303
g5
(g6
g7
(lp4304
Vwas
p4305
atp4306
Rp4307
(dp4308
g16
VVBD
p4309
sbag5
(g6
g7
(lp4310
g5
(g6
g7
(lp4311
Vnon-creative
p4312
atp4313
Rp4314
(dp4315
g16
VJJ
p4316
sbatp4317
Rp4318
(dp4319
g16
VADJP
p4320
sbag5
(g6
g7
(lp4321
g959
atp4322
Rp4323
(dp4324
g16
g959
sbag5
(g6
g7
(lp4325
g5
(g6
g7
(lp4326
Vbecause
p4327
atp4328
Rp4329
(dp4330
g16
VIN
p4331
sbag5
(g6
g7
(lp4332
g5
(g6
g7
(lp4333
g5
(g6
g7
(lp4334
Vit
p4335
atp4336
Rp4337
(dp4338
g16
VPRP
p4339
sbatp4340
Rp4341
(dp4342
g16
VNP
p4343
sbag5
(g6
g7
(lp4344
g5
(g6
g7
(lp4345
Vdid
p4346
atp4347
Rp4348
(dp4349
g16
VVBD
p4350
sbag5
(g6
g7
(lp4351
Vn't
p4352
atp4353
Rp4354
(dp4355
g16
VRB
p4356
sbag5
(g6
g7
(lp4357
g5
(g6
g7
(lp4358
Vinvolve
p4359
atp4360
Rp4361
(dp4362
g16
VVB
p4363
sbag5
(g6
g7
(lp4364
g5
(g6
g7
(lp4365
Vcoloring
p4366
atp4367
Rp4368
(dp4369
g16
VNN
p4370
sbatp4371
Rp4372
(dp4373
g16
VNP
p4374
sbatp4375
Rp4376
(dp4377
g16
VVP
p4378
sbatp4379
Rp4380
(dp4381
g16
VVP
p4382
sbatp4383
Rp4384
(dp4385
g16
g208
sbatp4386
Rp4387
(dp4388
g16
VSBAR
p4389
sbatp4390
Rp4391
(dp4392
g16
VVP
p4393
sbatp4394
Rp4395
(dp4396
g16
g208
sbatp4397
Rp4398
(dp4399
g16
VSBAR
p4400
sbatp4401
Rp4402
(dp4403
g16
VVP
p4404
sbag5
(g6
g7
(lp4405
g336
atp4406
Rp4407
(dp4408
g16
g336
sbatp4409
Rp4410
(dp4411
g16
g208
sbatp4412
Rp4413
(dp4414
g16
VROOT
p4415
sbasg347
(icmyPackage
CorE
p4416
(dp4417
g350
(lp4418
(I0
I7
tp4419
a(I0
I12
tp4420
asg354
g5
(g6
g7
(lp4421
g4384
ag4407
atp4422
Rp4423
(dp4424
g16
g365
sbsbsg355
(icmyPackage
CorE
p4425
(dp4426
g350
(lp4427
(I0
I0
tp4428
a(I0
I4
tp4429
asg354
g5
(g6
g7
(lp4430
g4280
ag4287
ag4300
ag4307
ag4318
atp4431
Rp4432
(dp4433
g16
g365
sbsbsg366
g2427
sg389
(lp4434
(icmyPackage
Sent
p4435
(dp4436
g393
I2
sg394
I17
sg395
S"He claimed it was non-creative, because it didn't involve coloring."
p4437
sg397
I0
sg398
I35
sg354
(lp4438
g4413
asbasba(icmyPackage
CELink
p4439
(dp4440
g3
(lp4441
g5
(g6
g7
(lp4442
g5
(g6
g7
(lp4443
g5
(g6
g7
(lp4444
g5
(g6
g7
(lp4445
VLikewise
p4446
atp4447
Rp4448
(dp4449
g16
VRB
p4450
sbatp4451
Rp4452
(dp4453
g16
VADVP
p4454
sbag5
(g6
g7
(lp4455
g5
(g6
g7
(lp4456
g5
(g6
g7
(lp4457
Vthe
p4458
atp4459
Rp4460
(dp4461
g16
VDT
p4462
sbag5
(g6
g7
(lp4463
Vnumber
p4464
atp4465
Rp4466
(dp4467
g16
VNN
p4468
sbatp4469
Rp4470
(dp4471
g16
VNP
p4472
sbag5
(g6
g7
(lp4473
g5
(g6
g7
(lp4474
Vfrom
p4475
atp4476
Rp4477
(dp4478
g16
VIN
p4479
sbag5
(g6
g7
(lp4480
g5
(g6
g7
(lp4481
g5
(g6
g7
(lp4482
Vthe
p4483
atp4484
Rp4485
(dp4486
g16
VDT
p4487
sbag5
(g6
g7
(lp4488
Vsecond
p4489
atp4490
Rp4491
(dp4492
g16
VNN
p4493
sbatp4494
Rp4495
(dp4496
g16
VNP
p4497
sbag5
(g6
g7
(lp4498
g5
(g6
g7
(lp4499
Vto
p4500
atp4501
Rp4502
(dp4503
g16
VTO
p4504
sbag5
(g6
g7
(lp4505
g5
(g6
g7
(lp4506
Vthe
p4507
atp4508
Rp4509
(dp4510
g16
VDT
p4511
sbag5
(g6
g7
(lp4512
Vthird
p4513
atp4514
Rp4515
(dp4516
g16
VJJ
p4517
sbatp4518
Rp4519
(dp4520
g16
VNP
p4521
sbatp4522
Rp4523
(dp4524
g16
VPP
p4525
sbatp4526
Rp4527
(dp4528
g16
VNP
p4529
sbatp4530
Rp4531
(dp4532
g16
VPP
p4533
sbatp4534
Rp4535
(dp4536
g16
VNP
p4537
sbag5
(g6
g7
(lp4538
g5
(g6
g7
(lp4539
Vis
p4540
atp4541
Rp4542
(dp4543
g16
VVBZ
p4544
sbag5
(g6
g7
(lp4545
g5
(g6
g7
(lp4546
Vodd
p4547
atp4548
Rp4549
(dp4550
g16
VJJ
p4551
sbatp4552
Rp4553
(dp4554
g16
VADJP
p4555
sbag5
(g6
g7
(lp4556
g959
atp4557
Rp4558
(dp4559
g16
g959
sbag5
(g6
g7
(lp4560
g5
(g6
g7
(lp4561
Vetc.
p4562
atp4563
Rp4564
(dp4565
g16
VUH
p4566
sbatp4567
Rp4568
(dp4569
g16
VINTJ
p4570
sbatp4571
Rp4572
(dp4573
g16
VVP
p4574
sbag5
(g6
g7
(lp4575
g336
atp4576
Rp4577
(dp4578
g16
g336
sbatp4579
Rp4580
(dp4581
g16
g208
sbatp4582
Rp4583
(dp4584
g16
VROOT
p4585
sbag5
(g6
g7
(lp4586
g5
(g6
g7
(lp4587
g5
(g6
g7
(lp4588
g5
(g6
g7
(lp4589
VTherefore
p4590
atp4591
Rp4592
(dp4593
g16
VRB
p4594
sbatp4595
Rp4596
(dp4597
g16
VADVP
p4598
sbag5
(g6
g7
(lp4599
g959
atp4600
Rp4601
(dp4602
g16
g959
sbag5
(g6
g7
(lp4603
g5
(g6
g7
(lp4604
g5
(g6
g7
(lp4605
Vthe
p4606
atp4607
Rp4608
(dp4609
g16
VDT
p4610
sbag5
(g6
g7
(lp4611
Vtotal
p4612
atp4613
Rp4614
(dp4615
g16
VJJ
p4616
sbag5
(g6
g7
(lp4617
Vnumber
p4618
atp4619
Rp4620
(dp4621
g16
VNN
p4622
sbatp4623
Rp4624
(dp4625
g16
VNP
p4626
sbag5
(g6
g7
(lp4627
g5
(g6
g7
(lp4628
Vof
p4629
atp4630
Rp4631
(dp4632
g16
VIN
p4633
sbag5
(g6
g7
(lp4634
g5
(g6
g7
(lp4635
Vvertical
p4636
atp4637
Rp4638
(dp4639
g16
VJJ
p4640
sbag5
(g6
g7
(lp4641
Vdominoes
p4642
atp4643
Rp4644
(dp4645
g16
VNNS
p4646
sbatp4647
Rp4648
(dp4649
g16
VNP
p4650
sbatp4651
Rp4652
(dp4653
g16
VPP
p4654
sbatp4655
Rp4656
(dp4657
g16
VNP
p4658
sbag5
(g6
g7
(lp4659
g5
(g6
g7
(lp4660
Vis
p4661
atp4662
Rp4663
(dp4664
g16
VVBZ
p4665
sbag5
(g6
g7
(lp4666
g5
(g6
g7
(lp4667
g5
(g6
g7
(lp4668
Vthe
p4669
atp4670
Rp4671
(dp4672
g16
VDT
p4673
sbag5
(g6
g7
(lp4674
Vsum
p4675
atp4676
Rp4677
(dp4678
g16
VNN
p4679
sbatp4680
Rp4681
(dp4682
g16
VNP
p4683
sbag5
(g6
g7
(lp4684
g5
(g6
g7
(lp4685
Vof
p4686
atp4687
Rp4688
(dp4689
g16
VIN
p4690
sbag5
(g6
g7
(lp4691
g5
(g6
g7
(lp4692
g5
(g6
g7
(lp4693
Vseven
p4694
atp4695
Rp4696
(dp4697
g16
VCD
p4698
sbag5
(g6
g7
(lp4699
Vodd
p4700
atp4701
Rp4702
(dp4703
g16
VJJ
p4704
sbag5
(g6
g7
(lp4705
Vnumbers
p4706
atp4707
Rp4708
(dp4709
g16
VNNS
p4710
sbatp4711
Rp4712
(dp4713
g16
VNP
p4714
sbag5
(g6
g7
(lp4715
Vand
p4716
atp4717
Rp4718
(dp4719
g16
VCC
p4720
sbag5
(g6
g7
(lp4721
g5
(g6
g7
(lp4722
Vhence
p4723
atp4724
Rp4725
(dp4726
g16
VRB
p4727
sbag5
(g6
g7
(lp4728
Vodd
p4729
atp4730
Rp4731
(dp4732
g16
VJJ
p4733
sbatp4734
Rp4735
(dp4736
g16
VNP
p4737
sbatp4738
Rp4739
(dp4740
g16
VNP
p4741
sbatp4742
Rp4743
(dp4744
g16
VPP
p4745
sbatp4746
Rp4747
(dp4748
g16
VNP
p4749
sbatp4750
Rp4751
(dp4752
g16
VVP
p4753
sbag5
(g6
g7
(lp4754
g336
atp4755
Rp4756
(dp4757
g16
g336
sbatp4758
Rp4759
(dp4760
g16
g208
sbatp4761
Rp4762
(dp4763
g16
VROOT
p4764
sbasg347
(icmyPackage
CorE
p4765
(dp4766
g350
(lp4767
(I0
I0
tp4768
a(I0
I12
tp4769
asg354
g5
(g6
g7
(lp4770
g4452
ag4535
ag4572
atp4771
Rp4772
(dp4773
g16
g365
sbsbsg355
(icmyPackage
CorE
p4774
(dp4775
g350
(lp4776
(I1
I2
tp4777
a(I1
I18
tp4778
asg354
g5
(g6
g7
(lp4779
g4656
ag4751
ag4756
atp4780
Rp4781
(dp4782
g16
g365
sbsbsg366
g1142
sg389
(lp4783
(icmyPackage
Sent
p4784
(dp4785
g393
I2
sg394
I18
sg395
S'Likewise the number from the second to the third is odd, etc.'
p4786
sg397
I0
sg398
I38
sg354
(lp4787
g4583
asba(icmyPackage
Sent
p4788
(dp4789
g393
I2
sg394
I18
sg395
S'Therefore, the total number of vertical dominoes is the sum of seven odd numbers and hence odd.'
p4790
sg397
I0
sg398
I39
sg354
(lp4791
g4762
asbasba(icmyPackage
CELink
p4792
(dp4793
g3
(lp4794
g5
(g6
g7
(lp4795
g5
(g6
g7
(lp4796
g5
(g6
g7
(lp4797
g5
(g6
g7
(lp4798
g5
(g6
g7
(lp4799
VOdd
p4800
atp4801
Rp4802
(dp4803
g16
VNNP
p4804
sbag5
(g6
g7
(lp4805
V+
p4806
atp4807
Rp4808
(dp4809
g16
VNNP
p4810
sbag5
(g6
g7
(lp4811
Vodd
p4812
atp4813
Rp4814
(dp4815
g16
VNNP
p4816
sbatp4817
Rp4818
(dp4819
g16
VNP
p4820
sbag5
(g6
g7
(lp4821
g5
(g6
g7
(lp4822
Vis
p4823
atp4824
Rp4825
(dp4826
g16
VVBZ
p4827
sbag5
(g6
g7
(lp4828
g5
(g6
g7
(lp4829
Veven
p4830
atp4831
Rp4832
(dp4833
g16
VRB
p4834
sbag5
(g6
g7
(lp4835
Vso
p4836
atp4837
Rp4838
(dp4839
g16
VIN
p4840
sbag5
(g6
g7
(lp4841
g5
(g6
g7
(lp4842
g5
(g6
g7
(lp4843
Vthe
p4844
atp4845
Rp4846
(dp4847
g16
VDT
p4848
sbag5
(g6
g7
(lp4849
Vtotal
p4850
atp4851
Rp4852
(dp4853
g16
VNN
p4854
sbatp4855
Rp4856
(dp4857
g16
VNP
p4858
sbag5
(g6
g7
(lp4859
g5
(g6
g7
(lp4860
Vis
p4861
atp4862
Rp4863
(dp4864
g16
VVBZ
p4865
sbag5
(g6
g7
(lp4866
g5
(g6
g7
(lp4867
Veven
p4868
atp4869
Rp4870
(dp4871
g16
VRB
p4872
sbatp4873
Rp4874
(dp4875
g16
VADVP
p4876
sbatp4877
Rp4878
(dp4879
g16
VVP
p4880
sbatp4881
Rp4882
(dp4883
g16
g208
sbatp4884
Rp4885
(dp4886
g16
VSBAR
p4887
sbatp4888
Rp4889
(dp4890
g16
VVP
p4891
sbatp4892
Rp4893
(dp4894
g16
g208
sbag5
(g6
g7
(lp4895
g959
atp4896
Rp4897
(dp4898
g16
g959
sbag5
(g6
g7
(lp4899
Vbut
p4900
atp4901
Rp4902
(dp4903
g16
VCC
p4904
sbag5
(g6
g7
(lp4905
g5
(g6
g7
(lp4906
g5
(g6
g7
(lp4907
Vthe
p4908
atp4909
Rp4910
(dp4911
g16
VDT
p4912
sbag5
(g6
g7
(lp4913
Vtotal
p4914
atp4915
Rp4916
(dp4917
g16
VNN
p4918
sbatp4919
Rp4920
(dp4921
g16
VNP
p4922
sbag5
(g6
g7
(lp4923
g5
(g6
g7
(lp4924
Vis
p4925
atp4926
Rp4927
(dp4928
g16
VVBZ
p4929
sbag5
(g6
g7
(lp4930
g5
(g6
g7
(lp4931
V31
p4932
atp4933
Rp4934
(dp4935
g16
VCD
p4936
sbatp4937
Rp4938
(dp4939
g16
VNP
p4940
sbatp4941
Rp4942
(dp4943
g16
VVP
p4944
sbatp4945
Rp4946
(dp4947
g16
g208
sbag5
(g6
g7
(lp4948
g336
atp4949
Rp4950
(dp4951
g16
g336
sbatp4952
Rp4953
(dp4954
g16
g208
sbatp4955
Rp4956
(dp4957
g16
VROOT
p4958
sbasg347
(icmyPackage
CorE
p4959
(dp4960
g350
(lp4961
(I0
I0
tp4962
a(I0
I4
tp4963
asg354
g5
(g6
g7
(lp4964
g4818
ag4825
ag4832
atp4965
Rp4966
(dp4967
g16
g365
sbsbsg355
(icmyPackage
CorE
p4968
(dp4969
g350
(lp4970
(I0
I6
tp4971
a(I0
I16
tp4972
asg354
g5
(g6
g7
(lp4973
g4882
ag4897
ag4902
ag4946
ag4950
atp4974
Rp4975
(dp4976
g16
g365
sbsbsg366
(icmyPackage
pattern
p4977
(dp4978
g369
I265
sg370
I1
sg371
(lp4979
(lp4980
S'so'
p4981
aasg377
(lp4982
I1
aI1
aI1
asg379
(lp4983
S'It was not long before he saw me looking at him, and so he began to move.'
p4984
asg382
I0
sg383
(lp4985
(lp4986
S'&C'
p4987
aS'(,/;/./--)'
p4988
aS'(&AND)'
p4989
aa(lp4990
S'(-far)'
p4991
aS'(,)'
p4992
aS'&R'
p4993
aasbsg389
(lp4994
(icmyPackage
Sent
p4995
(dp4996
g393
I2
sg394
I18
sg395
S'Odd + odd is even so the total is even, but the total is 31.'
p4997
sg397
I0
sg398
I41
sg354
(lp4998
g4956
asbasba(icmyPackage
CELink
p4999
(dp5000
g3
(lp5001
g5
(g6
g7
(lp5002
g5
(g6
g7
(lp5003
g5
(g6
g7
(lp5004
g5
(g6
g7
(lp5005
g5
(g6
g7
(lp5006
VSubtracting
p5007
atp5008
Rp5009
(dp5010
g16
VVBG
p5011
sbatp5012
Rp5013
(dp5014
g16
VVP
p5015
sbatp5016
Rp5017
(dp5018
g16
g208
sbag5
(g6
g7
(lp5019
g959
atp5020
Rp5021
(dp5022
g16
g959
sbag5
(g6
g7
(lp5023
g5
(g6
g7
(lp5024
Vone
p5025
atp5026
Rp5027
(dp5028
g16
VCD
p5029
sbag5
(g6
g7
(lp5030
Vdomino
p5031
atp5032
Rp5033
(dp5034
g16
VNN
p5035
sbatp5036
Rp5037
(dp5038
g16
VNP
p5039
sbag5
(g6
g7
(lp5040
g5
(g6
g7
(lp5041
Vprojects
p5042
atp5043
Rp5044
(dp5045
g16
VVBZ
p5046
sbag5
(g6
g7
(lp5047
g5
(g6
g7
(lp5048
Vfrom
p5049
atp5050
Rp5051
(dp5052
g16
VIN
p5053
sbag5
(g6
g7
(lp5054
g5
(g6
g7
(lp5055
Vthe
p5056
atp5057
Rp5058
(dp5059
g16
VDT
p5060
sbag5
(g6
g7
(lp5061
V3-diagonal
p5062
atp5063
Rp5064
(dp5065
g16
VJJ
p5066
sbatp5067
Rp5068
(dp5069
g16
VNP
p5070
sbatp5071
Rp5072
(dp5073
g16
VPP
p5074
sbag5
(g6
g7
(lp5075
g5
(g6
g7
(lp5076
Vto
p5077
atp5078
Rp5079
(dp5080
g16
VTO
p5081
sbag5
(g6
g7
(lp5082
g5
(g6
g7
(lp5083
Vthe
p5084
atp5085
Rp5086
(dp5087
g16
VDT
p5088
sbag5
(g6
g7
(lp5089
V4-diagonal
p5090
atp5091
Rp5092
(dp5093
g16
VJJ
p5094
sbatp5095
Rp5096
(dp5097
g16
VNP
p5098
sbatp5099
Rp5100
(dp5101
g16
VPP
p5102
sbatp5103
Rp5104
(dp5105
g16
VVP
p5106
sbag5
(g6
g7
(lp5107
g336
atp5108
Rp5109
(dp5110
g16
g336
sbatp5111
Rp5112
(dp5113
g16
g208
sbatp5114
Rp5115
(dp5116
g16
VROOT
p5117
sbasg347
(icmyPackage
CorE
p5118
(dp5119
g350
(lp5120
(I0
I0
tp5121
ag5121
asg354
g5017
sbsg355
(icmyPackage
CorE
p5122
(dp5123
g350
(lp5124
(I0
I2
tp5125
a(I0
I11
tp5126
asg354
g5
(g6
g7
(lp5127
g5037
ag5104
ag5109
atp5128
Rp5129
(dp5130
g16
g365
sbsbsg366
(icmyPackage
pattern
p5131
(dp5132
g369
I30
sg370
I0
sg371
(lp5133
sg377
(lp5134
I3
aI2
aI1
asg379
(lp5135
S'Being over here we tend to be a bit isolated.'
p5136
aS'Not being sure of the word, he turned it up in the dictionary.'
p5137
asg382
I81
sg383
(lp5138
(lp5139
S'&V-ing@C@'
p5140
aS'(,)'
p5141
aS'&R@Complete@'
p5142
aasbsg389
(lp5143
(icmyPackage
Sent
p5144
(dp5145
g393
I2
sg394
I21
sg395
S'Subtracting, one domino projects from the 3-diagonal to the 4-diagonal.'
p5146
sg397
I0
sg398
I50
sg354
(lp5147
g5115
asbasba(icmyPackage
CELink
p5148
(dp5149
g3
(lp5150
g5
(g6
g7
(lp5151
g5
(g6
g7
(lp5152
g5
(g6
g7
(lp5153
g5
(g6
g7
(lp5154
g5
(g6
g7
(lp5155
VMinsky
p5156
atp5157
Rp5158
(dp5159
g16
VNNP
p5160
sbag5
(g6
g7
(lp5161
V's
p5162
atp5163
Rp5164
(dp5165
g16
VPOS
p5166
sbatp5167
Rp5168
(dp5169
g16
VNP
p5170
sbag5
(g6
g7
(lp5171
Vproof
p5172
atp5173
Rp5174
(dp5175
g16
VNN
p5176
sbatp5177
Rp5178
(dp5179
g16
VNP
p5180
sbag5
(g6
g7
(lp5181
g5
(g6
g7
(lp5182
Vgets
p5183
atp5184
Rp5185
(dp5186
g16
VVBZ
p5187
sbag5
(g6
g7
(lp5188
g5
(g6
g7
(lp5189
g5
(g6
g7
(lp5190
Vhigh
p5191
atp5192
Rp5193
(dp5194
g16
VJJ
p5195
sbag5
(g6
g7
(lp5196
Vpoints
p5197
atp5198
Rp5199
(dp5200
g16
VNNS
p5201
sbatp5202
Rp5203
(dp5204
g16
VNP
p5205
sbag5
(g6
g7
(lp5206
g5
(g6
g7
(lp5207
Vfor
p5208
atp5209
Rp5210
(dp5211
g16
VIN
p5212
sbag5
(g6
g7
(lp5213
g5
(g6
g7
(lp5214
Vnon-creativity
p5215
atp5216
Rp5217
(dp5218
g16
VNN
p5219
sbatp5220
Rp5221
(dp5222
g16
VNP
p5223
sbatp5224
Rp5225
(dp5226
g16
VPP
p5227
sbatp5228
Rp5229
(dp5230
g16
VNP
p5231
sbag5
(g6
g7
(lp5232
g959
atp5233
Rp5234
(dp5235
g16
g959
sbag5
(g6
g7
(lp5236
g5
(g6
g7
(lp5237
Vbecause
p5238
atp5239
Rp5240
(dp5241
g16
VIN
p5242
sbag5
(g6
g7
(lp5243
g5
(g6
g7
(lp5244
g5
(g6
g7
(lp5245
Vit
p5246
atp5247
Rp5248
(dp5249
g16
VPRP
p5250
sbatp5251
Rp5252
(dp5253
g16
VNP
p5254
sbag5
(g6
g7
(lp5255
g5
(g6
g7
(lp5256
Vis
p5257
atp5258
Rp5259
(dp5260
g16
VVBZ
p5261
sbag5
(g6
g7
(lp5262
g5
(g6
g7
(lp5263
Vspecific
p5264
atp5265
Rp5266
(dp5267
g16
VJJ
p5268
sbag5
(g6
g7
(lp5269
g5
(g6
g7
(lp5270
Vto
p5271
atp5272
Rp5273
(dp5274
g16
VTO
p5275
sbag5
(g6
g7
(lp5276
g5
(g6
g7
(lp5277
Vthe
p5278
atp5279
Rp5280
(dp5281
g16
VDT
p5282
sbag5
(g6
g7
(lp5283
g2718
atp5284
Rp5285
(dp5286
g16
VCD
p5287
sbatp5288
Rp5289
(dp5290
g16
VNP
p5291
sbatp5292
Rp5293
(dp5294
g16
VPP
p5295
sbatp5296
Rp5297
(dp5298
g16
VADJP
p5299
sbag5
(g6
g7
(lp5300
g5
(g6
g7
(lp5301
Vby
p5302
atp5303
Rp5304
(dp5305
g16
VIN
p5306
sbag5
(g6
g7
(lp5307
g5
(g6
g7
(lp5308
g2718
atp5309
Rp5310
(dp5311
g16
VCD
p5312
sbag5
(g6
g7
(lp5313
Vboard
p5314
atp5315
Rp5316
(dp5317
g16
VNN
p5318
sbatp5319
Rp5320
(dp5321
g16
VNP
p5322
sbatp5323
Rp5324
(dp5325
g16
VPP
p5326
sbatp5327
Rp5328
(dp5329
g16
VVP
p5330
sbatp5331
Rp5332
(dp5333
g16
g208
sbatp5334
Rp5335
(dp5336
g16
VSBAR
p5337
sbatp5338
Rp5339
(dp5340
g16
VVP
p5341
sbag5
(g6
g7
(lp5342
g336
atp5343
Rp5344
(dp5345
g16
g336
sbatp5346
Rp5347
(dp5348
g16
g208
sbatp5349
Rp5350
(dp5351
g16
VROOT
p5352
sbasg347
(icmyPackage
CorE
p5353
(dp5354
g350
(lp5355
(I0
I10
tp5356
a(I0
I19
tp5357
asg354
g5
(g6
g7
(lp5358
g5332
ag5344
atp5359
Rp5360
(dp5361
g16
g365
sbsbsg355
(icmyPackage
CorE
p5362
(dp5363
g350
(lp5364
(I0
I0
tp5365
a(I0
I7
tp5366
asg354
g5
(g6
g7
(lp5367
g5178
ag5185
ag5229
atp5368
Rp5369
(dp5370
g16
g365
sbsbsg366
g2427
sg389
(lp5371
(icmyPackage
Sent
p5372
(dp5373
g393
I2
sg394
I21
sg395
S"Minsky's proof gets high points for non-creativity, because it is specific to the 8 by 8 board."
p5374
sg397
I0
sg398
I54
sg354
(lp5375
g5350
asbasba(icmyPackage
CELink
p5376
(dp5377
g3
(lp5378
g5
(g6
g7
(lp5379
g5
(g6
g7
(lp5380
g5
(g6
g7
(lp5381
g5
(g6
g7
(lp5382
VWe
p5383
atp5384
Rp5385
(dp5386
g16
VPRP
p5387
sbatp5388
Rp5389
(dp5390
g16
VNP
p5391
sbag5
(g6
g7
(lp5392
g5
(g6
g7
(lp5393
Vget
p5394
atp5395
Rp5396
(dp5397
g16
VVBP
p5398
sbag5
(g6
g7
(lp5399
g5
(g6
g7
(lp5400
g58
atp5401
Rp5402
(dp5403
g16
VDT
p5404
sbag5
(g6
g7
(lp5405
Vproof
p5406
atp5407
Rp5408
(dp5409
g16
VNN
p5410
sbatp5411
Rp5412
(dp5413
g16
VNP
p5414
sbag5
(g6
g7
(lp5415
g5
(g6
g7
(lp5416
Vif
p5417
atp5418
Rp5419
(dp5420
g16
VIN
p5421
sbag5
(g6
g7
(lp5422
g5
(g6
g7
(lp5423
g5
(g6
g7
(lp5424
Vthere
p5425
atp5426
Rp5427
(dp5428
g16
VEX
p5429
sbatp5430
Rp5431
(dp5432
g16
VNP
p5433
sbag5
(g6
g7
(lp5434
g5
(g6
g7
(lp5435
Vare
p5436
atp5437
Rp5438
(dp5439
g16
VVBP
p5440
sbag5
(g6
g7
(lp5441
g5
(g6
g7
(lp5442
Vnot
p5443
atp5444
Rp5445
(dp5446
g16
VRB
p5447
sbag5
(g6
g7
(lp5448
Venough
p5449
atp5450
Rp5451
(dp5452
g16
VRB
p5453
sbag5
(g6
g7
(lp5454
g5
(g6
g7
(lp5455
g5
(g6
g7
(lp5456
Vdominoes
p5457
atp5458
Rp5459
(dp5460
g16
VNNS
p5461
sbatp5462
Rp5463
(dp5464
g16
VNP
p5465
sbag5
(g6
g7
(lp5466
g5
(g6
g7
(lp5467
Vprojecting
p5468
atp5469
Rp5470
(dp5471
g16
VVBG
p5472
sbag5
(g6
g7
(lp5473
g5
(g6
g7
(lp5474
Vfrom
p5475
atp5476
Rp5477
(dp5478
g16
VIN
p5479
sbag5
(g6
g7
(lp5480
g5
(g6
g7
(lp5481
Vthe
p5482
atp5483
Rp5484
(dp5485
g16
VDT
p5486
sbag5
(g6
g7
(lp5487
Vn
p5488
atp5489
Rp5490
(dp5491
g16
VNN
p5492
sbatp5493
Rp5494
(dp5495
g16
VNP
p5496
sbatp5497
Rp5498
(dp5499
g16
VPP
p5500
sbatp5501
Rp5502
(dp5503
g16
VVP
p5504
sbatp5505
Rp5506
(dp5507
g16
VNP
p5508
sbag5
(g6
g7
(lp5509
V-
p5510
atp5511
Rp5512
(dp5513
g16
g2326
sbag5
(g6
g7
(lp5514
g5
(g6
g7
(lp5515
g5
(g6
g7
(lp5516
V1
p5517
atp5518
Rp5519
(dp5520
g16
VCD
p5521
sbag5
(g6
g7
(lp5522
Vsquares
p5523
atp5524
Rp5525
(dp5526
g16
VNNS
p5527
sbatp5528
Rp5529
(dp5530
g16
VNP
p5531
sbag5
(g6
g7
(lp5532
g5
(g6
g7
(lp5533
Vto
p5534
atp5535
Rp5536
(dp5537
g16
VTO
p5538
sbag5
(g6
g7
(lp5539
g5
(g6
g7
(lp5540
Vthe
p5541
atp5542
Rp5543
(dp5544
g16
VDT
p5545
sbag5
(g6
g7
(lp5546
Vn-squares
p5547
atp5548
Rp5549
(dp5550
g16
VNNS
p5551
sbatp5552
Rp5553
(dp5554
g16
VNP
p5555
sbatp5556
Rp5557
(dp5558
g16
VPP
p5559
sbatp5560
Rp5561
(dp5562
g16
VNP
p5563
sbatp5564
Rp5565
(dp5566
g16
VNP
p5567
sbatp5568
Rp5569
(dp5570
g16
VVP
p5571
sbatp5572
Rp5573
(dp5574
g16
g208
sbatp5575
Rp5576
(dp5577
g16
VSBAR
p5578
sbatp5579
Rp5580
(dp5581
g16
VVP
p5582
sbag5
(g6
g7
(lp5583
g336
atp5584
Rp5585
(dp5586
g16
g336
sbatp5587
Rp5588
(dp5589
g16
g208
sbatp5590
Rp5591
(dp5592
g16
VROOT
p5593
sbasg347
(icmyPackage
CorE
p5594
(dp5595
g350
(lp5596
(I0
I5
tp5597
a(I0
I20
tp5598
asg354
g5
(g6
g7
(lp5599
g5573
ag5585
atp5600
Rp5601
(dp5602
g16
g365
sbsbsg355
(icmyPackage
CorE
p5603
(dp5604
g350
(lp5605
(I0
I0
tp5606
a(I0
I3
tp5607
asg354
g5
(g6
g7
(lp5608
g5389
ag5396
ag5412
atp5609
Rp5610
(dp5611
g16
g365
sbsbsg366
g689
sg389
(lp5612
(icmyPackage
Sent
p5613
(dp5614
g393
I2
sg394
I23
sg395
S'We get a proof if there are not enough dominoes projecting from the n - 1 squares to the n-squares.'
p5615
sg397
I0
sg398
I60
sg354
(lp5616
g5591
asbasba(icmyPackage
CELink
p5617
(dp5618
g3
(lp5619
g5
(g6
g7
(lp5620
g5
(g6
g7
(lp5621
g5
(g6
g7
(lp5622
g5
(g6
g7
(lp5623
VHowever
p5624
atp5625
Rp5626
(dp5627
g16
VRB
p5628
sbatp5629
Rp5630
(dp5631
g16
VADVP
p5632
sbag5
(g6
g7
(lp5633
g959
atp5634
Rp5635
(dp5636
g16
g959
sbag5
(g6
g7
(lp5637
g5
(g6
g7
(lp5638
Vthis
p5639
atp5640
Rp5641
(dp5642
g16
VDT
p5643
sbag5
(g6
g7
(lp5644
Vargument
p5645
atp5646
Rp5647
(dp5648
g16
VNN
p5649
sbatp5650
Rp5651
(dp5652
g16
VNP
p5653
sbag5
(g6
g7
(lp5654
g5
(g6
g7
(lp5655
g5
(g6
g7
(lp5656
Vis
p5657
atp5658
Rp5659
(dp5660
g16
VVBZ
p5661
sbag5
(g6
g7
(lp5662
g5
(g6
g7
(lp5663
Vat
p5664
atp5665
Rp5666
(dp5667
g16
VIN
p5668
sbag5
(g6
g7
(lp5669
g5
(g6
g7
(lp5670
g5
(g6
g7
(lp5671
g58
atp5672
Rp5673
(dp5674
g16
VDT
p5675
sbag5
(g6
g7
(lp5676
Vmeta-level
p5677
atp5678
Rp5679
(dp5680
g16
VNN
p5681
sbatp5682
Rp5683
(dp5684
g16
VNP
p5685
sbag5
(g6
g7
(lp5686
g5
(g6
g7
(lp5687
Vto
p5688
atp5689
Rp5690
(dp5691
g16
VTO
p5692
sbag5
(g6
g7
(lp5693
g5
(g6
g7
(lp5694
Vthe
p5695
atp5696
Rp5697
(dp5698
g16
VDT
p5699
sbag5
(g6
g7
(lp5700
VMinsky
p5701
atp5702
Rp5703
(dp5704
g16
VNNP
p5705
sbag5
(g6
g7
(lp5706
Vand
p5707
atp5708
Rp5709
(dp5710
g16
VCC
p5711
sbag5
(g6
g7
(lp5712
VStefanuk
p5713
atp5714
Rp5715
(dp5716
g16
VNNP
p5717
sbag5
(g6
g7
(lp5718
Vproofs
p5719
atp5720
Rp5721
(dp5722
g16
VNNS
p5723
sbatp5724
Rp5725
(dp5726
g16
VNP
p5727
sbatp5728
Rp5729
(dp5730
g16
VPP
p5731
sbatp5732
Rp5733
(dp5734
g16
VNP
p5735
sbatp5736
Rp5737
(dp5738
g16
VPP
p5739
sbatp5740
Rp5741
(dp5742
g16
VVP
p5743
sbag5
(g6
g7
(lp5744
Vand
p5745
atp5746
Rp5747
(dp5748
g16
VCC
p5749
sbag5
(g6
g7
(lp5750
g5
(g6
g7
(lp5751
g5
(g6
g7
(lp5752
Vtherefore
p5753
atp5754
Rp5755
(dp5756
g16
VRB
p5757
sbatp5758
Rp5759
(dp5760
g16
VADVP
p5761
sbag5
(g6
g7
(lp5762
Vca
p5763
atp5764
Rp5765
(dp5766
g16
VMD
p5767
sbag5
(g6
g7
(lp5768
Vn't
p5769
atp5770
Rp5771
(dp5772
g16
VRB
p5773
sbag5
(g6
g7
(lp5774
g5
(g6
g7
(lp5775
Vclaim
p5776
atp5777
Rp5778
(dp5779
g16
VVB
p5780
sbag5
(g6
g7
(lp5781
g5
(g6
g7
(lp5782
g5
(g6
g7
(lp5783
Vto
p5784
atp5785
Rp5786
(dp5787
g16
VTO
p5788
sbag5
(g6
g7
(lp5789
g5
(g6
g7
(lp5790
Vbe
p5791
atp5792
Rp5793
(dp5794
g16
VVB
p5795
sbag5
(g6
g7
(lp5796
g5
(g6
g7
(lp5797
Vnon-creative
p5798
atp5799
Rp5800
(dp5801
g16
VJJ
p5802
sbatp5803
Rp5804
(dp5805
g16
VADJP
p5806
sbatp5807
Rp5808
(dp5809
g16
VVP
p5810
sbatp5811
Rp5812
(dp5813
g16
VVP
p5814
sbatp5815
Rp5816
(dp5817
g16
g208
sbatp5818
Rp5819
(dp5820
g16
VVP
p5821
sbatp5822
Rp5823
(dp5824
g16
VVP
p5825
sbatp5826
Rp5827
(dp5828
g16
VVP
p5829
sbag5
(g6
g7
(lp5830
g336
atp5831
Rp5832
(dp5833
g16
g336
sbatp5834
Rp5835
(dp5836
g16
g208
sbatp5837
Rp5838
(dp5839
g16
VROOT
p5840
sbasg347
(icmyPackage
CorE
p5841
(dp5842
g350
(lp5843
(I0
I0
tp5844
a(I0
I13
tp5845
asg354
g5
(g6
g7
(lp5846
g5630
ag5635
ag5651
ag5741
atp5847
Rp5848
(dp5849
g16
g365
sbsbsg355
(icmyPackage
CorE
p5850
(dp5851
g350
(lp5852
(I0
I16
tp5853
a(I0
I22
tp5854
asg354
g5
(g6
g7
(lp5855
g5765
ag5771
ag5819
ag5832
atp5856
Rp5857
(dp5858
g16
g365
sbsbsg366
g1142
sg389
(lp5859
(icmyPackage
Sent
p5860
(dp5861
g393
I2
sg394
I24
sg395
S"However, this argument is at a meta-level to the Minsky and Stefanuk proofs and therefore can't claim to be non-creative."
p5862
sg397
I0
sg398
I65
sg354
(lp5863
g5838
asbasba(icmyPackage
CELink
p5864
(dp5865
g3
(lp5866
g5
(g6
g7
(lp5867
g5
(g6
g7
(lp5868
g5
(g6
g7
(lp5869
g5
(g6
g7
(lp5870
g5
(g6
g7
(lp5871
VThe
p5872
atp5873
Rp5874
(dp5875
g16
VDT
p5876
sbag5
(g6
g7
(lp5877
Vpropositional
p5878
atp5879
Rp5880
(dp5881
g16
VJJ
p5882
sbag5
(g6
g7
(lp5883
Vsatisfaction
p5884
atp5885
Rp5886
(dp5887
g16
VNN
p5888
sbag5
(g6
g7
(lp5889
Vproofs
p5890
atp5891
Rp5892
(dp5893
g16
VNNS
p5894
sbatp5895
Rp5896
(dp5897
g16
VNP
p5898
sbag5
(g6
g7
(lp5899
g5
(g6
g7
(lp5900
Vare
p5901
atp5902
Rp5903
(dp5904
g16
VVBP
p5905
sbag5
(g6
g7
(lp5906
g5
(g6
g7
(lp5907
Vgenuinely
p5908
atp5909
Rp5910
(dp5911
g16
VRB
p5912
sbag5
(g6
g7
(lp5913
Vnon-creative
p5914
atp5915
Rp5916
(dp5917
g16
VJJ
p5918
sbatp5919
Rp5920
(dp5921
g16
VADJP
p5922
sbatp5923
Rp5924
(dp5925
g16
VVP
p5926
sbatp5927
Rp5928
(dp5929
g16
VFRAG
p5930
sbag5
(g6
g7
(lp5931
g959
atp5932
Rp5933
(dp5934
g16
g959
sbag5
(g6
g7
(lp5935
Vand
p5936
atp5937
Rp5938
(dp5939
g16
VCC
p5940
sbag5
(g6
g7
(lp5941
g5
(g6
g7
(lp5942
Vbut
p5943
atp5944
Rp5945
(dp5946
g16
VCC
p5947
sbag5
(g6
g7
(lp5948
g5
(g6
g7
(lp5949
Vbecause
p5950
atp5951
Rp5952
(dp5953
g16
VIN
p5954
sbag5
(g6
g7
(lp5955
g5
(g6
g7
(lp5956
g5
(g6
g7
(lp5957
Vthey
p5958
atp5959
Rp5960
(dp5961
g16
VPRP
p5962
sbatp5963
Rp5964
(dp5965
g16
VNP
p5966
sbag5
(g6
g7
(lp5967
g5
(g6
g7
(lp5968
Vcome
p5969
atp5970
Rp5971
(dp5972
g16
VVBP
p5973
sbag5
(g6
g7
(lp5974
g5
(g6
g7
(lp5975
Vfrom
p5976
atp5977
Rp5978
(dp5979
g16
VIN
p5980
sbag5
(g6
g7
(lp5981
g5
(g6
g7
(lp5982
Vcomputer
p5983
atp5984
Rp5985
(dp5986
g16
VNN
p5987
sbag5
(g6
g7
(lp5988
Vprograms
p5989
atp5990
Rp5991
(dp5992
g16
VNNS
p5993
sbatp5994
Rp5995
(dp5996
g16
VNP
p5997
sbatp5998
Rp5999
(dp6000
g16
VPP
p6001
sbatp6002
Rp6003
(dp6004
g16
VVP
p6005
sbatp6006
Rp6007
(dp6008
g16
g208
sbatp6009
Rp6010
(dp6011
g16
VSBAR
p6012
sbag5
(g6
g7
(lp6013
g336
atp6014
Rp6015
(dp6016
g16
g336
sbatp6017
Rp6018
(dp6019
g16
VFRAG
p6020
sbatp6021
Rp6022
(dp6023
g16
VFRAG
p6024
sbatp6025
Rp6026
(dp6027
g16
VROOT
p6028
sbasg347
(icmyPackage
CorE
p6029
(dp6030
g350
(lp6031
(I0
I11
tp6032
a(I0
I16
tp6033
asg354
g5
(g6
g7
(lp6034
g6007
ag6015
atp6035
Rp6036
(dp6037
g16
g365
sbsbsg355
(icmyPackage
CorE
p6038
(dp6039
g350
(lp6040
(I0
I1
tp6041
a(I0
I9
tp6042
asg354
g5
(g6
g7
(lp6043
g5880
ag5886
ag5892
ag5924
ag5933
ag5938
ag5945
atp6044
Rp6045
(dp6046
g16
g365
sbsbsg366
g2427
sg389
(lp6047
(icmyPackage
Sent
p6048
(dp6049
g393
I2
sg394
I27
sg395
S'The propositional satisfaction proofs are genuinely non-creative, and but because they come from computer programs.'
p6050
sg397
I0
sg398
I69
sg354
(lp6051
g6026
asbasba(icmyPackage
CELink
p6052
(dp6053
g3
(lp6054
g5
(g6
g7
(lp6055
g5
(g6
g7
(lp6056
g5
(g6
g7
(lp6057
g5
(g6
g7
(lp6058
VWriting
p6059
atp6060
Rp6061
(dp6062
g16
VVBG
p6063
sbag5
(g6
g7
(lp6064
g5
(g6
g7
(lp6065
Vthe
p6066
atp6067
Rp6068
(dp6069
g16
VDT
p6070
sbag5
(g6
g7
(lp6071
Vpropositional
p6072
atp6073
Rp6074
(dp6075
g16
VNN
p6076
sbatp6077
Rp6078
(dp6079
g16
VNP
p6080
sbatp6081
Rp6082
(dp6083
g16
VVP
p6084
sbag5
(g6
g7
(lp6085
g5
(g6
g7
(lp6086
Vcalculus
p6087
atp6088
Rp6089
(dp6090
g16
VVBZ
p6091
sbatp6092
Rp6093
(dp6094
g16
VVP
p6095
sbag5
(g6
g7
(lp6096
g5
(g6
g7
(lp6097
g5
(g6
g7
(lp6098
Vformulas
p6099
atp6100
Rp6101
(dp6102
g16
VNNS
p6103
sbatp6104
Rp6105
(dp6106
g16
VNP
p6107
sbag5
(g6
g7
(lp6108
g5
(g6
g7
(lp6109
Vasserting
p6110
atp6111
Rp6112
(dp6113
g16
VVBG
p6114
sbag5
(g6
g7
(lp6115
g5
(g6
g7
(lp6116
g5
(g6
g7
(lp6117
Vthat
p6118
atp6119
Rp6120
(dp6121
g16
VIN
p6122
sbag5
(g6
g7
(lp6123
g5
(g6
g7
(lp6124
g5
(g6
g7
(lp6125
g58
atp6126
Rp6127
(dp6128
g16
VDT
p6129
sbag5
(g6
g7
(lp6130
Vdomino
p6131
atp6132
Rp6133
(dp6134
g16
VNN
p6135
sbatp6136
Rp6137
(dp6138
g16
VNP
p6139
sbag5
(g6
g7
(lp6140
g5
(g6
g7
(lp6141
Vprojects
p6142
atp6143
Rp6144
(dp6145
g16
VVBZ
p6146
sbag5
(g6
g7
(lp6147
g5
(g6
g7
(lp6148
Vin
p6149
atp6150
Rp6151
(dp6152
g16
VIN
p6153
sbag5
(g6
g7
(lp6154
g5
(g6
g7
(lp6155
g5
(g6
g7
(lp6156
Vexactly
p6157
atp6158
Rp6159
(dp6160
g16
VRB
p6161
sbag5
(g6
g7
(lp6162
Vone
p6163
atp6164
Rp6165
(dp6166
g16
VCD
p6167
sbag5
(g6
g7
(lp6168
Vdirection
p6169
atp6170
Rp6171
(dp6172
g16
VNN
p6173
sbatp6174
Rp6175
(dp6176
g16
VNP
p6177
sbag5
(g6
g7
(lp6178
g5
(g6
g7
(lp6179
Vfrom
p6180
atp6181
Rp6182
(dp6183
g16
VIN
p6184
sbag5
(g6
g7
(lp6185
g5
(g6
g7
(lp6186
Veach
p6187
atp6188
Rp6189
(dp6190
g16
VDT
p6191
sbag5
(g6
g7
(lp6192
Vsquare
p6193
atp6194
Rp6195
(dp6196
g16
VNN
p6197
sbatp6198
Rp6199
(dp6200
g16
VNP
p6201
sbatp6202
Rp6203
(dp6204
g16
VPP
p6205
sbatp6206
Rp6207
(dp6208
g16
VNP
p6209
sbatp6210
Rp6211
(dp6212
g16
VPP
p6213
sbatp6214
Rp6215
(dp6216
g16
VVP
p6217
sbatp6218
Rp6219
(dp6220
g16
g208
sbatp6221
Rp6222
(dp6223
g16
VSBAR
p6224
sbag5
(g6
g7
(lp6225
g959
atp6226
Rp6227
(dp6228
g16
g959
sbag5
(g6
g7
(lp6229
g5
(g6
g7
(lp6230
Vthat
p6231
atp6232
Rp6233
(dp6234
g16
VIN
p6235
sbag5
(g6
g7
(lp6236
g5
(g6
g7
(lp6237
g5
(g6
g7
(lp6238
Vthere
p6239
atp6240
Rp6241
(dp6242
g16
VEX
p6243
sbatp6244
Rp6245
(dp6246
g16
VNP
p6247
sbag5
(g6
g7
(lp6248
g5
(g6
g7
(lp6249
Vis
p6250
atp6251
Rp6252
(dp6253
g16
VVBZ
p6254
sbag5
(g6
g7
(lp6255
g5
(g6
g7
(lp6256
g58
atp6257
Rp6258
(dp6259
g16
VDT
p6260
sbag5
(g6
g7
(lp6261
Vdomino
p6262
atp6263
Rp6264
(dp6265
g16
VNN
p6266
sbag5
(g6
g7
(lp6267
Vproject
p6268
atp6269
Rp6270
(dp6271
g16
VNN
p6272
sbatp6273
Rp6274
(dp6275
g16
VNP
p6276
sbag5
(g6
g7
(lp6277
g5
(g6
g7
(lp6278
Vback
p6279
atp6280
Rp6281
(dp6282
g16
VRB
p6283
sbag5
(g6
g7
(lp6284
g5
(g6
g7
(lp6285
Vfrom
p6286
atp6287
Rp6288
(dp6289
g16
VIN
p6290
sbag5
(g6
g7
(lp6291
g5
(g6
g7
(lp6292
g5
(g6
g7
(lp6293
g58
atp6294
Rp6295
(dp6296
g16
VDT
p6297
sbag5
(g6
g7
(lp6298
Vsquare
p6299
atp6300
Rp6301
(dp6302
g16
VNN
p6303
sbatp6304
Rp6305
(dp6306
g16
VNP
p6307
sbag5
(g6
g7
(lp6308
g5
(g6
g7
(lp6309
g5
(g6
g7
(lp6310
Vinto
p6311
atp6312
Rp6313
(dp6314
g16
VIN
p6315
sbag5
(g6
g7
(lp6316
g5
(g6
g7
(lp6317
Vwhich
p6318
atp6319
Rp6320
(dp6321
g16
VWDT
p6322
sbatp6323
Rp6324
(dp6325
g16
VWHNP
p6326
sbatp6327
Rp6328
(dp6329
g16
VWHPP
p6330
sbag5
(g6
g7
(lp6331
g5
(g6
g7
(lp6332
g5
(g6
g7
(lp6333
g58
atp6334
Rp6335
(dp6336
g16
VDT
p6337
sbag5
(g6
g7
(lp6338
Vdomino
p6339
atp6340
Rp6341
(dp6342
g16
VNN
p6343
sbatp6344
Rp6345
(dp6346
g16
VNP
p6347
sbag5
(g6
g7
(lp6348
g5
(g6
g7
(lp6349
Vprojects
p6350
atp6351
Rp6352
(dp6353
g16
VVBZ
p6354
sbatp6355
Rp6356
(dp6357
g16
VVP
p6358
sbatp6359
Rp6360
(dp6361
g16
g208
sbatp6362
Rp6363
(dp6364
g16
VSBAR
p6365
sbatp6366
Rp6367
(dp6368
g16
VNP
p6369
sbatp6370
Rp6371
(dp6372
g16
VPP
p6373
sbatp6374
Rp6375
(dp6376
g16
VADVP
p6377
sbatp6378
Rp6379
(dp6380
g16
VVP
p6381
sbatp6382
Rp6383
(dp6384
g16
g208
sbatp6385
Rp6386
(dp6387
g16
VSBAR
p6388
sbag5
(g6
g7
(lp6389
Vand
p6390
atp6391
Rp6392
(dp6393
g16
VCC
p6394
sbag5
(g6
g7
(lp6395
g5
(g6
g7
(lp6396
Vthat
p6397
atp6398
Rp6399
(dp6400
g16
VIN
p6401
sbag5
(g6
g7
(lp6402
g5
(g6
g7
(lp6403
g5
(g6
g7
(lp6404
g5
(g6
g7
(lp6405
Vno
p6406
atp6407
Rp6408
(dp6409
g16
VDT
p6410
sbag5
(g6
g7
(lp6411
Vdomino
p6412
atp6413
Rp6414
(dp6415
g16
VNN
p6416
sbag5
(g6
g7
(lp6417
Vprojects
p6418
atp6419
Rp6420
(dp6421
g16
VNNS
p6422
sbatp6423
Rp6424
(dp6425
g16
VNP
p6426
sbag5
(g6
g7
(lp6427
g5
(g6
g7
(lp6428
g5
(g6
g7
(lp6429
Voff
p6430
atp6431
Rp6432
(dp6433
g16
VIN
p6434
sbag5
(g6
g7
(lp6435
g5
(g6
g7
(lp6436
Vthe
p6437
atp6438
Rp6439
(dp6440
g16
VDT
p6441
sbag5
(g6
g7
(lp6442
Vboard
p6443
atp6444
Rp6445
(dp6446
g16
VNN
p6447
sbatp6448
Rp6449
(dp6450
g16
VNP
p6451
sbatp6452
Rp6453
(dp6454
g16
VPP
p6455
sbag5
(g6
g7
(lp6456
Vor
p6457
atp6458
Rp6459
(dp6460
g16
VCC
p6461
sbag5
(g6
g7
(lp6462
g5
(g6
g7
(lp6463
Vinto
p6464
atp6465
Rp6466
(dp6467
g16
VIN
p6468
sbag5
(g6
g7
(lp6469
g5
(g6
g7
(lp6470
g58
atp6471
Rp6472
(dp6473
g16
VDT
p6474
sbag5
(g6
g7
(lp6475
Vforbidden
p6476
atp6477
Rp6478
(dp6479
g16
VJJ
p6480
sbag5
(g6
g7
(lp6481
Vsquare
p6482
atp6483
Rp6484
(dp6485
g16
VNN
p6486
sbatp6487
Rp6488
(dp6489
g16
VNP
p6490
sbatp6491
Rp6492
(dp6493
g16
VPP
p6494
sbatp6495
Rp6496
(dp6497
g16
VPP
p6498
sbatp6499
Rp6500
(dp6501
g16
VNP
p6502
sbag5
(g6
g7
(lp6503
g5
(g6
g7
(lp6504
Vis
p6505
atp6506
Rp6507
(dp6508
g16
VVBZ
p6509
sbag5
(g6
g7
(lp6510
g5
(g6
g7
(lp6511
Vtaken
p6512
atp6513
Rp6514
(dp6515
g16
VVBN
p6516
sbag5
(g6
g7
(lp6517
g5
(g6
g7
(lp6518
g5
(g6
g7
(lp6519
Vas
p6520
atp6521
Rp6522
(dp6523
g16
VRB
p6524
sbag5
(g6
g7
(lp6525
Vstraightforward
p6526
atp6527
Rp6528
(dp6529
g16
VJJ
p6530
sbatp6531
Rp6532
(dp6533
g16
VADJP
p6534
sbatp6535
Rp6536
(dp6537
g16
g208
sbag5
(g6
g7
(lp6538
g959
atp6539
Rp6540
(dp6541
g16
g959
sbag5
(g6
g7
(lp6542
g5
(g6
g7
(lp6543
Vi.e.
p6544
atp6545
Rp6546
(dp6547
g16
VJJ
p6548
sbatp6549
Rp6550
(dp6551
g16
VADJP
p6552
sbatp6553
Rp6554
(dp6555
g16
VVP
p6556
sbatp6557
Rp6558
(dp6559
g16
VVP
p6560
sbatp6561
Rp6562
(dp6563
g16
g208
sbatp6564
Rp6565
(dp6566
g16
VSBAR
p6567
sbatp6568
Rp6569
(dp6570
g16
VSBAR
p6571
sbatp6572
Rp6573
(dp6574
g16
VVP
p6575
sbatp6576
Rp6577
(dp6578
g16
VNP
p6579
sbatp6580
Rp6581
(dp6582
g16
VSINV
p6583
sbatp6584
Rp6585
(dp6586
g16
VROOT
p6587
sbasg347
(icmyPackage
CorE
p6588
(dp6589
g350
(lp6590
(I0
I0
tp6591
a(I0
I2
tp6592
asg354
g6082
sbsg355
(icmyPackage
CorE
p6593
(dp6594
g350
(lp6595
(I0
I3
tp6596
a(I0
I51
tp6597
asg354
g5
(g6
g7
(lp6598
g6093
ag6577
atp6599
Rp6600
(dp6601
g16
g365
sbsbsg366
g5131
sg389
(lp6602
(icmyPackage
Sent
p6603
(dp6604
g393
I2
sg394
I27
sg395
S'Writing the propositional calculus formulas asserting that a domino projects in exactly one direction from each square, that there is a domino project back from a square into which a domino projects and that no domino projects off the board or into a forbidden square is taken as straightforward, i.e.'
p6605
sg397
I0
sg398
I70
sg354
(lp6606
g6585
asbasba(icmyPackage
CELink
p6607
(dp6608
g3
(lp6609
g5
(g6
g7
(lp6610
g5
(g6
g7
(lp6611
g5
(g6
g7
(lp6612
g5
(g6
g7
(lp6613
g5
(g6
g7
(lp6614
VThis
p6615
atp6616
Rp6617
(dp6618
g16
VDT
p6619
sbatp6620
Rp6621
(dp6622
g16
VNP
p6623
sbag5
(g6
g7
(lp6624
g5
(g6
g7
(lp6625
Vis
p6626
atp6627
Rp6628
(dp6629
g16
VVBZ
p6630
sbag5
(g6
g7
(lp6631
g5
(g6
g7
(lp6632
g5
(g6
g7
(lp6633
g58
atp6634
Rp6635
(dp6636
g16
VDT
p6637
sbag5
(g6
g7
(lp6638
Vkind
p6639
atp6640
Rp6641
(dp6642
g16
VNN
p6643
sbatp6644
Rp6645
(dp6646
g16
VNP
p6647
sbag5
(g6
g7
(lp6648
g5
(g6
g7
(lp6649
Vof
p6650
atp6651
Rp6652
(dp6653
g16
VIN
p6654
sbag5
(g6
g7
(lp6655
g5
(g6
g7
(lp6656
Vprogram
p6657
atp6658
Rp6659
(dp6660
g16
VNN
p6661
sbatp6662
Rp6663
(dp6664
g16
VNP
p6665
sbatp6666
Rp6667
(dp6668
g16
VPP
p6669
sbatp6670
Rp6671
(dp6672
g16
VNP
p6673
sbatp6674
Rp6675
(dp6676
g16
VVP
p6677
sbatp6678
Rp6679
(dp6680
g16
g208
sbag5
(g6
g7
(lp6681
g959
atp6682
Rp6683
(dp6684
g16
g959
sbag5
(g6
g7
(lp6685
Vbut
p6686
atp6687
Rp6688
(dp6689
g16
VCC
p6690
sbag5
(g6
g7
(lp6691
g5
(g6
g7
(lp6692
g5
(g6
g7
(lp6693
Vit
p6694
atp6695
Rp6696
(dp6697
g16
VPRP
p6698
sbatp6699
Rp6700
(dp6701
g16
VNP
p6702
sbag5
(g6
g7
(lp6703
g5
(g6
g7
(lp6704
Vdoes
p6705
atp6706
Rp6707
(dp6708
g16
VVBZ
p6709
sbag5
(g6
g7
(lp6710
Vn't
p6711
atp6712
Rp6713
(dp6714
g16
VRB
p6715
sbag5
(g6
g7
(lp6716
g5
(g6
g7
(lp6717
Vneed
p6718
atp6719
Rp6720
(dp6721
g16
VVB
p6722
sbag5
(g6
g7
(lp6723
g5
(g6
g7
(lp6724
g58
atp6725
Rp6726
(dp6727
g16
VDT
p6728
sbag5
(g6
g7
(lp6729
Vtermination
p6730
atp6731
Rp6732
(dp6733
g16
VNN
p6734
sbag5
(g6
g7
(lp6735
Vcondition
p6736
atp6737
Rp6738
(dp6739
g16
VNN
p6740
sbatp6741
Rp6742
(dp6743
g16
VNP
p6744
sbag5
(g6
g7
(lp6745
g959
atp6746
Rp6747
(dp6748
g16
g959
sbag5
(g6
g7
(lp6749
g5
(g6
g7
(lp6750
Vbecause
p6751
atp6752
Rp6753
(dp6754
g16
VIN
p6755
sbag5
(g6
g7
(lp6756
g5
(g6
g7
(lp6757
g5
(g6
g7
(lp6758
Vthe
p6759
atp6760
Rp6761
(dp6762
g16
VDT
p6763
sbag5
(g6
g7
(lp6764
Vtermination
p6765
atp6766
Rp6767
(dp6768
g16
VNN
p6769
sbatp6770
Rp6771
(dp6772
g16
VNP
p6773
sbag5
(g6
g7
(lp6774
g5
(g6
g7
(lp6775
Vis
p6776
atp6777
Rp6778
(dp6779
g16
VVBZ
p6780
sbag5
(g6
g7
(lp6781
g5
(g6
g7
(lp6782
Vapparent
p6783
atp6784
Rp6785
(dp6786
g16
VJJ
p6787
sbag5
(g6
g7
(lp6788
g5
(g6
g7
(lp6789
Vto
p6790
atp6791
Rp6792
(dp6793
g16
VTO
p6794
sbag5
(g6
g7
(lp6795
g5
(g6
g7
(lp6796
Vthe
p6797
atp6798
Rp6799
(dp6800
g16
VDT
p6801
sbag5
(g6
g7
(lp6802
Vproblem
p6803
atp6804
Rp6805
(dp6806
g16
VNN
p6807
sbag5
(g6
g7
(lp6808
Vsolver
p6809
atp6810
Rp6811
(dp6812
g16
VNN
p6813
sbatp6814
Rp6815
(dp6816
g16
VNP
p6817
sbatp6818
Rp6819
(dp6820
g16
VPP
p6821
sbatp6822
Rp6823
(dp6824
g16
VADJP
p6825
sbatp6826
Rp6827
(dp6828
g16
VVP
p6829
sbatp6830
Rp6831
(dp6832
g16
g208
sbatp6833
Rp6834
(dp6835
g16
VSBAR
p6836
sbatp6837
Rp6838
(dp6839
g16
VVP
p6840
sbatp6841
Rp6842
(dp6843
g16
VVP
p6844
sbatp6845
Rp6846
(dp6847
g16
g208
sbag5
(g6
g7
(lp6848
g336
atp6849
Rp6850
(dp6851
g16
g336
sbatp6852
Rp6853
(dp6854
g16
g208
sbatp6855
Rp6856
(dp6857
g16
VROOT
p6858
sbasg347
(icmyPackage
CorE
p6859
(dp6860
g350
(lp6861
(I0
I17
tp6862
a(I0
I25
tp6863
asg354
g5
(g6
g7
(lp6864
g6831
ag6850
atp6865
Rp6866
(dp6867
g16
g365
sbsbsg355
(icmyPackage
CorE
p6868
(dp6869
g350
(lp6870
(I0
I0
tp6871
a(I0
I14
tp6872
asg354
g5
(g6
g7
(lp6873
g6679
ag6683
ag6688
ag6700
ag6707
ag6713
ag6720
ag6742
atp6874
Rp6875
(dp6876
g16
g365
sbsbsg366
g2427
sg389
(lp6877
(icmyPackage
Sent
p6878
(dp6879
g393
I3
sg394
I31
sg395
S"This is a kind of program, but it doesn't need a termination condition, because the termination is apparent to the problem solver."
p6880
sg397
I0
sg398
I80
sg354
(lp6881
g6856
asbasba(icmyPackage
CELink
p6882
(dp6883
g3
(lp6884
g5
(g6
g7
(lp6885
g5
(g6
g7
(lp6886
g5
(g6
g7
(lp6887
g5
(g6
g7
(lp6888
VAccording
p6889
atp6890
Rp6891
(dp6892
g16
VVBG
p6893
sbag5
(g6
g7
(lp6894
g5
(g6
g7
(lp6895
Vto
p6896
atp6897
Rp6898
(dp6899
g16
VTO
p6900
sbag5
(g6
g7
(lp6901
g5
(g6
g7
(lp6902
g58
atp6903
Rp6904
(dp6905
g16
VDT
p6906
sbag5
(g6
g7
(lp6907
V1999
p6908
atp6909
Rp6910
(dp6911
g16
VCD
p6912
sbag5
(g6
g7
(lp6913
Vpersonal
p6914
atp6915
Rp6916
(dp6917
g16
VJJ
p6918
sbag5
(g6
g7
(lp6919
Vcommunication
p6920
atp6921
Rp6922
(dp6923
g16
VNN
p6924
sbatp6925
Rp6926
(dp6927
g16
VNP
p6928
sbatp6929
Rp6930
(dp6931
g16
VPP
p6932
sbatp6933
Rp6934
(dp6935
g16
VPP
p6936
sbag5
(g6
g7
(lp6937
g959
atp6938
Rp6939
(dp6940
g16
g959
sbag5
(g6
g7
(lp6941
g5
(g6
g7
(lp6942
Vthe
p6943
atp6944
Rp6945
(dp6946
g16
VDT
p6947
sbag5
(g6
g7
(lp6948
Videa
p6949
atp6950
Rp6951
(dp6952
g16
VNN
p6953
sbatp6954
Rp6955
(dp6956
g16
VNP
p6957
sbag5
(g6
g7
(lp6958
g5
(g6
g7
(lp6959
Vcan
p6960
atp6961
Rp6962
(dp6963
g16
VMD
p6964
sbag5
(g6
g7
(lp6965
g5
(g6
g7
(lp6966
Vbe
p6967
atp6968
Rp6969
(dp6970
g16
VVB
p6971
sbag5
(g6
g7
(lp6972
g5
(g6
g7
(lp6973
Vexpressed
p6974
atp6975
Rp6976
(dp6977
g16
VVBN
p6978
sbag5
(g6
g7
(lp6979
g5
(g6
g7
(lp6980
g5
(g6
g7
(lp6981
Vmore
p6982
atp6983
Rp6984
(dp6985
g16
VRBR
p6986
sbag5
(g6
g7
(lp6987
Vconcisely
p6988
atp6989
Rp6990
(dp6991
g16
VJJ
p6992
sbatp6993
Rp6994
(dp6995
g16
VADJP
p6996
sbatp6997
Rp6998
(dp6999
g16
g208
sbatp7000
Rp7001
(dp7002
g16
VVP
p7003
sbatp7004
Rp7005
(dp7006
g16
VVP
p7007
sbatp7008
Rp7009
(dp7010
g16
VVP
p7011
sbag5
(g6
g7
(lp7012
g336
atp7013
Rp7014
(dp7015
g16
g336
sbatp7016
Rp7017
(dp7018
g16
g208
sbatp7019
Rp7020
(dp7021
g16
VROOT
p7022
sbasg347
(icmyPackage
CorE
p7023
(dp7024
g350
(lp7025
(I0
I2
tp7026
a(I0
I5
tp7027
asg354
g6926
sbsg355
(icmyPackage
CorE
p7028
(dp7029
g350
(lp7030
(I0
I7
tp7031
a(I0
I14
tp7032
asg354
g5
(g6
g7
(lp7033
g6955
ag7009
ag7014
atp7034
Rp7035
(dp7036
g16
g365
sbsbsg366
(icmyPackage
pattern
p7037
(dp7038
g369
I0
sg370
I0
sg371
(lp7039
(lp7040
S'according'
p7041
aS'to'
p7042
aa(lp7043
S','
p7044
aasg377
(lp7045
I2
aI1
aI1
asg379
(lp7046
S'According to the efficiency principle and regional principle, the radius of the network should be small.'
p7047
asg382
I56
sg383
(lp7048
(lp7049
a(lp7050
S'&NP@C@'
p7051
aa(lp7052
S'&R'
p7053
aasbsg389
(lp7054
(icmyPackage
Sent
p7055
(dp7056
g393
I3
sg394
I35
sg395
S'According to a 1999 personal communication, the idea can be expressed more concisely.'
p7057
sg397
I0
sg398
I90
sg354
(lp7058
g7020
asbasba(icmyPackage
CELink
p7059
(dp7060
g3
(lp7061
g5
(g6
g7
(lp7062
g5
(g6
g7
(lp7063
g5
(g6
g7
(lp7064
g5
(g6
g7
(lp7065
VWinograd
p7066
atp7067
Rp7068
(dp7069
g16
VNNP
p7070
sbatp7071
Rp7072
(dp7073
g16
VNP
p7074
sbag5
(g6
g7
(lp7075
g5
(g6
g7
(lp7076
Vgot
p7077
atp7078
Rp7079
(dp7080
g16
VVBD
p7081
sbag5
(g6
g7
(lp7082
g5
(g6
g7
(lp7083
Vthe
p7084
atp7085
Rp7086
(dp7087
g16
VDT
p7088
sbag5
(g6
g7
(lp7089
Videa
p7090
atp7091
Rp7092
(dp7093
g16
VNN
p7094
sbatp7095
Rp7096
(dp7097
g16
VNP
p7098
sbag5
(g6
g7
(lp7099
g5
(g6
g7
(lp7100
Vas
p7101
atp7102
Rp7103
(dp7104
g16
VIN
p7105
sbag5
(g6
g7
(lp7106
g5
(g6
g7
(lp7107
g5
(g6
g7
(lp7108
g58
atp7109
Rp7110
(dp7111
g16
VDT
p7112
sbag5
(g6
g7
(lp7113
Vresult
p7114
atp7115
Rp7116
(dp7117
g16
VNN
p7118
sbatp7119
Rp7120
(dp7121
g16
VNP
p7122
sbag5
(g6
g7
(lp7123
g5
(g6
g7
(lp7124
Vof
p7125
atp7126
Rp7127
(dp7128
g16
VIN
p7129
sbag5
(g6
g7
(lp7130
g5
(g6
g7
(lp7131
g5
(g6
g7
(lp7132
Vseeing
p7133
atp7134
Rp7135
(dp7136
g16
VVBG
p7137
sbag5
(g6
g7
(lp7138
g5
(g6
g7
(lp7139
g58
atp7140
Rp7141
(dp7142
g16
VDT
p7143
sbag5
(g6
g7
(lp7144
Vmovie
p7145
atp7146
Rp7147
(dp7148
g16
VNN
p7149
sbatp7150
Rp7151
(dp7152
g16
VNP
p7153
sbag5
(g6
g7
(lp7154
g5
(g6
g7
(lp7155
Vabout
p7156
atp7157
Rp7158
(dp7159
g16
VIN
p7160
sbag5
(g6
g7
(lp7161
g5
(g6
g7
(lp7162
g5
(g6
g7
(lp7163
Vthe
p7164
atp7165
Rp7166
(dp7167
g16
VDT
p7168
sbag5
(g6
g7
(lp7169
VSocratic
p7170
atp7171
Rp7172
(dp7173
g16
VJJ
p7174
sbag5
(g6
g7
(lp7175
Vmethod
p7176
atp7177
Rp7178
(dp7179
g16
VNN
p7180
sbatp7181
Rp7182
(dp7183
g16
VNP
p7184
sbag5
(g6
g7
(lp7185
g5
(g6
g7
(lp7186
Vin
p7187
atp7188
Rp7189
(dp7190
g16
VIN
p7191
sbag5
(g6
g7
(lp7192
g5
(g6
g7
(lp7193
Vmathematics
p7194
atp7195
Rp7196
(dp7197
g16
VNN
p7198
sbag5
(g6
g7
(lp7199
Veducation
p7200
atp7201
Rp7202
(dp7203
g16
VNN
p7204
sbatp7205
Rp7206
(dp7207
g16
VNP
p7208
sbatp7209
Rp7210
(dp7211
g16
VPP
p7212
sbatp7213
Rp7214
(dp7215
g16
VNP
p7216
sbatp7217
Rp7218
(dp7219
g16
VPP
p7220
sbatp7221
Rp7222
(dp7223
g16
VVP
p7224
sbatp7225
Rp7226
(dp7227
g16
g208
sbatp7228
Rp7229
(dp7230
g16
VPP
p7231
sbatp7232
Rp7233
(dp7234
g16
VNP
p7235
sbatp7236
Rp7237
(dp7238
g16
VPP
p7239
sbatp7240
Rp7241
(dp7242
g16
VVP
p7243
sbag5
(g6
g7
(lp7244
g336
atp7245
Rp7246
(dp7247
g16
g336
sbatp7248
Rp7249
(dp7250
g16
g208
sbatp7251
Rp7252
(dp7253
g16
VROOT
p7254
sbasg347
(icmyPackage
CorE
p7255
(dp7256
g350
(lp7257
(I0
I0
tp7258
a(I0
I3
tp7259
asg354
g5
(g6
g7
(lp7260
g7072
ag7079
ag7096
atp7261
Rp7262
(dp7263
g16
g365
sbsbsg355
(icmyPackage
CorE
p7264
(dp7265
g350
(lp7266
(I0
I7
tp7267
a(I0
I17
tp7268
asg354
g7229
sbsg366
(icmyPackage
pattern
p7269
(dp7270
g369
I3
sg370
I1
sg371
(lp7271
(lp7272
S'as'
p7273
aS'a'
p7274
aa(lp7275
S'result'
p7276
aasg377
(lp7277
I1
aI1
aI1
asg379
(lp7278
S'All singers kept together. As a result,their performance was successful.'
p7279
asg382
I5
sg383
(lp7280
(lp7281
S'&C'
p7282
aS'(,/;/./--)'
p7283
aS'(&AND)'
p7284
aa(lp7285
S'(&ADJ)'
p7286
aa(lp7287
S'(,)'
p7288
aS'&R'
p7289
aasbsg389
(lp7290
(icmyPackage
Sent
p7291
(dp7292
g393
I3
sg394
I35
sg395
S'Winograd got the idea as a result of seeing a movie about the Socratic method in mathematics education.'
p7293
sg397
I0
sg398
I91
sg354
(lp7294
g7252
asbasba(icmyPackage
CELink
p7295
(dp7296
g3
(lp7297
g5
(g6
g7
(lp7298
g5
(g6
g7
(lp7299
g5
(g6
g7
(lp7300
g5
(g6
g7
(lp7301
g5
(g6
g7
(lp7302
VWinograd
p7303
atp7304
Rp7305
(dp7306
g16
VNNP
p7307
sbatp7308
Rp7309
(dp7310
g16
VNP
p7311
sbag5
(g6
g7
(lp7312
g5
(g6
g7
(lp7313
Vwondered
p7314
atp7315
Rp7316
(dp7317
g16
VVBD
p7318
sbag5
(g6
g7
(lp7319
g5
(g6
g7
(lp7320
Vwhether
p7321
atp7322
Rp7323
(dp7324
g16
VIN
p7325
sbag5
(g6
g7
(lp7326
g5
(g6
g7
(lp7327
g5
(g6
g7
(lp7328
g5
(g6
g7
(lp7329
Vthe
p7330
atp7331
Rp7332
(dp7333
g16
VDT
p7334
sbag5
(g6
g7
(lp7335
Vstudent
p7336
atp7337
Rp7338
(dp7339
g16
VNN
p7340
sbag5
(g6
g7
(lp7341
V's
p7342
atp7343
Rp7344
(dp7345
g16
VPOS
p7346
sbatp7347
Rp7348
(dp7349
g16
VNP
p7350
sbag5
(g6
g7
(lp7351
Voriginal
p7352
atp7353
Rp7354
(dp7355
g16
VJJ
p7356
sbag5
(g6
g7
(lp7357
Videa
p7358
atp7359
Rp7360
(dp7361
g16
VNN
p7362
sbatp7363
Rp7364
(dp7365
g16
VNP
p7366
sbag5
(g6
g7
(lp7367
g5
(g6
g7
(lp7368
Vcould
p7369
atp7370
Rp7371
(dp7372
g16
VMD
p7373
sbag5
(g6
g7
(lp7374
g5
(g6
g7
(lp7375
Vbe
p7376
atp7377
Rp7378
(dp7379
g16
VVB
p7380
sbag5
(g6
g7
(lp7381
g5
(g6
g7
(lp7382
Vpushed
p7383
atp7384
Rp7385
(dp7386
g16
VVBN
p7387
sbag5
(g6
g7
(lp7388
g5
(g6
g7
(lp7389
Vthrough
p7390
atp7391
Rp7392
(dp7393
g16
VIN
p7394
sbatp7395
Rp7396
(dp7397
g16
VPP
p7398
sbatp7399
Rp7400
(dp7401
g16
VVP
p7402
sbatp7403
Rp7404
(dp7405
g16
VVP
p7406
sbatp7407
Rp7408
(dp7409
g16
VVP
p7410
sbatp7411
Rp7412
(dp7413
g16
g208
sbatp7414
Rp7415
(dp7416
g16
VSBAR
p7417
sbatp7418
Rp7419
(dp7420
g16
VVP
p7421
sbatp7422
Rp7423
(dp7424
g16
g208
sbag5
(g6
g7
(lp7425
g959
atp7426
Rp7427
(dp7428
g16
g959
sbag5
(g6
g7
(lp7429
Vand
p7430
atp7431
Rp7432
(dp7433
g16
VCC
p7434
sbag5
(g6
g7
(lp7435
g5
(g6
g7
(lp7436
g5
(g6
g7
(lp7437
Vthis
p7438
atp7439
Rp7440
(dp7441
g16
VDT
p7442
sbatp7443
Rp7444
(dp7445
g16
VNP
p7446
sbag5
(g6
g7
(lp7447
g5
(g6
g7
(lp7448
Vled
p7449
atp7450
Rp7451
(dp7452
g16
VVBD
p7453
sbag5
(g6
g7
(lp7454
g5
(g6
g7
(lp7455
Vto
p7456
atp7457
Rp7458
(dp7459
g16
VTO
p7460
sbag5
(g6
g7
(lp7461
g5
(g6
g7
(lp7462
Vthe
p7463
atp7464
Rp7465
(dp7466
g16
VDT
p7467
sbag5
(g6
g7
(lp7468
Vsolution
p7469
atp7470
Rp7471
(dp7472
g16
VNN
p7473
sbatp7474
Rp7475
(dp7476
g16
VNP
p7477
sbatp7478
Rp7479
(dp7480
g16
VPP
p7481
sbatp7482
Rp7483
(dp7484
g16
VVP
p7485
sbatp7486
Rp7487
(dp7488
g16
g208
sbag5
(g6
g7
(lp7489
g336
atp7490
Rp7491
(dp7492
g16
g336
sbatp7493
Rp7494
(dp7495
g16
g208
sbatp7496
Rp7497
(dp7498
g16
VROOT
p7499
sbasg347
(icmyPackage
CorE
p7500
(dp7501
g350
(lp7502
(I0
I0
tp7503
a(I0
I13
tp7504
asg354
g5
(g6
g7
(lp7505
g7423
ag7427
ag7432
atp7506
Rp7507
(dp7508
g16
g365
sbsbsg355
(icmyPackage
CorE
p7509
(dp7510
g350
(lp7511
(I0
I17
tp7512
a(I0
I18
tp7513
asg354
g7475
sbsg366
(icmyPackage
pattern
p7514
(dp7515
g369
I0
sg370
I1
sg371
(lp7516
(lp7517
(lp7518
S'lead'
p7519
aS'leads'
p7520
aS'led'
p7521
aaS'to'
p7522
aasg377
(lp7523
I4
aI1
aI1
asg379
(lp7524
S"Representation and its summarization are separated. This leads to the separation of author's meaning, summarizer's understanding, and readers' understanding."
p7525
asg382
I95
sg383
(lp7526
(lp7527
S'&C'
p7528
aS'(,/./;/--)'
p7529
aS'&this'
p7530
aS'(&adj)'
p7531
aS'(&N)'
p7532
aS'(&CAN/have/has/had)'
p7533
aS'(&ADV)'
p7534
aa(lp7535
S'&NP@R@'
p7536
aasbsg389
(lp7537
(icmyPackage
Sent
p7538
(dp7539
g393
I3
sg394
I35
sg395
S"Winograd wondered whether the student's original idea could be pushed through, and this led to the solution."
p7540
sg397
I0
sg398
I95
sg354
(lp7541
g7497
asbasba(icmyPackage
CELink
p7542
(dp7543
g3
(lp7544
g5
(g6
g7
(lp7545
g5
(g6
g7
(lp7546
g5
(g6
g7
(lp7547
g5
(g6
g7
(lp7548
g5
(g6
g7
(lp7549
VLooking
p7550
atp7551
Rp7552
(dp7553
g16
VVBG
p7554
sbag5
(g6
g7
(lp7555
g5
(g6
g7
(lp7556
Vat
p7557
atp7558
Rp7559
(dp7560
g16
VIN
p7561
sbag5
(g6
g7
(lp7562
g5
(g6
g7
(lp7563
g5
(g6
g7
(lp7564
Vit
p7565
atp7566
Rp7567
(dp7568
g16
VPRP
p7569
sbatp7570
Rp7571
(dp7572
g16
VNP
p7573
sbag5
(g6
g7
(lp7574
g5
(g6
g7
(lp7575
Vthis
p7576
atp7577
Rp7578
(dp7579
g16
VDT
p7580
sbag5
(g6
g7
(lp7581
Vway
p7582
atp7583
Rp7584
(dp7585
g16
VNN
p7586
sbatp7587
Rp7588
(dp7589
g16
VNP
p7590
sbatp7591
Rp7592
(dp7593
g16
VNP
p7594
sbatp7595
Rp7596
(dp7597
g16
VPP
p7598
sbatp7599
Rp7600
(dp7601
g16
VVP
p7602
sbatp7603
Rp7604
(dp7605
g16
g208
sbag5
(g6
g7
(lp7606
g959
atp7607
Rp7608
(dp7609
g16
g959
sbag5
(g6
g7
(lp7610
g5
(g6
g7
(lp7611
Vthe
p7612
atp7613
Rp7614
(dp7615
g16
VDT
p7616
sbag5
(g6
g7
(lp7617
Vcreative
p7618
atp7619
Rp7620
(dp7621
g16
VJJ
p7622
sbag5
(g6
g7
(lp7623
Videa
p7624
atp7625
Rp7626
(dp7627
g16
VNN
p7628
sbatp7629
Rp7630
(dp7631
g16
VNP
p7632
sbag5
(g6
g7
(lp7633
g5
(g6
g7
(lp7634
Vseems
p7635
atp7636
Rp7637
(dp7638
g16
VVBZ
p7639
sbag5
(g6
g7
(lp7640
g5
(g6
g7
(lp7641
g5
(g6
g7
(lp7642
Vto
p7643
atp7644
Rp7645
(dp7646
g16
VTO
p7647
sbag5
(g6
g7
(lp7648
g5
(g6
g7
(lp7649
Vbe
p7650
atp7651
Rp7652
(dp7653
g16
VVB
p7654
sbatp7655
Rp7656
(dp7657
g16
VVP
p7658
sbatp7659
Rp7660
(dp7661
g16
VVP
p7662
sbatp7663
Rp7664
(dp7665
g16
g208
sbatp7666
Rp7667
(dp7668
g16
VVP
p7669
sbatp7670
Rp7671
(dp7672
g16
g208
sbatp7673
Rp7674
(dp7675
g16
VROOT
p7676
sbasg347
(icmyPackage
CorE
p7677
(dp7678
g350
(lp7679
(I0
I0
tp7680
a(I0
I4
tp7681
asg354
g7604
sbsg355
(icmyPackage
CorE
p7682
(dp7683
g350
(lp7684
(I0
I6
tp7685
a(I0
I11
tp7686
asg354
g5
(g6
g7
(lp7687
g7630
ag7667
atp7688
Rp7689
(dp7690
g16
g365
sbsbsg366
g5131
sg389
(lp7691
(icmyPackage
Sent
p7692
(dp7693
g393
I3
sg394
I36
sg395
S'Looking at it this way, the creative idea seems to be'
p7694
sg397
I0
sg398
I96
sg354
(lp7695
g7674
asbasba(icmyPackage
CELink
p7696
(dp7697
g3
(lp7698
g5
(g6
g7
(lp7699
g5
(g6
g7
(lp7700
g5
(g6
g7
(lp7701
g5
(g6
g7
(lp7702
VPresumably
p7703
atp7704
Rp7705
(dp7706
g16
VRB
p7707
sbatp7708
Rp7709
(dp7710
g16
VADVP
p7711
sbag5
(g6
g7
(lp7712
g5
(g6
g7
(lp7713
Vnot
p7714
atp7715
Rp7716
(dp7717
g16
VRB
p7718
sbag5
(g6
g7
(lp7719
Veveryone
p7720
atp7721
Rp7722
(dp7723
g16
VNN
p7724
sbatp7725
Rp7726
(dp7727
g16
VNP
p7728
sbag5
(g6
g7
(lp7729
g5
(g6
g7
(lp7730
Vwould
p7731
atp7732
Rp7733
(dp7734
g16
VMD
p7735
sbag5
(g6
g7
(lp7736
g5
(g6
g7
(lp7737
Vbe
p7738
atp7739
Rp7740
(dp7741
g16
VVB
p7742
sbag5
(g6
g7
(lp7743
g5
(g6
g7
(lp7744
Vable
p7745
atp7746
Rp7747
(dp7748
g16
VJJ
p7749
sbag5
(g6
g7
(lp7750
g5
(g6
g7
(lp7751
g5
(g6
g7
(lp7752
Vto
p7753
atp7754
Rp7755
(dp7756
g16
VTO
p7757
sbag5
(g6
g7
(lp7758
g5
(g6
g7
(lp7759
Vpush
p7760
atp7761
Rp7762
(dp7763
g16
VVB
p7764
sbag5
(g6
g7
(lp7765
g5
(g6
g7
(lp7766
Vthe
p7767
atp7768
Rp7769
(dp7770
g16
VDT
p7771
sbag5
(g6
g7
(lp7772
Vargument
p7773
atp7774
Rp7775
(dp7776
g16
VNN
p7777
sbatp7778
Rp7779
(dp7780
g16
VNP
p7781
sbag5
(g6
g7
(lp7782
g5
(g6
g7
(lp7783
Vthrough
p7784
atp7785
Rp7786
(dp7787
g16
VRB
p7788
sbatp7789
Rp7790
(dp7791
g16
VADVP
p7792
sbag5
(g6
g7
(lp7793
g959
atp7794
Rp7795
(dp7796
g16
g959
sbag5
(g6
g7
(lp7797
g5
(g6
g7
(lp7798
Vbecause
p7799
atp7800
Rp7801
(dp7802
g16
VIN
p7803
sbag5
(g6
g7
(lp7804
g5
(g6
g7
(lp7805
g5
(g6
g7
(lp7806
Vat
p7807
atp7808
Rp7809
(dp7810
g16
VIN
p7811
sbag5
(g6
g7
(lp7812
g5
(g6
g7
(lp7813
Vsome
p7814
atp7815
Rp7816
(dp7817
g16
VDT
p7818
sbag5
(g6
g7
(lp7819
Vpoint
p7820
atp7821
Rp7822
(dp7823
g16
VNN
p7824
sbatp7825
Rp7826
(dp7827
g16
VNP
p7828
sbatp7829
Rp7830
(dp7831
g16
VPP
p7832
sbag5
(g6
g7
(lp7833
g5
(g6
g7
(lp7834
Vyou
p7835
atp7836
Rp7837
(dp7838
g16
VPRP
p7839
sbatp7840
Rp7841
(dp7842
g16
VNP
p7843
sbag5
(g6
g7
(lp7844
g5
(g6
g7
(lp7845
Vhave
p7846
atp7847
Rp7848
(dp7849
g16
VVBP
p7850
sbag5
(g6
g7
(lp7851
g5
(g6
g7
(lp7852
g5
(g6
g7
(lp7853
Vto
p7854
atp7855
Rp7856
(dp7857
g16
VTO
p7858
sbag5
(g6
g7
(lp7859
g5
(g6
g7
(lp7860
Vnotice
p7861
atp7862
Rp7863
(dp7864
g16
VVB
p7865
sbag5
(g6
g7
(lp7866
g5
(g6
g7
(lp7867
Vthat
p7868
atp7869
Rp7870
(dp7871
g16
VIN
p7872
sbag5
(g6
g7
(lp7873
g5
(g6
g7
(lp7874
g5
(g6
g7
(lp7875
Valthough
p7876
atp7877
Rp7878
(dp7879
g16
VIN
p7880
sbag5
(g6
g7
(lp7881
g5
(g6
g7
(lp7882
g5
(g6
g7
(lp7883
Vyou
p7884
atp7885
Rp7886
(dp7887
g16
VPRP
p7888
sbatp7889
Rp7890
(dp7891
g16
VNP
p7892
sbag5
(g6
g7
(lp7893
g5
(g6
g7
(lp7894
Vget
p7895
atp7896
Rp7897
(dp7898
g16
VVBP
p7899
sbag5
(g6
g7
(lp7900
g5
(g6
g7
(lp7901
Vno
p7902
atp7903
Rp7904
(dp7905
g16
VDT
p7906
sbag5
(g6
g7
(lp7907
Vcontradiction
p7908
atp7909
Rp7910
(dp7911
g16
VNN
p7912
sbatp7913
Rp7914
(dp7915
g16
VNP
p7916
sbag5
(g6
g7
(lp7917
g5
(g6
g7
(lp7918
Vfrom
p7919
atp7920
Rp7921
(dp7922
g16
VIN
p7923
sbag5
(g6
g7
(lp7924
g5
(g6
g7
(lp7925
g5
(g6
g7
(lp7926
Vdetermining
p7927
atp7928
Rp7929
(dp7930
g16
VVBG
p7931
sbag5
(g6
g7
(lp7932
g5
(g6
g7
(lp7933
Vthat
p7934
atp7935
Rp7936
(dp7937
g16
VIN
p7938
sbag5
(g6
g7
(lp7939
g5
(g6
g7
(lp7940
g5
(g6
g7
(lp7941
Vthere
p7942
atp7943
Rp7944
(dp7945
g16
VEX
p7946
sbatp7947
Rp7948
(dp7949
g16
VNP
p7950
sbag5
(g6
g7
(lp7951
g5
(g6
g7
(lp7952
Vare
p7953
atp7954
Rp7955
(dp7956
g16
VVBP
p7957
sbag5
(g6
g7
(lp7958
g5
(g6
g7
(lp7959
g5
(g6
g7
(lp7960
Van
p7961
atp7962
Rp7963
(dp7964
g16
VDT
p7965
sbag5
(g6
g7
(lp7966
Vodd
p7967
atp7968
Rp7969
(dp7970
g16
VJJ
p7971
sbag5
(g6
g7
(lp7972
Vnumber
p7973
atp7974
Rp7975
(dp7976
g16
VNN
p7977
sbatp7978
Rp7979
(dp7980
g16
VNP
p7981
sbag5
(g6
g7
(lp7982
g5
(g6
g7
(lp7983
Vof
p7984
atp7985
Rp7986
(dp7987
g16
VIN
p7988
sbag5
(g6
g7
(lp7989
g5
(g6
g7
(lp7990
Vvertical
p7991
atp7992
Rp7993
(dp7994
g16
VJJ
p7995
sbag5
(g6
g7
(lp7996
Vdominoes
p7997
atp7998
Rp7999
(dp8000
g16
VNNS
p8001
sbatp8002
Rp8003
(dp8004
g16
VNP
p8005
sbatp8006
Rp8007
(dp8008
g16
VPP
p8009
sbatp8010
Rp8011
(dp8012
g16
VNP
p8013
sbatp8014
Rp8015
(dp8016
g16
VVP
p8017
sbatp8018
Rp8019
(dp8020
g16
g208
sbatp8021
Rp8022
(dp8023
g16
VSBAR
p8024
sbatp8025
Rp8026
(dp8027
g16
VVP
p8028
sbatp8029
Rp8030
(dp8031
g16
g208
sbatp8032
Rp8033
(dp8034
g16
VPP
p8035
sbatp8036
Rp8037
(dp8038
g16
VVP
p8039
sbatp8040
Rp8041
(dp8042
g16
g208
sbatp8043
Rp8044
(dp8045
g16
VSBAR
p8046
sbag5
(g6
g7
(lp8047
g959
atp8048
Rp8049
(dp8050
g16
g959
sbag5
(g6
g7
(lp8051
g5
(g6
g7
(lp8052
Vyou
p8053
atp8054
Rp8055
(dp8056
g16
VPRP
p8057
sbatp8058
Rp8059
(dp8060
g16
VNP
p8061
sbag5
(g6
g7
(lp8062
g5
(g6
g7
(lp8063
Valso
p8064
atp8065
Rp8066
(dp8067
g16
VRB
p8068
sbatp8069
Rp8070
(dp8071
g16
VADVP
p8072
sbag5
(g6
g7
(lp8073
g5
(g6
g7
(lp8074
Vget
p8075
atp8076
Rp8077
(dp8078
g16
VVBP
p8079
sbag5
(g6
g7
(lp8080
g5
(g6
g7
(lp8081
g5
(g6
g7
(lp8082
g5
(g6
g7
(lp8083
Van
p8084
atp8085
Rp8086
(dp8087
g16
VDT
p8088
sbag5
(g6
g7
(lp8089
Vodd
p8090
atp8091
Rp8092
(dp8093
g16
VJJ
p8094
sbag5
(g6
g7
(lp8095
Vnumber
p8096
atp8097
Rp8098
(dp8099
g16
VNN
p8100
sbatp8101
Rp8102
(dp8103
g16
VNP
p8104
sbag5
(g6
g7
(lp8105
g5
(g6
g7
(lp8106
Vof
p8107
atp8108
Rp8109
(dp8110
g16
VIN
p8111
sbag5
(g6
g7
(lp8112
g5
(g6
g7
(lp8113
Vhorizontal
p8114
atp8115
Rp8116
(dp8117
g16
VJJ
p8118
sbag5
(g6
g7
(lp8119
Vdominoes
p8120
atp8121
Rp8122
(dp8123
g16
VNNS
p8124
sbatp8125
Rp8126
(dp8127
g16
VNP
p8128
sbatp8129
Rp8130
(dp8131
g16
VPP
p8132
sbatp8133
Rp8134
(dp8135
g16
VNP
p8136
sbag5
(g6
g7
(lp8137
Vand
p8138
atp8139
Rp8140
(dp8141
g16
VCC
p8142
sbag5
(g6
g7
(lp8143
g5
(g6
g7
(lp8144
g5
(g6
g7
(lp8145
Van
p8146
atp8147
Rp8148
(dp8149
g16
VDT
p8150
sbag5
(g6
g7
(lp8151
Veven
p8152
atp8153
Rp8154
(dp8155
g16
VJJ
p8156
sbag5
(g6
g7
(lp8157
Vnumber
p8158
atp8159
Rp8160
(dp8161
g16
VNN
p8162
sbatp8163
Rp8164
(dp8165
g16
VNP
p8166
sbag5
(g6
g7
(lp8167
g5
(g6
g7
(lp8168
Vof
p8169
atp8170
Rp8171
(dp8172
g16
VIN
p8173
sbag5
(g6
g7
(lp8174
g5
(g6
g7
(lp8175
Vdominoes
p8176
atp8177
Rp8178
(dp8179
g16
VNNS
p8180
sbatp8181
Rp8182
(dp8183
g16
VNP
p8184
sbatp8185
Rp8186
(dp8187
g16
VPP
p8188
sbatp8189
Rp8190
(dp8191
g16
VNP
p8192
sbatp8193
Rp8194
(dp8195
g16
VNP
p8196
sbatp8197
Rp8198
(dp8199
g16
VVP
p8200
sbatp8201
Rp8202
(dp8203
g16
g208
sbatp8204
Rp8205
(dp8206
g16
VSBAR
p8207
sbatp8208
Rp8209
(dp8210
g16
VVP
p8211
sbatp8212
Rp8213
(dp8214
g16
VVP
p8215
sbatp8216
Rp8217
(dp8218
g16
g208
sbatp8219
Rp8220
(dp8221
g16
VVP
p8222
sbatp8223
Rp8224
(dp8225
g16
g208
sbatp8226
Rp8227
(dp8228
g16
VSBAR
p8229
sbatp8230
Rp8231
(dp8232
g16
VVP
p8233
sbatp8234
Rp8235
(dp8236
g16
VVP
p8237
sbatp8238
Rp8239
(dp8240
g16
g208
sbatp8241
Rp8242
(dp8243
g16
VADJP
p8244
sbag5
(g6
g7
(lp8245
g5
(g6
g7
(lp8246
Valtogether
p8247
atp8248
Rp8249
(dp8250
g16
VRB
p8251
sbatp8252
Rp8253
(dp8254
g16
VADVP
p8255
sbatp8256
Rp8257
(dp8258
g16
VVP
p8259
sbatp8260
Rp8261
(dp8262
g16
VVP
p8263
sbag5
(g6
g7
(lp8264
g336
atp8265
Rp8266
(dp8267
g16
g336
sbatp8268
Rp8269
(dp8270
g16
g208
sbatp8271
Rp8272
(dp8273
g16
VROOT
p8274
sbasg347
(icmyPackage
CorE
p8275
(dp8276
g350
(lp8277
(I0
I13
tp8278
a(I0
I36
tp8279
asg354
g5
(g6
g7
(lp8280
g7830
ag7841
ag7848
ag7856
ag7863
ag7870
ag8044
atp8281
Rp8282
(dp8283
g16
g365
sbsbsg355
(icmyPackage
CorE
p8284
(dp8285
g350
(lp8286
(I0
I38
tp8287
a(I0
I54
tp8288
asg354
g5
(g6
g7
(lp8289
g8059
ag8070
ag8198
ag8253
ag8266
atp8290
Rp8291
(dp8292
g16
g365
sbsbsg366
(icmyPackage
pattern
p8293
(dp8294
g369
I18
sg370
I0
sg371
(lp8295
(lp8296
S'because'
p8297
aa(lp8298
g7044
aasg377
(lp8299
I3
aI1
aI1
asg379
(lp8300
S'Because he was absent for two weeks, the other students in his class are ahead of him.'
p8301
asg382
I75
sg383
(lp8302
(lp8303
a(lp8304
S'&C'
p8305
aa(lp8306
S'&R'
p8307
aasbsg389
(lp8308
(icmyPackage
Sent
p8309
(dp8310
g393
I3
sg394
I38
sg395
S'Presumably not everyone would be able to push the argument through, because at some point you have to notice that although you get no contradiction from determining that there are an odd number of vertical dominoes, you also get an odd number of horizontal dominoes and an even number of dominoes altogether.'
p8311
sg397
I0
sg398
I98
sg354
(lp8312
g8272
asbasba(icmyPackage
CELink
p8313
(dp8314
g3
(lp8315
g8272
ag5
(g6
g7
(lp8316
g5
(g6
g7
(lp8317
g5
(g6
g7
(lp8318
g5
(g6
g7
(lp8319
VThus
p8320
atp8321
Rp8322
(dp8323
g16
VRB
p8324
sbatp8325
Rp8326
(dp8327
g16
VADVP
p8328
sbag5
(g6
g7
(lp8329
g5
(g6
g7
(lp8330
g5
(g6
g7
(lp8331
Vthe
p8332
atp8333
Rp8334
(dp8335
g16
VDT
p8336
sbag5
(g6
g7
(lp8337
Vnotion
p8338
atp8339
Rp8340
(dp8341
g16
VNN
p8342
sbatp8343
Rp8344
(dp8345
g16
VNP
p8346
sbag5
(g6
g7
(lp8347
g5
(g6
g7
(lp8348
Vof
p8349
atp8350
Rp8351
(dp8352
g16
VIN
p8353
sbag5
(g6
g7
(lp8354
g5
(g6
g7
(lp8355
Vcreative
p8356
atp8357
Rp8358
(dp8359
g16
VJJ
p8360
sbag5
(g6
g7
(lp8361
Vsolution
p8362
atp8363
Rp8364
(dp8365
g16
VNN
p8366
sbatp8367
Rp8368
(dp8369
g16
VNP
p8370
sbatp8371
Rp8372
(dp8373
g16
VPP
p8374
sbatp8375
Rp8376
(dp8377
g16
VNP
p8378
sbag5
(g6
g7
(lp8379
g5
(g6
g7
(lp8380
Vseems
p8381
atp8382
Rp8383
(dp8384
g16
VVBZ
p8385
sbag5
(g6
g7
(lp8386
g5
(g6
g7
(lp8387
g5
(g6
g7
(lp8388
Vto
p8389
atp8390
Rp8391
(dp8392
g16
VTO
p8393
sbag5
(g6
g7
(lp8394
g5
(g6
g7
(lp8395
Vdepend
p8396
atp8397
Rp8398
(dp8399
g16
VVB
p8400
sbag5
(g6
g7
(lp8401
g5
(g6
g7
(lp8402
Von
p8403
atp8404
Rp8405
(dp8406
g16
VIN
p8407
sbag5
(g6
g7
(lp8408
g5
(g6
g7
(lp8409
g5
(g6
g7
(lp8410
Vthe
p8411
atp8412
Rp8413
(dp8414
g16
VDT
p8415
sbag5
(g6
g7
(lp8416
Vability
p8417
atp8418
Rp8419
(dp8420
g16
VNN
p8421
sbatp8422
Rp8423
(dp8424
g16
VNP
p8425
sbag5
(g6
g7
(lp8426
g5
(g6
g7
(lp8427
Vavailable
p8428
atp8429
Rp8430
(dp8431
g16
VJJ
p8432
sbag5
(g6
g7
(lp8433
g5
(g6
g7
(lp8434
g5
(g6
g7
(lp8435
Vto
p8436
atp8437
Rp8438
(dp8439
g16
VTO
p8440
sbag5
(g6
g7
(lp8441
g5
(g6
g7
(lp8442
Vpush
p8443
atp8444
Rp8445
(dp8446
g16
VVB
p8447
sbag5
(g6
g7
(lp8448
g5
(g6
g7
(lp8449
Van
p8450
atp8451
Rp8452
(dp8453
g16
VDT
p8454
sbag5
(g6
g7
(lp8455
Videa
p8456
atp8457
Rp8458
(dp8459
g16
VNN
p8460
sbatp8461
Rp8462
(dp8463
g16
VNP
p8464
sbag5
(g6
g7
(lp8465
g5
(g6
g7
(lp8466
Vthrough
p8467
atp8468
Rp8469
(dp8470
g16
VRP
p8471
sbatp8472
Rp8473
(dp8474
g16
VPRT
p8475
sbatp8476
Rp8477
(dp8478
g16
VVP
p8479
sbatp8480
Rp8481
(dp8482
g16
VVP
p8483
sbatp8484
Rp8485
(dp8486
g16
g208
sbatp8487
Rp8488
(dp8489
g16
VADJP
p8490
sbatp8491
Rp8492
(dp8493
g16
VNP
p8494
sbatp8495
Rp8496
(dp8497
g16
VPP
p8498
sbatp8499
Rp8500
(dp8501
g16
VVP
p8502
sbatp8503
Rp8504
(dp8505
g16
VVP
p8506
sbatp8507
Rp8508
(dp8509
g16
g208
sbatp8510
Rp8511
(dp8512
g16
VVP
p8513
sbag5
(g6
g7
(lp8514
g336
atp8515
Rp8516
(dp8517
g16
g336
sbatp8518
Rp8519
(dp8520
g16
g208
sbatp8521
Rp8522
(dp8523
g16
VROOT
p8524
sbasg347
(icmyPackage
CorE
p8525
(dp8526
g350
(lp8527
(I0
I0
tp8528
a(I0
I53
tp8529
asg354
g5
(g6
g7
(lp8530
g7709
ag7726
ag8261
atp8531
Rp8532
(dp8533
g16
g365
sbsbsg355
(icmyPackage
CorE
p8534
(dp8535
g350
(lp8536
(I1
I1
tp8537
a(I1
I18
tp8538
asg354
g5
(g6
g7
(lp8539
g8376
ag8511
ag8516
atp8540
Rp8541
(dp8542
g16
g365
sbsbsg366
(icmyPackage
pattern
p8543
(dp8544
g369
I35
sg370
I1
sg371
(lp8545
(lp8546
S'thus'
p8547
aasg377
(lp8548
I1
aI1
aI1
asg379
(lp8549
S'Japan will be on the dark side of the Earth, and thus will lack the warming influence of the Sun.'
p8550
asg382
I2
sg383
(lp8551
(lp8552
S'&C'
p8553
aS'(,/;/./--)'
p8554
aS'(&AND)'
p8555
aa(lp8556
S'&R'
p8557
aasbsg389
(lp8558
g8309
a(icmyPackage
Sent
p8559
(dp8560
g393
I3
sg394
I38
sg395
S'Thus the notion of creative solution seems to depend on the ability available to push an idea through.'
p8561
sg397
I0
sg398
I99
sg354
(lp8562
g8522
asbasba(icmyPackage
CELink
p8563
(dp8564
g3
(lp8565
g5
(g6
g7
(lp8566
g5
(g6
g7
(lp8567
g5
(g6
g7
(lp8568
g5
(g6
g7
(lp8569
VIf
p8570
atp8571
Rp8572
(dp8573
g16
VIN
p8574
sbag5
(g6
g7
(lp8575
g5
(g6
g7
(lp8576
g5
(g6
g7
(lp8577
Vone
p8578
atp8579
Rp8580
(dp8581
g16
VPRP
p8582
sbatp8583
Rp8584
(dp8585
g16
VNP
p8586
sbag5
(g6
g7
(lp8587
g5
(g6
g7
(lp8588
g5
(g6
g7
(lp8589
Vstarts
p8590
atp8591
Rp8592
(dp8593
g16
VVBZ
p8594
sbag5
(g6
g7
(lp8595
g5
(g6
g7
(lp8596
Vat
p8597
atp8598
Rp8599
(dp8600
g16
VIN
p8601
sbag5
(g6
g7
(lp8602
g5
(g6
g7
(lp8603
Vthe
p8604
atp8605
Rp8606
(dp8607
g16
VDT
p8608
sbag5
(g6
g7
(lp8609
Vtop
p8610
atp8611
Rp8612
(dp8613
g16
VNN
p8614
sbatp8615
Rp8616
(dp8617
g16
VNP
p8618
sbatp8619
Rp8620
(dp8621
g16
VPP
p8622
sbatp8623
Rp8624
(dp8625
g16
VVP
p8626
sbag5
(g6
g7
(lp8627
Vand
p8628
atp8629
Rp8630
(dp8631
g16
VCC
p8632
sbag5
(g6
g7
(lp8633
g5
(g6
g7
(lp8634
Vcomputes
p8635
atp8636
Rp8637
(dp8638
g16
VVBZ
p8639
sbag5
(g6
g7
(lp8640
g5
(g6
g7
(lp8641
Vthe
p8642
atp8643
Rp8644
(dp8645
g16
VDT
p8646
sbag5
(g6
g7
(lp8647
Vsuccessive
p8648
atp8649
Rp8650
(dp8651
g16
VJJ
p8652
sbag5
(g6
g7
(lp8653
Vparities
p8654
atp8655
Rp8656
(dp8657
g16
VNNS
p8658
sbatp8659
Rp8660
(dp8661
g16
VNP
p8662
sbatp8663
Rp8664
(dp8665
g16
VVP
p8666
sbatp8667
Rp8668
(dp8669
g16
VVP
p8670
sbatp8671
Rp8672
(dp8673
g16
g208
sbatp8674
Rp8675
(dp8676
g16
VSBAR
p8677
sbag5
(g6
g7
(lp8678
g959
atp8679
Rp8680
(dp8681
g16
g959
sbag5
(g6
g7
(lp8682
g5
(g6
g7
(lp8683
Vthere
p8684
atp8685
Rp8686
(dp8687
g16
VEX
p8688
sbatp8689
Rp8690
(dp8691
g16
VNP
p8692
sbag5
(g6
g7
(lp8693
g5
(g6
g7
(lp8694
Vis
p8695
atp8696
Rp8697
(dp8698
g16
VVBZ
p8699
sbag5
(g6
g7
(lp8700
g5
(g6
g7
(lp8701
g5
(g6
g7
(lp8702
g58
atp8703
Rp8704
(dp8705
g16
VDT
p8706
sbag5
(g6
g7
(lp8707
Vjog
p8708
atp8709
Rp8710
(dp8711
g16
VNN
p8712
sbatp8713
Rp8714
(dp8715
g16
VNP
p8716
sbag5
(g6
g7
(lp8717
g5
(g6
g7
(lp8718
Vin
p8719
atp8720
Rp8721
(dp8722
g16
VIN
p8723
sbag5
(g6
g7
(lp8724
g5
(g6
g7
(lp8725
Vparity
p8726
atp8727
Rp8728
(dp8729
g16
VNN
p8730
sbatp8731
Rp8732
(dp8733
g16
VNP
p8734
sbatp8735
Rp8736
(dp8737
g16
VPP
p8738
sbag5
(g6
g7
(lp8739
g5
(g6
g7
(lp8740
g5
(g6
g7
(lp8741
Vwhen
p8742
atp8743
Rp8744
(dp8745
g16
VWRB
p8746
sbatp8747
Rp8748
(dp8749
g16
VWHADVP
p8750
sbag5
(g6
g7
(lp8751
g5
(g6
g7
(lp8752
g5
(g6
g7
(lp8753
Van
p8754
atp8755
Rp8756
(dp8757
g16
VDT
p8758
sbag5
(g6
g7
(lp8759
Vexcluded
p8760
atp8761
Rp8762
(dp8763
g16
VVBN
p8764
sbag5
(g6
g7
(lp8765
Vsquare
p8766
atp8767
Rp8768
(dp8769
g16
VNN
p8770
sbatp8771
Rp8772
(dp8773
g16
VNP
p8774
sbag5
(g6
g7
(lp8775
g5
(g6
g7
(lp8776
Vis
p8777
atp8778
Rp8779
(dp8780
g16
VVBZ
p8781
sbag5
(g6
g7
(lp8782
g5
(g6
g7
(lp8783
Vencountered
p8784
atp8785
Rp8786
(dp8787
g16
VVBN
p8788
sbatp8789
Rp8790
(dp8791
g16
VVP
p8792
sbatp8793
Rp8794
(dp8795
g16
VVP
p8796
sbatp8797
Rp8798
(dp8799
g16
g208
sbatp8800
Rp8801
(dp8802
g16
VSBAR
p8803
sbatp8804
Rp8805
(dp8806
g16
VNP
p8807
sbatp8808
Rp8809
(dp8810
g16
VVP
p8811
sbag5
(g6
g7
(lp8812
g336
atp8813
Rp8814
(dp8815
g16
g336
sbatp8816
Rp8817
(dp8818
g16
g208
sbatp8819
Rp8820
(dp8821
g16
VROOT
p8822
sbasg347
(icmyPackage
CorE
p8823
(dp8824
g350
(lp8825
(I0
I1
tp8826
a(I0
I10
tp8827
asg354
g8672
sbsg355
(icmyPackage
CorE
p8828
(dp8829
g350
(lp8830
(I0
I12
tp8831
a(I0
I24
tp8832
asg354
g5
(g6
g7
(lp8833
g8690
ag8809
ag8814
atp8834
Rp8835
(dp8836
g16
g365
sbsbsg366
(icmyPackage
pattern
p8837
(dp8838
g369
I0
sg370
I0
sg371
(lp8839
(lp8840
(lp8841
S'if'
p8842
aS'once'
p8843
aaa(lp8844
g7044
aasg377
(lp8845
I1
aI1
aI1
asg379
(lp8846
S'If some light and mobile detection devices can be invented in the future, many new applications can be imagined, for example, people can get some services while thinking.'
p8847
asg382
I15
sg383
(lp8848
(lp8849
a(lp8850
S'&C@Complete@'
p8851
aa(lp8852
S'&R@Complete@'
p8853
aasbsg389
(lp8854
(icmyPackage
Sent
p8855
(dp8856
g393
I3
sg394
I39
sg395
S'If one starts at the top and computes the successive parities, there is a jog in parity when an excluded square is encountered.'
p8857
sg397
I0
sg398
I101
sg354
(lp8858
g8820
asbasba(icmyPackage
CELink
p8859
(dp8860
g3
(lp8861
g5
(g6
g7
(lp8862
g5
(g6
g7
(lp8863
g5
(g6
g7
(lp8864
g5
(g6
g7
(lp8865
g5
(g6
g7
(lp8866
VTaking
p8867
atp8868
Rp8869
(dp8870
g16
VVBG
p8871
sbag5
(g6
g7
(lp8872
g5
(g6
g7
(lp8873
Vinto
p8874
atp8875
Rp8876
(dp8877
g16
VIN
p8878
sbag5
(g6
g7
(lp8879
g5
(g6
g7
(lp8880
Vaccount
p8881
atp8882
Rp8883
(dp8884
g16
VNN
p8885
sbatp8886
Rp8887
(dp8888
g16
VNP
p8889
sbatp8890
Rp8891
(dp8892
g16
VPP
p8893
sbatp8894
Rp8895
(dp8896
g16
VVP
p8897
sbatp8898
Rp8899
(dp8900
g16
g208
sbag5
(g6
g7
(lp8901
g5
(g6
g7
(lp8902
Vthe
p8903
atp8904
Rp8905
(dp8906
g16
VDT
p8907
sbag5
(g6
g7
(lp8908
Vjog
p8909
atp8910
Rp8911
(dp8912
g16
VNN
p8913
sbag5
(g6
g7
(lp8914
Vone
p8915
atp8916
Rp8917
(dp8918
g16
VNN
p8919
sbatp8920
Rp8921
(dp8922
g16
VNP
p8923
sbag5
(g6
g7
(lp8924
g5
(g6
g7
(lp8925
Vgets
p8926
atp8927
Rp8928
(dp8929
g16
VVBZ
p8930
sbag5
(g6
g7
(lp8931
g5
(g6
g7
(lp8932
Van
p8933
atp8934
Rp8935
(dp8936
g16
VDT
p8937
sbag5
(g6
g7
(lp8938
Vanswer
p8939
atp8940
Rp8941
(dp8942
g16
VNN
p8943
sbatp8944
Rp8945
(dp8946
g16
VNP
p8947
sbag5
(g6
g7
(lp8948
g5
(g6
g7
(lp8949
Vas
p8950
atp8951
Rp8952
(dp8953
g16
VIN
p8954
sbag5
(g6
g7
(lp8955
g5
(g6
g7
(lp8956
Vto
p8957
atp8958
Rp8959
(dp8960
g16
VTO
p8961
sbag5
(g6
g7
(lp8962
g5
(g6
g7
(lp8963
g5
(g6
g7
(lp8964
Vthe
p8965
atp8966
Rp8967
(dp8968
g16
VDT
p8969
sbag5
(g6
g7
(lp8970
Vparity
p8971
atp8972
Rp8973
(dp8974
g16
VNN
p8975
sbatp8976
Rp8977
(dp8978
g16
VNP
p8979
sbag5
(g6
g7
(lp8980
g5
(g6
g7
(lp8981
Vof
p8982
atp8983
Rp8984
(dp8985
g16
VIN
p8986
sbag5
(g6
g7
(lp8987
g5
(g6
g7
(lp8988
g5
(g6
g7
(lp8989
Vthe
p8990
atp8991
Rp8992
(dp8993
g16
VDT
p8994
sbag5
(g6
g7
(lp8995
Vnumber
p8996
atp8997
Rp8998
(dp8999
g16
VNN
p9000
sbatp9001
Rp9002
(dp9003
g16
VNP
p9004
sbag5
(g6
g7
(lp9005
g5
(g6
g7
(lp9006
Vof
p9007
atp9008
Rp9009
(dp9010
g16
VIN
p9011
sbag5
(g6
g7
(lp9012
g5
(g6
g7
(lp9013
Vvertical
p9014
atp9015
Rp9016
(dp9017
g16
VJJ
p9018
sbag5
(g6
g7
(lp9019
Vdominoes
p9020
atp9021
Rp9022
(dp9023
g16
VNNS
p9024
sbatp9025
Rp9026
(dp9027
g16
VNP
p9028
sbatp9029
Rp9030
(dp9031
g16
VPP
p9032
sbatp9033
Rp9034
(dp9035
g16
VNP
p9036
sbatp9037
Rp9038
(dp9039
g16
VPP
p9040
sbatp9041
Rp9042
(dp9043
g16
VNP
p9044
sbatp9045
Rp9046
(dp9047
g16
VPP
p9048
sbatp9049
Rp9050
(dp9051
g16
VPP
p9052
sbatp9053
Rp9054
(dp9055
g16
VVP
p9056
sbag5
(g6
g7
(lp9057
g336
atp9058
Rp9059
(dp9060
g16
g336
sbatp9061
Rp9062
(dp9063
g16
g208
sbatp9064
Rp9065
(dp9066
g16
VROOT
p9067
sbasg347
(icmyPackage
CorE
p9068
(dp9069
g350
(lp9070
(I0
I0
tp9071
a(I0
I2
tp9072
asg354
g8899
sbsg355
(icmyPackage
CorE
p9073
(dp9074
g350
(lp9075
(I0
I3
tp9076
a(I0
I19
tp9077
asg354
g5
(g6
g7
(lp9078
g8921
ag9054
ag9059
atp9079
Rp9080
(dp9081
g16
g365
sbsbsg366
g5131
sg389
(lp9082
(icmyPackage
Sent
p9083
(dp9084
g393
I3
sg394
I39
sg395
S'Taking into account the jog one gets an answer as to the parity of the number of vertical dominoes.'
p9085
sg397
I0
sg398
I102
sg354
(lp9086
g9065
asbasba(icmyPackage
CELink
p9087
(dp9088
g3
(lp9089
g5
(g6
g7
(lp9090
g5
(g6
g7
(lp9091
g5
(g6
g7
(lp9092
g5
(g6
g7
(lp9093
VIn
p9094
atp9095
Rp9096
(dp9097
g16
VIN
p9098
sbag5
(g6
g7
(lp9099
g5
(g6
g7
(lp9100
Vthis
p9101
atp9102
Rp9103
(dp9104
g16
VDT
p9105
sbag5
(g6
g7
(lp9106
Vsection
p9107
atp9108
Rp9109
(dp9110
g16
VNN
p9111
sbatp9112
Rp9113
(dp9114
g16
VNP
p9115
sbatp9116
Rp9117
(dp9118
g16
VPP
p9119
sbag5
(g6
g7
(lp9120
g5
(g6
g7
(lp9121
g3970
atp9122
Rp9123
(dp9124
g16
VPRP
p9125
sbatp9126
Rp9127
(dp9128
g16
VNP
p9129
sbag5
(g6
g7
(lp9130
g5
(g6
g7
(lp9131
Vhave
p9132
atp9133
Rp9134
(dp9135
g16
VVBP
p9136
sbag5
(g6
g7
(lp9137
g5
(g6
g7
(lp9138
Vstriven
p9139
atp9140
Rp9141
(dp9142
g16
VVBN
p9143
sbag5
(g6
g7
(lp9144
g5
(g6
g7
(lp9145
Vfor
p9146
atp9147
Rp9148
(dp9149
g16
VIN
p9150
sbag5
(g6
g7
(lp9151
g5
(g6
g7
(lp9152
g5
(g6
g7
(lp9153
Vconcise
p9154
atp9155
Rp9156
(dp9157
g16
VJJ
p9158
sbag5
(g6
g7
(lp9159
Vexpressions
p9160
atp9161
Rp9162
(dp9163
g16
VNNS
p9164
sbatp9165
Rp9166
(dp9167
g16
VNP
p9168
sbag5
(g6
g7
(lp9169
g5
(g6
g7
(lp9170
Vof
p9171
atp9172
Rp9173
(dp9174
g16
VIN
p9175
sbag5
(g6
g7
(lp9176
g5
(g6
g7
(lp9177
Vthe
p9178
atp9179
Rp9180
(dp9181
g16
VDT
p9182
sbag5
(g6
g7
(lp9183
Vcreative
p9184
atp9185
Rp9186
(dp9187
g16
VJJ
p9188
sbag5
(g6
g7
(lp9189
Videa
p9190
atp9191
Rp9192
(dp9193
g16
VNN
p9194
sbatp9195
Rp9196
(dp9197
g16
VNP
p9198
sbatp9199
Rp9200
(dp9201
g16
VPP
p9202
sbatp9203
Rp9204
(dp9205
g16
VNP
p9206
sbatp9207
Rp9208
(dp9209
g16
VPP
p9210
sbatp9211
Rp9212
(dp9213
g16
VVP
p9214
sbatp9215
Rp9216
(dp9217
g16
VVP
p9218
sbag5
(g6
g7
(lp9219
g336
atp9220
Rp9221
(dp9222
g16
g336
sbatp9223
Rp9224
(dp9225
g16
g208
sbatp9226
Rp9227
(dp9228
g16
VROOT
p9229
sbag5
(g6
g7
(lp9230
g5
(g6
g7
(lp9231
g5
(g6
g7
(lp9232
g5
(g6
g7
(lp9233
VThe
p9234
atp9235
Rp9236
(dp9237
g16
VDT
p9238
sbag5
(g6
g7
(lp9239
Vreason
p9240
atp9241
Rp9242
(dp9243
g16
VNN
p9244
sbatp9245
Rp9246
(dp9247
g16
VNP
p9248
sbag5
(g6
g7
(lp9249
g5
(g6
g7
(lp9250
Vis
p9251
atp9252
Rp9253
(dp9254
g16
VVBZ
p9255
sbag5
(g6
g7
(lp9256
g5
(g6
g7
(lp9257
g5
(g6
g7
(lp9258
Vto
p9259
atp9260
Rp9261
(dp9262
g16
VTO
p9263
sbag5
(g6
g7
(lp9264
g5
(g6
g7
(lp9265
Vestablish
p9266
atp9267
Rp9268
(dp9269
g16
VVB
p9270
sbag5
(g6
g7
(lp9271
g5
(g6
g7
(lp9272
Vthat
p9273
atp9274
Rp9275
(dp9276
g16
VIN
p9277
sbag5
(g6
g7
(lp9278
g5
(g6
g7
(lp9279
g5
(g6
g7
(lp9280
Vthere
p9281
atp9282
Rp9283
(dp9284
g16
VEX
p9285
sbatp9286
Rp9287
(dp9288
g16
VNP
p9289
sbag5
(g6
g7
(lp9290
g5
(g6
g7
(lp9291
Vis
p9292
atp9293
Rp9294
(dp9295
g16
VVBZ
p9296
sbag5
(g6
g7
(lp9297
g5
(g6
g7
(lp9298
g5
(g6
g7
(lp9299
Vone
p9300
atp9301
Rp9302
(dp9303
g16
VCD
p9304
sbag5
(g6
g7
(lp9305
Videa
p9306
atp9307
Rp9308
(dp9309
g16
VNN
p9310
sbatp9311
Rp9312
(dp9313
g16
VNP
p9314
sbag5
(g6
g7
(lp9315
g5
(g6
g7
(lp9316
Vin
p9317
atp9318
Rp9319
(dp9320
g16
VIN
p9321
sbag5
(g6
g7
(lp9322
g5
(g6
g7
(lp9323
g5
(g6
g7
(lp9324
Veach
p9325
atp9326
Rp9327
(dp9328
g16
VDT
p9329
sbatp9330
Rp9331
(dp9332
g16
VNP
p9333
sbag5
(g6
g7
(lp9334
g5
(g6
g7
(lp9335
Vof
p9336
atp9337
Rp9338
(dp9339
g16
VIN
p9340
sbag5
(g6
g7
(lp9341
g5
(g6
g7
(lp9342
Vthe
p9343
atp9344
Rp9345
(dp9346
g16
VDT
p9347
sbag5
(g6
g7
(lp9348
Vcases
p9349
atp9350
Rp9351
(dp9352
g16
VNNS
p9353
sbatp9354
Rp9355
(dp9356
g16
VNP
p9357
sbatp9358
Rp9359
(dp9360
g16
VPP
p9361
sbatp9362
Rp9363
(dp9364
g16
VNP
p9365
sbatp9366
Rp9367
(dp9368
g16
VPP
p9369
sbatp9370
Rp9371
(dp9372
g16
VNP
p9373
sbatp9374
Rp9375
(dp9376
g16
VVP
p9377
sbatp9378
Rp9379
(dp9380
g16
g208
sbatp9381
Rp9382
(dp9383
g16
VSBAR
p9384
sbatp9385
Rp9386
(dp9387
g16
VVP
p9388
sbatp9389
Rp9390
(dp9391
g16
VVP
p9392
sbatp9393
Rp9394
(dp9395
g16
g208
sbatp9396
Rp9397
(dp9398
g16
VVP
p9399
sbag5
(g6
g7
(lp9400
g336
atp9401
Rp9402
(dp9403
g16
g336
sbatp9404
Rp9405
(dp9406
g16
g208
sbatp9407
Rp9408
(dp9409
g16
VROOT
p9410
sbasg347
(icmyPackage
CorE
p9411
(dp9412
g350
(lp9413
(I1
I6
tp9414
a(I1
I15
tp9415
asg354
g5
(g6
g7
(lp9416
g9379
ag9402
atp9417
Rp9418
(dp9419
g16
g365
sbsbsg355
(icmyPackage
CorE
p9420
(dp9421
g350
(lp9422
(I0
I0
tp9423
a(I0
I12
tp9424
asg354
g5
(g6
g7
(lp9425
g9117
ag9127
ag9216
atp9426
Rp9427
(dp9428
g16
g365
sbsbsg366
(icmyPackage
pattern
p9429
(dp9430
g369
I1
sg370
I1
sg371
(lp9431
(lp9432
S'reason'
p9433
aa(lp9434
(lp9435
S'that'
p9436
aS'because'
p9437
aaasg377
(lp9438
I4
aI2
aI1
asg379
(lp9439
S'Amazing things will happen. The main reason was that the operation effect of Danjiangkou reservoir for runoff was more in the low water period than in the flood period.'
p9440
asg382
I140
sg383
(lp9441
(lp9442
S'&R'
p9443
aS'(,/./;/--)'
p9444
aS'&ONE'
p9445
aS'(&ADJ)'
p9446
aa(lp9447
S'(for &THIS (&NP))'
p9448
aS'&BE'
p9449
aa(lp9450
S'&C'
p9451
aasbsg389
(lp9452
(icmyPackage
Sent
p9453
(dp9454
g393
I3
sg394
I44
sg395
S'In this section I have striven for concise expressions of the creative idea.'
p9455
sg397
I0
sg398
I111
sg354
(lp9456
g9227
asba(icmyPackage
Sent
p9457
(dp9458
g393
I3
sg394
I44
sg395
S'The reason is to establish that there is one idea in each of the cases.'
p9459
sg397
I0
sg398
I112
sg354
(lp9460
g9408
asbasba(icmyPackage
CELink
p9461
(dp9462
g3
(lp9463
g5
(g6
g7
(lp9464
g5
(g6
g7
(lp9465
g5
(g6
g7
(lp9466
g5
(g6
g7
(lp9467
VObviously
p9468
atp9469
Rp9470
(dp9471
g16
VRB
p9472
sbatp9473
Rp9474
(dp9475
g16
VADVP
p9476
sbag5
(g6
g7
(lp9477
g5
(g6
g7
(lp9478
Vit
p9479
atp9480
Rp9481
(dp9482
g16
VPRP
p9483
sbatp9484
Rp9485
(dp9486
g16
VNP
p9487
sbag5
(g6
g7
(lp9488
g5
(g6
g7
(lp9489
Vwill
p9490
atp9491
Rp9492
(dp9493
g16
VMD
p9494
sbag5
(g6
g7
(lp9495
g5
(g6
g7
(lp9496
Vbe
p9497
atp9498
Rp9499
(dp9500
g16
VVB
p9501
sbag5
(g6
g7
(lp9502
g5
(g6
g7
(lp9503
Veasier
p9504
atp9505
Rp9506
(dp9507
g16
VJJR
p9508
sbatp9509
Rp9510
(dp9511
g16
VADJP
p9512
sbag5
(g6
g7
(lp9513
g5
(g6
g7
(lp9514
g5
(g6
g7
(lp9515
Vto
p9516
atp9517
Rp9518
(dp9519
g16
VTO
p9520
sbag5
(g6
g7
(lp9521
g5
(g6
g7
(lp9522
Vmake
p9523
atp9524
Rp9525
(dp9526
g16
VVB
p9527
sbag5
(g6
g7
(lp9528
g5
(g6
g7
(lp9529
g5
(g6
g7
(lp9530
Vcomputers
p9531
atp9532
Rp9533
(dp9534
g16
VNNS
p9535
sbatp9536
Rp9537
(dp9538
g16
VNP
p9539
sbag5
(g6
g7
(lp9540
g5
(g6
g7
(lp9541
Vcome
p9542
atp9543
Rp9544
(dp9545
g16
VVB
p9546
sbag5
(g6
g7
(lp9547
g5
(g6
g7
(lp9548
Vup
p9549
atp9550
Rp9551
(dp9552
g16
VRP
p9553
sbatp9554
Rp9555
(dp9556
g16
VPRT
p9557
sbag5
(g6
g7
(lp9558
g5
(g6
g7
(lp9559
Vwith
p9560
atp9561
Rp9562
(dp9563
g16
VIN
p9564
sbag5
(g6
g7
(lp9565
g5
(g6
g7
(lp9566
Vcreative
p9567
atp9568
Rp9569
(dp9570
g16
VJJ
p9571
sbag5
(g6
g7
(lp9572
Vsolutions
p9573
atp9574
Rp9575
(dp9576
g16
VNNS
p9577
sbatp9578
Rp9579
(dp9580
g16
VNP
p9581
sbatp9582
Rp9583
(dp9584
g16
VPP
p9585
sbatp9586
Rp9587
(dp9588
g16
VVP
p9589
sbatp9590
Rp9591
(dp9592
g16
g208
sbatp9593
Rp9594
(dp9595
g16
VVP
p9596
sbatp9597
Rp9598
(dp9599
g16
VVP
p9600
sbatp9601
Rp9602
(dp9603
g16
g208
sbag5
(g6
g7
(lp9604
g5
(g6
g7
(lp9605
Vif
p9606
atp9607
Rp9608
(dp9609
g16
VIN
p9610
sbag5
(g6
g7
(lp9611
g5
(g6
g7
(lp9612
g5
(g6
g7
(lp9613
g5
(g6
g7
(lp9614
Vthe
p9615
atp9616
Rp9617
(dp9618
g16
VDT
p9619
sbag5
(g6
g7
(lp9620
Videa
p9621
atp9622
Rp9623
(dp9624
g16
VNN
p9625
sbatp9626
Rp9627
(dp9628
g16
VNP
p9629
sbag5
(g6
g7
(lp9630
g5
(g6
g7
(lp9631
Vof
p9632
atp9633
Rp9634
(dp9635
g16
VIN
p9636
sbag5
(g6
g7
(lp9637
g5
(g6
g7
(lp9638
Vthe
p9639
atp9640
Rp9641
(dp9642
g16
VDT
p9643
sbag5
(g6
g7
(lp9644
Vsolution
p9645
atp9646
Rp9647
(dp9648
g16
VNN
p9649
sbatp9650
Rp9651
(dp9652
g16
VNP
p9653
sbatp9654
Rp9655
(dp9656
g16
VPP
p9657
sbatp9658
Rp9659
(dp9660
g16
VNP
p9661
sbag5
(g6
g7
(lp9662
g5
(g6
g7
(lp9663
Vis
p9664
atp9665
Rp9666
(dp9667
g16
VVBZ
p9668
sbag5
(g6
g7
(lp9669
g5
(g6
g7
(lp9670
Vjust
p9671
atp9672
Rp9673
(dp9674
g16
VRB
p9675
sbag5
(g6
g7
(lp9676
Vone
p9677
atp9678
Rp9679
(dp9680
g16
VCD
p9681
sbag5
(g6
g7
(lp9682
Vthing
p9683
atp9684
Rp9685
(dp9686
g16
VNN
p9687
sbatp9688
Rp9689
(dp9690
g16
VNP
p9691
sbag5
(g6
g7
(lp9692
V--
p9693
atp9694
Rp9695
(dp9696
g16
g2326
sbag5
(g6
g7
(lp9697
g5
(g6
g7
(lp9698
g5
(g6
g7
(lp9699
g5
(g6
g7
(lp9700
Vwhatever
p9701
atp9702
Rp9703
(dp9704
g16
VWDT
p9705
sbag5
(g6
g7
(lp9706
Vkind
p9707
atp9708
Rp9709
(dp9710
g16
VNN
p9711
sbatp9712
Rp9713
(dp9714
g16
VWHNP
p9715
sbag5
(g6
g7
(lp9716
g5
(g6
g7
(lp9717
Vof
p9718
atp9719
Rp9720
(dp9721
g16
VIN
p9722
sbag5
(g6
g7
(lp9723
g5
(g6
g7
(lp9724
Vthing
p9725
atp9726
Rp9727
(dp9728
g16
VNN
p9729
sbatp9730
Rp9731
(dp9732
g16
VNP
p9733
sbatp9734
Rp9735
(dp9736
g16
VPP
p9737
sbatp9738
Rp9739
(dp9740
g16
VWHNP
p9741
sbag5
(g6
g7
(lp9742
g5
(g6
g7
(lp9743
g5
(g6
g7
(lp9744
Vthat
p9745
atp9746
Rp9747
(dp9748
g16
VDT
p9749
sbatp9750
Rp9751
(dp9752
g16
VNP
p9753
sbag5
(g6
g7
(lp9754
g5
(g6
g7
(lp9755
Vmay
p9756
atp9757
Rp9758
(dp9759
g16
VMD
p9760
sbag5
(g6
g7
(lp9761
g5
(g6
g7
(lp9762
Vbe
p9763
atp9764
Rp9765
(dp9766
g16
VVB
p9767
sbatp9768
Rp9769
(dp9770
g16
VVP
p9771
sbatp9772
Rp9773
(dp9774
g16
VVP
p9775
sbatp9776
Rp9777
(dp9778
g16
g208
sbatp9779
Rp9780
(dp9781
g16
VSBAR
p9782
sbatp9783
Rp9784
(dp9785
g16
VVP
p9786
sbatp9787
Rp9788
(dp9789
g16
g208
sbatp9790
Rp9791
(dp9792
g16
VSBAR
p9793
sbatp9794
Rp9795
(dp9796
g16
VVP
p9797
sbatp9798
Rp9799
(dp9800
g16
VVP
p9801
sbag5
(g6
g7
(lp9802
g336
atp9803
Rp9804
(dp9805
g16
g336
sbatp9806
Rp9807
(dp9808
g16
g208
sbatp9809
Rp9810
(dp9811
g16
VROOT
p9812
sbasg347
(icmyPackage
CorE
p9813
(dp9814
g350
(lp9815
(I0
I14
tp9816
a(I0
I31
tp9817
asg354
g5
(g6
g7
(lp9818
g9788
ag9804
atp9819
Rp9820
(dp9821
g16
g365
sbsbsg355
(icmyPackage
CorE
p9822
(dp9823
g350
(lp9824
(I0
I1
tp9825
a(I0
I12
tp9826
asg354
g5
(g6
g7
(lp9827
g9485
ag9492
ag9499
ag9510
ag9602
atp9828
Rp9829
(dp9830
g16
g365
sbsbsg366
g689
sg389
(lp9831
(icmyPackage
Sent
p9832
(dp9833
g393
I3
sg394
I44
sg395
S'Obviously it will be easier to make computers come up with creative solutions if the idea of the solution is just one thing -- whatever kind of thing that may be.'
p9834
sg397
I0
sg398
I113
sg354
(lp9835
g9810
asbasba(icmyPackage
CELink
p9836
(dp9837
g3
(lp9838
g5
(g6
g7
(lp9839
g5
(g6
g7
(lp9840
g5
(g6
g7
(lp9841
g5
(g6
g7
(lp9842
VIf
p9843
atp9844
Rp9845
(dp9846
g16
VIN
p9847
sbag5
(g6
g7
(lp9848
g5
(g6
g7
(lp9849
g5
(g6
g7
(lp9850
Vyou
p9851
atp9852
Rp9853
(dp9854
g16
VPRP
p9855
sbatp9856
Rp9857
(dp9858
g16
VNP
p9859
sbag5
(g6
g7
(lp9860
g5
(g6
g7
(lp9861
Vdo
p9862
atp9863
Rp9864
(dp9865
g16
VVBP
p9866
sbag5
(g6
g7
(lp9867
Vn't
p9868
atp9869
Rp9870
(dp9871
g16
VRB
p9872
sbag5
(g6
g7
(lp9873
g5
(g6
g7
(lp9874
Vlike
p9875
atp9876
Rp9877
(dp9878
g16
VVB
p9879
sbag5
(g6
g7
(lp9880
g5
(g6
g7
(lp9881
g5
(g6
g7
(lp9882
Vreading
p9883
atp9884
Rp9885
(dp9886
g16
VVBG
p9887
sbag5
(g6
g7
(lp9888
g5
(g6
g7
(lp9889
Vthem
p9890
atp9891
Rp9892
(dp9893
g16
VPRP
p9894
sbatp9895
Rp9896
(dp9897
g16
VNP
p9898
sbatp9899
Rp9900
(dp9901
g16
VVP
p9902
sbatp9903
Rp9904
(dp9905
g16
g208
sbatp9906
Rp9907
(dp9908
g16
VVP
p9909
sbatp9910
Rp9911
(dp9912
g16
VVP
p9913
sbatp9914
Rp9915
(dp9916
g16
g208
sbatp9917
Rp9918
(dp9919
g16
VSBAR
p9920
sbag5
(g6
g7
(lp9921
g959
atp9922
Rp9923
(dp9924
g16
g959
sbag5
(g6
g7
(lp9925
g5
(g6
g7
(lp9926
g5
(g6
g7
(lp9927
Vthe
p9928
atp9929
Rp9930
(dp9931
g16
VDT
p9932
sbag5
(g6
g7
(lp9933
Vrest
p9934
atp9935
Rp9936
(dp9937
g16
VNN
p9938
sbatp9939
Rp9940
(dp9941
g16
VNP
p9942
sbag5
(g6
g7
(lp9943
g5
(g6
g7
(lp9944
Vof
p9945
atp9946
Rp9947
(dp9948
g16
VIN
p9949
sbag5
(g6
g7
(lp9950
g5
(g6
g7
(lp9951
Vthis
p9952
atp9953
Rp9954
(dp9955
g16
VDT
p9956
sbag5
(g6
g7
(lp9957
Vsection
p9958
atp9959
Rp9960
(dp9961
g16
VNN
p9962
sbatp9963
Rp9964
(dp9965
g16
VNP
p9966
sbatp9967
Rp9968
(dp9969
g16
VPP
p9970
sbatp9971
Rp9972
(dp9973
g16
VNP
p9974
sbag5
(g6
g7
(lp9975
g5
(g6
g7
(lp9976
Vmay
p9977
atp9978
Rp9979
(dp9980
g16
VMD
p9981
sbag5
(g6
g7
(lp9982
g5
(g6
g7
(lp9983
Vbe
p9984
atp9985
Rp9986
(dp9987
g16
VVB
p9988
sbag5
(g6
g7
(lp9989
g5
(g6
g7
(lp9990
Vskipped
p9991
atp9992
Rp9993
(dp9994
g16
VJJ
p9995
sbatp9996
Rp9997
(dp9998
g16
VADJP
p9999
sbatp10000
Rp10001
(dp10002
g16
VVP
p10003
sbatp10004
Rp10005
(dp10006
g16
VVP
p10007
sbag5
(g6
g7
(lp10008
g336
atp10009
Rp10010
(dp10011
g16
g336
sbatp10012
Rp10013
(dp10014
g16
g208
sbatp10015
Rp10016
(dp10017
g16
VROOT
p10018
sbasg347
(icmyPackage
CorE
p10019
(dp10020
g350
(lp10021
(I0
I1
tp10022
a(I0
I6
tp10023
asg354
g9915
sbsg355
(icmyPackage
CorE
p10024
(dp10025
g350
(lp10026
(I0
I8
tp10027
a(I0
I16
tp10028
asg354
g5
(g6
g7
(lp10029
g9972
ag10005
ag10010
atp10030
Rp10031
(dp10032
g16
g365
sbsbsg366
g8837
sg389
(lp10033
(icmyPackage
Sent
p10034
(dp10035
g393
I4
sg394
I47
sg395
S"If you don't like reading them, the rest of this section may be skipped."
p10036
sg397
I0
sg398
I117
sg354
(lp10037
g10016
asbasba(icmyPackage
CELink
p10038
(dp10039
g3
(lp10040
g5
(g6
g7
(lp10041
g5
(g6
g7
(lp10042
g5
(g6
g7
(lp10043
g5
(g6
g7
(lp10044
VThey
p10045
atp10046
Rp10047
(dp10048
g16
VPRP
p10049
sbatp10050
Rp10051
(dp10052
g16
VNP
p10053
sbag5
(g6
g7
(lp10054
g5
(g6
g7
(lp10055
Vwould
p10056
atp10057
Rp10058
(dp10059
g16
VMD
p10060
sbag5
(g6
g7
(lp10061
g5
(g6
g7
(lp10062
Vhave
p10063
atp10064
Rp10065
(dp10066
g16
VVB
p10067
sbag5
(g6
g7
(lp10068
g5
(g6
g7
(lp10069
g5
(g6
g7
(lp10070
Vto
p10071
atp10072
Rp10073
(dp10074
g16
VTO
p10075
sbag5
(g6
g7
(lp10076
g5
(g6
g7
(lp10077
Vbe
p10078
atp10079
Rp10080
(dp10081
g16
VVB
p10082
sbag5
(g6
g7
(lp10083
g5
(g6
g7
(lp10084
Vdistinct
p10085
atp10086
Rp10087
(dp10088
g16
VJJ
p10089
sbatp10090
Rp10091
(dp10092
g16
VADJP
p10093
sbag5
(g6
g7
(lp10094
g5
(g6
g7
(lp10095
Vsince
p10096
atp10097
Rp10098
(dp10099
g16
VIN
p10100
sbag5
(g6
g7
(lp10101
g5
(g6
g7
(lp10102
g5
(g6
g7
(lp10103
Vaxioms
p10104
atp10105
Rp10106
(dp10107
g16
VNNS
p10108
sbag5
(g6
g7
(lp10109
g5517
atp10110
Rp10111
(dp10112
g16
VCD
p10113
sbag5
(g6
g7
(lp10114
g959
atp10115
Rp10116
(dp10117
g16
g959
sbag5
(g6
g7
(lp10118
V2
p10119
atp10120
Rp10121
(dp10122
g16
VCD
p10123
sbag5
(g6
g7
(lp10124
g959
atp10125
Rp10126
(dp10127
g16
g959
sbag5
(g6
g7
(lp10128
Vand
p10129
atp10130
Rp10131
(dp10132
g16
VCC
p10133
sbag5
(g6
g7
(lp10134
V3
p10135
atp10136
Rp10137
(dp10138
g16
VCD
p10139
sbatp10140
Rp10141
(dp10142
g16
VNP
p10143
sbag5
(g6
g7
(lp10144
g5
(g6
g7
(lp10145
Vallow
p10146
atp10147
Rp10148
(dp10149
g16
VVBP
p10150
sbag5
(g6
g7
(lp10151
g5
(g6
g7
(lp10152
g5
(g6
g7
(lp10153
Vus
p10154
atp10155
Rp10156
(dp10157
g16
VPRP
p10158
sbatp10159
Rp10160
(dp10161
g16
VNP
p10162
sbag5
(g6
g7
(lp10163
g5
(g6
g7
(lp10164
Vto
p10165
atp10166
Rp10167
(dp10168
g16
VTO
p10169
sbag5
(g6
g7
(lp10170
g5
(g6
g7
(lp10171
Vprove
p10172
atp10173
Rp10174
(dp10175
g16
VVB
p10176
sbag5
(g6
g7
(lp10177
g5
(g6
g7
(lp10178
g5
(g6
g7
(lp10179
VL
p10180
atp10181
Rp10182
(dp10183
g16
VNNP
p10184
sbatp10185
Rp10186
(dp10187
g16
VNP
p10188
sbag5
(g6
g7
(lp10189
g5
(g6
g7
(lp10190
V-LRB-
p10191
atp10192
Rp10193
(dp10194
g16
V-LRB-
p10195
sbag5
(g6
g7
(lp10196
g5
(g6
g7
(lp10197
g5
(g6
g7
(lp10198
Vx
p10199
atp10200
Rp10201
(dp10202
g16
VSYM
p10203
sbatp10204
Rp10205
(dp10206
g16
VNP
p10207
sbag5
(g6
g7
(lp10208
g959
atp10209
Rp10210
(dp10211
g16
g959
sbag5
(g6
g7
(lp10212
g5
(g6
g7
(lp10213
Vy
p10214
atp10215
Rp10216
(dp10217
g16
VNN
p10218
sbatp10219
Rp10220
(dp10221
g16
VNP
p10222
sbatp10223
Rp10224
(dp10225
g16
VNP
p10226
sbag5
(g6
g7
(lp10227
V-RRB-
p10228
atp10229
Rp10230
(dp10231
g16
V-RRB-
p10232
sbatp10233
Rp10234
(dp10235
g16
VPRN
p10236
sbag5
(g6
g7
(lp10237
g5
(g6
g7
(lp10238
g5
(g6
g7
(lp10239
Vwhenever
p10240
atp10241
Rp10242
(dp10243
g16
VWRB
p10244
sbatp10245
Rp10246
(dp10247
g16
VWHADVP
p10248
sbag5
(g6
g7
(lp10249
g5
(g6
g7
(lp10250
g5
(g6
g7
(lp10251
Vthis
p10252
atp10253
Rp10254
(dp10255
g16
VDT
p10256
sbatp10257
Rp10258
(dp10259
g16
VNP
p10260
sbag5
(g6
g7
(lp10261
g5
(g6
g7
(lp10262
Vis
p10263
atp10264
Rp10265
(dp10266
g16
VVBZ
p10267
sbag5
(g6
g7
(lp10268
g5
(g6
g7
(lp10269
Vso
p10270
atp10271
Rp10272
(dp10273
g16
VRB
p10274
sbag5
(g6
g7
(lp10275
Vand
p10276
atp10277
Rp10278
(dp10279
g16
VCC
p10280
sbag5
(g6
g7
(lp10281
Vaxioms
p10282
atp10283
Rp10284
(dp10285
g16
VRB
p10286
sbatp10287
Rp10288
(dp10289
g16
VADVP
p10290
sbag5
(g6
g7
(lp10291
g5
(g6
g7
(lp10292
V4
p10293
atp10294
Rp10295
(dp10296
g16
VCD
p10297
sbag5
(g6
g7
(lp10298
Vand
p10299
atp10300
Rp10301
(dp10302
g16
VCC
p10303
sbag5
(g6
g7
(lp10304
V5
p10305
atp10306
Rp10307
(dp10308
g16
VCD
p10309
sbatp10310
Rp10311
(dp10312
g16
VNP
p10313
sbag5
(g6
g7
(lp10314
g5
(g6
g7
(lp10315
Vthen
p10316
atp10317
Rp10318
(dp10319
g16
VRB
p10320
sbag5
(g6
g7
(lp10321
g5
(g6
g7
(lp10322
Vallow
p10323
atp10324
Rp10325
(dp10326
g16
VVB
p10327
sbag5
(g6
g7
(lp10328
g5
(g6
g7
(lp10329
g5
(g6
g7
(lp10330
Vus
p10331
atp10332
Rp10333
(dp10334
g16
VPRP
p10335
sbatp10336
Rp10337
(dp10338
g16
VNP
p10339
sbag5
(g6
g7
(lp10340
g5
(g6
g7
(lp10341
Vto
p10342
atp10343
Rp10344
(dp10345
g16
VTO
p10346
sbag5
(g6
g7
(lp10347
g5
(g6
g7
(lp10348
Vshow
p10349
atp10350
Rp10351
(dp10352
g16
VVB
p10353
sbag5
(g6
g7
(lp10354
g5
(g6
g7
(lp10355
Vthat
p10356
atp10357
Rp10358
(dp10359
g16
VIN
p10360
sbag5
(g6
g7
(lp10361
g5
(g6
g7
(lp10362
g5
(g6
g7
(lp10363
g5
(g6
g7
(lp10364
g10180
atp10365
Rp10366
(dp10367
g16
VNNP
p10368
sbatp10369
Rp10370
(dp10371
g16
VNP
p10372
sbag5
(g6
g7
(lp10373
g5
(g6
g7
(lp10374
V-LRB-
p10375
atp10376
Rp10377
(dp10378
g16
V-LRB-
p10379
sbag5
(g6
g7
(lp10380
g5
(g6
g7
(lp10381
g5
(g6
g7
(lp10382
g10199
atp10383
Rp10384
(dp10385
g16
VSYM
p10386
sbatp10387
Rp10388
(dp10389
g16
VNP
p10390
sbag5
(g6
g7
(lp10391
g959
atp10392
Rp10393
(dp10394
g16
g959
sbag5
(g6
g7
(lp10395
g5
(g6
g7
(lp10396
g10214
atp10397
Rp10398
(dp10399
g16
VNN
p10400
sbatp10401
Rp10402
(dp10403
g16
VNP
p10404
sbatp10405
Rp10406
(dp10407
g16
VNP
p10408
sbag5
(g6
g7
(lp10409
V-RRB-
p10410
atp10411
Rp10412
(dp10413
g16
V-RRB-
p10414
sbatp10415
Rp10416
(dp10417
g16
VPRN
p10418
sbatp10419
Rp10420
(dp10421
g16
VNP
p10422
sbag5
(g6
g7
(lp10423
g5
(g6
g7
(lp10424
Vholds
p10425
atp10426
Rp10427
(dp10428
g16
VVBZ
p10429
sbag5
(g6
g7
(lp10430
g5
(g6
g7
(lp10431
Vonly
p10432
atp10433
Rp10434
(dp10435
g16
VRB
p10436
sbatp10437
Rp10438
(dp10439
g16
VADVP
p10440
sbag5
(g6
g7
(lp10441
g5
(g6
g7
(lp10442
Vfor
p10443
atp10444
Rp10445
(dp10446
g16
VIN
p10447
sbag5
(g6
g7
(lp10448
g5
(g6
g7
(lp10449
Vdistinct
p10450
atp10451
Rp10452
(dp10453
g16
VJJ
p10454
sbag5
(g6
g7
(lp10455
g10199
atp10456
Rp10457
(dp10458
g16
VNN
p10459
sbag5
(g6
g7
(lp10460
Vand
p10461
atp10462
Rp10463
(dp10464
g16
VCC
p10465
sbag5
(g6
g7
(lp10466
Vy.
p10467
atp10468
Rp10469
(dp10470
g16
VNN
p10471
sbatp10472
Rp10473
(dp10474
g16
VNP
p10475
sbatp10476
Rp10477
(dp10478
g16
VPP
p10479
sbatp10480
Rp10481
(dp10482
g16
VVP
p10483
sbatp10484
Rp10485
(dp10486
g16
g208
sbatp10487
Rp10488
(dp10489
g16
VSBAR
p10490
sbatp10491
Rp10492
(dp10493
g16
VVP
p10494
sbatp10495
Rp10496
(dp10497
g16
VVP
p10498
sbatp10499
Rp10500
(dp10501
g16
g208
sbatp10502
Rp10503
(dp10504
g16
VVP
p10505
sbatp10506
Rp10507
(dp10508
g16
g208
sbatp10509
Rp10510
(dp10511
g16
VVP
p10512
sbatp10513
Rp10514
(dp10515
g16
g208
sbatp10516
Rp10517
(dp10518
g16
VSBAR
p10519
sbatp10520
Rp10521
(dp10522
g16
VNP
p10523
sbatp10524
Rp10525
(dp10526
g16
VVP
p10527
sbatp10528
Rp10529
(dp10530
g16
VVP
p10531
sbatp10532
Rp10533
(dp10534
g16
g208
sbatp10535
Rp10536
(dp10537
g16
VVP
p10538
sbatp10539
Rp10540
(dp10541
g16
g208
sbatp10542
Rp10543
(dp10544
g16
VSBAR
p10545
sbatp10546
Rp10547
(dp10548
g16
VVP
p10549
sbatp10550
Rp10551
(dp10552
g16
VVP
p10553
sbatp10554
Rp10555
(dp10556
g16
g208
sbatp10557
Rp10558
(dp10559
g16
VVP
p10560
sbatp10561
Rp10562
(dp10563
g16
VVP
p10564
sbatp10565
Rp10566
(dp10567
g16
g208
sbatp10568
Rp10569
(dp10570
g16
VROOT
p10571
sbasg347
(icmyPackage
CorE
p10572
(dp10573
g350
(lp10574
(I0
I7
tp10575
a(I0
I51
tp10576
asg354
g10540
sbsg355
(icmyPackage
CorE
p10577
(dp10578
g350
(lp10579
(I0
I0
tp10580
a(I0
I5
tp10581
asg354
g5
(g6
g7
(lp10582
g10051
ag10058
ag10065
ag10073
ag10080
ag10091
atp10583
Rp10584
(dp10585
g16
g365
sbsbsg366
(icmyPackage
pattern
p10586
(dp10587
g369
I23
sg370
I1
sg371
(lp10588
(lp10589
S'since'
p10590
aasg377
(lp10591
I3
aI1
aI1
asg379
(lp10592
S'This is one of the simplest cases since the surface is so thin.'
p10593
aS'He could not answer the question, since he had not made up his mind.'
p10594
aS'That manager has been a basket case here since his wife left him.'
p10595
asg382
I79
sg383
(lp10596
(lp10597
S'&R@NCTime@'
p10598
aS'(,)'
p10599
aa(lp10600
S'&C@NCTime@'
p10601
aasbsg389
(lp10602
(icmyPackage
Sent
p10603
(dp10604
g393
I4
sg394
I73
sg395
S'They would have to be distinct since axioms 1, 2, and 3 allow us to prove L(x,y) whenever this is so and axioms 4 and 5 then allow us to show that L(x,y) holds only for distinct x and y.'
p10605
sg397
I0
sg398
I147
sg354
(lp10606
g10569
asbasba(icmyPackage
CELink
p10607
(dp10608
g3
(lp10609
g10540
asg347
(icmyPackage
CorE
p10610
(dp10611
g350
(lp10612
(I0
I0
tp10613
a(I0
I19
tp10614
asg354
g5
(g6
g7
(lp10615
g10141
ag10148
ag10160
ag10167
ag10174
ag10186
ag10234
ag10246
ag10258
ag10265
atp10616
Rp10617
(dp10618
g16
g365
sbsbsg355
(icmyPackage
CorE
p10619
(dp10620
g350
(lp10621
(I0
I21
tp10622
a(I0
I43
tp10623
asg354
g5
(g6
g7
(lp10624
g10278
ag10284
ag10311
ag10318
ag10325
ag10337
ag10344
ag10351
ag10358
ag10420
ag10427
ag10438
ag10445
ag10452
ag10457
ag10463
atp10625
Rp10626
(dp10627
g16
g365
sbsbsg366
g4977
sg389
(lp10628
g10603
asba(icmyPackage
CELink
p10629
(dp10630
g3
(lp10631
g5
(g6
g7
(lp10632
g5
(g6
g7
(lp10633
g5
(g6
g7
(lp10634
g5
(g6
g7
(lp10635
VWe
p10636
atp10637
Rp10638
(dp10639
g16
VPRP
p10640
sbatp10641
Rp10642
(dp10643
g16
VNP
p10644
sbag5
(g6
g7
(lp10645
g5
(g6
g7
(lp10646
g5
(g6
g7
(lp10647
g5
(g6
g7
(lp10648
Vthen
p10649
atp10650
Rp10651
(dp10652
g16
VRB
p10653
sbatp10654
Rp10655
(dp10656
g16
VADVP
p10657
sbag5
(g6
g7
(lp10658
Vlabel
p10659
atp10660
Rp10661
(dp10662
g16
VVBP
p10663
sbag5
(g6
g7
(lp10664
g5
(g6
g7
(lp10665
g5
(g6
g7
(lp10666
Vthe
p10667
atp10668
Rp10669
(dp10670
g16
VDT
p10671
sbag5
(g6
g7
(lp10672
Vsquares
p10673
atp10674
Rp10675
(dp10676
g16
VNNS
p10677
sbatp10678
Rp10679
(dp10680
g16
VNP
p10681
sbag5
(g6
g7
(lp10682
g5
(g6
g7
(lp10683
Vof
p10684
atp10685
Rp10686
(dp10687
g16
VIN
p10688
sbag5
(g6
g7
(lp10689
g5
(g6
g7
(lp10690
g58
atp10691
Rp10692
(dp10693
g16
VDT
p10694
sbag5
(g6
g7
(lp10695
Vcheckboard
p10696
atp10697
Rp10698
(dp10699
g16
VNN
p10700
sbatp10701
Rp10702
(dp10703
g16
VNP
p10704
sbatp10705
Rp10706
(dp10707
g16
VPP
p10708
sbatp10709
Rp10710
(dp10711
g16
VNP
p10712
sbatp10713
Rp10714
(dp10715
g16
VVP
p10716
sbag5
(g6
g7
(lp10717
Vand
p10718
atp10719
Rp10720
(dp10721
g16
VCC
p10722
sbag5
(g6
g7
(lp10723
g5
(g6
g7
(lp10724
Vplace
p10725
atp10726
Rp10727
(dp10728
g16
VVBP
p10729
sbag5
(g6
g7
(lp10730
g5
(g6
g7
(lp10731
g58
atp10732
Rp10733
(dp10734
g16
VDT
p10735
sbag5
(g6
g7
(lp10736
Vdomino
p10737
atp10738
Rp10739
(dp10740
g16
VNN
p10741
sbatp10742
Rp10743
(dp10744
g16
VNP
p10745
sbag5
(g6
g7
(lp10746
g5
(g6
g7
(lp10747
Von
p10748
atp10749
Rp10750
(dp10751
g16
VIN
p10752
sbag5
(g6
g7
(lp10753
g5
(g6
g7
(lp10754
g5
(g6
g7
(lp10755
Veach
p10756
atp10757
Rp10758
(dp10759
g16
VDT
p10760
sbag5
(g6
g7
(lp10761
Vsquare
p10762
atp10763
Rp10764
(dp10765
g16
VNN
p10766
sbatp10767
Rp10768
(dp10769
g16
VNP
p10770
sbag5
(g6
g7
(lp10771
g5
(g6
g7
(lp10772
V-LRB-
p10773
atp10774
Rp10775
(dp10776
g16
V-LRB-
p10777
sbag5
(g6
g7
(lp10778
g5
(g6
g7
(lp10779
g5
(g6
g7
(lp10780
g10199
atp10781
Rp10782
(dp10783
g16
VSYM
p10784
sbatp10785
Rp10786
(dp10787
g16
VNP
p10788
sbag5
(g6
g7
(lp10789
g959
atp10790
Rp10791
(dp10792
g16
g959
sbag5
(g6
g7
(lp10793
g5
(g6
g7
(lp10794
g10214
atp10795
Rp10796
(dp10797
g16
VNN
p10798
sbatp10799
Rp10800
(dp10801
g16
VNP
p10802
sbatp10803
Rp10804
(dp10805
g16
VNP
p10806
sbag5
(g6
g7
(lp10807
V-RRB-
p10808
atp10809
Rp10810
(dp10811
g16
V-RRB-
p10812
sbatp10813
Rp10814
(dp10815
g16
VPRN
p10816
sbag5
(g6
g7
(lp10817
g5
(g6
g7
(lp10818
g5
(g6
g7
(lp10819
Vthat
p10820
atp10821
Rp10822
(dp10823
g16
VWDT
p10824
sbatp10825
Rp10826
(dp10827
g16
VWHNP
p10828
sbag5
(g6
g7
(lp10829
g5
(g6
g7
(lp10830
g5
(g6
g7
(lp10831
g5
(g6
g7
(lp10832
Vsatisfies
p10833
atp10834
Rp10835
(dp10836
g16
VVBZ
p10837
sbag5
(g6
g7
(lp10838
g5
(g6
g7
(lp10839
g5
(g6
g7
(lp10840
g5
(g6
g7
(lp10841
g5
(g6
g7
(lp10842
VG1
p10843
atp10844
Rp10845
(dp10846
g16
VNNP
p10847
sbatp10848
Rp10849
(dp10850
g16
VNP
p10851
sbag5
(g6
g7
(lp10852
g5
(g6
g7
(lp10853
V-LRB-
p10854
atp10855
Rp10856
(dp10857
g16
V-LRB-
p10858
sbag5
(g6
g7
(lp10859
g5
(g6
g7
(lp10860
g5
(g6
g7
(lp10861
g10199
atp10862
Rp10863
(dp10864
g16
VSYM
p10865
sbatp10866
Rp10867
(dp10868
g16
VNP
p10869
sbag5
(g6
g7
(lp10870
g959
atp10871
Rp10872
(dp10873
g16
g959
sbag5
(g6
g7
(lp10874
g5
(g6
g7
(lp10875
g10214
atp10876
Rp10877
(dp10878
g16
VNN
p10879
sbatp10880
Rp10881
(dp10882
g16
VNP
p10883
sbatp10884
Rp10885
(dp10886
g16
VNP
p10887
sbag5
(g6
g7
(lp10888
V-RRB-
p10889
atp10890
Rp10891
(dp10892
g16
V-RRB-
p10893
sbatp10894
Rp10895
(dp10896
g16
VPRN
p10897
sbatp10898
Rp10899
(dp10900
g16
VNP
p10901
sbag5
(g6
g7
(lp10902
Vor
p10903
atp10904
Rp10905
(dp10906
g16
VCC
p10907
sbag5
(g6
g7
(lp10908
g5
(g6
g7
(lp10909
g5
(g6
g7
(lp10910
VG2
p10911
atp10912
Rp10913
(dp10914
g16
VNN
p10915
sbatp10916
Rp10917
(dp10918
g16
VNP
p10919
sbag5
(g6
g7
(lp10920
g5
(g6
g7
(lp10921
V-LRB-
p10922
atp10923
Rp10924
(dp10925
g16
V-LRB-
p10926
sbag5
(g6
g7
(lp10927
g5
(g6
g7
(lp10928
g5
(g6
g7
(lp10929
g10199
atp10930
Rp10931
(dp10932
g16
VSYM
p10933
sbatp10934
Rp10935
(dp10936
g16
VNP
p10937
sbag5
(g6
g7
(lp10938
g959
atp10939
Rp10940
(dp10941
g16
g959
sbag5
(g6
g7
(lp10942
g5
(g6
g7
(lp10943
g10214
atp10944
Rp10945
(dp10946
g16
VNN
p10947
sbatp10948
Rp10949
(dp10950
g16
VNP
p10951
sbatp10952
Rp10953
(dp10954
g16
VNP
p10955
sbag5
(g6
g7
(lp10956
V-RRB-
p10957
atp10958
Rp10959
(dp10960
g16
V-RRB-
p10961
sbatp10962
Rp10963
(dp10964
g16
VPRN
p10965
sbatp10966
Rp10967
(dp10968
g16
VNP
p10969
sbatp10970
Rp10971
(dp10972
g16
VNP
p10973
sbag5
(g6
g7
(lp10974
g5
(g6
g7
(lp10975
Vsticking
p10976
atp10977
Rp10978
(dp10979
g16
VVBG
p10980
sbag5
(g6
g7
(lp10981
g5
(g6
g7
(lp10982
Vto
p10983
atp10984
Rp10985
(dp10986
g16
VTO
p10987
sbag5
(g6
g7
(lp10988
g5
(g6
g7
(lp10989
Vthe
p10990
atp10991
Rp10992
(dp10993
g16
VDT
p10994
sbag5
(g6
g7
(lp10995
Vright
p10996
atp10997
Rp10998
(dp10999
g16
VNN
p11000
sbatp11001
Rp11002
(dp11003
g16
VNP
p11004
sbatp11005
Rp11006
(dp11007
g16
VPP
p11008
sbatp11009
Rp11010
(dp11011
g16
VVP
p11012
sbatp11013
Rp11014
(dp11015
g16
g208
sbatp11016
Rp11017
(dp11018
g16
VVP
p11019
sbag5
(g6
g7
(lp11020
Vor
p11021
atp11022
Rp11023
(dp11024
g16
VCC
p11025
sbag5
(g6
g7
(lp11026
g5
(g6
g7
(lp11027
g5
(g6
g7
(lp11028
Vup
p11029
atp11030
Rp11031
(dp11032
g16
VRB
p11033
sbag5
(g6
g7
(lp11034
g5
(g6
g7
(lp11035
Vas
p11036
atp11037
Rp11038
(dp11039
g16
VIN
p11040
sbag5
(g6
g7
(lp11041
g5
(g6
g7
(lp11042
Vthe
p11043
atp11044
Rp11045
(dp11046
g16
VDT
p11047
sbag5
(g6
g7
(lp11048
Vcase
p11049
atp11050
Rp11051
(dp11052
g16
VNN
p11053
sbatp11054
Rp11055
(dp11056
g16
VNP
p11057
sbatp11058
Rp11059
(dp11060
g16
VPP
p11061
sbatp11062
Rp11063
(dp11064
g16
VADVP
p11065
sbag5
(g6
g7
(lp11066
Vmay
p11067
atp11068
Rp11069
(dp11070
g16
VMD
p11071
sbag5
(g6
g7
(lp11072
g5
(g6
g7
(lp11073
Vbe
p11074
atp11075
Rp11076
(dp11077
g16
VVB
p11078
sbatp11079
Rp11080
(dp11081
g16
VVP
p11082
sbatp11083
Rp11084
(dp11085
g16
VVP
p11086
sbatp11087
Rp11088
(dp11089
g16
VVP
p11090
sbatp11091
Rp11092
(dp11093
g16
g208
sbatp11094
Rp11095
(dp11096
g16
VSBAR
p11097
sbatp11098
Rp11099
(dp11100
g16
VNP
p11101
sbatp11102
Rp11103
(dp11104
g16
VPP
p11105
sbatp11106
Rp11107
(dp11108
g16
VVP
p11109
sbatp11110
Rp11111
(dp11112
g16
VVP
p11113
sbag5
(g6
g7
(lp11114
g336
atp11115
Rp11116
(dp11117
g16
g336
sbatp11118
Rp11119
(dp11120
g16
g208
sbatp11121
Rp11122
(dp11123
g16
VROOT
p11124
sbasg347
(icmyPackage
CorE
p11125
(dp11126
g350
(lp11127
(I0
I42
tp11128
a(I0
I46
tp11129
asg354
g5
(g6
g7
(lp11130
g11055
ag11069
ag11080
ag11116
atp11131
Rp11132
(dp11133
g16
g365
sbsbsg355
(icmyPackage
CorE
p11134
(dp11135
g350
(lp11136
(I0
I0
tp11137
a(I0
I40
tp11138
asg354
g5
(g6
g7
(lp11139
g10642
ag10714
ag10720
ag10727
ag10743
ag10750
ag10768
ag10814
ag10826
ag11017
ag11023
ag11031
atp11140
Rp11141
(dp11142
g16
g365
sbsbsg366
g1726
sg389
(lp11143
(icmyPackage
Sent
p11144
(dp11145
g393
I4
sg394
I74
sg395
S'We then label the squares of a checkboard and place a domino on each square (x,y) that satisfies G1(x,y) or G2(x,y) sticking to the right or up as the case may be.'
p11146
sg397
I0
sg398
I148
sg354
(lp11147
g11122
asbasba(icmyPackage
CELink
p11148
(dp11149
g3
(lp11150
g5
(g6
g7
(lp11151
g5
(g6
g7
(lp11152
g5
(g6
g7
(lp11153
g5
(g6
g7
(lp11154
g5
(g6
g7
(lp11155
VAxioms
p11156
atp11157
Rp11158
(dp11159
g16
VNNS
p11160
sbag5
(g6
g7
(lp11161
V13
p11162
atp11163
Rp11164
(dp11165
g16
VCD
p11166
sbag5
(g6
g7
(lp11167
Vand
p11168
atp11169
Rp11170
(dp11171
g16
VCC
p11172
sbag5
(g6
g7
(lp11173
V14
p11174
atp11175
Rp11176
(dp11177
g16
VCD
p11178
sbatp11179
Rp11180
(dp11181
g16
VNP
p11182
sbag5
(g6
g7
(lp11183
g5
(g6
g7
(lp11184
g5
(g6
g7
(lp11185
g5
(g6
g7
(lp11186
Vinsure
p11187
atp11188
Rp11189
(dp11190
g16
VVBP
p11191
sbag5
(g6
g7
(lp11192
g5
(g6
g7
(lp11193
Vthat
p11194
atp11195
Rp11196
(dp11197
g16
VIN
p11198
sbag5
(g6
g7
(lp11199
g5
(g6
g7
(lp11200
g5
(g6
g7
(lp11201
Vthe
p11202
atp11203
Rp11204
(dp11205
g16
VDT
p11206
sbag5
(g6
g7
(lp11207
Vdominoes
p11208
atp11209
Rp11210
(dp11211
g16
VNNS
p11212
sbatp11213
Rp11214
(dp11215
g16
VNP
p11216
sbag5
(g6
g7
(lp11217
g5
(g6
g7
(lp11218
Vdo
p11219
atp11220
Rp11221
(dp11222
g16
VVBP
p11223
sbag5
(g6
g7
(lp11224
Vn't
p11225
atp11226
Rp11227
(dp11228
g16
VRB
p11229
sbag5
(g6
g7
(lp11230
g5
(g6
g7
(lp11231
Voverlap
p11232
atp11233
Rp11234
(dp11235
g16
VVB
p11236
sbatp11237
Rp11238
(dp11239
g16
VVP
p11240
sbatp11241
Rp11242
(dp11243
g16
VVP
p11244
sbatp11245
Rp11246
(dp11247
g16
g208
sbatp11248
Rp11249
(dp11250
g16
VSBAR
p11251
sbatp11252
Rp11253
(dp11254
g16
VVP
p11255
sbatp11256
Rp11257
(dp11258
g16
g208
sbatp11259
Rp11260
(dp11261
g16
VSBAR
p11262
sbatp11263
Rp11264
(dp11265
g16
VNP
p11266
sbag5
(g6
g7
(lp11267
g959
atp11268
Rp11269
(dp11270
g16
g959
sbag5
(g6
g7
(lp11271
g5
(g6
g7
(lp11272
g5
(g6
g7
(lp11273
Vaxioms
p11274
atp11275
Rp11276
(dp11277
g16
VNNP
p11278
sbag5
(g6
g7
(lp11279
V6-12
p11280
atp11281
Rp11282
(dp11283
g16
VNNP
p11284
sbatp11285
Rp11286
(dp11287
g16
VNP
p11288
sbag5
(g6
g7
(lp11289
g5
(g6
g7
(lp11290
Vinsure
p11291
atp11292
Rp11293
(dp11294
g16
VVBP
p11295
sbag5
(g6
g7
(lp11296
g5
(g6
g7
(lp11297
Vthat
p11298
atp11299
Rp11300
(dp11301
g16
VIN
p11302
sbag5
(g6
g7
(lp11303
g5
(g6
g7
(lp11304
g5
(g6
g7
(lp11305
g5
(g6
g7
(lp11306
Vall
p11307
atp11308
Rp11309
(dp11310
g16
VDT
p11311
sbag5
(g6
g7
(lp11312
Vsquares
p11313
atp11314
Rp11315
(dp11316
g16
VNNS
p11317
sbatp11318
Rp11319
(dp11320
g16
VNP
p11321
sbag5
(g6
g7
(lp11322
g5
(g6
g7
(lp11323
Vbut
p11324
atp11325
Rp11326
(dp11327
g16
VCC
p11328
sbag5
(g6
g7
(lp11329
g5
(g6
g7
(lp11330
Vthe
p11331
atp11332
Rp11333
(dp11334
g16
VDT
p11335
sbag5
(g6
g7
(lp11336
Vcorner
p11337
atp11338
Rp11339
(dp11340
g16
VNN
p11341
sbag5
(g6
g7
(lp11342
Vsquares
p11343
atp11344
Rp11345
(dp11346
g16
VNNS
p11347
sbatp11348
Rp11349
(dp11350
g16
VNP
p11351
sbatp11352
Rp11353
(dp11354
g16
VPP
p11355
sbatp11356
Rp11357
(dp11358
g16
VNP
p11359
sbag5
(g6
g7
(lp11360
g5
(g6
g7
(lp11361
Vare
p11362
atp11363
Rp11364
(dp11365
g16
VVBP
p11366
sbag5
(g6
g7
(lp11367
g5
(g6
g7
(lp11368
Vcovered
p11369
atp11370
Rp11371
(dp11372
g16
VVBN
p11373
sbatp11374
Rp11375
(dp11376
g16
VVP
p11377
sbatp11378
Rp11379
(dp11380
g16
VVP
p11381
sbatp11382
Rp11383
(dp11384
g16
g208
sbatp11385
Rp11386
(dp11387
g16
VSBAR
p11388
sbatp11389
Rp11390
(dp11391
g16
VVP
p11392
sbatp11393
Rp11394
(dp11395
g16
g208
sbag5
(g6
g7
(lp11396
Vand
p11397
atp11398
Rp11399
(dp11400
g16
VCC
p11401
sbag5
(g6
g7
(lp11402
g5
(g6
g7
(lp11403
g5
(g6
g7
(lp11404
Vaxiom
p11405
atp11406
Rp11407
(dp11408
g16
VNN
p11409
sbag5
(g6
g7
(lp11410
V15
p11411
atp11412
Rp11413
(dp11414
g16
VCD
p11415
sbatp11416
Rp11417
(dp11418
g16
VNP
p11419
sbag5
(g6
g7
(lp11420
g5
(g6
g7
(lp11421
Vinsures
p11422
atp11423
Rp11424
(dp11425
g16
VVBZ
p11426
sbag5
(g6
g7
(lp11427
g5
(g6
g7
(lp11428
Vthat
p11429
atp11430
Rp11431
(dp11432
g16
VIN
p11433
sbag5
(g6
g7
(lp11434
g5
(g6
g7
(lp11435
g5
(g6
g7
(lp11436
Vno
p11437
atp11438
Rp11439
(dp11440
g16
VDT
p11441
sbag5
(g6
g7
(lp11442
Vdominoes
p11443
atp11444
Rp11445
(dp11446
g16
VNNS
p11447
sbatp11448
Rp11449
(dp11450
g16
VNP
p11451
sbag5
(g6
g7
(lp11452
g5
(g6
g7
(lp11453
Vstick
p11454
atp11455
Rp11456
(dp11457
g16
VVBP
p11458
sbag5
(g6
g7
(lp11459
g5
(g6
g7
(lp11460
Vout
p11461
atp11462
Rp11463
(dp11464
g16
VRP
p11465
sbatp11466
Rp11467
(dp11468
g16
VPRT
p11469
sbag5
(g6
g7
(lp11470
g5
(g6
g7
(lp11471
Vover
p11472
atp11473
Rp11474
(dp11475
g16
VIN
p11476
sbag5
(g6
g7
(lp11477
g5
(g6
g7
(lp11478
Vthe
p11479
atp11480
Rp11481
(dp11482
g16
VDT
p11483
sbag5
(g6
g7
(lp11484
Vedge
p11485
atp11486
Rp11487
(dp11488
g16
VNN
p11489
sbatp11490
Rp11491
(dp11492
g16
VNP
p11493
sbatp11494
Rp11495
(dp11496
g16
VPP
p11497
sbatp11498
Rp11499
(dp11500
g16
VVP
p11501
sbatp11502
Rp11503
(dp11504
g16
g208
sbatp11505
Rp11506
(dp11507
g16
VSBAR
p11508
sbatp11509
Rp11510
(dp11511
g16
VVP
p11512
sbatp11513
Rp11514
(dp11515
g16
g208
sbag5
(g6
g7
(lp11516
g336
atp11517
Rp11518
(dp11519
g16
g336
sbatp11520
Rp11521
(dp11522
g16
g208
sbatp11523
Rp11524
(dp11525
g16
VROOT
p11526
sbag5
(g6
g7
(lp11527
g5
(g6
g7
(lp11528
g5
(g6
g7
(lp11529
g5
(g6
g7
(lp11530
VSince
p11531
atp11532
Rp11533
(dp11534
g16
VIN
p11535
sbag5
(g6
g7
(lp11536
g5
(g6
g7
(lp11537
g5
(g6
g7
(lp11538
Vthere
p11539
atp11540
Rp11541
(dp11542
g16
VEX
p11543
sbatp11544
Rp11545
(dp11546
g16
VNP
p11547
sbag5
(g6
g7
(lp11548
g5
(g6
g7
(lp11549
Vis
p11550
atp11551
Rp11552
(dp11553
g16
VVBZ
p11554
sbag5
(g6
g7
(lp11555
g5
(g6
g7
(lp11556
Vno
p11557
atp11558
Rp11559
(dp11560
g16
VDT
p11561
sbag5
(g6
g7
(lp11562
Vsuch
p11563
atp11564
Rp11565
(dp11566
g16
VJJ
p11567
sbag5
(g6
g7
(lp11568
Vcovering
p11569
atp11570
Rp11571
(dp11572
g16
VNN
p11573
sbatp11574
Rp11575
(dp11576
g16
VNP
p11577
sbatp11578
Rp11579
(dp11580
g16
VVP
p11581
sbatp11582
Rp11583
(dp11584
g16
g208
sbatp11585
Rp11586
(dp11587
g16
VSBAR
p11588
sbag5
(g6
g7
(lp11589
g5
(g6
g7
(lp11590
Vthe
p11591
atp11592
Rp11593
(dp11594
g16
VDT
p11595
sbag5
(g6
g7
(lp11596
Vsentences
p11597
atp11598
Rp11599
(dp11600
g16
VNNS
p11601
sbatp11602
Rp11603
(dp11604
g16
VNP
p11605
sbag5
(g6
g7
(lp11606
g5
(g6
g7
(lp11607
g5
(g6
g7
(lp11608
Vhave
p11609
atp11610
Rp11611
(dp11612
g16
VVBP
p11613
sbag5
(g6
g7
(lp11614
g5
(g6
g7
(lp11615
Vno
p11616
atp11617
Rp11618
(dp11619
g16
VDT
p11620
sbag5
(g6
g7
(lp11621
Vmodel
p11622
atp11623
Rp11624
(dp11625
g16
VNN
p11626
sbatp11627
Rp11628
(dp11629
g16
VNP
p11630
sbatp11631
Rp11632
(dp11633
g16
VVP
p11634
sbag5
(g6
g7
(lp11635
Vand
p11636
atp11637
Rp11638
(dp11639
g16
VCC
p11640
sbag5
(g6
g7
(lp11641
g5
(g6
g7
(lp11642
Vare
p11643
atp11644
Rp11645
(dp11646
g16
VVBP
p11647
sbag5
(g6
g7
(lp11648
g5
(g6
g7
(lp11649
Vinconsistent
p11650
atp11651
Rp11652
(dp11653
g16
VJJ
p11654
sbatp11655
Rp11656
(dp11657
g16
VADJP
p11658
sbatp11659
Rp11660
(dp11661
g16
VVP
p11662
sbatp11663
Rp11664
(dp11665
g16
VVP
p11666
sbag5
(g6
g7
(lp11667
g336
atp11668
Rp11669
(dp11670
g16
g336
sbatp11671
Rp11672
(dp11673
g16
g208
sbatp11674
Rp11675
(dp11676
g16
VROOT
p11677
sbasg347
(icmyPackage
CorE
p11678
(dp11679
g350
(lp11680
(I1
I1
tp11681
a(I1
I14
tp11682
asg354
g5
(g6
g7
(lp11683
g11583
ag11603
ag11664
ag11669
atp11684
Rp11685
(dp11686
g16
g365
sbsbsg355
(icmyPackage
CorE
p11687
(dp11688
g350
(lp11689
(I0
I0
tp11690
a(I0
I36
tp11691
asg354
g11524
sbsg366
g10586
sg389
(lp11692
(icmyPackage
Sent
p11693
(dp11694
g393
I4
sg394
I74
sg395
S"Axioms 13 and 14 insure that the dominoes don't overlap, axioms 6-12 insure that all squares but the corner squares are covered and axiom 15 insures that no dominoes stick out over the edge."
p11695
sg397
I0
sg398
I149
sg354
(lp11696
g11524
asba(icmyPackage
Sent
p11697
(dp11698
g393
I4
sg394
I75
sg395
S'Since there is no such covering the sentences have no model and are inconsistent.'
p11699
sg397
I0
sg398
I150
sg354
(lp11700
g11675
asbasba(icmyPackage
CELink
p11701
(dp11702
g3
(lp11703
g5
(g6
g7
(lp11704
g5
(g6
g7
(lp11705
g5
(g6
g7
(lp11706
g5
(g6
g7
(lp11707
g5
(g6
g7
(lp11708
Vg
p11709
atp11710
Rp11711
(dp11712
g16
VNN
p11713
sbatp11714
Rp11715
(dp11716
g16
VNP
p11717
sbag5
(g6
g7
(lp11718
g5
(g6
g7
(lp11719
V-LRB-
p11720
atp11721
Rp11722
(dp11723
g16
V-LRB-
p11724
sbag5
(g6
g7
(lp11725
g5
(g6
g7
(lp11726
g5
(g6
g7
(lp11727
g10199
atp11728
Rp11729
(dp11730
g16
VSYM
p11731
sbatp11732
Rp11733
(dp11734
g16
VNP
p11735
sbag5
(g6
g7
(lp11736
g959
atp11737
Rp11738
(dp11739
g16
g959
sbag5
(g6
g7
(lp11740
g5
(g6
g7
(lp11741
g10214
atp11742
Rp11743
(dp11744
g16
VNN
p11745
sbatp11746
Rp11747
(dp11748
g16
VNP
p11749
sbatp11750
Rp11751
(dp11752
g16
VNP
p11753
sbag5
(g6
g7
(lp11754
V-RRB-
p11755
atp11756
Rp11757
(dp11758
g16
V-RRB-
p11759
sbatp11760
Rp11761
(dp11762
g16
VPRN
p11763
sbatp11764
Rp11765
(dp11766
g16
VNP
p11767
sbag5
(g6
g7
(lp11768
g5
(g6
g7
(lp11769
Vhas
p11770
atp11771
Rp11772
(dp11773
g16
VVBZ
p11774
sbag5
(g6
g7
(lp11775
g5
(g6
g7
(lp11776
g5
(g6
g7
(lp11777
Vvalue
p11778
atp11779
Rp11780
(dp11781
g16
VNN
p11782
sbatp11783
Rp11784
(dp11785
g16
VNP
p11786
sbag5
(g6
g7
(lp11787
g5
(g6
g7
(lp11788
Vof
p11789
atp11790
Rp11791
(dp11792
g16
VIN
p11793
sbag5
(g6
g7
(lp11794
g5
(g6
g7
(lp11795
g5
(g6
g7
(lp11796
g5
(g6
g7
(lp11797
g5
(g6
g7
(lp11798
g5
(g6
g7
(lp11799
g5517
atp11800
Rp11801
(dp11802
g16
VCD
p11803
sbag5
(g6
g7
(lp11804
Vto
p11805
atp11806
Rp11807
(dp11808
g16
VTO
p11809
sbag5
(g6
g7
(lp11810
g10305
atp11811
Rp11812
(dp11813
g16
VCD
p11814
sbatp11815
Rp11816
(dp11817
g16
VQP
p11818
sbatp11819
Rp11820
(dp11821
g16
VNP
p11822
sbag5
(g6
g7
(lp11823
g5
(g6
g7
(lp11824
Vaccording
p11825
atp11826
Rp11827
(dp11828
g16
VVBG
p11829
sbag5
(g6
g7
(lp11830
g5
(g6
g7
(lp11831
Vto
p11832
atp11833
Rp11834
(dp11835
g16
VTO
p11836
sbag5
(g6
g7
(lp11837
g5
(g6
g7
(lp11838
Vwhether
p11839
atp11840
Rp11841
(dp11842
g16
VIN
p11843
sbag5
(g6
g7
(lp11844
VG1
p11845
atp11846
Rp11847
(dp11848
g16
VNN
p11849
sbatp11850
Rp11851
(dp11852
g16
VNP
p11853
sbatp11854
Rp11855
(dp11856
g16
VPP
p11857
sbatp11858
Rp11859
(dp11860
g16
VPP
p11861
sbatp11862
Rp11863
(dp11864
g16
VNP
p11865
sbag5
(g6
g7
(lp11866
g5
(g6
g7
(lp11867
V-LRB-
p11868
atp11869
Rp11870
(dp11871
g16
V-LRB-
p11872
sbag5
(g6
g7
(lp11873
g5
(g6
g7
(lp11874
g5
(g6
g7
(lp11875
g10199
atp11876
Rp11877
(dp11878
g16
VSYM
p11879
sbatp11880
Rp11881
(dp11882
g16
VNP
p11883
sbag5
(g6
g7
(lp11884
g959
atp11885
Rp11886
(dp11887
g16
g959
sbag5
(g6
g7
(lp11888
g5
(g6
g7
(lp11889
g10214
atp11890
Rp11891
(dp11892
g16
VNN
p11893
sbatp11894
Rp11895
(dp11896
g16
VNP
p11897
sbatp11898
Rp11899
(dp11900
g16
VNP
p11901
sbag5
(g6
g7
(lp11902
V-RRB-
p11903
atp11904
Rp11905
(dp11906
g16
V-RRB-
p11907
sbatp11908
Rp11909
(dp11910
g16
VPRN
p11911
sbatp11912
Rp11913
(dp11914
g16
VNP
p11915
sbag5
(g6
g7
(lp11916
g5
(g6
g7
(lp11917
Vor
p11918
atp11919
Rp11920
(dp11921
g16
VCC
p11922
sbatp11923
Rp11924
(dp11925
g16
VADVP
p11926
sbatp11927
Rp11928
(dp11929
g16
VNP
p11930
sbatp11931
Rp11932
(dp11933
g16
VPP
p11934
sbatp11935
Rp11936
(dp11937
g16
VNP
p11938
sbatp11939
Rp11940
(dp11941
g16
VVP
p11942
sbag5
(g6
g7
(lp11943
V...
p11944
atp11945
Rp11946
(dp11947
g16
g2326
sbatp11948
Rp11949
(dp11950
g16
g208
sbatp11951
Rp11952
(dp11953
g16
VROOT
p11954
sbasg347
(icmyPackage
CorE
p11955
(dp11956
g350
(lp11957
(I0
I14
tp11958
a(I0
I15
tp11959
asg354
g11851
sbsg355
(icmyPackage
CorE
p11960
(dp11961
g350
(lp11962
(I0
I0
tp11963
a(I0
I11
tp11964
asg354
g5
(g6
g7
(lp11965
g11765
ag11772
ag11784
ag11791
ag11820
atp11966
Rp11967
(dp11968
g16
g365
sbsbsg366
(icmyPackage
pattern
p11969
(dp11970
g369
I0
sg370
I0
sg371
(lp11971
(lp11972
S'according'
p11973
aS'to'
p11974
aasg377
(lp11975
I2
aI1
aI1
asg379
(lp11976
S'There could be different ways to arrange pictures in displays but picture should be selected according to the core sentences and arranged near the core sentences according to the semantic locality principle.'
p11977
asg382
I55
sg383
(lp11978
(lp11979
S'&R'
p11980
aS'(,)'
p11981
aa(lp11982
S'&NP@C@'
p11983
aasbsg389
(lp11984
(icmyPackage
Sent
p11985
(dp11986
g393
I4
sg394
I78
sg395
S'g(x,y) has value of 1 to 5 according to whether G1(x,y) or ...'
p11987
sg397
I0
sg398
I153
sg354
(lp11988
g11952
asbasba(icmyPackage
CELink
p11989
(dp11990
g3
(lp11991
g5
(g6
g7
(lp11992
g5
(g6
g7
(lp11993
g5
(g6
g7
(lp11994
g5
(g6
g7
(lp11995
VIt
p11996
atp11997
Rp11998
(dp11999
g16
VPRP
p12000
sbatp12001
Rp12002
(dp12003
g16
VNP
p12004
sbag5
(g6
g7
(lp12005
g5
(g6
g7
(lp12006
Vis
p12007
atp12008
Rp12009
(dp12010
g16
VVBZ
p12011
sbag5
(g6
g7
(lp12012
g5
(g6
g7
(lp12013
Valso
p12014
atp12015
Rp12016
(dp12017
g16
VRB
p12018
sbatp12019
Rp12020
(dp12021
g16
VADVP
p12022
sbag5
(g6
g7
(lp12023
g5
(g6
g7
(lp12024
Vincapable
p12025
atp12026
Rp12027
(dp12028
g16
VJJ
p12029
sbag5
(g6
g7
(lp12030
g5
(g6
g7
(lp12031
Vof
p12032
atp12033
Rp12034
(dp12035
g16
VIN
p12036
sbag5
(g6
g7
(lp12037
g5
(g6
g7
(lp12038
g5
(g6
g7
(lp12039
Vexpressing
p12040
atp12041
Rp12042
(dp12043
g16
VVBG
p12044
sbag5
(g6
g7
(lp12045
g5
(g6
g7
(lp12046
g5
(g6
g7
(lp12047
Vthe
p12048
atp12049
Rp12050
(dp12051
g16
VDT
p12052
sbag5
(g6
g7
(lp12053
Vcounts
p12054
atp12055
Rp12056
(dp12057
g16
VNNS
p12058
sbatp12059
Rp12060
(dp12061
g16
VNP
p12062
sbag5
(g6
g7
(lp12063
g5
(g6
g7
(lp12064
Vof
p12065
atp12066
Rp12067
(dp12068
g16
VIN
p12069
sbag5
(g6
g7
(lp12070
g5
(g6
g7
(lp12071
g5
(g6
g7
(lp12072
Vthe
p12073
atp12074
Rp12075
(dp12076
g16
VDT
p12077
sbag5
(g6
g7
(lp12078
Vnumbers
p12079
atp12080
Rp12081
(dp12082
g16
VNNS
p12083
sbatp12084
Rp12085
(dp12086
g16
VNP
p12087
sbag5
(g6
g7
(lp12088
g5
(g6
g7
(lp12089
Vof
p12090
atp12091
Rp12092
(dp12093
g16
VIN
p12094
sbag5
(g6
g7
(lp12095
g5
(g6
g7
(lp12096
Vsquares
p12097
atp12098
Rp12099
(dp12100
g16
VNNS
p12101
sbatp12102
Rp12103
(dp12104
g16
VNP
p12105
sbatp12106
Rp12107
(dp12108
g16
VPP
p12109
sbatp12110
Rp12111
(dp12112
g16
VNP
p12113
sbatp12114
Rp12115
(dp12116
g16
VPP
p12117
sbatp12118
Rp12119
(dp12120
g16
VNP
p12121
sbag5
(g6
g7
(lp12122
g5
(g6
g7
(lp12123
Vwith
p12124
atp12125
Rp12126
(dp12127
g16
VIN
p12128
sbag5
(g6
g7
(lp12129
g5
(g6
g7
(lp12130
g5
(g6
g7
(lp12131
g58
atp12132
Rp12133
(dp12134
g16
VDT
p12135
sbag5
(g6
g7
(lp12136
Vgiven
p12137
atp12138
Rp12139
(dp12140
g16
VVBN
p12141
sbag5
(g6
g7
(lp12142
Vproperty
p12143
atp12144
Rp12145
(dp12146
g16
VNN
p12147
sbatp12148
Rp12149
(dp12150
g16
VNP
p12151
sbag5
(g6
g7
(lp12152
g959
atp12153
Rp12154
(dp12155
g16
g959
sbag5
(g6
g7
(lp12156
g5
(g6
g7
(lp12157
g5
(g6
g7
(lp12158
Vthe
p12159
atp12160
Rp12161
(dp12162
g16
VDT
p12163
sbag5
(g6
g7
(lp12164
Vlatter
p12165
atp12166
Rp12167
(dp12168
g16
VNN
p12169
sbatp12170
Rp12171
(dp12172
g16
VNP
p12173
sbag5
(g6
g7
(lp12174
g5
(g6
g7
(lp12175
Vbeing
p12176
atp12177
Rp12178
(dp12179
g16
VVBG
p12180
sbag5
(g6
g7
(lp12181
g5
(g6
g7
(lp12182
Vrequired
p12183
atp12184
Rp12185
(dp12186
g16
VVBN
p12187
sbag5
(g6
g7
(lp12188
g5
(g6
g7
(lp12189
Vfor
p12190
atp12191
Rp12192
(dp12193
g16
VIN
p12194
sbag5
(g6
g7
(lp12195
g5
(g6
g7
(lp12196
g5
(g6
g7
(lp12197
Vexpressing
p12198
atp12199
Rp12200
(dp12201
g16
VVBG
p12202
sbag5
(g6
g7
(lp12203
g5
(g6
g7
(lp12204
Vthe
p12205
atp12206
Rp12207
(dp12208
g16
VDT
p12209
sbag5
(g6
g7
(lp12210
VMinsky
p12211
atp12212
Rp12213
(dp12214
g16
VNNP
p12215
sbag5
(g6
g7
(lp12216
g959
atp12217
Rp12218
(dp12219
g16
g959
sbag5
(g6
g7
(lp12220
VWinograd
p12221
atp12222
Rp12223
(dp12224
g16
VNNP
p12225
sbag5
(g6
g7
(lp12226
Vand
p12227
atp12228
Rp12229
(dp12230
g16
VCC
p12231
sbag5
(g6
g7
(lp12232
VStefanuk
p12233
atp12234
Rp12235
(dp12236
g16
VNNP
p12237
sbag5
(g6
g7
(lp12238
Vproofs
p12239
atp12240
Rp12241
(dp12242
g16
VNNS
p12243
sbatp12244
Rp12245
(dp12246
g16
VNP
p12247
sbatp12248
Rp12249
(dp12250
g16
VVP
p12251
sbatp12252
Rp12253
(dp12254
g16
g208
sbatp12255
Rp12256
(dp12257
g16
VPP
p12258
sbatp12259
Rp12260
(dp12261
g16
VVP
p12262
sbatp12263
Rp12264
(dp12265
g16
VVP
p12266
sbatp12267
Rp12268
(dp12269
g16
VNP
p12270
sbatp12271
Rp12272
(dp12273
g16
VNP
p12274
sbatp12275
Rp12276
(dp12277
g16
VPP
p12278
sbatp12279
Rp12280
(dp12281
g16
VVP
p12282
sbatp12283
Rp12284
(dp12285
g16
g208
sbatp12286
Rp12287
(dp12288
g16
VPP
p12289
sbatp12290
Rp12291
(dp12292
g16
VADJP
p12293
sbatp12294
Rp12295
(dp12296
g16
VVP
p12297
sbag5
(g6
g7
(lp12298
g336
atp12299
Rp12300
(dp12301
g16
g336
sbatp12302
Rp12303
(dp12304
g16
g208
sbatp12305
Rp12306
(dp12307
g16
VROOT
p12308
sbasg347
(icmyPackage
CorE
p12309
(dp12310
g350
(lp12311
(I0
I23
tp12312
a(I0
I30
tp12313
asg354
g12253
sbsg355
(icmyPackage
CorE
p12314
(dp12315
g350
(lp12316
(I0
I0
tp12317
a(I0
I21
tp12318
asg354
g5
(g6
g7
(lp12319
g12002
ag12009
ag12020
ag12027
ag12034
ag12042
ag12119
ag12126
ag12149
ag12154
ag12171
ag12178
ag12185
atp12320
Rp12321
(dp12322
g16
g365
sbsbsg366
(icmyPackage
pattern
p12323
(dp12324
g369
I25
sg370
I0
sg371
(lp12325
(lp12326
S'for'
p12327
aasg377
(lp12328
I2
aI1
aI1
asg379
(lp12329
S'She was angry with him for being late.'
p12330
asg382
I44
sg383
(lp12331
(lp12332
S'&R'
p12333
aa(lp12334
S'&V-ing@C@'
p12335
aasbsg389
(lp12336
(icmyPackage
Sent
p12337
(dp12338
g393
I4
sg394
I88
sg395
S'It is also incapable of expressing the counts of the numbers of squares with a given property, the latter being required for expressing the Minsky, Winograd and Stefanuk proofs.'
p12339
sg397
I0
sg398
I168
sg354
(lp12340
g12306
asbasba(icmyPackage
CELink
p12341
(dp12342
g3
(lp12343
g5
(g6
g7
(lp12344
g5
(g6
g7
(lp12345
g5
(g6
g7
(lp12346
g5
(g6
g7
(lp12347
VWe
p12348
atp12349
Rp12350
(dp12351
g16
VPRP
p12352
sbatp12353
Rp12354
(dp12355
g16
VNP
p12356
sbag5
(g6
g7
(lp12357
g5
(g6
g7
(lp12358
Vuse
p12359
atp12360
Rp12361
(dp12362
g16
VVBP
p12363
sbag5
(g6
g7
(lp12364
g5
(g6
g7
(lp12365
g5
(g6
g7
(lp12366
VZermelo-Fraenkel
p12367
atp12368
Rp12369
(dp12370
g16
VJJ
p12371
sbag5
(g6
g7
(lp12372
Vset
p12373
atp12374
Rp12375
(dp12376
g16
VNN
p12377
sbag5
(g6
g7
(lp12378
Vtheory
p12379
atp12380
Rp12381
(dp12382
g16
VNN
p12383
sbatp12384
Rp12385
(dp12386
g16
VNP
p12387
sbag5
(g6
g7
(lp12388
g959
atp12389
Rp12390
(dp12391
g16
g959
sbag5
(g6
g7
(lp12392
g5
(g6
g7
(lp12393
Vformalized
p12394
atp12395
Rp12396
(dp12397
g16
VVBN
p12398
sbag5
(g6
g7
(lp12399
g5
(g6
g7
(lp12400
Vin
p12401
atp12402
Rp12403
(dp12404
g16
VIN
p12405
sbag5
(g6
g7
(lp12406
g5
(g6
g7
(lp12407
Vfirst
p12408
atp12409
Rp12410
(dp12411
g16
VJJ
p12412
sbag5
(g6
g7
(lp12413
Vorder
p12414
atp12415
Rp12416
(dp12417
g16
VNN
p12418
sbag5
(g6
g7
(lp12419
Vlogic
p12420
atp12421
Rp12422
(dp12423
g16
VNN
p12424
sbatp12425
Rp12426
(dp12427
g16
VNP
p12428
sbatp12429
Rp12430
(dp12431
g16
VPP
p12432
sbatp12433
Rp12434
(dp12435
g16
VVP
p12436
sbag5
(g6
g7
(lp12437
g959
atp12438
Rp12439
(dp12440
g16
g959
sbag5
(g6
g7
(lp12441
g5
(g6
g7
(lp12442
Vbecause
p12443
atp12444
Rp12445
(dp12446
g16
VIN
p12447
sbag5
(g6
g7
(lp12448
g5
(g6
g7
(lp12449
g5
(g6
g7
(lp12450
Vits
p12451
atp12452
Rp12453
(dp12454
g16
VPRP$
p12455
sbag5
(g6
g7
(lp12456
Vpower
p12457
atp12458
Rp12459
(dp12460
g16
VNN
p12461
sbatp12462
Rp12463
(dp12464
g16
VNP
p12465
sbag5
(g6
g7
(lp12466
g5
(g6
g7
(lp12467
Vallows
p12468
atp12469
Rp12470
(dp12471
g16
VVBZ
p12472
sbag5
(g6
g7
(lp12473
g5
(g6
g7
(lp12474
g5
(g6
g7
(lp12475
Vformulas
p12476
atp12477
Rp12478
(dp12479
g16
VNNS
p12480
sbatp12481
Rp12482
(dp12483
g16
VNP
p12484
sbag5
(g6
g7
(lp12485
g5
(g6
g7
(lp12486
g5
(g6
g7
(lp12487
Vthat
p12488
atp12489
Rp12490
(dp12491
g16
VWDT
p12492
sbatp12493
Rp12494
(dp12495
g16
VWHNP
p12496
sbag5
(g6
g7
(lp12497
g5
(g6
g7
(lp12498
g5
(g6
g7
(lp12499
Vare
p12500
atp12501
Rp12502
(dp12503
g16
VVBP
p12504
sbag5
(g6
g7
(lp12505
g5
(g6
g7
(lp12506
g5
(g6
g7
(lp12507
Vcloser
p12508
atp12509
Rp12510
(dp12511
g16
VJJR
p12512
sbatp12513
Rp12514
(dp12515
g16
VADJP
p12516
sbag5
(g6
g7
(lp12517
g5
(g6
g7
(lp12518
Vto
p12519
atp12520
Rp12521
(dp12522
g16
VTO
p12523
sbag5
(g6
g7
(lp12524
g5
(g6
g7
(lp12525
g5
(g6
g7
(lp12526
Vexpressing
p12527
atp12528
Rp12529
(dp12530
g16
VVBG
p12531
sbag5
(g6
g7
(lp12532
g5
(g6
g7
(lp12533
Vthe
p12534
atp12535
Rp12536
(dp12537
g16
VDT
p12538
sbag5
(g6
g7
(lp12539
Vhuman
p12540
atp12541
Rp12542
(dp12543
g16
VJJ
p12544
sbag5
(g6
g7
(lp12545
Videas
p12546
atp12547
Rp12548
(dp12549
g16
VNNS
p12550
sbatp12551
Rp12552
(dp12553
g16
VNP
p12554
sbag5
(g6
g7
(lp12555
g5
(g6
g7
(lp12556
Vbehind
p12557
atp12558
Rp12559
(dp12560
g16
VIN
p12561
sbag5
(g6
g7
(lp12562
g5
(g6
g7
(lp12563
Vthe
p12564
atp12565
Rp12566
(dp12567
g16
VDT
p12568
sbag5
(g6
g7
(lp12569
Vproofs
p12570
atp12571
Rp12572
(dp12573
g16
VNNS
p12574
sbatp12575
Rp12576
(dp12577
g16
VNP
p12578
sbatp12579
Rp12580
(dp12581
g16
VPP
p12582
sbatp12583
Rp12584
(dp12585
g16
VVP
p12586
sbatp12587
Rp12588
(dp12589
g16
g208
sbatp12590
Rp12591
(dp12592
g16
VPP
p12593
sbatp12594
Rp12595
(dp12596
g16
VADJP
p12597
sbatp12598
Rp12599
(dp12600
g16
VVP
p12601
sbatp12602
Rp12603
(dp12604
g16
g208
sbatp12605
Rp12606
(dp12607
g16
VSBAR
p12608
sbatp12609
Rp12610
(dp12611
g16
VNP
p12612
sbatp12613
Rp12614
(dp12615
g16
VVP
p12616
sbatp12617
Rp12618
(dp12619
g16
g208
sbatp12620
Rp12621
(dp12622
g16
VSBAR
p12623
sbatp12624
Rp12625
(dp12626
g16
VNP
p12627
sbatp12628
Rp12629
(dp12630
g16
VVP
p12631
sbag5
(g6
g7
(lp12632
g336
atp12633
Rp12634
(dp12635
g16
g336
sbatp12636
Rp12637
(dp12638
g16
g208
sbatp12639
Rp12640
(dp12641
g16
VROOT
p12642
sbasg347
(icmyPackage
CorE
p12643
(dp12644
g350
(lp12645
(I0
I13
tp12646
a(I0
I28
tp12647
asg354
g5
(g6
g7
(lp12648
g12618
ag12634
atp12649
Rp12650
(dp12651
g16
g365
sbsbsg355
(icmyPackage
CorE
p12652
(dp12653
g350
(lp12654
(I0
I0
tp12655
a(I0
I10
tp12656
asg354
g5
(g6
g7
(lp12657
g12354
ag12361
ag12385
ag12390
ag12434
atp12658
Rp12659
(dp12660
g16
g365
sbsbsg366
g2427
sg389
(lp12661
(icmyPackage
Sent
p12662
(dp12663
g393
I5
sg394
I89
sg395
S'We use Zermelo-Fraenkel set theory, formalized in first order logic, because its power allows formulas that are closer to expressing the human ideas behind the proofs.'
p12664
sg397
I0
sg398
I170
sg354
(lp12665
g12640
asbasba(icmyPackage
CELink
p12666
(dp12667
g3
(lp12668
g5
(g6
g7
(lp12669
g5
(g6
g7
(lp12670
g5
(g6
g7
(lp12671
g5
(g6
g7
(lp12672
g5
(g6
g7
(lp12673
VThe
p12674
atp12675
Rp12676
(dp12677
g16
VDT
p12678
sbag5
(g6
g7
(lp12679
Vtraditional
p12680
atp12681
Rp12682
(dp12683
g16
VJJ
p12684
sbag5
(g6
g7
(lp12685
Vproof
p12686
atp12687
Rp12688
(dp12689
g16
VNN
p12690
sbatp12691
Rp12692
(dp12693
g16
VNP
p12694
sbag5
(g6
g7
(lp12695
Vand
p12696
atp12697
Rp12698
(dp12699
g16
VCC
p12700
sbag5
(g6
g7
(lp12701
g5
(g6
g7
(lp12702
g5
(g6
g7
(lp12703
Vthe
p12704
atp12705
Rp12706
(dp12707
g16
VDT
p12708
sbag5
(g6
g7
(lp12709
Vproofs
p12710
atp12711
Rp12712
(dp12713
g16
VNNS
p12714
sbatp12715
Rp12716
(dp12717
g16
VNP
p12718
sbag5
(g6
g7
(lp12719
g5
(g6
g7
(lp12720
Vby
p12721
atp12722
Rp12723
(dp12724
g16
VIN
p12725
sbag5
(g6
g7
(lp12726
g5
(g6
g7
(lp12727
VWinograd
p12728
atp12729
Rp12730
(dp12731
g16
VNNP
p12732
sbag5
(g6
g7
(lp12733
g959
atp12734
Rp12735
(dp12736
g16
g959
sbag5
(g6
g7
(lp12737
VMinsky
p12738
atp12739
Rp12740
(dp12741
g16
VNNP
p12742
sbag5
(g6
g7
(lp12743
Vand
p12744
atp12745
Rp12746
(dp12747
g16
VCC
p12748
sbag5
(g6
g7
(lp12749
VStefanuk
p12750
atp12751
Rp12752
(dp12753
g16
VNNP
p12754
sbatp12755
Rp12756
(dp12757
g16
VNP
p12758
sbatp12759
Rp12760
(dp12761
g16
VPP
p12762
sbatp12763
Rp12764
(dp12765
g16
VNP
p12766
sbatp12767
Rp12768
(dp12769
g16
VNP
p12770
sbag5
(g6
g7
(lp12771
g5
(g6
g7
(lp12772
Vcan
p12773
atp12774
Rp12775
(dp12776
g16
VMD
p12777
sbag5
(g6
g7
(lp12778
Vall
p12779
atp12780
Rp12781
(dp12782
g16
VRB
p12783
sbag5
(g6
g7
(lp12784
g5
(g6
g7
(lp12785
Vbe
p12786
atp12787
Rp12788
(dp12789
g16
VVB
p12790
sbag5
(g6
g7
(lp12791
g5
(g6
g7
(lp12792
Vbased
p12793
atp12794
Rp12795
(dp12796
g16
VVBN
p12797
sbag5
(g6
g7
(lp12798
g5
(g6
g7
(lp12799
Von
p12800
atp12801
Rp12802
(dp12803
g16
VIN
p12804
sbag5
(g6
g7
(lp12805
g5
(g6
g7
(lp12806
g5
(g6
g7
(lp12807
Vthe
p12808
atp12809
Rp12810
(dp12811
g16
VDT
p12812
sbag5
(g6
g7
(lp12813
Vfollowing
p12814
atp12815
Rp12816
(dp12817
g16
VJJ
p12818
sbag5
(g6
g7
(lp12819
Vsentences
p12820
atp12821
Rp12822
(dp12823
g16
VNNS
p12824
sbatp12825
Rp12826
(dp12827
g16
VNP
p12828
sbag5
(g6
g7
(lp12829
g5
(g6
g7
(lp12830
Vof
p12831
atp12832
Rp12833
(dp12834
g16
VIN
p12835
sbag5
(g6
g7
(lp12836
g5
(g6
g7
(lp12837
g5
(g6
g7
(lp12838
Vset
p12839
atp12840
Rp12841
(dp12842
g16
VNN
p12843
sbag5
(g6
g7
(lp12844
Vtheory
p12845
atp12846
Rp12847
(dp12848
g16
VNN
p12849
sbatp12850
Rp12851
(dp12852
g16
VNP
p12853
sbag5
(g6
g7
(lp12854
g5
(g6
g7
(lp12855
Vaxiomatized
p12856
atp12857
Rp12858
(dp12859
g16
VVBN
p12860
sbag5
(g6
g7
(lp12861
g5
(g6
g7
(lp12862
Vin
p12863
atp12864
Rp12865
(dp12866
g16
VIN
p12867
sbag5
(g6
g7
(lp12868
g5
(g6
g7
(lp12869
Vfirst
p12870
atp12871
Rp12872
(dp12873
g16
VJJ
p12874
sbag5
(g6
g7
(lp12875
Vorder
p12876
atp12877
Rp12878
(dp12879
g16
VNN
p12880
sbag5
(g6
g7
(lp12881
Vlogic
p12882
atp12883
Rp12884
(dp12885
g16
VNN
p12886
sbatp12887
Rp12888
(dp12889
g16
VNP
p12890
sbatp12891
Rp12892
(dp12893
g16
VPP
p12894
sbatp12895
Rp12896
(dp12897
g16
VVP
p12898
sbatp12899
Rp12900
(dp12901
g16
VNP
p12902
sbatp12903
Rp12904
(dp12905
g16
VPP
p12906
sbatp12907
Rp12908
(dp12909
g16
VNP
p12910
sbatp12911
Rp12912
(dp12913
g16
VPP
p12914
sbatp12915
Rp12916
(dp12917
g16
VVP
p12918
sbatp12919
Rp12920
(dp12921
g16
VVP
p12922
sbatp12923
Rp12924
(dp12925
g16
VVP
p12926
sbag5
(g6
g7
(lp12927
g336
atp12928
Rp12929
(dp12930
g16
g336
sbatp12931
Rp12932
(dp12933
g16
g208
sbatp12934
Rp12935
(dp12936
g16
VROOT
p12937
sbasg347
(icmyPackage
CorE
p12938
(dp12939
g350
(lp12940
(I0
I17
tp12941
a(I0
I27
tp12942
asg354
g12908
sbsg355
(icmyPackage
CorE
p12943
(dp12944
g350
(lp12945
(I0
I0
tp12946
a(I0
I14
tp12947
asg354
g5
(g6
g7
(lp12948
g12768
ag12775
ag12781
ag12788
atp12949
Rp12950
(dp12951
g16
g365
sbsbsg366
(icmyPackage
pattern
p12952
(dp12953
g369
I0
sg370
I0
sg371
(lp12954
(lp12955
S'based'
p12956
aS'on'
p12957
aasg377
(lp12958
I2
aI1
aI1
asg379
(lp12959
S'He said he planned to announce details of legislation on Sunday based on a Republican plan that would provide a short-term solution'
p12960
asg382
I48
sg383
(lp12961
(lp12962
S'&R'
p12963
aS'(,)'
p12964
aS'(&ADV)'
p12965
aa(lp12966
S'&V-ing/&NP@C@'
p12967
aS'(&Clause@C@)'
p12968
aasbsg389
(lp12969
(icmyPackage
Sent
p12970
(dp12971
g393
I5
sg394
I90
sg395
S'The traditional proof and the proofs by Winograd, Minsky and Stefanuk can all be based on the following sentences of set theory axiomatized in first order logic.'
p12972
sg397
I0
sg398
I171
sg354
(lp12973
g12935
asbasba(icmyPackage
CELink
p12974
(dp12975
g3
(lp12976
g5
(g6
g7
(lp12977
g5
(g6
g7
(lp12978
g5
(g6
g7
(lp12979
g5
(g6
g7
(lp12980
VIf
p12981
atp12982
Rp12983
(dp12984
g16
VIN
p12985
sbag5
(g6
g7
(lp12986
g5
(g6
g7
(lp12987
g5
(g6
g7
(lp12988
Vwe
p12989
atp12990
Rp12991
(dp12992
g16
VPRP
p12993
sbatp12994
Rp12995
(dp12996
g16
VNP
p12997
sbag5
(g6
g7
(lp12998
g5
(g6
g7
(lp12999
Vare
p13000
atp13001
Rp13002
(dp13003
g16
VVBP
p13004
sbag5
(g6
g7
(lp13005
g5
(g6
g7
(lp13006
Vwilling
p13007
atp13008
Rp13009
(dp13010
g16
VJJ
p13011
sbag5
(g6
g7
(lp13012
g5
(g6
g7
(lp13013
g5
(g6
g7
(lp13014
Vto
p13015
atp13016
Rp13017
(dp13018
g16
VTO
p13019
sbag5
(g6
g7
(lp13020
g5
(g6
g7
(lp13021
Vbe
p13022
atp13023
Rp13024
(dp13025
g16
VVB
p13026
sbag5
(g6
g7
(lp13027
g5
(g6
g7
(lp13028
Vslightly
p13029
atp13030
Rp13031
(dp13032
g16
VRB
p13033
sbag5
(g6
g7
(lp13034
Vtricky
p13035
atp13036
Rp13037
(dp13038
g16
VJJ
p13039
sbatp13040
Rp13041
(dp13042
g16
VADJP
p13043
sbatp13044
Rp13045
(dp13046
g16
VVP
p13047
sbatp13048
Rp13049
(dp13050
g16
VVP
p13051
sbatp13052
Rp13053
(dp13054
g16
g208
sbatp13055
Rp13056
(dp13057
g16
VADJP
p13058
sbatp13059
Rp13060
(dp13061
g16
VVP
p13062
sbatp13063
Rp13064
(dp13065
g16
g208
sbatp13066
Rp13067
(dp13068
g16
VSBAR
p13069
sbag5
(g6
g7
(lp13070
g959
atp13071
Rp13072
(dp13073
g16
g959
sbag5
(g6
g7
(lp13074
g5
(g6
g7
(lp13075
Vwe
p13076
atp13077
Rp13078
(dp13079
g16
VPRP
p13080
sbatp13081
Rp13082
(dp13083
g16
VNP
p13084
sbag5
(g6
g7
(lp13085
g5
(g6
g7
(lp13086
Vcan
p13087
atp13088
Rp13089
(dp13090
g16
VMD
p13091
sbag5
(g6
g7
(lp13092
g5
(g6
g7
(lp13093
Vwrite
p13094
atp13095
Rp13096
(dp13097
g16
VVB
p13098
sbag5
(g6
g7
(lp13099
g5
(g6
g7
(lp13100
Vmore
p13101
atp13102
Rp13103
(dp13104
g16
VJJR
p13105
sbag5
(g6
g7
(lp13106
Vcompactly
p13107
atp13108
Rp13109
(dp13110
g16
VNN
p13111
sbatp13112
Rp13113
(dp13114
g16
VNP
p13115
sbatp13116
Rp13117
(dp13118
g16
VVP
p13119
sbatp13120
Rp13121
(dp13122
g16
VVP
p13123
sbatp13124
Rp13125
(dp13126
g16
g208
sbatp13127
Rp13128
(dp13129
g16
VROOT
p13130
sbasg347
(icmyPackage
CorE
p13131
(dp13132
g350
(lp13133
(I0
I1
tp13134
a(I0
I7
tp13135
asg354
g13064
sbsg355
(icmyPackage
CorE
p13136
(dp13137
g350
(lp13138
(I0
I9
tp13139
a(I0
I13
tp13140
asg354
g5
(g6
g7
(lp13141
g13082
ag13121
atp13142
Rp13143
(dp13144
g16
g365
sbsbsg366
g8837
sg389
(lp13145
(icmyPackage
Sent
p13146
(dp13147
g393
I5
sg394
I97
sg395
S'If we are willing to be slightly tricky, we can write more compactly'
p13148
sg397
I1
sg398
I181
sg354
(lp13149
g13128
asbasba(icmyPackage
CELink
p13150
(dp13151
g3
(lp13152
g5
(g6
g7
(lp13153
g5
(g6
g7
(lp13154
g5
(g6
g7
(lp13155
g5
(g6
g7
(lp13156
g5
(g6
g7
(lp13157
VSomeone
p13158
atp13159
Rp13160
(dp13161
g16
VNN
p13162
sbatp13163
Rp13164
(dp13165
g16
VNP
p13166
sbag5
(g6
g7
(lp13167
g5
(g6
g7
(lp13168
Vmight
p13169
atp13170
Rp13171
(dp13172
g16
VMD
p13173
sbag5
(g6
g7
(lp13174
g5
(g6
g7
(lp13175
Vargue
p13176
atp13177
Rp13178
(dp13179
g16
VVB
p13180
sbag5
(g6
g7
(lp13181
g5
(g6
g7
(lp13182
Vthat
p13183
atp13184
Rp13185
(dp13186
g16
VIN
p13187
sbag5
(g6
g7
(lp13188
g5
(g6
g7
(lp13189
g5
(g6
g7
(lp13190
Vthe
p13191
atp13192
Rp13193
(dp13194
g16
VDT
p13195
sbag5
(g6
g7
(lp13196
Vdecision
p13197
atp13198
Rp13199
(dp13200
g16
VNN
p13201
sbag5
(g6
g7
(lp13202
g5
(g6
g7
(lp13203
g5
(g6
g7
(lp13204
Vto
p13205
atp13206
Rp13207
(dp13208
g16
VTO
p13209
sbag5
(g6
g7
(lp13210
g5
(g6
g7
(lp13211
Vuse
p13212
atp13213
Rp13214
(dp13215
g16
VVB
p13216
sbag5
(g6
g7
(lp13217
g5
(g6
g7
(lp13218
Vset
p13219
atp13220
Rp13221
(dp13222
g16
VNN
p13223
sbag5
(g6
g7
(lp13224
Vtheory
p13225
atp13226
Rp13227
(dp13228
g16
VNN
p13229
sbatp13230
Rp13231
(dp13232
g16
VNP
p13233
sbatp13234
Rp13235
(dp13236
g16
VVP
p13237
sbatp13238
Rp13239
(dp13240
g16
VVP
p13241
sbatp13242
Rp13243
(dp13244
g16
g208
sbatp13245
Rp13246
(dp13247
g16
VNP
p13248
sbag5
(g6
g7
(lp13249
g5
(g6
g7
(lp13250
Vis
p13251
atp13252
Rp13253
(dp13254
g16
VVBZ
p13255
sbag5
(g6
g7
(lp13256
g5
(g6
g7
(lp13257
Vcreative
p13258
atp13259
Rp13260
(dp13261
g16
VJJ
p13262
sbatp13263
Rp13264
(dp13265
g16
VADJP
p13266
sbatp13267
Rp13268
(dp13269
g16
VVP
p13270
sbatp13271
Rp13272
(dp13273
g16
g208
sbatp13274
Rp13275
(dp13276
g16
VSBAR
p13277
sbatp13278
Rp13279
(dp13280
g16
VVP
p13281
sbatp13282
Rp13283
(dp13284
g16
VVP
p13285
sbatp13286
Rp13287
(dp13288
g16
g208
sbag5
(g6
g7
(lp13289
g959
atp13290
Rp13291
(dp13292
g16
g959
sbag5
(g6
g7
(lp13293
Vbut
p13294
atp13295
Rp13296
(dp13297
g16
VCC
p13298
sbag5
(g6
g7
(lp13299
g5
(g6
g7
(lp13300
g5
(g6
g7
(lp13301
g5
(g6
g7
(lp13302
g3970
atp13303
Rp13304
(dp13305
g16
VPRP
p13306
sbatp13307
Rp13308
(dp13309
g16
VNP
p13310
sbag5
(g6
g7
(lp13311
g5
(g6
g7
(lp13312
V'm
p13313
atp13314
Rp13315
(dp13316
g16
VVBP
p13317
sbag5
(g6
g7
(lp13318
g5
(g6
g7
(lp13319
Vstriving
p13320
atp13321
Rp13322
(dp13323
g16
VVBG
p13324
sbag5
(g6
g7
(lp13325
g5
(g6
g7
(lp13326
Vfor
p13327
atp13328
Rp13329
(dp13330
g16
VIN
p13331
sbag5
(g6
g7
(lp13332
g5
(g6
g7
(lp13333
g5
(g6
g7
(lp13334
g58
atp13335
Rp13336
(dp13337
g16
VDT
p13338
sbag5
(g6
g7
(lp13339
Vtechnical
p13340
atp13341
Rp13342
(dp13343
g16
VJJ
p13344
sbag5
(g6
g7
(lp13345
Vnotion
p13346
atp13347
Rp13348
(dp13349
g16
VNN
p13350
sbatp13351
Rp13352
(dp13353
g16
VNP
p13354
sbag5
(g6
g7
(lp13355
g5
(g6
g7
(lp13356
Vof
p13357
atp13358
Rp13359
(dp13360
g16
VIN
p13361
sbag5
(g6
g7
(lp13362
g5
(g6
g7
(lp13363
Vcreative
p13364
atp13365
Rp13366
(dp13367
g16
VJJ
p13368
sbag5
(g6
g7
(lp13369
Vsolution
p13370
atp13371
Rp13372
(dp13373
g16
VNN
p13374
sbatp13375
Rp13376
(dp13377
g16
VNP
p13378
sbatp13379
Rp13380
(dp13381
g16
VPP
p13382
sbatp13383
Rp13384
(dp13385
g16
VNP
p13386
sbatp13387
Rp13388
(dp13389
g16
VPP
p13390
sbatp13391
Rp13392
(dp13393
g16
VVP
p13394
sbatp13395
Rp13396
(dp13397
g16
VVP
p13398
sbatp13399
Rp13400
(dp13401
g16
g208
sbag5
(g6
g7
(lp13402
g959
atp13403
Rp13404
(dp13405
g16
g959
sbag5
(g6
g7
(lp13406
Vand
p13407
atp13408
Rp13409
(dp13410
g16
VCC
p13411
sbag5
(g6
g7
(lp13412
g5
(g6
g7
(lp13413
g5
(g6
g7
(lp13414
Vone
p13415
atp13416
Rp13417
(dp13418
g16
VPRP
p13419
sbatp13420
Rp13421
(dp13422
g16
VNP
p13423
sbag5
(g6
g7
(lp13424
g5
(g6
g7
(lp13425
Vhas
p13426
atp13427
Rp13428
(dp13429
g16
VVBZ
p13430
sbag5
(g6
g7
(lp13431
g5
(g6
g7
(lp13432
g5
(g6
g7
(lp13433
Vto
p13434
atp13435
Rp13436
(dp13437
g16
VTO
p13438
sbag5
(g6
g7
(lp13439
g5
(g6
g7
(lp13440
Vstart
p13441
atp13442
Rp13443
(dp13444
g16
VVB
p13445
sbag5
(g6
g7
(lp13446
g5
(g6
g7
(lp13447
Vwith
p13448
atp13449
Rp13450
(dp13451
g16
VIN
p13452
sbag5
(g6
g7
(lp13453
g5
(g6
g7
(lp13454
Vsome
p13455
atp13456
Rp13457
(dp13458
g16
VDT
p13459
sbag5
(g6
g7
(lp13460
Vbackground
p13461
atp13462
Rp13463
(dp13464
g16
VNN
p13465
sbag5
(g6
g7
(lp13466
Vlanguage
p13467
atp13468
Rp13469
(dp13470
g16
VNN
p13471
sbatp13472
Rp13473
(dp13474
g16
VNP
p13475
sbatp13476
Rp13477
(dp13478
g16
VPP
p13479
sbatp13480
Rp13481
(dp13482
g16
VVP
p13483
sbatp13484
Rp13485
(dp13486
g16
VVP
p13487
sbatp13488
Rp13489
(dp13490
g16
g208
sbatp13491
Rp13492
(dp13493
g16
VVP
p13494
sbatp13495
Rp13496
(dp13497
g16
g208
sbatp13498
Rp13499
(dp13500
g16
g208
sbag5
(g6
g7
(lp13501
g336
atp13502
Rp13503
(dp13504
g16
g336
sbatp13505
Rp13506
(dp13507
g16
g208
sbatp13508
Rp13509
(dp13510
g16
VROOT
p13511
sbasg347
(icmyPackage
CorE
p13512
(dp13513
g350
(lp13514
(I0
I0
tp13515
a(I0
I22
tp13516
asg354
g5
(g6
g7
(lp13517
g13287
ag13291
ag13296
ag13308
ag13315
ag13322
ag13329
ag13352
ag13359
ag13366
atp13518
Rp13519
(dp13520
g16
g365
sbsbsg355
(icmyPackage
CorE
p13521
(dp13522
g350
(lp13523
(I0
I29
tp13524
a(I0
I34
tp13525
asg354
g5
(g6
g7
(lp13526
g13481
ag13503
atp13527
Rp13528
(dp13529
g16
g365
sbsbsg366
(icmyPackage
pattern
p13530
(dp13531
g369
I5
sg370
I0
sg371
(lp13532
(lp13533
S'so'
p13534
aa(lp13535
S'as'
p13536
aS'to'
p13537
aasg377
(lp13538
I3
aI3
aI1
asg379
(lp13539
S'The bottom member comprises a pair of leaning troughs that receive latch edges, so as to fix the seat member on the bottom member.'
p13540
aS'Nerve of the whole body seems to be so strained as to need to break.'
p13541
asg382
I83
sg383
(lp13542
(lp13543
S'&C'
p13544
aS'(,)'
p13545
aa(lp13546
S'(&adj/&adv@C@)'
p13547
aa(lp13548
S'&R'
p13549
aasbsg389
(lp13550
(icmyPackage
Sent
p13551
(dp13552
g393
I5
sg394
I104
sg395
S"Someone might argue that the decision to use set theory is creative, but I'm striving for a technical notion of creative solution, and one has to start with some background language."
p13553
sg397
I1
sg398
I191
sg354
(lp13554
g13509
asbasba.