(lp0
(icmyPackage
CELink
p1
(dp2
S'PTreelst'
p3
(lp4
ccopy_reg
_reconstructor
p5
(cnltk.tree
Tree
p6
c__builtin__
list
p7
(lp8
g5
(g6
g7
(lp9
g5
(g6
g7
(lp10
g5
(g6
g7
(lp11
g5
(g6
g7
(lp12
VSome
p13
atp14
Rp15
(dp16
S'_label'
p17
VDT
p18
sbag5
(g6
g7
(lp19
Vapproximate
p20
atp21
Rp22
(dp23
g17
VJJ
p24
sbag5
(g6
g7
(lp25
Vconcepts
p26
atp27
Rp28
(dp29
g17
VNNS
p30
sbatp31
Rp32
(dp33
g17
VNP
p34
sbag5
(g6
g7
(lp35
g5
(g6
g7
(lp36
Vcan
p37
atp38
Rp39
(dp40
g17
VMD
p41
sbag5
(g6
g7
(lp42
g5
(g6
g7
(lp43
Vbe
p44
atp45
Rp46
(dp47
g17
VVB
p48
sbag5
(g6
g7
(lp49
g5
(g6
g7
(lp50
Vrefined
p51
atp52
Rp53
(dp54
g17
VVBN
p55
sbag5
(g6
g7
(lp56
g5
(g6
g7
(lp57
Vby
p58
atp59
Rp60
(dp61
g17
VIN
p62
sbag5
(g6
g7
(lp63
g5
(g6
g7
(lp64
g5
(g6
g7
(lp65
Vlearning
p66
atp67
Rp68
(dp69
g17
VVBG
p70
sbag5
(g6
g7
(lp71
g5
(g6
g7
(lp72
g5
(g6
g7
(lp73
Vmore
p74
atp75
Rp76
(dp77
g17
VJJR
p78
sbatp79
Rp80
(dp81
g17
VNP
p82
sbag5
(g6
g7
(lp83
Vand
p84
atp85
Rp86
(dp87
g17
VCC
p88
sbag5
(g6
g7
(lp89
g5
(g6
g7
(lp90
Vsome
p91
atp92
Rp93
(dp94
g17
VDT
p95
sbatp96
Rp97
(dp98
g17
VNP
p99
sbatp100
Rp101
(dp102
g17
VNP
p103
sbag5
(g6
g7
(lp104
g5
(g6
g7
(lp105
Vby
p106
atp107
Rp108
(dp109
g17
VIN
p110
sbag5
(g6
g7
(lp111
g5
(g6
g7
(lp112
g5
(g6
g7
(lp113
Vdefining
p114
atp115
Rp116
(dp117
g17
VVBG
p118
sbag5
(g6
g7
(lp119
g5
(g6
g7
(lp120
g5
(g6
g7
(lp121
Vmore
p122
atp123
Rp124
(dp125
g17
VJJR
p126
sbatp127
Rp128
(dp129
g17
VNP
p130
sbag5
(g6
g7
(lp131
Vand
p132
atp133
Rp134
(dp135
g17
VCC
p136
sbag5
(g6
g7
(lp137
g5
(g6
g7
(lp138
Vsome
p139
atp140
Rp141
(dp142
g17
VDT
p143
sbatp144
Rp145
(dp146
g17
VNP
p147
sbatp148
Rp149
(dp150
g17
VNP
p151
sbag5
(g6
g7
(lp152
g5
(g6
g7
(lp153
Vby
p154
atp155
Rp156
(dp157
g17
VIN
p158
sbag5
(g6
g7
(lp159
g5
(g6
g7
(lp160
Vboth
p161
atp162
Rp163
(dp164
g17
VDT
p165
sbatp166
Rp167
(dp168
g17
VNP
p169
sbatp170
Rp171
(dp172
g17
VPP
p173
sbatp174
Rp175
(dp176
g17
VVP
p177
sbatp178
Rp179
(dp180
g17
VS
p181
sbatp182
Rp183
(dp184
g17
VPP
p185
sbatp186
Rp187
(dp188
g17
VVP
p189
sbatp190
Rp191
(dp192
g17
g181
sbatp193
Rp194
(dp195
g17
VPP
p196
sbatp197
Rp198
(dp199
g17
VVP
p200
sbatp201
Rp202
(dp203
g17
VVP
p204
sbatp205
Rp206
(dp207
g17
VVP
p208
sbatp209
Rp210
(dp211
g17
g181
sbag5
(g6
g7
(lp212
V,
p213
atp214
Rp215
(dp216
g17
g213
sbag5
(g6
g7
(lp217
Vbut
p218
atp219
Rp220
(dp221
g17
VCC
p222
sbag5
(g6
g7
(lp223
g5
(g6
g7
(lp224
g5
(g6
g7
(lp225
Vit
p226
atp227
Rp228
(dp229
g17
VPRP
p230
sbatp231
Rp232
(dp233
g17
VNP
p234
sbag5
(g6
g7
(lp235
g5
(g6
g7
(lp236
Vis
p237
atp238
Rp239
(dp240
g17
VVBZ
p241
sbag5
(g6
g7
(lp242
Vn't
p243
atp244
Rp245
(dp246
g17
VRB
p247
sbag5
(g6
g7
(lp248
g5
(g6
g7
(lp249
Vpossible
p250
atp251
Rp252
(dp253
g17
VJJ
p254
sbag5
(g6
g7
(lp255
g5
(g6
g7
(lp256
Vin
p257
atp258
Rp259
(dp260
g17
VIN
p261
sbag5
(g6
g7
(lp262
g5
(g6
g7
(lp263
g5
(g6
g7
(lp264
Vgeneral
p265
atp266
Rp267
(dp268
g17
VJJ
p269
sbag5
(g6
g7
(lp270
g5
(g6
g7
(lp271
g5
(g6
g7
(lp272
Vto
p273
atp274
Rp275
(dp276
g17
VTO
p277
sbag5
(g6
g7
(lp278
g5
(g6
g7
(lp279
Vmake
p280
atp281
Rp282
(dp283
g17
VVB
p284
sbag5
(g6
g7
(lp285
g5
(g6
g7
(lp286
Vthem
p287
atp288
Rp289
(dp290
g17
VPRP
p291
sbatp292
Rp293
(dp294
g17
VNP
p295
sbatp296
Rp297
(dp298
g17
VVP
p299
sbatp300
Rp301
(dp302
g17
VVP
p303
sbatp304
Rp305
(dp306
g17
g181
sbatp307
Rp308
(dp309
g17
VADJP
p310
sbag5
(g6
g7
(lp311
Vwell-defined
p312
atp313
Rp314
(dp315
g17
VNNS
p316
sbatp317
Rp318
(dp319
g17
VNP
p320
sbatp321
Rp322
(dp323
g17
VPP
p324
sbatp325
Rp326
(dp327
g17
VADJP
p328
sbatp329
Rp330
(dp331
g17
VVP
p332
sbatp333
Rp334
(dp335
g17
g181
sbag5
(g6
g7
(lp336
V.
p337
atp338
Rp339
(dp340
g17
g337
sbatp341
Rp342
(dp343
g17
g181
sbatp344
Rp345
(dp346
g17
VROOT
p347
sbasS'cause'
p348
(icmyPackage
CorE
p349
(dp350
S'span'
p351
(lp352
(I0
I7
tp353
a(I0
I17
tp354
asS'PTree'
p355
g191
sbsS'effect'
p356
(icmyPackage
CorE
p357
(dp358
g351
(lp359
(I0
I18
tp360
a(I0
I30
tp361
asg355
g5
(g6
g7
(lp362
g215
ag220
ag334
ag339
atp363
Rp364
(dp365
g17
S'ROOT'
p366
sbsbsS'pt'
p367
(icmyPackage
pattern
p368
(dp369
S'pfreq'
p370
I0
sS'moresent'
p371
I0
sS'main_token'
p372
(lp373
(lp374
(lp375
S'by'
p376
aS'through'
p377
aaasS'ptype'
p378
(lp379
I2
aI1
aI1
asS'cases'
p380
(lp381
S'By extracting comments and comparisons of the cited articles and then organizing them according to the time of publication discovers and displays how the area has developed as a research literature.'
p382
asS'id'
p383
I67
sS'constraints'
p384
(lp385
(lp386
a(lp387
S'&V-ing@C@'
p388
aS'&R'
p389
aasbsS'sInfo'
p390
(lp391
(icmyPackage
Sent
p392
(dp393
S'Ctag'
p394
I0
sS'Ptag'
p395
I1
sS'text'
p396
S"Some approximate concepts can be refined by learning more and some by defining more and some by both, but it isn't possible in general to make them well-defined."
p397
sS'SCtag'
p398
I0
sS'Stag'
p399
I3
sg355
(lp400
g345
asbasba(icmyPackage
CELink
p401
(dp402
g3
(lp403
g5
(g6
g7
(lp404
g5
(g6
g7
(lp405
g5
(g6
g7
(lp406
g5
(g6
g7
(lp407
VApproximate
p408
atp409
Rp410
(dp411
g17
VJJ
p412
sbag5
(g6
g7
(lp413
Vconcepts
p414
atp415
Rp416
(dp417
g17
VNNS
p418
sbatp419
Rp420
(dp421
g17
VNP
p422
sbag5
(g6
g7
(lp423
g5
(g6
g7
(lp424
Vare
p425
atp426
Rp427
(dp428
g17
VVBP
p429
sbag5
(g6
g7
(lp430
g5
(g6
g7
(lp431
Vessential
p432
atp433
Rp434
(dp435
g17
VJJ
p436
sbag5
(g6
g7
(lp437
g5
(g6
g7
(lp438
Vfor
p439
atp440
Rp441
(dp442
g17
VIN
p443
sbag5
(g6
g7
(lp444
g5
(g6
g7
(lp445
g5
(g6
g7
(lp446
g5
(g6
g7
(lp447
Vrepresenting
p448
atp449
Rp450
(dp451
g17
VVBG
p452
sbag5
(g6
g7
(lp453
g5
(g6
g7
(lp454
Vcommon
p455
atp456
Rp457
(dp458
g17
VJJ
p459
sbag5
(g6
g7
(lp460
Vsense
p461
atp462
Rp463
(dp464
g17
VNN
p465
sbag5
(g6
g7
(lp466
Vknowledge
p467
atp468
Rp469
(dp470
g17
VNN
p471
sbatp472
Rp473
(dp474
g17
VNP
p475
sbatp476
Rp477
(dp478
g17
VVP
p479
sbag5
(g6
g7
(lp480
Vand
p481
atp482
Rp483
(dp484
g17
VCC
p485
sbag5
(g6
g7
(lp486
g5
(g6
g7
(lp487
Vdoing
p488
atp489
Rp490
(dp491
g17
VVBG
p492
sbag5
(g6
g7
(lp493
g5
(g6
g7
(lp494
Vcommon
p495
atp496
Rp497
(dp498
g17
VJJ
p499
sbag5
(g6
g7
(lp500
Vsense
p501
atp502
Rp503
(dp504
g17
VNN
p505
sbag5
(g6
g7
(lp506
Vreasoning
p507
atp508
Rp509
(dp510
g17
VNN
p511
sbatp512
Rp513
(dp514
g17
VNP
p515
sbatp516
Rp517
(dp518
g17
VVP
p519
sbatp520
Rp521
(dp522
g17
VVP
p523
sbatp524
Rp525
(dp526
g17
g181
sbatp527
Rp528
(dp529
g17
VPP
p530
sbatp531
Rp532
(dp533
g17
VADJP
p534
sbatp535
Rp536
(dp537
g17
VVP
p538
sbag5
(g6
g7
(lp539
g337
atp540
Rp541
(dp542
g17
g337
sbatp543
Rp544
(dp545
g17
g181
sbatp546
Rp547
(dp548
g17
VROOT
p549
sbasg348
(icmyPackage
CorE
p550
(dp551
g351
(lp552
(I0
I5
tp553
a(I0
I13
tp554
asg355
g525
sbsg356
(icmyPackage
CorE
p555
(dp556
g351
(lp557
(I0
I0
tp558
a(I0
I3
tp559
asg355
g5
(g6
g7
(lp560
g420
ag427
ag434
atp561
Rp562
(dp563
g17
g366
sbsbsg367
(icmyPackage
pattern
p564
(dp565
g370
I25
sg371
I0
sg372
(lp566
(lp567
S'for'
p568
aasg378
(lp569
I2
aI1
aI1
asg380
(lp570
S'She was angry with him for being late.'
p571
asg383
I44
sg384
(lp572
(lp573
S'&R'
p574
aa(lp575
S'&V-ing@C@'
p576
aasbsg390
(lp577
(icmyPackage
Sent
p578
(dp579
g394
I0
sg395
I1
sg396
S'Approximate concepts are essential for representing common sense knowledge and doing common sense reasoning.'
p580
sg398
I0
sg399
I4
sg355
(lp581
g547
asbasba(icmyPackage
CELink
p582
(dp583
g3
(lp584
g5
(g6
g7
(lp585
g5
(g6
g7
(lp586
g5
(g6
g7
(lp587
g5
(g6
g7
(lp588
g5
(g6
g7
(lp589
VA
p590
atp591
Rp592
(dp593
g17
VDT
p594
sbag5
(g6
g7
(lp595
Vsentence
p596
atp597
Rp598
(dp599
g17
VNN
p600
sbatp601
Rp602
(dp603
g17
VNP
p604
sbag5
(g6
g7
(lp605
g5
(g6
g7
(lp606
Vinvolving
p607
atp608
Rp609
(dp610
g17
VVBG
p611
sbag5
(g6
g7
(lp612
g5
(g6
g7
(lp613
Van
p614
atp615
Rp616
(dp617
g17
VDT
p618
sbag5
(g6
g7
(lp619
Vapproximate
p620
atp621
Rp622
(dp623
g17
VJJ
p624
sbag5
(g6
g7
(lp625
Vconcept
p626
atp627
Rp628
(dp629
g17
VNN
p630
sbatp631
Rp632
(dp633
g17
VNP
p634
sbatp635
Rp636
(dp637
g17
VVP
p638
sbatp639
Rp640
(dp641
g17
VNP
p642
sbag5
(g6
g7
(lp643
g5
(g6
g7
(lp644
Vmay
p645
atp646
Rp647
(dp648
g17
VMD
p649
sbag5
(g6
g7
(lp650
g5
(g6
g7
(lp651
Vhave
p652
atp653
Rp654
(dp655
g17
VVB
p656
sbag5
(g6
g7
(lp657
g5
(g6
g7
(lp658
Va
p659
atp660
Rp661
(dp662
g17
VDT
p663
sbag5
(g6
g7
(lp664
Vdefinite
p665
atp666
Rp667
(dp668
g17
VJJ
p669
sbag5
(g6
g7
(lp670
Vtruth
p671
atp672
Rp673
(dp674
g17
VNN
p675
sbag5
(g6
g7
(lp676
Vvalue
p677
atp678
Rp679
(dp680
g17
VNN
p681
sbatp682
Rp683
(dp684
g17
VNP
p685
sbag5
(g6
g7
(lp686
g5
(g6
g7
(lp687
Veven
p688
atp689
Rp690
(dp691
g17
VRB
p692
sbag5
(g6
g7
(lp693
Vif
p694
atp695
Rp696
(dp697
g17
VIN
p698
sbag5
(g6
g7
(lp699
g5
(g6
g7
(lp700
g5
(g6
g7
(lp701
Vthe
p702
atp703
Rp704
(dp705
g17
VDT
p706
sbag5
(g6
g7
(lp707
Vconcept
p708
atp709
Rp710
(dp711
g17
VNN
p712
sbatp713
Rp714
(dp715
g17
VNP
p716
sbag5
(g6
g7
(lp717
g5
(g6
g7
(lp718
Vis
p719
atp720
Rp721
(dp722
g17
VVBZ
p723
sbag5
(g6
g7
(lp724
g5
(g6
g7
(lp725
Vill-defined
p726
atp727
Rp728
(dp729
g17
VJJ
p730
sbatp731
Rp732
(dp733
g17
VADJP
p734
sbatp735
Rp736
(dp737
g17
VVP
p738
sbatp739
Rp740
(dp741
g17
g181
sbatp742
Rp743
(dp744
g17
VSBAR
p745
sbatp746
Rp747
(dp748
g17
VVP
p749
sbatp750
Rp751
(dp752
g17
VVP
p753
sbag5
(g6
g7
(lp754
g337
atp755
Rp756
(dp757
g17
g337
sbatp758
Rp759
(dp760
g17
g181
sbatp761
Rp762
(dp763
g17
VROOT
p764
sbasg348
(icmyPackage
CorE
p765
(dp766
g351
(lp767
(I0
I14
tp768
a(I0
I18
tp769
asg355
g5
(g6
g7
(lp770
g740
ag756
atp771
Rp772
(dp773
g17
g366
sbsbsg356
(icmyPackage
CorE
p774
(dp775
g351
(lp776
(I0
I0
tp777
a(I0
I12
tp778
asg355
g5
(g6
g7
(lp779
g640
ag647
ag654
ag683
ag690
atp780
Rp781
(dp782
g17
g366
sbsbsg367
(icmyPackage
pattern
p783
(dp784
g370
I0
sg371
I0
sg372
(lp785
(lp786
S'if'
p787
aasg378
(lp788
I1
aI1
aI1
asg380
(lp789
S'An effective knowledge flow network enables a research team to be very powerful in generating new knowledge if every node can innovate and output new knowledge to appropriate members.'
p790
asg383
I14
sg384
(lp791
(lp792
S'&R@Complete@'
p793
aa(lp794
S'&C@Complete@'
p795
aasbsg390
(lp796
(icmyPackage
Sent
p797
(dp798
g394
I0
sg395
I2
sg396
S'A sentence involving an approximate concept may have a definite truth value even if the concept is ill-defined.'
p799
sg398
I0
sg399
I6
sg355
(lp800
g762
asbasba(icmyPackage
CELink
p801
(dp802
g3
(lp803
g5
(g6
g7
(lp804
g5
(g6
g7
(lp805
g5
(g6
g7
(lp806
g5
(g6
g7
(lp807
g5
(g6
g7
(lp808
VWhatif
p809
atp810
Rp811
(dp812
g17
VNNP
p813
sbatp814
Rp815
(dp816
g17
VNP
p817
sbag5
(g6
g7
(lp818
g5
(g6
g7
(lp819
V-LRB-
p820
atp821
Rp822
(dp823
g17
V-LRB-
p824
sbag5
(g6
g7
(lp825
g5
(g6
g7
(lp826
g5
(g6
g7
(lp827
Vx
p828
atp829
Rp830
(dp831
g17
VSYM
p832
sbatp833
Rp834
(dp835
g17
VNP
p836
sbag5
(g6
g7
(lp837
g213
atp838
Rp839
(dp840
g17
g213
sbag5
(g6
g7
(lp841
g5
(g6
g7
(lp842
Vp
p843
atp844
Rp845
(dp846
g17
VNN
p847
sbatp848
Rp849
(dp850
g17
VNP
p851
sbatp852
Rp853
(dp854
g17
VNP
p855
sbag5
(g6
g7
(lp856
V-RRB-
p857
atp858
Rp859
(dp860
g17
V-RRB-
p861
sbatp862
Rp863
(dp864
g17
VPRN
p865
sbag5
(g6
g7
(lp866
g213
atp867
Rp868
(dp869
g17
g213
sbag5
(g6
g7
(lp870
g5
(g6
g7
(lp871
g5
(g6
g7
(lp872
Vwhich
p873
atp874
Rp875
(dp876
g17
VWDT
p877
sbatp878
Rp879
(dp880
g17
VWHNP
p881
sbag5
(g6
g7
(lp882
g5
(g6
g7
(lp883
g5
(g6
g7
(lp884
Vdenotes
p885
atp886
Rp887
(dp888
g17
VVBZ
p889
sbag5
(g6
g7
(lp890
g5
(g6
g7
(lp891
g5
(g6
g7
(lp892
Vwhat
p893
atp894
Rp895
(dp896
g17
VWP
p897
sbatp898
Rp899
(dp900
g17
VWHNP
p901
sbag5
(g6
g7
(lp902
g5
(g6
g7
(lp903
g5
(g6
g7
(lp904
g828
atp905
Rp906
(dp907
g17
VSYM
p908
sbatp909
Rp910
(dp911
g17
VNP
p912
sbag5
(g6
g7
(lp913
g5
(g6
g7
(lp914
Vwould
p915
atp916
Rp917
(dp918
g17
VMD
p919
sbag5
(g6
g7
(lp920
g5
(g6
g7
(lp921
Vbe
p922
atp923
Rp924
(dp925
g17
VVB
p926
sbag5
(g6
g7
(lp927
g5
(g6
g7
(lp928
Vlike
p929
atp930
Rp931
(dp932
g17
VJJ
p933
sbatp934
Rp935
(dp936
g17
VADJP
p937
sbag5
(g6
g7
(lp938
g5
(g6
g7
(lp939
Vif
p940
atp941
Rp942
(dp943
g17
VIN
p944
sbag5
(g6
g7
(lp945
g5
(g6
g7
(lp946
g5
(g6
g7
(lp947
g843
atp948
Rp949
(dp950
g17
VNN
p951
sbatp952
Rp953
(dp954
g17
VNP
p955
sbag5
(g6
g7
(lp956
g5
(g6
g7
(lp957
Vwere
p958
atp959
Rp960
(dp961
g17
VVBD
p962
sbag5
(g6
g7
(lp963
g5
(g6
g7
(lp964
Vtrue
p965
atp966
Rp967
(dp968
g17
VJJ
p969
sbatp970
Rp971
(dp972
g17
VADJP
p973
sbatp974
Rp975
(dp976
g17
VVP
p977
sbatp978
Rp979
(dp980
g17
g181
sbatp981
Rp982
(dp983
g17
VSBAR
p984
sbatp985
Rp986
(dp987
g17
VVP
p988
sbatp989
Rp990
(dp991
g17
VVP
p992
sbatp993
Rp994
(dp995
g17
g181
sbatp996
Rp997
(dp998
g17
VSBAR
p999
sbatp1000
Rp1001
(dp1002
g17
VVP
p1003
sbatp1004
Rp1005
(dp1006
g17
g181
sbatp1007
Rp1008
(dp1009
g17
VSBAR
p1010
sbag5
(g6
g7
(lp1011
g213
atp1012
Rp1013
(dp1014
g17
g213
sbatp1015
Rp1016
(dp1017
g17
VNP
p1018
sbag5
(g6
g7
(lp1019
g5
(g6
g7
(lp1020
Vis
p1021
atp1022
Rp1023
(dp1024
g17
VVBZ
p1025
sbag5
(g6
g7
(lp1026
g5
(g6
g7
(lp1027
g5
(g6
g7
(lp1028
Van
p1029
atp1030
Rp1031
(dp1032
g17
VDT
p1033
sbag5
(g6
g7
(lp1034
Vimportant
p1035
atp1036
Rp1037
(dp1038
g17
VJJ
p1039
sbag5
(g6
g7
(lp1040
Vkind
p1041
atp1042
Rp1043
(dp1044
g17
VNN
p1045
sbatp1046
Rp1047
(dp1048
g17
VNP
p1049
sbag5
(g6
g7
(lp1050
g5
(g6
g7
(lp1051
Vof
p1052
atp1053
Rp1054
(dp1055
g17
VIN
p1056
sbag5
(g6
g7
(lp1057
g5
(g6
g7
(lp1058
Vapproximate
p1059
atp1060
Rp1061
(dp1062
g17
VJJ
p1063
sbag5
(g6
g7
(lp1064
Vobject
p1065
atp1066
Rp1067
(dp1068
g17
VNN
p1069
sbatp1070
Rp1071
(dp1072
g17
VNP
p1073
sbatp1074
Rp1075
(dp1076
g17
VPP
p1077
sbatp1078
Rp1079
(dp1080
g17
VNP
p1081
sbatp1082
Rp1083
(dp1084
g17
VVP
p1085
sbag5
(g6
g7
(lp1086
g337
atp1087
Rp1088
(dp1089
g17
g337
sbatp1090
Rp1091
(dp1092
g17
g181
sbatp1093
Rp1094
(dp1095
g17
VROOT
p1096
sbasg348
(icmyPackage
CorE
p1097
(dp1098
g351
(lp1099
(I0
I15
tp1100
a(I0
I25
tp1101
asg355
g5
(g6
g7
(lp1102
g979
ag1013
ag1083
atp1103
Rp1104
(dp1105
g17
g366
sbsbsg356
(icmyPackage
CorE
p1106
(dp1107
g351
(lp1108
(I0
I10
tp1109
a(I0
I13
tp1110
asg355
g5
(g6
g7
(lp1111
g910
ag917
ag924
ag935
atp1112
Rp1113
(dp1114
g17
g366
sbsbsg367
g783
sg390
(lp1115
(icmyPackage
Sent
p1116
(dp1117
g394
I0
sg395
I2
sg396
S'Whatif(x,p), which denotes what x would be like if p were true, is an important kind of approximate object.'
p1118
sg398
I0
sg399
I9
sg355
(lp1119
g1094
asbasba(icmyPackage
CELink
p1120
(dp1121
g3
(lp1122
g5
(g6
g7
(lp1123
g5
(g6
g7
(lp1124
g5
(g6
g7
(lp1125
g5
(g6
g7
(lp1126
VThe
p1127
atp1128
Rp1129
(dp1130
g17
VDT
p1131
sbag5
(g6
g7
(lp1132
Varticle
p1133
atp1134
Rp1135
(dp1136
g17
VNN
p1137
sbatp1138
Rp1139
(dp1140
g17
VNP
p1141
sbag5
(g6
g7
(lp1142
g5
(g6
g7
(lp1143
Vtreats
p1144
atp1145
Rp1146
(dp1147
g17
VVBZ
p1148
sbag5
(g6
g7
(lp1149
g5
(g6
g7
(lp1150
Vsuccessively
p1151
atp1152
Rp1153
(dp1154
g17
VRB
p1155
sbatp1156
Rp1157
(dp1158
g17
VADVP
p1159
sbag5
(g6
g7
(lp1160
g5
(g6
g7
(lp1161
g5
(g6
g7
(lp1162
Vapproximate
p1163
atp1164
Rp1165
(dp1166
g17
VJJ
p1167
sbag5
(g6
g7
(lp1168
Vobjects
p1169
atp1170
Rp1171
(dp1172
g17
VNNS
p1173
sbatp1174
Rp1175
(dp1176
g17
VNP
p1177
sbag5
(g6
g7
(lp1178
g213
atp1179
Rp1180
(dp1181
g17
g213
sbag5
(g6
g7
(lp1182
g5
(g6
g7
(lp1183
Vapproximate
p1184
atp1185
Rp1186
(dp1187
g17
VJJ
p1188
sbag5
(g6
g7
(lp1189
Vtheories
p1190
atp1191
Rp1192
(dp1193
g17
VNNS
p1194
sbatp1195
Rp1196
(dp1197
g17
VNP
p1198
sbag5
(g6
g7
(lp1199
g213
atp1200
Rp1201
(dp1202
g17
g213
sbag5
(g6
g7
(lp1203
Vand
p1204
atp1205
Rp1206
(dp1207
g17
VCC
p1208
sbag5
(g6
g7
(lp1209
g5
(g6
g7
(lp1210
Vformalisms
p1211
atp1212
Rp1213
(dp1214
g17
VNNS
p1215
sbatp1216
Rp1217
(dp1218
g17
VNP
p1219
sbatp1220
Rp1221
(dp1222
g17
VNP
p1223
sbag5
(g6
g7
(lp1224
g5
(g6
g7
(lp1225
Vfor
p1226
atp1227
Rp1228
(dp1229
g17
VIN
p1230
sbag5
(g6
g7
(lp1231
g5
(g6
g7
(lp1232
g5
(g6
g7
(lp1233
Vdescribing
p1234
atp1235
Rp1236
(dp1237
g17
VVBG
p1238
sbag5
(g6
g7
(lp1239
g5
(g6
g7
(lp1240
g5
(g6
g7
(lp1241
Vhow
p1242
atp1243
Rp1244
(dp1245
g17
VWRB
p1246
sbatp1247
Rp1248
(dp1249
g17
VWHADVP
p1250
sbag5
(g6
g7
(lp1251
g5
(g6
g7
(lp1252
g5
(g6
g7
(lp1253
g5
(g6
g7
(lp1254
Vone
p1255
atp1256
Rp1257
(dp1258
g17
VCD
p1259
sbag5
(g6
g7
(lp1260
Vobject
p1261
atp1262
Rp1263
(dp1264
g17
VNN
p1265
sbatp1266
Rp1267
(dp1268
g17
VNP
p1269
sbag5
(g6
g7
(lp1270
Vor
p1271
atp1272
Rp1273
(dp1274
g17
VCC
p1275
sbag5
(g6
g7
(lp1276
g5
(g6
g7
(lp1277
Vtheory
p1278
atp1279
Rp1280
(dp1281
g17
VNN
p1282
sbatp1283
Rp1284
(dp1285
g17
VNP
p1286
sbatp1287
Rp1288
(dp1289
g17
VNP
p1290
sbag5
(g6
g7
(lp1291
g5
(g6
g7
(lp1292
Vapproximates
p1293
atp1294
Rp1295
(dp1296
g17
VVBZ
p1297
sbag5
(g6
g7
(lp1298
g5
(g6
g7
(lp1299
Vanother
p1300
atp1301
Rp1302
(dp1303
g17
VDT
p1304
sbatp1305
Rp1306
(dp1307
g17
VNP
p1308
sbatp1309
Rp1310
(dp1311
g17
VVP
p1312
sbatp1313
Rp1314
(dp1315
g17
g181
sbatp1316
Rp1317
(dp1318
g17
VSBAR
p1319
sbatp1320
Rp1321
(dp1322
g17
VVP
p1323
sbatp1324
Rp1325
(dp1326
g17
g181
sbatp1327
Rp1328
(dp1329
g17
VPP
p1330
sbatp1331
Rp1332
(dp1333
g17
VVP
p1334
sbag5
(g6
g7
(lp1335
g337
atp1336
Rp1337
(dp1338
g17
g337
sbatp1339
Rp1340
(dp1341
g17
g181
sbatp1342
Rp1343
(dp1344
g17
VROOT
p1345
sbasg348
(icmyPackage
CorE
p1346
(dp1347
g351
(lp1348
(I0
I13
tp1349
a(I0
I20
tp1350
asg355
g1325
sbsg356
(icmyPackage
CorE
p1351
(dp1352
g351
(lp1353
(I0
I0
tp1354
a(I0
I11
tp1355
asg355
g5
(g6
g7
(lp1356
g1139
ag1146
ag1157
ag1221
atp1357
Rp1358
(dp1359
g17
g366
sbsbsg367
g564
sg390
(lp1360
(icmyPackage
Sent
p1361
(dp1362
g394
I0
sg395
I3
sg396
S'The article treats successively approximate objects, approximate theories, and formalisms for describing how one object or theory approximates another.'
p1363
sg398
I0
sg399
I10
sg355
(lp1364
g1343
asbasba(icmyPackage
CELink
p1365
(dp1366
g3
(lp1367
g5
(g6
g7
(lp1368
g5
(g6
g7
(lp1369
g5
(g6
g7
(lp1370
g5
(g6
g7
(lp1371
VWe
p1372
atp1373
Rp1374
(dp1375
g17
VPRP
p1376
sbatp1377
Rp1378
(dp1379
g17
VNP
p1380
sbag5
(g6
g7
(lp1381
g5
(g6
g7
(lp1382
Vgive
p1383
atp1384
Rp1385
(dp1386
g17
VVBP
p1387
sbag5
(g6
g7
(lp1388
g5
(g6
g7
(lp1389
Vlots
p1390
atp1391
Rp1392
(dp1393
g17
VNNS
p1394
sbatp1395
Rp1396
(dp1397
g17
VNP
p1398
sbag5
(g6
g7
(lp1399
g5
(g6
g7
(lp1400
Vof
p1401
atp1402
Rp1403
(dp1404
g17
VIN
p1405
sbag5
(g6
g7
(lp1406
g5
(g6
g7
(lp1407
Vexamples
p1408
atp1409
Rp1410
(dp1411
g17
VNNS
p1412
sbatp1413
Rp1414
(dp1415
g17
VNP
p1416
sbatp1417
Rp1418
(dp1419
g17
VPP
p1420
sbag5
(g6
g7
(lp1421
g213
atp1422
Rp1423
(dp1424
g17
g213
sbag5
(g6
g7
(lp1425
g5
(g6
g7
(lp1426
Vbecause
p1427
atp1428
Rp1429
(dp1430
g17
VIN
p1431
sbag5
(g6
g7
(lp1432
g5
(g6
g7
(lp1433
g5
(g6
g7
(lp1434
Vwe
p1435
atp1436
Rp1437
(dp1438
g17
VPRP
p1439
sbatp1440
Rp1441
(dp1442
g17
VNP
p1443
sbag5
(g6
g7
(lp1444
g5
(g6
g7
(lp1445
Vdo
p1446
atp1447
Rp1448
(dp1449
g17
VVBP
p1450
sbag5
(g6
g7
(lp1451
Vn't
p1452
atp1453
Rp1454
(dp1455
g17
VRB
p1456
sbag5
(g6
g7
(lp1457
g5
(g6
g7
(lp1458
Vhave
p1459
atp1460
Rp1461
(dp1462
g17
VVB
p1463
sbag5
(g6
g7
(lp1464
g5
(g6
g7
(lp1465
Vprecise
p1466
atp1467
Rp1468
(dp1469
g17
VJJ
p1470
sbag5
(g6
g7
(lp1471
Vdefinitions
p1472
atp1473
Rp1474
(dp1475
g17
VNNS
p1476
sbatp1477
Rp1478
(dp1479
g17
VNP
p1480
sbatp1481
Rp1482
(dp1483
g17
VVP
p1484
sbatp1485
Rp1486
(dp1487
g17
VVP
p1488
sbatp1489
Rp1490
(dp1491
g17
g181
sbatp1492
Rp1493
(dp1494
g17
VSBAR
p1495
sbatp1496
Rp1497
(dp1498
g17
VVP
p1499
sbag5
(g6
g7
(lp1500
g337
atp1501
Rp1502
(dp1503
g17
g337
sbatp1504
Rp1505
(dp1506
g17
g181
sbatp1507
Rp1508
(dp1509
g17
VROOT
p1510
sbasg348
(icmyPackage
CorE
p1511
(dp1512
g351
(lp1513
(I0
I7
tp1514
a(I0
I13
tp1515
asg355
g5
(g6
g7
(lp1516
g1490
ag1502
atp1517
Rp1518
(dp1519
g17
g366
sbsbsg356
(icmyPackage
CorE
p1520
(dp1521
g351
(lp1522
(I0
I0
tp1523
a(I0
I4
tp1524
asg355
g5
(g6
g7
(lp1525
g1378
ag1385
ag1396
ag1418
atp1526
Rp1527
(dp1528
g17
g366
sbsbsg367
(icmyPackage
pattern
p1529
(dp1530
g370
I407
sg371
I1
sg372
(lp1531
(lp1532
S'because'
p1533
aasg378
(lp1534
I3
aI1
aI1
asg380
(lp1535
S'It ends up in burnout and less production, because we inevitably run out of energy.'
p1536
asg383
I76
sg384
(lp1537
(lp1538
S'&R'
p1539
aS'(,)'
p1540
aS'(&ADV)'
p1541
aa(lp1542
S'&C'
p1543
aasbsg390
(lp1544
(icmyPackage
Sent
p1545
(dp1546
g394
I1
sg395
I6
sg396
S"We give lots of examples, because we don't have precise definitions."
p1547
sg398
I0
sg399
I20
sg355
(lp1548
g1508
asbasba(icmyPackage
CELink
p1549
(dp1550
g3
(lp1551
g5
(g6
g7
(lp1552
g5
(g6
g7
(lp1553
g5
(g6
g7
(lp1554
g5
(g6
g7
(lp1555
g5
(g6
g7
(lp1556
VSome
p1557
atp1558
Rp1559
(dp1560
g17
VDT
p1561
sbag5
(g6
g7
(lp1562
Vapproximate
p1563
atp1564
Rp1565
(dp1566
g17
VJJ
p1567
sbag5
(g6
g7
(lp1568
Vconcepts
p1569
atp1570
Rp1571
(dp1572
g17
VNNS
p1573
sbatp1574
Rp1575
(dp1576
g17
VNP
p1577
sbag5
(g6
g7
(lp1578
g5
(g6
g7
(lp1579
Vcan
p1580
atp1581
Rp1582
(dp1583
g17
VMD
p1584
sbag5
(g6
g7
(lp1585
g5
(g6
g7
(lp1586
Vbe
p1587
atp1588
Rp1589
(dp1590
g17
VVB
p1591
sbag5
(g6
g7
(lp1592
g5
(g6
g7
(lp1593
Vrefined
p1594
atp1595
Rp1596
(dp1597
g17
VVBN
p1598
sbag5
(g6
g7
(lp1599
g5
(g6
g7
(lp1600
Vby
p1601
atp1602
Rp1603
(dp1604
g17
VIN
p1605
sbag5
(g6
g7
(lp1606
g5
(g6
g7
(lp1607
g5
(g6
g7
(lp1608
Vlearning
p1609
atp1610
Rp1611
(dp1612
g17
VVBG
p1613
sbag5
(g6
g7
(lp1614
g5
(g6
g7
(lp1615
g5
(g6
g7
(lp1616
Vmore
p1617
atp1618
Rp1619
(dp1620
g17
VJJR
p1621
sbatp1622
Rp1623
(dp1624
g17
VNP
p1625
sbag5
(g6
g7
(lp1626
Vand
p1627
atp1628
Rp1629
(dp1630
g17
VCC
p1631
sbag5
(g6
g7
(lp1632
g5
(g6
g7
(lp1633
Vsome
p1634
atp1635
Rp1636
(dp1637
g17
VDT
p1638
sbatp1639
Rp1640
(dp1641
g17
VNP
p1642
sbatp1643
Rp1644
(dp1645
g17
VNP
p1646
sbag5
(g6
g7
(lp1647
g5
(g6
g7
(lp1648
Vby
p1649
atp1650
Rp1651
(dp1652
g17
VIN
p1653
sbag5
(g6
g7
(lp1654
g5
(g6
g7
(lp1655
g5
(g6
g7
(lp1656
Vdefining
p1657
atp1658
Rp1659
(dp1660
g17
VVBG
p1661
sbag5
(g6
g7
(lp1662
g5
(g6
g7
(lp1663
g5
(g6
g7
(lp1664
Vmore
p1665
atp1666
Rp1667
(dp1668
g17
VJJR
p1669
sbatp1670
Rp1671
(dp1672
g17
VNP
p1673
sbag5
(g6
g7
(lp1674
Vand
p1675
atp1676
Rp1677
(dp1678
g17
VCC
p1679
sbag5
(g6
g7
(lp1680
g5
(g6
g7
(lp1681
Vsome
p1682
atp1683
Rp1684
(dp1685
g17
VDT
p1686
sbatp1687
Rp1688
(dp1689
g17
VNP
p1690
sbatp1691
Rp1692
(dp1693
g17
VNP
p1694
sbag5
(g6
g7
(lp1695
g5
(g6
g7
(lp1696
Vby
p1697
atp1698
Rp1699
(dp1700
g17
VIN
p1701
sbag5
(g6
g7
(lp1702
g5
(g6
g7
(lp1703
Vboth
p1704
atp1705
Rp1706
(dp1707
g17
VDT
p1708
sbatp1709
Rp1710
(dp1711
g17
VNP
p1712
sbatp1713
Rp1714
(dp1715
g17
VPP
p1716
sbatp1717
Rp1718
(dp1719
g17
VVP
p1720
sbatp1721
Rp1722
(dp1723
g17
g181
sbatp1724
Rp1725
(dp1726
g17
VPP
p1727
sbatp1728
Rp1729
(dp1730
g17
VVP
p1731
sbatp1732
Rp1733
(dp1734
g17
g181
sbatp1735
Rp1736
(dp1737
g17
VPP
p1738
sbatp1739
Rp1740
(dp1741
g17
VVP
p1742
sbatp1743
Rp1744
(dp1745
g17
VVP
p1746
sbatp1747
Rp1748
(dp1749
g17
VVP
p1750
sbatp1751
Rp1752
(dp1753
g17
g181
sbag5
(g6
g7
(lp1754
g213
atp1755
Rp1756
(dp1757
g17
g213
sbag5
(g6
g7
(lp1758
Vbut
p1759
atp1760
Rp1761
(dp1762
g17
VCC
p1763
sbag5
(g6
g7
(lp1764
g5
(g6
g7
(lp1765
g5
(g6
g7
(lp1766
Vit
p1767
atp1768
Rp1769
(dp1770
g17
VPRP
p1771
sbatp1772
Rp1773
(dp1774
g17
VNP
p1775
sbag5
(g6
g7
(lp1776
g5
(g6
g7
(lp1777
Vis
p1778
atp1779
Rp1780
(dp1781
g17
VVBZ
p1782
sbag5
(g6
g7
(lp1783
Vn't
p1784
atp1785
Rp1786
(dp1787
g17
VRB
p1788
sbag5
(g6
g7
(lp1789
g5
(g6
g7
(lp1790
Vpossible
p1791
atp1792
Rp1793
(dp1794
g17
VJJ
p1795
sbag5
(g6
g7
(lp1796
g5
(g6
g7
(lp1797
Vin
p1798
atp1799
Rp1800
(dp1801
g17
VIN
p1802
sbag5
(g6
g7
(lp1803
g5
(g6
g7
(lp1804
g5
(g6
g7
(lp1805
Vgeneral
p1806
atp1807
Rp1808
(dp1809
g17
VJJ
p1810
sbag5
(g6
g7
(lp1811
g5
(g6
g7
(lp1812
g5
(g6
g7
(lp1813
Vto
p1814
atp1815
Rp1816
(dp1817
g17
VTO
p1818
sbag5
(g6
g7
(lp1819
g5
(g6
g7
(lp1820
Vmake
p1821
atp1822
Rp1823
(dp1824
g17
VVB
p1825
sbag5
(g6
g7
(lp1826
g5
(g6
g7
(lp1827
Vthem
p1828
atp1829
Rp1830
(dp1831
g17
VPRP
p1832
sbatp1833
Rp1834
(dp1835
g17
VNP
p1836
sbatp1837
Rp1838
(dp1839
g17
VVP
p1840
sbatp1841
Rp1842
(dp1843
g17
VVP
p1844
sbatp1845
Rp1846
(dp1847
g17
g181
sbatp1848
Rp1849
(dp1850
g17
VADJP
p1851
sbag5
(g6
g7
(lp1852
Vwell-defined
p1853
atp1854
Rp1855
(dp1856
g17
VNNS
p1857
sbatp1858
Rp1859
(dp1860
g17
VNP
p1861
sbatp1862
Rp1863
(dp1864
g17
VPP
p1865
sbatp1866
Rp1867
(dp1868
g17
VADJP
p1869
sbatp1870
Rp1871
(dp1872
g17
VVP
p1873
sbatp1874
Rp1875
(dp1876
g17
g181
sbag5
(g6
g7
(lp1877
g337
atp1878
Rp1879
(dp1880
g17
g337
sbatp1881
Rp1882
(dp1883
g17
g181
sbatp1884
Rp1885
(dp1886
g17
VROOT
p1887
sbasg348
(icmyPackage
CorE
p1888
(dp1889
g351
(lp1890
(I0
I7
tp1891
a(I0
I17
tp1892
asg355
g1733
sbsg356
(icmyPackage
CorE
p1893
(dp1894
g351
(lp1895
(I0
I18
tp1896
a(I0
I30
tp1897
asg355
g5
(g6
g7
(lp1898
g1756
ag1761
ag1875
ag1879
atp1899
Rp1900
(dp1901
g17
g366
sbsbsg367
g368
sg390
(lp1902
(icmyPackage
Sent
p1903
(dp1904
g394
I1
sg395
I10
sg396
S"Some approximate concepts can be refined by learning more and some by defining more and some by both, but it isn't possible in general to make them well-defined."
p1905
sg398
I0
sg399
I34
sg355
(lp1906
g1885
asbasba(icmyPackage
CELink
p1907
(dp1908
g3
(lp1909
g5
(g6
g7
(lp1910
g5
(g6
g7
(lp1911
g5
(g6
g7
(lp1912
g5
(g6
g7
(lp1913
VApproximate
p1914
atp1915
Rp1916
(dp1917
g17
VJJ
p1918
sbag5
(g6
g7
(lp1919
Vconcepts
p1920
atp1921
Rp1922
(dp1923
g17
VNNS
p1924
sbatp1925
Rp1926
(dp1927
g17
VNP
p1928
sbag5
(g6
g7
(lp1929
g5
(g6
g7
(lp1930
Vare
p1931
atp1932
Rp1933
(dp1934
g17
VVBP
p1935
sbag5
(g6
g7
(lp1936
g5
(g6
g7
(lp1937
Vessential
p1938
atp1939
Rp1940
(dp1941
g17
VJJ
p1942
sbag5
(g6
g7
(lp1943
g5
(g6
g7
(lp1944
Vfor
p1945
atp1946
Rp1947
(dp1948
g17
VIN
p1949
sbag5
(g6
g7
(lp1950
g5
(g6
g7
(lp1951
g5
(g6
g7
(lp1952
g5
(g6
g7
(lp1953
Vrepresenting
p1954
atp1955
Rp1956
(dp1957
g17
VVBG
p1958
sbag5
(g6
g7
(lp1959
g5
(g6
g7
(lp1960
Vcommon
p1961
atp1962
Rp1963
(dp1964
g17
VJJ
p1965
sbag5
(g6
g7
(lp1966
Vsense
p1967
atp1968
Rp1969
(dp1970
g17
VNN
p1971
sbag5
(g6
g7
(lp1972
Vknowledge
p1973
atp1974
Rp1975
(dp1976
g17
VNN
p1977
sbatp1978
Rp1979
(dp1980
g17
VNP
p1981
sbatp1982
Rp1983
(dp1984
g17
VVP
p1985
sbag5
(g6
g7
(lp1986
Vand
p1987
atp1988
Rp1989
(dp1990
g17
VCC
p1991
sbag5
(g6
g7
(lp1992
g5
(g6
g7
(lp1993
Vdoing
p1994
atp1995
Rp1996
(dp1997
g17
VVBG
p1998
sbag5
(g6
g7
(lp1999
g5
(g6
g7
(lp2000
Vcommon
p2001
atp2002
Rp2003
(dp2004
g17
VJJ
p2005
sbag5
(g6
g7
(lp2006
Vsense
p2007
atp2008
Rp2009
(dp2010
g17
VNN
p2011
sbag5
(g6
g7
(lp2012
Vreasoning
p2013
atp2014
Rp2015
(dp2016
g17
VNN
p2017
sbatp2018
Rp2019
(dp2020
g17
VNP
p2021
sbatp2022
Rp2023
(dp2024
g17
VVP
p2025
sbatp2026
Rp2027
(dp2028
g17
VVP
p2029
sbatp2030
Rp2031
(dp2032
g17
g181
sbatp2033
Rp2034
(dp2035
g17
VPP
p2036
sbatp2037
Rp2038
(dp2039
g17
VADJP
p2040
sbatp2041
Rp2042
(dp2043
g17
VVP
p2044
sbag5
(g6
g7
(lp2045
g337
atp2046
Rp2047
(dp2048
g17
g337
sbatp2049
Rp2050
(dp2051
g17
g181
sbatp2052
Rp2053
(dp2054
g17
VROOT
p2055
sbasg348
(icmyPackage
CorE
p2056
(dp2057
g351
(lp2058
(I0
I5
tp2059
a(I0
I13
tp2060
asg355
g2031
sbsg356
(icmyPackage
CorE
p2061
(dp2062
g351
(lp2063
(I0
I0
tp2064
a(I0
I3
tp2065
asg355
g5
(g6
g7
(lp2066
g1926
ag1933
ag1940
atp2067
Rp2068
(dp2069
g17
g366
sbsbsg367
g564
sg390
(lp2070
(icmyPackage
Sent
p2071
(dp2072
g394
I1
sg395
I10
sg396
S'Approximate concepts are essential for representing common sense knowledge and doing common sense reasoning.'
p2073
sg398
I0
sg399
I35
sg355
(lp2074
g2053
asbasba(icmyPackage
CELink
p2075
(dp2076
g3
(lp2077
g5
(g6
g7
(lp2078
g5
(g6
g7
(lp2079
g5
(g6
g7
(lp2080
g5
(g6
g7
(lp2081
g5
(g6
g7
(lp2082
g590
atp2083
Rp2084
(dp2085
g17
VDT
p2086
sbag5
(g6
g7
(lp2087
Vsentence
p2088
atp2089
Rp2090
(dp2091
g17
VNN
p2092
sbatp2093
Rp2094
(dp2095
g17
VNP
p2096
sbag5
(g6
g7
(lp2097
g5
(g6
g7
(lp2098
Vinvolving
p2099
atp2100
Rp2101
(dp2102
g17
VVBG
p2103
sbag5
(g6
g7
(lp2104
g5
(g6
g7
(lp2105
Van
p2106
atp2107
Rp2108
(dp2109
g17
VDT
p2110
sbag5
(g6
g7
(lp2111
Vapproximate
p2112
atp2113
Rp2114
(dp2115
g17
VJJ
p2116
sbag5
(g6
g7
(lp2117
Vconcept
p2118
atp2119
Rp2120
(dp2121
g17
VNN
p2122
sbatp2123
Rp2124
(dp2125
g17
VNP
p2126
sbatp2127
Rp2128
(dp2129
g17
VVP
p2130
sbatp2131
Rp2132
(dp2133
g17
VNP
p2134
sbag5
(g6
g7
(lp2135
g5
(g6
g7
(lp2136
Vmay
p2137
atp2138
Rp2139
(dp2140
g17
VMD
p2141
sbag5
(g6
g7
(lp2142
g5
(g6
g7
(lp2143
Vhave
p2144
atp2145
Rp2146
(dp2147
g17
VVB
p2148
sbag5
(g6
g7
(lp2149
g5
(g6
g7
(lp2150
g659
atp2151
Rp2152
(dp2153
g17
VDT
p2154
sbag5
(g6
g7
(lp2155
Vdefinite
p2156
atp2157
Rp2158
(dp2159
g17
VJJ
p2160
sbag5
(g6
g7
(lp2161
Vtruth
p2162
atp2163
Rp2164
(dp2165
g17
VNN
p2166
sbag5
(g6
g7
(lp2167
Vvalue
p2168
atp2169
Rp2170
(dp2171
g17
VNN
p2172
sbatp2173
Rp2174
(dp2175
g17
VNP
p2176
sbag5
(g6
g7
(lp2177
g5
(g6
g7
(lp2178
Veven
p2179
atp2180
Rp2181
(dp2182
g17
VRB
p2183
sbag5
(g6
g7
(lp2184
Vif
p2185
atp2186
Rp2187
(dp2188
g17
VIN
p2189
sbag5
(g6
g7
(lp2190
g5
(g6
g7
(lp2191
g5
(g6
g7
(lp2192
Vthe
p2193
atp2194
Rp2195
(dp2196
g17
VDT
p2197
sbag5
(g6
g7
(lp2198
Vconcept
p2199
atp2200
Rp2201
(dp2202
g17
VNN
p2203
sbatp2204
Rp2205
(dp2206
g17
VNP
p2207
sbag5
(g6
g7
(lp2208
g5
(g6
g7
(lp2209
Vis
p2210
atp2211
Rp2212
(dp2213
g17
VVBZ
p2214
sbag5
(g6
g7
(lp2215
g5
(g6
g7
(lp2216
Villdefined
p2217
atp2218
Rp2219
(dp2220
g17
VVBN
p2221
sbatp2222
Rp2223
(dp2224
g17
VVP
p2225
sbatp2226
Rp2227
(dp2228
g17
VVP
p2229
sbatp2230
Rp2231
(dp2232
g17
g181
sbatp2233
Rp2234
(dp2235
g17
VSBAR
p2236
sbatp2237
Rp2238
(dp2239
g17
VVP
p2240
sbatp2241
Rp2242
(dp2243
g17
VVP
p2244
sbag5
(g6
g7
(lp2245
g337
atp2246
Rp2247
(dp2248
g17
g337
sbatp2249
Rp2250
(dp2251
g17
g181
sbatp2252
Rp2253
(dp2254
g17
VROOT
p2255
sbasg348
(icmyPackage
CorE
p2256
(dp2257
g351
(lp2258
(I0
I14
tp2259
a(I0
I18
tp2260
asg355
g5
(g6
g7
(lp2261
g2231
ag2247
atp2262
Rp2263
(dp2264
g17
g366
sbsbsg356
(icmyPackage
CorE
p2265
(dp2266
g351
(lp2267
(I0
I0
tp2268
a(I0
I12
tp2269
asg355
g5
(g6
g7
(lp2270
g2132
ag2139
ag2146
ag2174
ag2181
atp2271
Rp2272
(dp2273
g17
g366
sbsbsg367
g783
sg390
(lp2274
(icmyPackage
Sent
p2275
(dp2276
g394
I1
sg395
I11
sg396
S'A sentence involving an approximate concept may have a definite truth value even if the concept is illdefined.'
p2277
sg398
I0
sg399
I37
sg355
(lp2278
g2253
asbasba(icmyPackage
CELink
p2279
(dp2280
g3
(lp2281
g5
(g6
g7
(lp2282
g5
(g6
g7
(lp2283
g5
(g6
g7
(lp2284
g5
(g6
g7
(lp2285
VQuantitative
p2286
atp2287
Rp2288
(dp2289
g17
VJJ
p2290
sbag5
(g6
g7
(lp2291
Vapproximation
p2292
atp2293
Rp2294
(dp2295
g17
VNN
p2296
sbatp2297
Rp2298
(dp2299
g17
VNP
p2300
sbag5
(g6
g7
(lp2301
g5
(g6
g7
(lp2302
Vis
p2303
atp2304
Rp2305
(dp2306
g17
VVBZ
p2307
sbag5
(g6
g7
(lp2308
g5
(g6
g7
(lp2309
g5
(g6
g7
(lp2310
g5
(g6
g7
(lp2311
Vone
p2312
atp2313
Rp2314
(dp2315
g17
VCD
p2316
sbag5
(g6
g7
(lp2317
Vkind
p2318
atp2319
Rp2320
(dp2321
g17
VNN
p2322
sbatp2323
Rp2324
(dp2325
g17
VNP
p2326
sbag5
(g6
g7
(lp2327
g5
(g6
g7
(lp2328
Vconsidered
p2329
atp2330
Rp2331
(dp2332
g17
VVBN
p2333
sbatp2334
Rp2335
(dp2336
g17
VVP
p2337
sbatp2338
Rp2339
(dp2340
g17
VNP
p2341
sbag5
(g6
g7
(lp2342
V--
p2343
atp2344
Rp2345
(dp2346
g17
V:
p2347
sbag5
(g6
g7
(lp2348
g5
(g6
g7
(lp2349
Vbut
p2350
atp2351
Rp2352
(dp2353
g17
VCC
p2354
sbag5
(g6
g7
(lp2355
Vnot
p2356
atp2357
Rp2358
(dp2359
g17
VRB
p2360
sbatp2361
Rp2362
(dp2363
g17
VCONJP
p2364
sbag5
(g6
g7
(lp2365
g5
(g6
g7
(lp2366
g5
(g6
g7
(lp2367
Vthe
p2368
atp2369
Rp2370
(dp2371
g17
VDT
p2372
sbag5
(g6
g7
(lp2373
g5
(g6
g7
(lp2374
Vmost
p2375
atp2376
Rp2377
(dp2378
g17
VRBS
p2379
sbag5
(g6
g7
(lp2380
Vinteresting
p2381
atp2382
Rp2383
(dp2384
g17
VJJ
p2385
sbatp2386
Rp2387
(dp2388
g17
VADJP
p2389
sbatp2390
Rp2391
(dp2392
g17
VNP
p2393
sbag5
(g6
g7
(lp2394
Vor
p2395
atp2396
Rp2397
(dp2398
g17
VCC
p2399
sbag5
(g6
g7
(lp2400
g5
(g6
g7
(lp2401
g5
(g6
g7
(lp2402
Vthe
p2403
atp2404
Rp2405
(dp2406
g17
VDT
p2407
sbag5
(g6
g7
(lp2408
Vkind
p2409
atp2410
Rp2411
(dp2412
g17
VNN
p2413
sbatp2414
Rp2415
(dp2416
g17
VNP
p2417
sbag5
(g6
g7
(lp2418
g5
(g6
g7
(lp2419
g5
(g6
g7
(lp2420
Vthat
p2421
atp2422
Rp2423
(dp2424
g17
VWDT
p2425
sbatp2426
Rp2427
(dp2428
g17
VWHNP
p2429
sbag5
(g6
g7
(lp2430
g5
(g6
g7
(lp2431
g5
(g6
g7
(lp2432
Vrequires
p2433
atp2434
Rp2435
(dp2436
g17
VVBZ
p2437
sbag5
(g6
g7
(lp2438
g5
(g6
g7
(lp2439
Vlogical
p2440
atp2441
Rp2442
(dp2443
g17
VJJ
p2444
sbag5
(g6
g7
(lp2445
Vinnovation
p2446
atp2447
Rp2448
(dp2449
g17
VNN
p2450
sbatp2451
Rp2452
(dp2453
g17
VNP
p2454
sbatp2455
Rp2456
(dp2457
g17
VVP
p2458
sbatp2459
Rp2460
(dp2461
g17
g181
sbatp2462
Rp2463
(dp2464
g17
VSBAR
p2465
sbatp2466
Rp2467
(dp2468
g17
VNP
p2469
sbatp2470
Rp2471
(dp2472
g17
VNP
p2473
sbatp2474
Rp2475
(dp2476
g17
VNP
p2477
sbatp2478
Rp2479
(dp2480
g17
VVP
p2481
sbag5
(g6
g7
(lp2482
g337
atp2483
Rp2484
(dp2485
g17
g337
sbatp2486
Rp2487
(dp2488
g17
g181
sbatp2489
Rp2490
(dp2491
g17
VROOT
p2492
sbasg348
(icmyPackage
CorE
p2493
(dp2494
g351
(lp2495
(I0
I17
tp2496
a(I0
I18
tp2497
asg355
g2452
sbsg356
(icmyPackage
CorE
p2498
(dp2499
g351
(lp2500
(I0
I0
tp2501
a(I0
I14
tp2502
asg355
g5
(g6
g7
(lp2503
g2298
ag2305
ag2339
ag2345
ag2362
ag2391
ag2397
ag2415
atp2504
Rp2505
(dp2506
g17
g366
sbsbsg367
(icmyPackage
pattern
p2507
(dp2508
g370
I0
sg371
I1
sg372
(lp2509
(lp2510
(lp2511
S'concern'
p2512
aS'concerns'
p2513
aS'concerned'
p2514
aS'require'
p2515
aS'requires'
p2516
aS'required'
p2517
aS'request'
p2518
aS'requests'
p2519
aS'requested'
p2520
aaasg378
(lp2521
I4
aI1
aI1
asg380
(lp2522
S'For example, this enables e-learning systems to capture student behaviors during studying so that leaning materials and processes can be organized and adapted in real time to raise the effectiveness of study. This concerns the classification on students\xe2\x80\x99 behaviors (including micro expressions) and carrying out real-time analysis and adaptation.'
p2523
asg383
I90
sg384
(lp2524
(lp2525
S'&R'
p2526
aS'(,/./;/--)'
p2527
aS'&this'
p2528
aS'(&adj)'
p2529
aS'(&N)'
p2530
aS'(&CAN/have/has/had)'
p2531
aS'(&ADV)'
p2532
aa(lp2533
S'(about)'
p2534
aS'&V-ing/&NP@C@'
p2535
aasbsg390
(lp2536
(icmyPackage
Sent
p2537
(dp2538
g394
I1
sg395
I12
sg396
S'Quantitative approximation is one kind considered -- but not the most interesting or the kind that requires logical innovation.'
p2539
sg398
I0
sg399
I40
sg355
(lp2540
g2490
asbasba(icmyPackage
CELink
p2541
(dp2542
g3
(lp2543
g5
(g6
g7
(lp2544
g5
(g6
g7
(lp2545
g5
(g6
g7
(lp2546
g5
(g6
g7
(lp2547
VOn
p2548
atp2549
Rp2550
(dp2551
g17
VIN
p2552
sbag5
(g6
g7
(lp2553
g5
(g6
g7
(lp2554
Vthe
p2555
atp2556
Rp2557
(dp2558
g17
VDT
p2559
sbag5
(g6
g7
(lp2560
Vother
p2561
atp2562
Rp2563
(dp2564
g17
VJJ
p2565
sbag5
(g6
g7
(lp2566
Vhand
p2567
atp2568
Rp2569
(dp2570
g17
VNN
p2571
sbatp2572
Rp2573
(dp2574
g17
VNP
p2575
sbatp2576
Rp2577
(dp2578
g17
VPP
p2579
sbag5
(g6
g7
(lp2580
g213
atp2581
Rp2582
(dp2583
g17
g213
sbag5
(g6
g7
(lp2584
g5
(g6
g7
(lp2585
g5
(g6
g7
(lp2586
VMcCarthy
p2587
atp2588
Rp2589
(dp2590
g17
VNNP
p2591
sbag5
(g6
g7
(lp2592
V's
p2593
atp2594
Rp2595
(dp2596
g17
VPOS
p2597
sbatp2598
Rp2599
(dp2600
g17
VNP
p2601
sbag5
(g6
g7
(lp2602
Vpurposes
p2603
atp2604
Rp2605
(dp2606
g17
VNNS
p2607
sbatp2608
Rp2609
(dp2610
g17
VNP
p2611
sbag5
(g6
g7
(lp2612
g5
(g6
g7
(lp2613
Vare
p2614
atp2615
Rp2616
(dp2617
g17
VVBP
p2618
sbag5
(g6
g7
(lp2619
g5
(g6
g7
(lp2620
Vapproximate
p2621
atp2622
Rp2623
(dp2624
g17
VJJ
p2625
sbag5
(g6
g7
(lp2626
g5
(g6
g7
(lp2627
g5
(g6
g7
(lp2628
Venough
p2629
atp2630
Rp2631
(dp2632
g17
VRB
p2633
sbag5
(g6
g7
(lp2634
Vso
p2635
atp2636
Rp2637
(dp2638
g17
VRB
p2639
sbatp2640
Rp2641
(dp2642
g17
VADVP
p2643
sbag5
(g6
g7
(lp2644
Vthat
p2645
atp2646
Rp2647
(dp2648
g17
VIN
p2649
sbag5
(g6
g7
(lp2650
g5
(g6
g7
(lp2651
g5
(g6
g7
(lp2652
g5
(g6
g7
(lp2653
Valmost
p2654
atp2655
Rp2656
(dp2657
g17
VRB
p2658
sbag5
(g6
g7
(lp2659
Vany
p2660
atp2661
Rp2662
(dp2663
g17
VDT
p2664
sbag5
(g6
g7
(lp2665
Vdiscussion
p2666
atp2667
Rp2668
(dp2669
g17
VNN
p2670
sbatp2671
Rp2672
(dp2673
g17
VNP
p2674
sbag5
(g6
g7
(lp2675
g5
(g6
g7
(lp2676
Vof
p2677
atp2678
Rp2679
(dp2680
g17
VIN
p2681
sbag5
(g6
g7
(lp2682
g5
(g6
g7
(lp2683
Vthem
p2684
atp2685
Rp2686
(dp2687
g17
VPRP
p2688
sbatp2689
Rp2690
(dp2691
g17
VNP
p2692
sbatp2693
Rp2694
(dp2695
g17
VPP
p2696
sbatp2697
Rp2698
(dp2699
g17
VNP
p2700
sbag5
(g6
g7
(lp2701
g5
(g6
g7
(lp2702
Vis
p2703
atp2704
Rp2705
(dp2706
g17
VVBZ
p2707
sbag5
(g6
g7
(lp2708
g5
(g6
g7
(lp2709
Vlikely
p2710
atp2711
Rp2712
(dp2713
g17
VJJ
p2714
sbag5
(g6
g7
(lp2715
g5
(g6
g7
(lp2716
g5
(g6
g7
(lp2717
Vto
p2718
atp2719
Rp2720
(dp2721
g17
VTO
p2722
sbag5
(g6
g7
(lp2723
g5
(g6
g7
(lp2724
Vbump
p2725
atp2726
Rp2727
(dp2728
g17
VVB
p2729
sbag5
(g6
g7
(lp2730
g5
(g6
g7
(lp2731
Vagainst
p2732
atp2733
Rp2734
(dp2735
g17
VIN
p2736
sbag5
(g6
g7
(lp2737
g5
(g6
g7
(lp2738
Vtheir
p2739
atp2740
Rp2741
(dp2742
g17
VPRP$
p2743
sbag5
(g6
g7
(lp2744
Vimprecision
p2745
atp2746
Rp2747
(dp2748
g17
VNN
p2749
sbag5
(g6
g7
(lp2750
Vand
p2751
atp2752
Rp2753
(dp2754
g17
VCC
p2755
sbag5
(g6
g7
(lp2756
Vambiguity
p2757
atp2758
Rp2759
(dp2760
g17
VNN
p2761
sbatp2762
Rp2763
(dp2764
g17
VNP
p2765
sbatp2766
Rp2767
(dp2768
g17
VPP
p2769
sbatp2770
Rp2771
(dp2772
g17
VVP
p2773
sbatp2774
Rp2775
(dp2776
g17
VVP
p2777
sbatp2778
Rp2779
(dp2780
g17
g181
sbatp2781
Rp2782
(dp2783
g17
VADJP
p2784
sbatp2785
Rp2786
(dp2787
g17
VVP
p2788
sbatp2789
Rp2790
(dp2791
g17
g181
sbatp2792
Rp2793
(dp2794
g17
VSBAR
p2795
sbatp2796
Rp2797
(dp2798
g17
VVP
p2799
sbatp2800
Rp2801
(dp2802
g17
VVP
p2803
sbag5
(g6
g7
(lp2804
g337
atp2805
Rp2806
(dp2807
g17
g337
sbatp2808
Rp2809
(dp2810
g17
g181
sbatp2811
Rp2812
(dp2813
g17
VROOT
p2814
sbasg348
(icmyPackage
CorE
p2815
(dp2816
g351
(lp2817
(I0
I0
tp2818
a(I0
I10
tp2819
asg355
g5
(g6
g7
(lp2820
g2577
ag2582
ag2609
ag2616
ag2623
ag2631
atp2821
Rp2822
(dp2823
g17
g366
sbsbsg356
(icmyPackage
CorE
p2824
(dp2825
g351
(lp2826
(I0
I13
tp2827
a(I0
I27
tp2828
asg355
g5
(g6
g7
(lp2829
g2790
ag2806
atp2830
Rp2831
(dp2832
g17
g366
sbsbsg367
(icmyPackage
pattern
p2833
(dp2834
g370
I45
sg371
I0
sg372
(lp2835
(lp2836
S'so'
p2837
aS'that'
p2838
aasg378
(lp2839
I3
aI1
aI1
asg380
(lp2840
S'The teacher then decided to ask him some very easy questions so that he could get a few right.'
p2841
asg383
I77
sg384
(lp2842
(lp2843
S'&C'
p2844
aa(lp2845
S'&R'
p2846
aasbsg390
(lp2847
(icmyPackage
Sent
p2848
(dp2849
g394
I1
sg395
I14
sg396
S"On the other hand, McCarthy's purposes are approximate enough so that almost any discussion of them is likely to bump against their imprecision and ambiguity."
p2850
sg398
I0
sg399
I47
sg355
(lp2851
g2812
asbasba(icmyPackage
CELink
p2852
(dp2853
g3
(lp2854
g5
(g6
g7
(lp2855
g5
(g6
g7
(lp2856
g5
(g6
g7
(lp2857
g5
(g6
g7
(lp2858
V2
p2859
atp2860
Rp2861
(dp2862
g17
VLS
p2863
sbag5
(g6
g7
(lp2864
V-RRB-
p2865
atp2866
Rp2867
(dp2868
g17
V-RRB-
p2869
sbatp2870
Rp2871
(dp2872
g17
VLST
p2873
sbag5
(g6
g7
(lp2874
g5
(g6
g7
(lp2875
g5
(g6
g7
(lp2876
VWhen
p2877
atp2878
Rp2879
(dp2880
g17
VWRB
p2881
sbatp2882
Rp2883
(dp2884
g17
VWHADVP
p2885
sbag5
(g6
g7
(lp2886
g5
(g6
g7
(lp2887
g5
(g6
g7
(lp2888
Vcan
p2889
atp2890
Rp2891
(dp2892
g17
VMD
p2893
sbag5
(g6
g7
(lp2894
g5
(g6
g7
(lp2895
Vit
p2896
atp2897
Rp2898
(dp2899
g17
VPRP
p2900
sbatp2901
Rp2902
(dp2903
g17
VNP
p2904
sbag5
(g6
g7
(lp2905
g5
(g6
g7
(lp2906
g5
(g6
g7
(lp2907
Vbe
p2908
atp2909
Rp2910
(dp2911
g17
VVB
p2912
sbag5
(g6
g7
(lp2913
g5
(g6
g7
(lp2914
Vsaid
p2915
atp2916
Rp2917
(dp2918
g17
VVBN
p2919
sbag5
(g6
g7
(lp2920
g5
(g6
g7
(lp2921
Vthat
p2922
atp2923
Rp2924
(dp2925
g17
VIN
p2926
sbag5
(g6
g7
(lp2927
g5
(g6
g7
(lp2928
g5
(g6
g7
(lp2929
Vone
p2930
atp2931
Rp2932
(dp2933
g17
VCD
p2934
sbag5
(g6
g7
(lp2935
Vblock
p2936
atp2937
Rp2938
(dp2939
g17
VNN
p2940
sbatp2941
Rp2942
(dp2943
g17
VNP
p2944
sbag5
(g6
g7
(lp2945
g5
(g6
g7
(lp2946
Vis
p2947
atp2948
Rp2949
(dp2950
g17
VVBZ
p2951
sbag5
(g6
g7
(lp2952
g5
(g6
g7
(lp2953
Von
p2954
atp2955
Rp2956
(dp2957
g17
VIN
p2958
sbag5
(g6
g7
(lp2959
g5
(g6
g7
(lp2960
Vanother
p2961
atp2962
Rp2963
(dp2964
g17
VDT
p2965
sbag5
(g6
g7
(lp2966
Vblock
p2967
atp2968
Rp2969
(dp2970
g17
VNN
p2971
sbatp2972
Rp2973
(dp2974
g17
VNP
p2975
sbatp2976
Rp2977
(dp2978
g17
VPP
p2979
sbatp2980
Rp2981
(dp2982
g17
VVP
p2983
sbatp2984
Rp2985
(dp2986
g17
g181
sbatp2987
Rp2988
(dp2989
g17
VSBAR
p2990
sbatp2991
Rp2992
(dp2993
g17
VVP
p2994
sbatp2995
Rp2996
(dp2997
g17
VVP
p2998
sbatp2999
Rp3000
(dp3001
g17
g181
sbatp3002
Rp3003
(dp3004
g17
VVP
p3005
sbatp3006
Rp3007
(dp3008
g17
g181
sbatp3009
Rp3010
(dp3011
g17
VSBAR
p3012
sbag5
(g6
g7
(lp3013
g213
atp3014
Rp3015
(dp3016
g17
g213
sbag5
(g6
g7
(lp3017
g5
(g6
g7
(lp3018
Vso
p3019
atp3020
Rp3021
(dp3022
g17
VRB
p3023
sbag5
(g6
g7
(lp3024
Vthat
p3025
atp3026
Rp3027
(dp3028
g17
VWDT
p3029
sbatp3030
Rp3031
(dp3032
g17
VNP
p3033
sbag5
(g6
g7
(lp3034
g5
(g6
g7
(lp3035
VOn
p3036
atp3037
Rp3038
(dp3039
g17
VIN
p3040
sbag5
(g6
g7
(lp3041
g5
(g6
g7
(lp3042
V-LRB-
p3043
atp3044
Rp3045
(dp3046
g17
V-LRB-
p3047
sbag5
(g6
g7
(lp3048
g5
(g6
g7
(lp3049
g5
(g6
g7
(lp3050
VBlock1
p3051
atp3052
Rp3053
(dp3054
g17
VNNS
p3055
sbatp3056
Rp3057
(dp3058
g17
VNP
p3059
sbag5
(g6
g7
(lp3060
g213
atp3061
Rp3062
(dp3063
g17
g213
sbag5
(g6
g7
(lp3064
g5
(g6
g7
(lp3065
VBlock2
p3066
atp3067
Rp3068
(dp3069
g17
VNNS
p3070
sbatp3071
Rp3072
(dp3073
g17
VNP
p3074
sbatp3075
Rp3076
(dp3077
g17
VNP
p3078
sbag5
(g6
g7
(lp3079
V-RRB-
p3080
atp3081
Rp3082
(dp3083
g17
V-RRB-
p3084
sbatp3085
Rp3086
(dp3087
g17
VPRN
p3088
sbatp3089
Rp3090
(dp3091
g17
VPP
p3092
sbag5
(g6
g7
(lp3093
g5
(g6
g7
(lp3094
Vmay
p3095
atp3096
Rp3097
(dp3098
g17
VMD
p3099
sbag5
(g6
g7
(lp3100
g5
(g6
g7
(lp3101
Vbe
p3102
atp3103
Rp3104
(dp3105
g17
VVB
p3106
sbag5
(g6
g7
(lp3107
g5
(g6
g7
(lp3108
Vasserted
p3109
atp3110
Rp3111
(dp3112
g17
VVBN
p3113
sbatp3114
Rp3115
(dp3116
g17
VVP
p3117
sbatp3118
Rp3119
(dp3120
g17
VVP
p3121
sbatp3122
Rp3123
(dp3124
g17
VVP
p3125
sbag5
(g6
g7
(lp3126
V?
p3127
atp3128
Rp3129
(dp3130
g17
g337
sbatp3131
Rp3132
(dp3133
g17
g181
sbatp3134
Rp3135
(dp3136
g17
VROOT
p3137
sbasg348
(icmyPackage
CorE
p3138
(dp3139
g351
(lp3140
(I0
I2
tp3141
a(I0
I14
tp3142
asg355
g5
(g6
g7
(lp3143
g3010
ag3015
atp3144
Rp3145
(dp3146
g17
g366
sbsbsg356
(icmyPackage
CorE
p3147
(dp3148
g351
(lp3149
(I0
I17
tp3150
a(I0
I26
tp3151
asg355
g5
(g6
g7
(lp3152
g3090
ag3123
ag3129
atp3153
Rp3154
(dp3155
g17
g366
sbsbsg367
g2833
sg390
(lp3156
(icmyPackage
Sent
p3157
(dp3158
g394
I1
sg395
I17
sg396
S'2)  When can it be said that one block is on another block, so that On(Block1,Block2) may be asserted?'
p3159
sg398
I0
sg399
I51
sg355
(lp3160
g3135
asbasba(icmyPackage
CELink
p3161
(dp3162
g3
(lp3163
g5
(g6
g7
(lp3164
g5
(g6
g7
(lp3165
g5
(g6
g7
(lp3166
g5
(g6
g7
(lp3167
VIt
p3168
atp3169
Rp3170
(dp3171
g17
VPRP
p3172
sbatp3173
Rp3174
(dp3175
g17
VNP
p3176
sbag5
(g6
g7
(lp3177
g5
(g6
g7
(lp3178
Vis
p3179
atp3180
Rp3181
(dp3182
g17
VVBZ
p3183
sbag5
(g6
g7
(lp3184
g5
(g6
g7
(lp3185
Vimportant
p3186
atp3187
Rp3188
(dp3189
g17
VJJ
p3190
sbatp3191
Rp3192
(dp3193
g17
VADJP
p3194
sbag5
(g6
g7
(lp3195
g5
(g6
g7
(lp3196
g5
(g6
g7
(lp3197
Vthat
p3198
atp3199
Rp3200
(dp3201
g17
VIN
p3202
sbag5
(g6
g7
(lp3203
g5
(g6
g7
(lp3204
g5
(g6
g7
(lp3205
g5
(g6
g7
(lp3206
g5
(g6
g7
(lp3207
Vthe
p3208
atp3209
Rp3210
(dp3211
g17
VDT
p3212
sbag5
(g6
g7
(lp3213
Vmeanings
p3214
atp3215
Rp3216
(dp3217
g17
VNNS
p3218
sbatp3219
Rp3220
(dp3221
g17
VNP
p3222
sbag5
(g6
g7
(lp3223
g5
(g6
g7
(lp3224
Vof
p3225
atp3226
Rp3227
(dp3228
g17
VIN
p3229
sbag5
(g6
g7
(lp3230
VOn
p3231
atp3232
Rp3233
(dp3234
g17
VNNP
p3235
sbatp3236
Rp3237
(dp3238
g17
VPP
p3239
sbatp3240
Rp3241
(dp3242
g17
VNP
p3243
sbag5
(g6
g7
(lp3244
g5
(g6
g7
(lp3245
V-LRB-
p3246
atp3247
Rp3248
(dp3249
g17
V-LRB-
p3250
sbag5
(g6
g7
(lp3251
g5
(g6
g7
(lp3252
g5
(g6
g7
(lp3253
VBlock1
p3254
atp3255
Rp3256
(dp3257
g17
VNNS
p3258
sbatp3259
Rp3260
(dp3261
g17
VNP
p3262
sbag5
(g6
g7
(lp3263
g213
atp3264
Rp3265
(dp3266
g17
g213
sbag5
(g6
g7
(lp3267
g5
(g6
g7
(lp3268
VBlock2
p3269
atp3270
Rp3271
(dp3272
g17
VNNS
p3273
sbatp3274
Rp3275
(dp3276
g17
VNP
p3277
sbatp3278
Rp3279
(dp3280
g17
VNP
p3281
sbag5
(g6
g7
(lp3282
V-RRB-
p3283
atp3284
Rp3285
(dp3286
g17
V-RRB-
p3287
sbatp3288
Rp3289
(dp3290
g17
VPRN
p3291
sbatp3292
Rp3293
(dp3294
g17
VNP
p3295
sbag5
(g6
g7
(lp3296
g5
(g6
g7
(lp3297
Vused
p3298
atp3299
Rp3300
(dp3301
g17
VVBN
p3302
sbag5
(g6
g7
(lp3303
g5
(g6
g7
(lp3304
Vin
p3305
atp3306
Rp3307
(dp3308
g17
VIN
p3309
sbag5
(g6
g7
(lp3310
g5
(g6
g7
(lp3311
g5
(g6
g7
(lp3312
Vsolving
p3313
atp3314
Rp3315
(dp3316
g17
VVBG
p3317
sbag5
(g6
g7
(lp3318
g5
(g6
g7
(lp3319
Vthe
p3320
atp3321
Rp3322
(dp3323
g17
VDT
p3324
sbag5
(g6
g7
(lp3325
Vproblem
p3326
atp3327
Rp3328
(dp3329
g17
VNN
p3330
sbag5
(g6
g7
(lp3331
Vtheoretically
p3332
atp3333
Rp3334
(dp3335
g17
VNN
p3336
sbatp3337
Rp3338
(dp3339
g17
VNP
p3340
sbatp3341
Rp3342
(dp3343
g17
VVP
p3344
sbatp3345
Rp3346
(dp3347
g17
g181
sbatp3348
Rp3349
(dp3350
g17
VPP
p3351
sbatp3352
Rp3353
(dp3354
g17
VVP
p3355
sbatp3356
Rp3357
(dp3358
g17
g181
sbatp3359
Rp3360
(dp3361
g17
VSBAR
p3362
sbag5
(g6
g7
(lp3363
Vand
p3364
atp3365
Rp3366
(dp3367
g17
VCC
p3368
sbag5
(g6
g7
(lp3369
g5
(g6
g7
(lp3370
g5
(g6
g7
(lp3371
Vthat
p3372
atp3373
Rp3374
(dp3375
g17
VWDT
p3376
sbatp3377
Rp3378
(dp3379
g17
VWHNP
p3380
sbag5
(g6
g7
(lp3381
g5
(g6
g7
(lp3382
g5
(g6
g7
(lp3383
Vused
p3384
atp3385
Rp3386
(dp3387
g17
VVBN
p3388
sbag5
(g6
g7
(lp3389
g5
(g6
g7
(lp3390
Vby
p3391
atp3392
Rp3393
(dp3394
g17
VIN
p3395
sbag5
(g6
g7
(lp3396
g5
(g6
g7
(lp3397
g5
(g6
g7
(lp3398
Vthe
p3399
atp3400
Rp3401
(dp3402
g17
VDT
p3403
sbag5
(g6
g7
(lp3404
Vrobot
p3405
atp3406
Rp3407
(dp3408
g17
VNN
p3409
sbag5
(g6
g7
(lp3410
Vcorrespond
p3411
atp3412
Rp3413
(dp3414
g17
VNN
p3415
sbatp3416
Rp3417
(dp3418
g17
VNP
p3419
sbag5
(g6
g7
(lp3420
g5
(g6
g7
(lp3421
Vwell
p3422
atp3423
Rp3424
(dp3425
g17
VRB
p3426
sbag5
(g6
g7
(lp3427
Venough
p3428
atp3429
Rp3430
(dp3431
g17
VRB
p3432
sbag5
(g6
g7
(lp3433
Vso
p3434
atp3435
Rp3436
(dp3437
g17
VRB
p3438
sbag5
(g6
g7
(lp3439
g5
(g6
g7
(lp3440
Vthat
p3441
atp3442
Rp3443
(dp3444
g17
VIN
p3445
sbag5
(g6
g7
(lp3446
g5
(g6
g7
(lp3447
g5
(g6
g7
(lp3448
g5
(g6
g7
(lp3449
Vcarrying
p3450
atp3451
Rp3452
(dp3453
g17
VVBG
p3454
sbag5
(g6
g7
(lp3455
g5
(g6
g7
(lp3456
Vout
p3457
atp3458
Rp3459
(dp3460
g17
VRP
p3461
sbatp3462
Rp3463
(dp3464
g17
VPRT
p3465
sbag5
(g6
g7
(lp3466
g5
(g6
g7
(lp3467
g659
atp3468
Rp3469
(dp3470
g17
VDT
p3471
sbag5
(g6
g7
(lp3472
Vplan
p3473
atp3474
Rp3475
(dp3476
g17
VNN
p3477
sbag5
(g6
g7
(lp3478
Vphysically
p3479
atp3480
Rp3481
(dp3482
g17
VRB
p3483
sbatp3484
Rp3485
(dp3486
g17
VNP
p3487
sbatp3488
Rp3489
(dp3490
g17
VVP
p3491
sbatp3492
Rp3493
(dp3494
g17
g181
sbag5
(g6
g7
(lp3495
g5
(g6
g7
(lp3496
Vhas
p3497
atp3498
Rp3499
(dp3500
g17
VVBZ
p3501
sbag5
(g6
g7
(lp3502
g5
(g6
g7
(lp3503
Vthe
p3504
atp3505
Rp3506
(dp3507
g17
VDT
p3508
sbag5
(g6
g7
(lp3509
g5
(g6
g7
(lp3510
Vdesired
p3511
atp3512
Rp3513
(dp3514
g17
VJJ
p3515
sbatp3516
Rp3517
(dp3518
g17
VADJP
p3519
sbag5
(g6
g7
(lp3520
Veffect
p3521
atp3522
Rp3523
(dp3524
g17
VNN
p3525
sbatp3526
Rp3527
(dp3528
g17
VNP
p3529
sbatp3530
Rp3531
(dp3532
g17
VVP
p3533
sbatp3534
Rp3535
(dp3536
g17
g181
sbatp3537
Rp3538
(dp3539
g17
VSBAR
p3540
sbatp3541
Rp3542
(dp3543
g17
VADVP
p3544
sbatp3545
Rp3546
(dp3547
g17
VNP
p3548
sbatp3549
Rp3550
(dp3551
g17
VPP
p3552
sbatp3553
Rp3554
(dp3555
g17
VVP
p3556
sbatp3557
Rp3558
(dp3559
g17
g181
sbatp3560
Rp3561
(dp3562
g17
VSBAR
p3563
sbatp3564
Rp3565
(dp3566
g17
VSBAR
p3567
sbatp3568
Rp3569
(dp3570
g17
VVP
p3571
sbag5
(g6
g7
(lp3572
g337
atp3573
Rp3574
(dp3575
g17
g337
sbatp3576
Rp3577
(dp3578
g17
g181
sbatp3579
Rp3580
(dp3581
g17
VROOT
p3582
sbasg348
(icmyPackage
CorE
p3583
(dp3584
g351
(lp3585
(I0
I0
tp3586
a(I0
I27
tp3587
asg355
g5
(g6
g7
(lp3588
g3174
ag3181
ag3192
ag3360
ag3366
ag3378
ag3386
ag3393
ag3417
ag3424
ag3430
atp3589
Rp3590
(dp3591
g17
g366
sbsbsg356
(icmyPackage
CorE
p3592
(dp3593
g351
(lp3594
(I0
I30
tp3595
a(I0
I39
tp3596
asg355
g5
(g6
g7
(lp3597
g3535
ag3574
atp3598
Rp3599
(dp3600
g17
g366
sbsbsg367
g2833
sg390
(lp3601
(icmyPackage
Sent
p3602
(dp3603
g394
I1
sg395
I17
sg396
S'It is important that the meanings of On(Block1,Block2) used in solving the problem theoretically and that used by the robot correspond well enough so that carrying out a plan physically has the desired effect.'
p3604
sg398
I0
sg399
I54
sg355
(lp3605
g3580
asbasba(icmyPackage
CELink
p3606
(dp3607
g3
(lp3608
g5
(g6
g7
(lp3609
g5
(g6
g7
(lp3610
g5
(g6
g7
(lp3611
g5
(g6
g7
(lp3612
Vhave
p3613
atp3614
Rp3615
(dp3616
g17
VVB
p3617
sbag5
(g6
g7
(lp3618
g5
(g6
g7
(lp3619
g5
(g6
g7
(lp3620
Vif-and-only-if
p3621
atp3622
Rp3623
(dp3624
g17
VJJ
p3625
sbag5
(g6
g7
(lp3626
Vdefinitions
p3627
atp3628
Rp3629
(dp3630
g17
VNNS
p3631
sbatp3632
Rp3633
(dp3634
g17
VNP
p3635
sbag5
(g6
g7
(lp3636
g5
(g6
g7
(lp3637
Vin
p3638
atp3639
Rp3640
(dp3641
g17
VIN
p3642
sbag5
(g6
g7
(lp3643
g5
(g6
g7
(lp3644
Vparticular
p3645
atp3646
Rp3647
(dp3648
g17
VJJ
p3649
sbag5
(g6
g7
(lp3650
Vcontexts
p3651
atp3652
Rp3653
(dp3654
g17
VNNS
p3655
sbatp3656
Rp3657
(dp3658
g17
VNP
p3659
sbatp3660
Rp3661
(dp3662
g17
VPP
p3663
sbatp3664
Rp3665
(dp3666
g17
VNP
p3667
sbatp3668
Rp3669
(dp3670
g17
VVP
p3671
sbag5
(g6
g7
(lp3672
g337
atp3673
Rp3674
(dp3675
g17
g337
sbatp3676
Rp3677
(dp3678
g17
g181
sbatp3679
Rp3680
(dp3681
g17
VROOT
p3682
sbag5
(g6
g7
(lp3683
g5
(g6
g7
(lp3684
g5
(g6
g7
(lp3685
g5
(g6
g7
(lp3686
g5
(g6
g7
(lp3687
VThus
p3688
atp3689
Rp3690
(dp3691
g17
VRB
p3692
sbatp3693
Rp3694
(dp3695
g17
VADVP
p3696
sbag5
(g6
g7
(lp3697
Vin
p3698
atp3699
Rp3700
(dp3701
g17
VIN
p3702
sbag5
(g6
g7
(lp3703
g5
(g6
g7
(lp3704
g5
(g6
g7
(lp3705
Vthe
p3706
atp3707
Rp3708
(dp3709
g17
VDT
p3710
sbag5
(g6
g7
(lp3711
Vcontext
p3712
atp3713
Rp3714
(dp3715
g17
VNN
p3716
sbatp3717
Rp3718
(dp3719
g17
VNP
p3720
sbag5
(g6
g7
(lp3721
g5
(g6
g7
(lp3722
Vof
p3723
atp3724
Rp3725
(dp3726
g17
VIN
p3727
sbag5
(g6
g7
(lp3728
g5
(g6
g7
(lp3729
g659
atp3730
Rp3731
(dp3732
g17
VDT
p3733
sbag5
(g6
g7
(lp3734
Vparticular
p3735
atp3736
Rp3737
(dp3738
g17
VJJ
p3739
sbag5
(g6
g7
(lp3740
Vgrocery
p3741
atp3742
Rp3743
(dp3744
g17
VNN
p3745
sbatp3746
Rp3747
(dp3748
g17
VNP
p3749
sbatp3750
Rp3751
(dp3752
g17
VPP
p3753
sbatp3754
Rp3755
(dp3756
g17
VNP
p3757
sbatp3758
Rp3759
(dp3760
g17
VPP
p3761
sbag5
(g6
g7
(lp3762
g213
atp3763
Rp3764
(dp3765
g17
g213
sbag5
(g6
g7
(lp3766
g5
(g6
g7
(lp3767
Van
p3768
atp3769
Rp3770
(dp3771
g17
VDT
p3772
sbag5
(g6
g7
(lp3773
Vobject
p3774
atp3775
Rp3776
(dp3777
g17
VNN
p3778
sbatp3779
Rp3780
(dp3781
g17
VNP
p3782
sbag5
(g6
g7
(lp3783
g5
(g6
g7
(lp3784
Vis
p3785
atp3786
Rp3787
(dp3788
g17
VVBZ
p3789
sbag5
(g6
g7
(lp3790
g5
(g6
g7
(lp3791
g5
(g6
g7
(lp3792
g5
(g6
g7
(lp3793
g659
atp3794
Rp3795
(dp3796
g17
VDT
p3797
sbag5
(g6
g7
(lp3798
Vlemon
p3799
atp3800
Rp3801
(dp3802
g17
VNN
p3803
sbatp3804
Rp3805
(dp3806
g17
VNP
p3807
sbag5
(g6
g7
(lp3808
Vif
p3809
atp3810
Rp3811
(dp3812
g17
VIN
p3813
sbatp3814
Rp3815
(dp3816
g17
VADVP
p3817
sbag5
(g6
g7
(lp3818
Vand
p3819
atp3820
Rp3821
(dp3822
g17
VCC
p3823
sbag5
(g6
g7
(lp3824
g5
(g6
g7
(lp3825
Vonly
p3826
atp3827
Rp3828
(dp3829
g17
VRB
p3830
sbag5
(g6
g7
(lp3831
g5
(g6
g7
(lp3832
Vif
p3833
atp3834
Rp3835
(dp3836
g17
VIN
p3837
sbag5
(g6
g7
(lp3838
g5
(g6
g7
(lp3839
g5
(g6
g7
(lp3840
Vit
p3841
atp3842
Rp3843
(dp3844
g17
VPRP
p3845
sbatp3846
Rp3847
(dp3848
g17
VNP
p3849
sbag5
(g6
g7
(lp3850
g5
(g6
g7
(lp3851
Vis
p3852
atp3853
Rp3854
(dp3855
g17
VVBZ
p3856
sbag5
(g6
g7
(lp3857
g5
(g6
g7
(lp3858
g659
atp3859
Rp3860
(dp3861
g17
VDT
p3862
sbag5
(g6
g7
(lp3863
Vsmall
p3864
atp3865
Rp3866
(dp3867
g17
VJJ
p3868
sbag5
(g6
g7
(lp3869
Vyellow
p3870
atp3871
Rp3872
(dp3873
g17
VJJ
p3874
sbag5
(g6
g7
(lp3875
Vfruit
p3876
atp3877
Rp3878
(dp3879
g17
VNN
p3880
sbatp3881
Rp3882
(dp3883
g17
VNP
p3884
sbatp3885
Rp3886
(dp3887
g17
VVP
p3888
sbatp3889
Rp3890
(dp3891
g17
g181
sbatp3892
Rp3893
(dp3894
g17
VSBAR
p3895
sbatp3896
Rp3897
(dp3898
g17
VADVP
p3899
sbatp3900
Rp3901
(dp3902
g17
VADVP
p3903
sbatp3904
Rp3905
(dp3906
g17
VVP
p3907
sbag5
(g6
g7
(lp3908
g337
atp3909
Rp3910
(dp3911
g17
g337
sbatp3912
Rp3913
(dp3914
g17
g181
sbatp3915
Rp3916
(dp3917
g17
VROOT
p3918
sbasg348
(icmyPackage
CorE
p3919
(dp3920
g351
(lp3921
(I0
I0
tp3922
a(I0
I5
tp3923
asg355
g3669
sbsg356
(icmyPackage
CorE
p3924
(dp3925
g351
(lp3926
(I1
I1
tp3927
a(I1
I24
tp3928
asg355
g5
(g6
g7
(lp3929
g3700
ag3755
ag3764
ag3780
ag3905
ag3910
atp3930
Rp3931
(dp3932
g17
g366
sbsbsg367
(icmyPackage
pattern
p3933
(dp3934
g370
I35
sg371
I1
sg372
(lp3935
(lp3936
S'thus'
p3937
aasg378
(lp3938
I1
aI1
aI1
asg380
(lp3939
S'Japan will be on the dark side of the Earth, and thus will lack the warming influence of the Sun.'
p3940
asg383
I2
sg384
(lp3941
(lp3942
S'&C'
p3943
aS'(,/;/./--)'
p3944
aS'(&AND)'
p3945
aa(lp3946
S'&R'
p3947
aasbsg390
(lp3948
(icmyPackage
Sent
p3949
(dp3950
g394
I1
sg395
I25
sg396
S'have if-and-only-if definitions in particular contexts.'
p3951
sg398
I0
sg399
I75
sg355
(lp3952
g3680
asba(icmyPackage
Sent
p3953
(dp3954
g394
I1
sg395
I25
sg396
S'Thus in the context of a particular grocery, an object is a lemon if and only if it is a small yellow fruit.'
p3955
sg398
I0
sg399
I76
sg355
(lp3956
g3916
asbasba(icmyPackage
CELink
p3957
(dp3958
g3
(lp3959
g5
(g6
g7
(lp3960
g5
(g6
g7
(lp3961
g5
(g6
g7
(lp3962
g5
(g6
g7
(lp3963
g5
(g6
g7
(lp3964
g5
(g6
g7
(lp3965
g5
(g6
g7
(lp3966
V6
p3967
atp3968
Rp3969
(dp3970
g17
VCD
p3971
sbatp3972
Rp3973
(dp3974
g17
VNP
p3975
sbag5
(g6
g7
(lp3976
V-RRB-
p3977
atp3978
Rp3979
(dp3980
g17
V-RRB-
p3981
sbag5
(g6
g7
(lp3982
g5
(g6
g7
(lp3983
g5
(g6
g7
(lp3984
g5
(g6
g7
(lp3985
g5
(g6
g7
(lp3986
VThe
p3987
atp3988
Rp3989
(dp3990
g17
VDT
p3991
sbag5
(g6
g7
(lp3992
Vhuman
p3993
atp3994
Rp3995
(dp3996
g17
VJJ
p3997
sbag5
(g6
g7
(lp3998
Vreasoning
p3999
atp4000
Rp4001
(dp4002
g17
VNN
p4003
sbag5
(g6
g7
(lp4004
Vprocesses
p4005
atp4006
Rp4007
(dp4008
g17
VNNP
p4009
sbag5
(g6
g7
(lp4010
Vinvolving
p4011
atp4012
Rp4013
(dp4014
g17
VJJ
p4015
sbag5
(g6
g7
(lp4016
Vcommon
p4017
atp4018
Rp4019
(dp4020
g17
VJJ
p4021
sbag5
(g6
g7
(lp4022
Vsense
p4023
atp4024
Rp4025
(dp4026
g17
VNN
p4027
sbag5
(g6
g7
(lp4028
Vknowledge
p4029
atp4030
Rp4031
(dp4032
g17
VNN
p4033
sbag5
(g6
g7
(lp4034
Vcorrespond
p4035
atp4036
Rp4037
(dp4038
g17
VNN
p4039
sbatp4040
Rp4041
(dp4042
g17
VNP
p4043
sbag5
(g6
g7
(lp4044
g5
(g6
g7
(lp4045
Vonly
p4046
atp4047
Rp4048
(dp4049
g17
VRB
p4050
sbatp4051
Rp4052
(dp4053
g17
VADVP
p4054
sbatp4055
Rp4056
(dp4057
g17
VNP
p4058
sbag5
(g6
g7
(lp4059
Vpartly
p4060
atp4061
Rp4062
(dp4063
g17
VRB
p4064
sbatp4065
Rp4066
(dp4067
g17
VADVP
p4068
sbag5
(g6
g7
(lp4069
Vto
p4070
atp4071
Rp4072
(dp4073
g17
VTO
p4074
sbag5
(g6
g7
(lp4075
g5
(g6
g7
(lp4076
g5
(g6
g7
(lp4077
Vthe
p4078
atp4079
Rp4080
(dp4081
g17
VDT
p4082
sbatp4083
Rp4084
(dp4085
g17
VADVP
p4086
sbag5
(g6
g7
(lp4087
Vmathematical
p4088
atp4089
Rp4090
(dp4091
g17
VVB
p4092
sbatp4093
Rp4094
(dp4095
g17
VVP
p4096
sbatp4097
Rp4098
(dp4099
g17
VVP
p4100
sbatp4101
Rp4102
(dp4103
g17
g181
sbag5
(g6
g7
(lp4104
Vand
p4105
atp4106
Rp4107
(dp4108
g17
VCC
p4109
sbag5
(g6
g7
(lp4110
g5
(g6
g7
(lp4111
g5
(g6
g7
(lp4112
Vlogical
p4113
atp4114
Rp4115
(dp4116
g17
VJJ
p4117
sbag5
(g6
g7
(lp4118
Vreasoning
p4119
atp4120
Rp4121
(dp4122
g17
VNN
p4123
sbatp4124
Rp4125
(dp4126
g17
VNP
p4127
sbag5
(g6
g7
(lp4128
g5
(g6
g7
(lp4129
Vprocesses
p4130
atp4131
Rp4132
(dp4133
g17
VVBZ
p4134
sbag5
(g6
g7
(lp4135
g5
(g6
g7
(lp4136
Vthat
p4137
atp4138
Rp4139
(dp4140
g17
VDT
p4141
sbag5
(g6
g7
(lp4142
Vhumans
p4143
atp4144
Rp4145
(dp4146
g17
VNNS
p4147
sbatp4148
Rp4149
(dp4150
g17
VNP
p4151
sbatp4152
Rp4153
(dp4154
g17
VVP
p4155
sbatp4156
Rp4157
(dp4158
g17
g181
sbatp4159
Rp4160
(dp4161
g17
VSBAR
p4162
sbatp4163
Rp4164
(dp4165
g17
VNP
p4166
sbag5
(g6
g7
(lp4167
g5
(g6
g7
(lp4168
Vhave
p4169
atp4170
Rp4171
(dp4172
g17
VVBP
p4173
sbag5
(g6
g7
(lp4174
g5
(g6
g7
(lp4175
Vused
p4176
atp4177
Rp4178
(dp4179
g17
VVBN
p4180
sbag5
(g6
g7
(lp4181
g5
(g6
g7
(lp4182
Vso
p4183
atp4184
Rp4185
(dp4186
g17
VRB
p4187
sbag5
(g6
g7
(lp4188
Vsuccessfully
p4189
atp4190
Rp4191
(dp4192
g17
VRB
p4193
sbatp4194
Rp4195
(dp4196
g17
VADVP
p4197
sbag5
(g6
g7
(lp4198
g5
(g6
g7
(lp4199
Vwithin
p4200
atp4201
Rp4202
(dp4203
g17
VIN
p4204
sbag5
(g6
g7
(lp4205
g5
(g6
g7
(lp4206
Vscientific
p4207
atp4208
Rp4209
(dp4210
g17
VJJ
p4211
sbag5
(g6
g7
(lp4212
Vand
p4213
atp4214
Rp4215
(dp4216
g17
VCC
p4217
sbag5
(g6
g7
(lp4218
Vmathematical
p4219
atp4220
Rp4221
(dp4222
g17
VJJ
p4223
sbag5
(g6
g7
(lp4224
Vtheories
p4225
atp4226
Rp4227
(dp4228
g17
VNNS
p4229
sbatp4230
Rp4231
(dp4232
g17
VNP
p4233
sbatp4234
Rp4235
(dp4236
g17
VPP
p4237
sbatp4238
Rp4239
(dp4240
g17
VVP
p4241
sbatp4242
Rp4243
(dp4244
g17
VVP
p4245
sbag5
(g6
g7
(lp4246
g337
atp4247
Rp4248
(dp4249
g17
g337
sbatp4250
Rp4251
(dp4252
g17
g181
sbatp4253
Rp4254
(dp4255
g17
VROOT
p4256
sbag5
(g6
g7
(lp4257
g5
(g6
g7
(lp4258
g5
(g6
g7
(lp4259
g5
(g6
g7
(lp4260
g5
(g6
g7
(lp4261
V7
p4262
atp4263
Rp4264
(dp4265
g17
VCD
p4266
sbag5
(g6
g7
(lp4267
V-RRB-
p4268
atp4269
Rp4270
(dp4271
g17
VNNS
p4272
sbatp4273
Rp4274
(dp4275
g17
VNP
p4276
sbag5
(g6
g7
(lp4277
g5
(g6
g7
(lp4278
VNevertheless
p4279
atp4280
Rp4281
(dp4282
g17
VRB
p4283
sbatp4284
Rp4285
(dp4286
g17
VADVP
p4287
sbatp4288
Rp4289
(dp4290
g17
g181
sbag5
(g6
g7
(lp4291
g213
atp4292
Rp4293
(dp4294
g17
g213
sbag5
(g6
g7
(lp4295
g5
(g6
g7
(lp4296
Vmathematical
p4297
atp4298
Rp4299
(dp4300
g17
VJJ
p4301
sbag5
(g6
g7
(lp4302
Vlogic
p4303
atp4304
Rp4305
(dp4306
g17
VNN
p4307
sbatp4308
Rp4309
(dp4310
g17
VNP
p4311
sbag5
(g6
g7
(lp4312
g5
(g6
g7
(lp4313
Vis
p4314
atp4315
Rp4316
(dp4317
g17
VVBZ
p4318
sbag5
(g6
g7
(lp4319
g5
(g6
g7
(lp4320
g5
(g6
g7
(lp4321
Van
p4322
atp4323
Rp4324
(dp4325
g17
VDT
p4326
sbag5
(g6
g7
(lp4327
Vappropriate
p4328
atp4329
Rp4330
(dp4331
g17
VJJ
p4332
sbag5
(g6
g7
(lp4333
Vtool
p4334
atp4335
Rp4336
(dp4337
g17
VNN
p4338
sbatp4339
Rp4340
(dp4341
g17
VNP
p4342
sbag5
(g6
g7
(lp4343
g5
(g6
g7
(lp4344
Vfor
p4345
atp4346
Rp4347
(dp4348
g17
VIN
p4349
sbag5
(g6
g7
(lp4350
g5
(g6
g7
(lp4351
g5
(g6
g7
(lp4352
g5
(g6
g7
(lp4353
Vrepresenting
p4354
atp4355
Rp4356
(dp4357
g17
VVBG
p4358
sbag5
(g6
g7
(lp4359
g5
(g6
g7
(lp4360
Vthis
p4361
atp4362
Rp4363
(dp4364
g17
VDT
p4365
sbag5
(g6
g7
(lp4366
Vknowledge
p4367
atp4368
Rp4369
(dp4370
g17
VNN
p4371
sbatp4372
Rp4373
(dp4374
g17
VNP
p4375
sbatp4376
Rp4377
(dp4378
g17
VVP
p4379
sbag5
(g6
g7
(lp4380
Vand
p4381
atp4382
Rp4383
(dp4384
g17
VCC
p4385
sbag5
(g6
g7
(lp4386
g5
(g6
g7
(lp4387
Vcarrying
p4388
atp4389
Rp4390
(dp4391
g17
VVBG
p4392
sbag5
(g6
g7
(lp4393
g5
(g6
g7
(lp4394
Vout
p4395
atp4396
Rp4397
(dp4398
g17
VRP
p4399
sbatp4400
Rp4401
(dp4402
g17
VPRT
p4403
sbag5
(g6
g7
(lp4404
g5
(g6
g7
(lp4405
g5
(g6
g7
(lp4406
Vthis
p4407
atp4408
Rp4409
(dp4410
g17
VDT
p4411
sbag5
(g6
g7
(lp4412
Vreasoning
p4413
atp4414
Rp4415
(dp4416
g17
VNN
p4417
sbatp4418
Rp4419
(dp4420
g17
VNP
p4421
sbag5
(g6
g7
(lp4422
g5
(g6
g7
(lp4423
Vin
p4424
atp4425
Rp4426
(dp4427
g17
VIN
p4428
sbag5
(g6
g7
(lp4429
g5
(g6
g7
(lp4430
Vintelligent
p4431
atp4432
Rp4433
(dp4434
g17
VJJ
p4435
sbag5
(g6
g7
(lp4436
Vmachines
p4437
atp4438
Rp4439
(dp4440
g17
VNNS
p4441
sbatp4442
Rp4443
(dp4444
g17
VNP
p4445
sbatp4446
Rp4447
(dp4448
g17
VPP
p4449
sbatp4450
Rp4451
(dp4452
g17
VNP
p4453
sbatp4454
Rp4455
(dp4456
g17
VVP
p4457
sbatp4458
Rp4459
(dp4460
g17
VVP
p4461
sbatp4462
Rp4463
(dp4464
g17
g181
sbatp4465
Rp4466
(dp4467
g17
VPP
p4468
sbatp4469
Rp4470
(dp4471
g17
VNP
p4472
sbatp4473
Rp4474
(dp4475
g17
VVP
p4476
sbag5
(g6
g7
(lp4477
g337
atp4478
Rp4479
(dp4480
g17
g337
sbatp4481
Rp4482
(dp4483
g17
g181
sbatp4484
Rp4485
(dp4486
g17
VROOT
p4487
sbasg348
(icmyPackage
CorE
p4488
(dp4489
g351
(lp4490
(I0
I0
tp4491
a(I0
I23
tp4492
asg355
g5
(g6
g7
(lp4493
g4164
ag4171
ag4178
atp4494
Rp4495
(dp4496
g17
g366
sbsbsg356
(icmyPackage
CorE
p4497
(dp4498
g351
(lp4499
(I0
I25
tp4500
a(I1
I21
tp4501
asg355
g5
(g6
g7
(lp4502
g4191
ag4235
ag4248
ag4289
ag4293
ag4309
ag4474
atp4503
Rp4504
(dp4505
g17
g366
sbsbsg367
(icmyPackage
pattern
p4506
(dp4507
g370
I265
sg371
I1
sg372
(lp4508
(lp4509
S'so'
p4510
aasg378
(lp4511
I1
aI1
aI1
asg380
(lp4512
S'It was not long before he saw me looking at him, and so he began to move.'
p4513
asg383
I0
sg384
(lp4514
(lp4515
S'&C'
p4516
aS'(,/;/./--)'
p4517
aS'(&AND)'
p4518
aa(lp4519
S'(-far)'
p4520
aS'(,)'
p4521
aS'&R'
p4522
aasbsg390
(lp4523
(icmyPackage
Sent
p4524
(dp4525
g394
I1
sg395
I26
sg396
S'6)  The human reasoning processes involving common sense knowledge correspond only partly to the mathematical and logical reasoning processes that humans have used so successfully within scientific and mathematical theories.'
p4526
sg398
I0
sg399
I77
sg355
(lp4527
g4254
asba(icmyPackage
Sent
p4528
(dp4529
g394
I1
sg395
I27
sg396
S'7)  Nevertheless, mathematical logic is an appropriate tool for representing this knowledge and carrying out this reasoning in intelligent machines.'
p4530
sg398
I0
sg399
I78
sg355
(lp4531
g4485
asbasba(icmyPackage
CELink
p4532
(dp4533
g3
(lp4534
g4485
asg348
(icmyPackage
CorE
p4535
(dp4536
g351
(lp4537
(I0
I11
tp4538
a(I0
I21
tp4539
asg355
g4463
sbsg356
(icmyPackage
CorE
p4540
(dp4541
g351
(lp4542
(I0
I0
tp4543
a(I0
I9
tp4544
asg355
g5
(g6
g7
(lp4545
g4289
ag4293
ag4309
ag4316
ag4340
atp4546
Rp4547
(dp4548
g17
g366
sbsbsg367
g564
sg390
(lp4549
g4528
asba(icmyPackage
CELink
p4550
(dp4551
g3
(lp4552
g5
(g6
g7
(lp4553
g5
(g6
g7
(lp4554
g5
(g6
g7
(lp4555
g5
(g6
g7
(lp4556
VThe
p4557
atp4558
Rp4559
(dp4560
g17
VDT
p4561
sbag5
(g6
g7
(lp4562
Varticle
p4563
atp4564
Rp4565
(dp4566
g17
VNN
p4567
sbatp4568
Rp4569
(dp4570
g17
VNP
p4571
sbag5
(g6
g7
(lp4572
g5
(g6
g7
(lp4573
Vtreats
p4574
atp4575
Rp4576
(dp4577
g17
VVBZ
p4578
sbag5
(g6
g7
(lp4579
g5
(g6
g7
(lp4580
Vsuccessively
p4581
atp4582
Rp4583
(dp4584
g17
VRB
p4585
sbatp4586
Rp4587
(dp4588
g17
VADVP
p4589
sbag5
(g6
g7
(lp4590
g5
(g6
g7
(lp4591
g5
(g6
g7
(lp4592
Vapproximate
p4593
atp4594
Rp4595
(dp4596
g17
VJJ
p4597
sbag5
(g6
g7
(lp4598
Vobjects
p4599
atp4600
Rp4601
(dp4602
g17
VNNS
p4603
sbatp4604
Rp4605
(dp4606
g17
VNP
p4607
sbag5
(g6
g7
(lp4608
g213
atp4609
Rp4610
(dp4611
g17
g213
sbag5
(g6
g7
(lp4612
g5
(g6
g7
(lp4613
Vapproximate
p4614
atp4615
Rp4616
(dp4617
g17
VJJ
p4618
sbag5
(g6
g7
(lp4619
Vtheories
p4620
atp4621
Rp4622
(dp4623
g17
VNNS
p4624
sbatp4625
Rp4626
(dp4627
g17
VNP
p4628
sbag5
(g6
g7
(lp4629
g213
atp4630
Rp4631
(dp4632
g17
g213
sbag5
(g6
g7
(lp4633
Vand
p4634
atp4635
Rp4636
(dp4637
g17
VCC
p4638
sbag5
(g6
g7
(lp4639
g5
(g6
g7
(lp4640
Vformalisms
p4641
atp4642
Rp4643
(dp4644
g17
VNNS
p4645
sbatp4646
Rp4647
(dp4648
g17
VNP
p4649
sbatp4650
Rp4651
(dp4652
g17
VNP
p4653
sbag5
(g6
g7
(lp4654
g5
(g6
g7
(lp4655
Vfor
p4656
atp4657
Rp4658
(dp4659
g17
VIN
p4660
sbag5
(g6
g7
(lp4661
g5
(g6
g7
(lp4662
g5
(g6
g7
(lp4663
Vdescribing
p4664
atp4665
Rp4666
(dp4667
g17
VVBG
p4668
sbag5
(g6
g7
(lp4669
g5
(g6
g7
(lp4670
g5
(g6
g7
(lp4671
Vhow
p4672
atp4673
Rp4674
(dp4675
g17
VWRB
p4676
sbatp4677
Rp4678
(dp4679
g17
VWHADVP
p4680
sbag5
(g6
g7
(lp4681
g5
(g6
g7
(lp4682
g5
(g6
g7
(lp4683
g5
(g6
g7
(lp4684
Vone
p4685
atp4686
Rp4687
(dp4688
g17
VCD
p4689
sbag5
(g6
g7
(lp4690
Vobject
p4691
atp4692
Rp4693
(dp4694
g17
VNN
p4695
sbatp4696
Rp4697
(dp4698
g17
VNP
p4699
sbag5
(g6
g7
(lp4700
Vor
p4701
atp4702
Rp4703
(dp4704
g17
VCC
p4705
sbag5
(g6
g7
(lp4706
g5
(g6
g7
(lp4707
Vtheory
p4708
atp4709
Rp4710
(dp4711
g17
VNN
p4712
sbatp4713
Rp4714
(dp4715
g17
VNP
p4716
sbatp4717
Rp4718
(dp4719
g17
VNP
p4720
sbag5
(g6
g7
(lp4721
g5
(g6
g7
(lp4722
Vapproximates
p4723
atp4724
Rp4725
(dp4726
g17
VVBZ
p4727
sbag5
(g6
g7
(lp4728
g5
(g6
g7
(lp4729
Vanother
p4730
atp4731
Rp4732
(dp4733
g17
VDT
p4734
sbatp4735
Rp4736
(dp4737
g17
VNP
p4738
sbatp4739
Rp4740
(dp4741
g17
VVP
p4742
sbatp4743
Rp4744
(dp4745
g17
g181
sbatp4746
Rp4747
(dp4748
g17
VSBAR
p4749
sbatp4750
Rp4751
(dp4752
g17
VVP
p4753
sbatp4754
Rp4755
(dp4756
g17
g181
sbatp4757
Rp4758
(dp4759
g17
VPP
p4760
sbatp4761
Rp4762
(dp4763
g17
VVP
p4764
sbag5
(g6
g7
(lp4765
g337
atp4766
Rp4767
(dp4768
g17
g337
sbatp4769
Rp4770
(dp4771
g17
g181
sbatp4772
Rp4773
(dp4774
g17
VROOT
p4775
sbasg348
(icmyPackage
CorE
p4776
(dp4777
g351
(lp4778
(I0
I13
tp4779
a(I0
I20
tp4780
asg355
g4755
sbsg356
(icmyPackage
CorE
p4781
(dp4782
g351
(lp4783
(I0
I0
tp4784
a(I0
I11
tp4785
asg355
g5
(g6
g7
(lp4786
g4569
ag4576
ag4587
ag4651
atp4787
Rp4788
(dp4789
g17
g366
sbsbsg367
g564
sg390
(lp4790
(icmyPackage
Sent
p4791
(dp4792
g394
I1
sg395
I31
sg396
S'The article treats successively approximate objects, approximate theories, and formalisms for describing how one object or theory approximates another.'
p4793
sg398
I0
sg399
I85
sg355
(lp4794
g4773
asbasba(icmyPackage
CELink
p4795
(dp4796
g3
(lp4797
g5
(g6
g7
(lp4798
g5
(g6
g7
(lp4799
g5
(g6
g7
(lp4800
g5
(g6
g7
(lp4801
VThe
p4802
atp4803
Rp4804
(dp4805
g17
VDT
p4806
sbag5
(g6
g7
(lp4807
Vchild
p4808
atp4809
Rp4810
(dp4811
g17
VNN
p4812
sbatp4813
Rp4814
(dp4815
g17
VNP
p4816
sbag5
(g6
g7
(lp4817
g5
(g6
g7
(lp4818
Vcan
p4819
atp4820
Rp4821
(dp4822
g17
VMD
p4823
sbag5
(g6
g7
(lp4824
g5
(g6
g7
(lp4825
Vimprove
p4826
atp4827
Rp4828
(dp4829
g17
VVB
p4830
sbag5
(g6
g7
(lp4831
g5
(g6
g7
(lp4832
g5
(g6
g7
(lp4833
Vits
p4834
atp4835
Rp4836
(dp4837
g17
VPRP$
p4838
sbag5
(g6
g7
(lp4839
Vconcept
p4840
atp4841
Rp4842
(dp4843
g17
VNN
p4844
sbatp4845
Rp4846
(dp4847
g17
VNP
p4848
sbag5
(g6
g7
(lp4849
g5
(g6
g7
(lp4850
Vof
p4851
atp4852
Rp4853
(dp4854
g17
VIN
p4855
sbag5
(g6
g7
(lp4856
g5
(g6
g7
(lp4857
Vlemon
p4858
atp4859
Rp4860
(dp4861
g17
VNNP
p4862
sbatp4863
Rp4864
(dp4865
g17
VNP
p4866
sbatp4867
Rp4868
(dp4869
g17
VPP
p4870
sbatp4871
Rp4872
(dp4873
g17
VNP
p4874
sbag5
(g6
g7
(lp4875
g5
(g6
g7
(lp4876
Vby
p4877
atp4878
Rp4879
(dp4880
g17
VIN
p4881
sbag5
(g6
g7
(lp4882
g5
(g6
g7
(lp4883
g5
(g6
g7
(lp4884
Vlearning
p4885
atp4886
Rp4887
(dp4888
g17
VVBG
p4889
sbag5
(g6
g7
(lp4890
g5
(g6
g7
(lp4891
Vmore
p4892
atp4893
Rp4894
(dp4895
g17
VJJR
p4896
sbatp4897
Rp4898
(dp4899
g17
VNP
p4900
sbatp4901
Rp4902
(dp4903
g17
VVP
p4904
sbatp4905
Rp4906
(dp4907
g17
g181
sbatp4908
Rp4909
(dp4910
g17
VPP
p4911
sbatp4912
Rp4913
(dp4914
g17
VVP
p4915
sbatp4916
Rp4917
(dp4918
g17
VVP
p4919
sbag5
(g6
g7
(lp4920
g337
atp4921
Rp4922
(dp4923
g17
g337
sbatp4924
Rp4925
(dp4926
g17
g181
sbatp4927
Rp4928
(dp4929
g17
VROOT
p4930
sbasg348
(icmyPackage
CorE
p4931
(dp4932
g351
(lp4933
(I0
I9
tp4934
a(I0
I10
tp4935
asg355
g4906
sbsg356
(icmyPackage
CorE
p4936
(dp4937
g351
(lp4938
(I0
I0
tp4939
a(I0
I7
tp4940
asg355
g5
(g6
g7
(lp4941
g4814
ag4821
ag4828
ag4872
atp4942
Rp4943
(dp4944
g17
g366
sbsbsg367
(icmyPackage
pattern
p4945
(dp4946
g370
I0
sg371
I0
sg372
(lp4947
(lp4948
(lp4949
S'by'
p4950
aS'through'
p4951
aaasg378
(lp4952
I2
aI1
aI1
asg380
(lp4953
S'The similar relation can be detected by analyzing the contents of nodes based on such approaches as the Latent Semantic Analysis (LSA) and the Vector Space Model (VSM)'
p4954
asg383
I68
sg384
(lp4955
(lp4956
S'&R@Complete@'
p4957
aa(lp4958
S'&V-ing@C@'
p4959
aasbsg390
(lp4960
(icmyPackage
Sent
p4961
(dp4962
g394
I2
sg395
I33
sg396
S'The child can improve its concept of lemon by learning more.'
p4963
sg398
I0
sg399
I91
sg355
(lp4964
g4928
asbasba(icmyPackage
CELink
p4965
(dp4966
g3
(lp4967
g5
(g6
g7
(lp4968
g5
(g6
g7
(lp4969
g5
(g6
g7
(lp4970
g5
(g6
g7
(lp4971
VOn
p4972
atp4973
Rp4974
(dp4975
g17
VIN
p4976
sbag5
(g6
g7
(lp4977
g5
(g6
g7
(lp4978
Vthe
p4979
atp4980
Rp4981
(dp4982
g17
VDT
p4983
sbag5
(g6
g7
(lp4984
Vother
p4985
atp4986
Rp4987
(dp4988
g17
VJJ
p4989
sbag5
(g6
g7
(lp4990
Vhand
p4991
atp4992
Rp4993
(dp4994
g17
VNN
p4995
sbatp4996
Rp4997
(dp4998
g17
VNP
p4999
sbatp5000
Rp5001
(dp5002
g17
VPP
p5003
sbag5
(g6
g7
(lp5004
g213
atp5005
Rp5006
(dp5007
g17
g213
sbag5
(g6
g7
(lp5008
g5
(g6
g7
(lp5009
g5
(g6
g7
(lp5010
Vthe
p5011
atp5012
Rp5013
(dp5014
g17
VDT
p5015
sbag5
(g6
g7
(lp5016
Vlegal
p5017
atp5018
Rp5019
(dp5020
g17
VJJ
p5021
sbag5
(g6
g7
(lp5022
Vconcept
p5023
atp5024
Rp5025
(dp5026
g17
VNN
p5027
sbatp5028
Rp5029
(dp5030
g17
VNP
p5031
sbag5
(g6
g7
(lp5032
g5
(g6
g7
(lp5033
Vof
p5034
atp5035
Rp5036
(dp5037
g17
VIN
p5038
sbag5
(g6
g7
(lp5039
g5
(g6
g7
(lp5040
g5
(g6
g7
(lp5041
g659
atp5042
Rp5043
(dp5044
g17
VDT
p5045
sbag5
(g6
g7
(lp5046
Vperson
p5047
atp5048
Rp5049
(dp5050
g17
VNN
p5051
sbag5
(g6
g7
(lp5052
V's
p5053
atp5054
Rp5055
(dp5056
g17
VPOS
p5057
sbatp5058
Rp5059
(dp5060
g17
VNP
p5061
sbag5
(g6
g7
(lp5062
Vtaxable
p5063
atp5064
Rp5065
(dp5066
g17
VJJ
p5067
sbag5
(g6
g7
(lp5068
Vincome
p5069
atp5070
Rp5071
(dp5072
g17
VNN
p5073
sbatp5074
Rp5075
(dp5076
g17
VNP
p5077
sbatp5078
Rp5079
(dp5080
g17
VPP
p5081
sbatp5082
Rp5083
(dp5084
g17
VNP
p5085
sbag5
(g6
g7
(lp5086
g5
(g6
g7
(lp5087
Vis
p5088
atp5089
Rp5090
(dp5091
g17
VVBZ
p5092
sbag5
(g6
g7
(lp5093
g5
(g6
g7
(lp5094
Vrefined
p5095
atp5096
Rp5097
(dp5098
g17
VVBN
p5099
sbag5
(g6
g7
(lp5100
g5
(g6
g7
(lp5101
Vby
p5102
atp5103
Rp5104
(dp5105
g17
VIN
p5106
sbag5
(g6
g7
(lp5107
g5
(g6
g7
(lp5108
g5
(g6
g7
(lp5109
Vdefining
p5110
atp5111
Rp5112
(dp5113
g17
VVBG
p5114
sbag5
(g6
g7
(lp5115
g5
(g6
g7
(lp5116
Vmore
p5117
atp5118
Rp5119
(dp5120
g17
VJJR
p5121
sbatp5122
Rp5123
(dp5124
g17
VNP
p5125
sbatp5126
Rp5127
(dp5128
g17
VVP
p5129
sbatp5130
Rp5131
(dp5132
g17
g181
sbatp5133
Rp5134
(dp5135
g17
VPP
p5136
sbatp5137
Rp5138
(dp5139
g17
VVP
p5140
sbatp5141
Rp5142
(dp5143
g17
VVP
p5144
sbag5
(g6
g7
(lp5145
g337
atp5146
Rp5147
(dp5148
g17
g337
sbatp5149
Rp5150
(dp5151
g17
g181
sbatp5152
Rp5153
(dp5154
g17
VROOT
p5155
sbasg348
(icmyPackage
CorE
p5156
(dp5157
g351
(lp5158
(I0
I17
tp5159
a(I0
I18
tp5160
asg355
g5131
sbsg356
(icmyPackage
CorE
p5161
(dp5162
g351
(lp5163
(I0
I0
tp5164
a(I0
I15
tp5165
asg355
g5
(g6
g7
(lp5166
g5001
ag5006
ag5083
ag5090
ag5097
atp5167
Rp5168
(dp5169
g17
g366
sbsbsg367
g4945
sg390
(lp5170
(icmyPackage
Sent
p5171
(dp5172
g394
I2
sg395
I34
sg396
S"On the other hand, the legal concept of a person's taxable income is refined by defining more."
p5173
sg398
I0
sg399
I95
sg355
(lp5174
g5153
asbasba(icmyPackage
CELink
p5175
(dp5176
g3
(lp5177
g5
(g6
g7
(lp5178
g5
(g6
g7
(lp5179
g5
(g6
g7
(lp5180
g5
(g6
g7
(lp5181
g5
(g6
g7
(lp5182
VHe
p5183
atp5184
Rp5185
(dp5186
g17
VPRP
p5187
sbatp5188
Rp5189
(dp5190
g17
VNP
p5191
sbag5
(g6
g7
(lp5192
g5
(g6
g7
(lp5193
Vcould
p5194
atp5195
Rp5196
(dp5197
g17
VMD
p5198
sbag5
(g6
g7
(lp5199
g5
(g6
g7
(lp5200
Vlearn
p5201
atp5202
Rp5203
(dp5204
g17
VVB
p5205
sbag5
(g6
g7
(lp5206
g5
(g6
g7
(lp5207
Vmore
p5208
atp5209
Rp5210
(dp5211
g17
VJJR
p5212
sbatp5213
Rp5214
(dp5215
g17
VNP
p5216
sbatp5217
Rp5218
(dp5219
g17
VVP
p5220
sbatp5221
Rp5222
(dp5223
g17
VVP
p5224
sbatp5225
Rp5226
(dp5227
g17
g181
sbag5
(g6
g7
(lp5228
Vor
p5229
atp5230
Rp5231
(dp5232
g17
VCC
p5233
sbag5
(g6
g7
(lp5234
g5
(g6
g7
(lp5235
g5
(g6
g7
(lp5236
Vit
p5237
atp5238
Rp5239
(dp5240
g17
VPRP
p5241
sbatp5242
Rp5243
(dp5244
g17
VNP
p5245
sbag5
(g6
g7
(lp5246
g5
(g6
g7
(lp5247
Vcould
p5248
atp5249
Rp5250
(dp5251
g17
VMD
p5252
sbag5
(g6
g7
(lp5253
g5
(g6
g7
(lp5254
Vbe
p5255
atp5256
Rp5257
(dp5258
g17
VVB
p5259
sbag5
(g6
g7
(lp5260
g5
(g6
g7
(lp5261
Vdefined
p5262
atp5263
Rp5264
(dp5265
g17
VVBN
p5266
sbag5
(g6
g7
(lp5267
g5
(g6
g7
(lp5268
g5
(g6
g7
(lp5269
Vmore
p5270
atp5271
Rp5272
(dp5273
g17
VRBR
p5274
sbatp5275
Rp5276
(dp5277
g17
VADVP
p5278
sbag5
(g6
g7
(lp5279
g5
(g6
g7
(lp5280
Vas
p5281
atp5282
Rp5283
(dp5284
g17
VIN
p5285
sbag5
(g6
g7
(lp5286
g5
(g6
g7
(lp5287
g5
(g6
g7
(lp5288
Vthe
p5289
atp5290
Rp5291
(dp5292
g17
VDT
p5293
sbag5
(g6
g7
(lp5294
Vlegal
p5295
atp5296
Rp5297
(dp5298
g17
VJJ
p5299
sbag5
(g6
g7
(lp5300
Vconcept
p5301
atp5302
Rp5303
(dp5304
g17
VNN
p5305
sbatp5306
Rp5307
(dp5308
g17
VNP
p5309
sbag5
(g6
g7
(lp5310
g5
(g6
g7
(lp5311
Vis
p5312
atp5313
Rp5314
(dp5315
g17
VVBZ
p5316
sbag5
(g6
g7
(lp5317
g5
(g6
g7
(lp5318
Vdefined
p5319
atp5320
Rp5321
(dp5322
g17
VVBN
p5323
sbag5
(g6
g7
(lp5324
g5
(g6
g7
(lp5325
Vmore
p5326
atp5327
Rp5328
(dp5329
g17
VRBR
p5330
sbatp5331
Rp5332
(dp5333
g17
VADVP
p5334
sbatp5335
Rp5336
(dp5337
g17
VVP
p5338
sbatp5339
Rp5340
(dp5341
g17
VVP
p5342
sbatp5343
Rp5344
(dp5345
g17
g181
sbatp5346
Rp5347
(dp5348
g17
VSBAR
p5349
sbatp5350
Rp5351
(dp5352
g17
VADVP
p5353
sbatp5354
Rp5355
(dp5356
g17
VVP
p5357
sbatp5358
Rp5359
(dp5360
g17
VVP
p5361
sbatp5362
Rp5363
(dp5364
g17
VVP
p5365
sbatp5366
Rp5367
(dp5368
g17
g181
sbag5
(g6
g7
(lp5369
g337
atp5370
Rp5371
(dp5372
g17
g337
sbatp5373
Rp5374
(dp5375
g17
g181
sbatp5376
Rp5377
(dp5378
g17
VROOT
p5379
sbasg348
(icmyPackage
CorE
p5380
(dp5381
g351
(lp5382
(I0
I11
tp5383
a(I0
I17
tp5384
asg355
g5
(g6
g7
(lp5385
g5344
ag5371
atp5386
Rp5387
(dp5388
g17
g366
sbsbsg356
(icmyPackage
CorE
p5389
(dp5390
g351
(lp5391
(I0
I0
tp5392
a(I0
I9
tp5393
asg355
g5
(g6
g7
(lp5394
g5226
ag5231
ag5243
ag5250
ag5257
ag5264
ag5276
atp5395
Rp5396
(dp5397
g17
g366
sbsbsg367
(icmyPackage
pattern
p5398
(dp5399
g370
I26
sg371
I1
sg372
(lp5400
(lp5401
S'as'
p5402
aasg378
(lp5403
I3
aI1
aI1
asg380
(lp5404
S'You do not need to worry about the operation, as the software is very easy to use.'
p5405
asg383
I80
sg384
(lp5406
(lp5407
S'&R@Complete@'
p5408
aS'(,)'
p5409
aS'(-such/-same/-seem/-regard/-regards/-regarded/-view/-views/-viewed/-denote/-denoted/-denotes)'
p5410
aa(lp5411
S'(-if/-follow/-follows/-&adv)'
p5412
aS'&C@Complete@'
p5413
aasbsg390
(lp5414
(icmyPackage
Sent
p5415
(dp5416
g394
I2
sg395
I34
sg396
S'He could learn more or it could be defined more as the legal concept is defined more.'
p5417
sg398
I0
sg399
I98
sg355
(lp5418
g5377
asbasba(icmyPackage
CELink
p5419
(dp5420
g3
(lp5421
g5
(g6
g7
(lp5422
g5
(g6
g7
(lp5423
g5
(g6
g7
(lp5424
g5
(g6
g7
(lp5425
g5
(g6
g7
(lp5426
VWhatif
p5427
atp5428
Rp5429
(dp5430
g17
VNNP
p5431
sbatp5432
Rp5433
(dp5434
g17
VNP
p5435
sbag5
(g6
g7
(lp5436
g5
(g6
g7
(lp5437
V-LRB-
p5438
atp5439
Rp5440
(dp5441
g17
V-LRB-
p5442
sbag5
(g6
g7
(lp5443
g5
(g6
g7
(lp5444
g5
(g6
g7
(lp5445
g843
atp5446
Rp5447
(dp5448
g17
VNN
p5449
sbatp5450
Rp5451
(dp5452
g17
VNP
p5453
sbag5
(g6
g7
(lp5454
g213
atp5455
Rp5456
(dp5457
g17
g213
sbag5
(g6
g7
(lp5458
g5
(g6
g7
(lp5459
g828
atp5460
Rp5461
(dp5462
g17
VSYM
p5463
sbatp5464
Rp5465
(dp5466
g17
VNP
p5467
sbatp5468
Rp5469
(dp5470
g17
VNP
p5471
sbag5
(g6
g7
(lp5472
V-RRB-
p5473
atp5474
Rp5475
(dp5476
g17
V-RRB-
p5477
sbatp5478
Rp5479
(dp5480
g17
VPRN
p5481
sbatp5482
Rp5483
(dp5484
g17
VNP
p5485
sbag5
(g6
g7
(lp5486
g5
(g6
g7
(lp5487
Vis
p5488
atp5489
Rp5490
(dp5491
g17
VVBZ
p5492
sbag5
(g6
g7
(lp5493
g5
(g6
g7
(lp5494
g5
(g6
g7
(lp5495
Vwhat
p5496
atp5497
Rp5498
(dp5499
g17
VWP
p5500
sbatp5501
Rp5502
(dp5503
g17
VWHNP
p5504
sbag5
(g6
g7
(lp5505
g5
(g6
g7
(lp5506
g5
(g6
g7
(lp5507
g828
atp5508
Rp5509
(dp5510
g17
VSYM
p5511
sbatp5512
Rp5513
(dp5514
g17
VNP
p5515
sbag5
(g6
g7
(lp5516
g5
(g6
g7
(lp5517
Vwould
p5518
atp5519
Rp5520
(dp5521
g17
VMD
p5522
sbag5
(g6
g7
(lp5523
g5
(g6
g7
(lp5524
Vbe
p5525
atp5526
Rp5527
(dp5528
g17
VVB
p5529
sbag5
(g6
g7
(lp5530
g5
(g6
g7
(lp5531
Vif
p5532
atp5533
Rp5534
(dp5535
g17
VIN
p5536
sbag5
(g6
g7
(lp5537
g5
(g6
g7
(lp5538
g5
(g6
g7
(lp5539
g843
atp5540
Rp5541
(dp5542
g17
VNN
p5543
sbatp5544
Rp5545
(dp5546
g17
VNP
p5547
sbag5
(g6
g7
(lp5548
g5
(g6
g7
(lp5549
Vwere
p5550
atp5551
Rp5552
(dp5553
g17
VVBD
p5554
sbag5
(g6
g7
(lp5555
g5
(g6
g7
(lp5556
Vtrue
p5557
atp5558
Rp5559
(dp5560
g17
VJJ
p5561
sbatp5562
Rp5563
(dp5564
g17
VADJP
p5565
sbatp5566
Rp5567
(dp5568
g17
VVP
p5569
sbatp5570
Rp5571
(dp5572
g17
g181
sbatp5573
Rp5574
(dp5575
g17
VSBAR
p5576
sbatp5577
Rp5578
(dp5579
g17
VVP
p5580
sbatp5581
Rp5582
(dp5583
g17
VVP
p5584
sbatp5585
Rp5586
(dp5587
g17
g181
sbatp5588
Rp5589
(dp5590
g17
VSBAR
p5591
sbatp5592
Rp5593
(dp5594
g17
VVP
p5595
sbag5
(g6
g7
(lp5596
g337
atp5597
Rp5598
(dp5599
g17
g337
sbatp5600
Rp5601
(dp5602
g17
g181
sbatp5603
Rp5604
(dp5605
g17
VROOT
p5606
sbasg348
(icmyPackage
CorE
p5607
(dp5608
g351
(lp5609
(I0
I12
tp5610
a(I0
I15
tp5611
asg355
g5
(g6
g7
(lp5612
g5571
ag5598
atp5613
Rp5614
(dp5615
g17
g366
sbsbsg356
(icmyPackage
CorE
p5616
(dp5617
g351
(lp5618
(I0
I0
tp5619
a(I0
I10
tp5620
asg355
g5
(g6
g7
(lp5621
g5483
ag5490
ag5502
ag5513
ag5520
ag5527
atp5622
Rp5623
(dp5624
g17
g366
sbsbsg367
g783
sg390
(lp5625
(icmyPackage
Sent
p5626
(dp5627
g394
I2
sg395
I37
sg396
S'Whatif(p,x) is what x would be if p were true.'
p5628
sg398
I1
sg399
I104
sg355
(lp5629
g5604
asbasba(icmyPackage
CELink
p5630
(dp5631
g3
(lp5632
g5
(g6
g7
(lp5633
g5
(g6
g7
(lp5634
g5
(g6
g7
(lp5635
g5
(g6
g7
(lp5636
V-LRB-
p5637
atp5638
Rp5639
(dp5640
g17
V-LRB-
p5641
sbag5
(g6
g7
(lp5642
V3
p5643
atp5644
Rp5645
(dp5646
g17
VLS
p5647
sbag5
(g6
g7
(lp5648
V-RRB-
p5649
atp5650
Rp5651
(dp5652
g17
V-RRB-
p5653
sbatp5654
Rp5655
(dp5656
g17
VLST
p5657
sbag5
(g6
g7
(lp5658
g5
(g6
g7
(lp5659
g5
(g6
g7
(lp5660
VThe
p5661
atp5662
Rp5663
(dp5664
g17
VDT
p5665
sbag5
(g6
g7
(lp5666
Vcake
p5667
atp5668
Rp5669
(dp5670
g17
VNN
p5671
sbatp5672
Rp5673
(dp5674
g17
VNP
p5675
sbag5
(g6
g7
(lp5676
g5
(g6
g7
(lp5677
g5
(g6
g7
(lp5678
g5
(g6
g7
(lp5679
VI
p5680
atp5681
Rp5682
(dp5683
g17
VPRP
p5684
sbatp5685
Rp5686
(dp5687
g17
VNP
p5688
sbag5
(g6
g7
(lp5689
g5
(g6
g7
(lp5690
Vwould
p5691
atp5692
Rp5693
(dp5694
g17
VMD
p5695
sbag5
(g6
g7
(lp5696
g5
(g6
g7
(lp5697
Vhave
p5698
atp5699
Rp5700
(dp5701
g17
VVB
p5702
sbag5
(g6
g7
(lp5703
g5
(g6
g7
(lp5704
Vbaked
p5705
atp5706
Rp5707
(dp5708
g17
VVBN
p5709
sbag5
(g6
g7
(lp5710
g5
(g6
g7
(lp5711
Vif
p5712
atp5713
Rp5714
(dp5715
g17
VIN
p5716
sbag5
(g6
g7
(lp5717
g5
(g6
g7
(lp5718
g5
(g6
g7
(lp5719
g5680
atp5720
Rp5721
(dp5722
g17
VPRP
p5723
sbatp5724
Rp5725
(dp5726
g17
VNP
p5727
sbag5
(g6
g7
(lp5728
g5
(g6
g7
(lp5729
Vhad
p5730
atp5731
Rp5732
(dp5733
g17
VVBD
p5734
sbag5
(g6
g7
(lp5735
g5
(g6
g7
(lp5736
Vknown
p5737
atp5738
Rp5739
(dp5740
g17
VVBN
p5741
sbag5
(g6
g7
(lp5742
g5
(g6
g7
(lp5743
Vyou
p5744
atp5745
Rp5746
(dp5747
g17
VPRP
p5748
sbatp5749
Rp5750
(dp5751
g17
VNP
p5752
sbatp5753
Rp5754
(dp5755
g17
VVP
p5756
sbatp5757
Rp5758
(dp5759
g17
VVP
p5760
sbatp5761
Rp5762
(dp5763
g17
g181
sbatp5764
Rp5765
(dp5766
g17
VSBAR
p5767
sbatp5768
Rp5769
(dp5770
g17
VVP
p5771
sbatp5772
Rp5773
(dp5774
g17
VVP
p5775
sbatp5776
Rp5777
(dp5778
g17
VVP
p5779
sbatp5780
Rp5781
(dp5782
g17
g181
sbatp5783
Rp5784
(dp5785
g17
VSBAR
p5786
sbatp5787
Rp5788
(dp5789
g17
VNP
p5790
sbag5
(g6
g7
(lp5791
g5
(g6
g7
(lp5792
Vwere
p5793
atp5794
Rp5795
(dp5796
g17
VVBD
p5797
sbag5
(g6
g7
(lp5798
g5
(g6
g7
(lp5799
Vcoming
p5800
atp5801
Rp5802
(dp5803
g17
VVBG
p5804
sbatp5805
Rp5806
(dp5807
g17
VVP
p5808
sbatp5809
Rp5810
(dp5811
g17
VVP
p5812
sbag5
(g6
g7
(lp5813
g337
atp5814
Rp5815
(dp5816
g17
g337
sbatp5817
Rp5818
(dp5819
g17
g181
sbatp5820
Rp5821
(dp5822
g17
VROOT
p5823
sbasg348
(icmyPackage
CorE
p5824
(dp5825
g351
(lp5826
(I0
I10
tp5827
a(I0
I16
tp5828
asg355
g5
(g6
g7
(lp5829
g5762
ag5810
ag5815
atp5830
Rp5831
(dp5832
g17
g366
sbsbsg356
(icmyPackage
CorE
p5833
(dp5834
g351
(lp5835
(I0
I0
tp5836
a(I0
I8
tp5837
asg355
g5
(g6
g7
(lp5838
g5655
ag5673
ag5686
ag5693
ag5700
ag5707
atp5839
Rp5840
(dp5841
g17
g366
sbsbsg367
g783
sg390
(lp5842
(icmyPackage
Sent
p5843
(dp5844
g394
I2
sg395
I37
sg396
S'(3) The cake I would have baked if I had known you were coming.'
p5845
sg398
I1
sg399
I108
sg355
(lp5846
g5821
asbasba(icmyPackage
CELink
p5847
(dp5848
g3
(lp5849
g5
(g6
g7
(lp5850
g5
(g6
g7
(lp5851
g5
(g6
g7
(lp5852
g5
(g6
g7
(lp5853
V-LRB-
p5854
atp5855
Rp5856
(dp5857
g17
V-LRB-
p5858
sbag5
(g6
g7
(lp5859
V4
p5860
atp5861
Rp5862
(dp5863
g17
VLS
p5864
sbag5
(g6
g7
(lp5865
V-RRB-
p5866
atp5867
Rp5868
(dp5869
g17
V-RRB-
p5870
sbatp5871
Rp5872
(dp5873
g17
VLST
p5874
sbag5
(g6
g7
(lp5875
g5
(g6
g7
(lp5876
g5
(g6
g7
(lp5877
VWhat
p5878
atp5879
Rp5880
(dp5881
g17
VWP
p5882
sbatp5883
Rp5884
(dp5885
g17
VNP
p5886
sbag5
(g6
g7
(lp5887
g5
(g6
g7
(lp5888
g5
(g6
g7
(lp5889
g5
(g6
g7
(lp5890
Vthe
p5891
atp5892
Rp5893
(dp5894
g17
VDT
p5895
sbag5
(g6
g7
(lp5896
Vworld
p5897
atp5898
Rp5899
(dp5900
g17
VNN
p5901
sbatp5902
Rp5903
(dp5904
g17
VNP
p5905
sbag5
(g6
g7
(lp5906
g5
(g6
g7
(lp5907
Vwould
p5908
atp5909
Rp5910
(dp5911
g17
VMD
p5912
sbag5
(g6
g7
(lp5913
g5
(g6
g7
(lp5914
Vbe
p5915
atp5916
Rp5917
(dp5918
g17
VVB
p5919
sbag5
(g6
g7
(lp5920
g5
(g6
g7
(lp5921
Vlike
p5922
atp5923
Rp5924
(dp5925
g17
VIN
p5926
sbag5
(g6
g7
(lp5927
g5
(g6
g7
(lp5928
Vtoday
p5929
atp5930
Rp5931
(dp5932
g17
VNN
p5933
sbatp5934
Rp5935
(dp5936
g17
VNP
p5937
sbatp5938
Rp5939
(dp5940
g17
VPP
p5941
sbag5
(g6
g7
(lp5942
g5
(g6
g7
(lp5943
Vif
p5944
atp5945
Rp5946
(dp5947
g17
VIN
p5948
sbag5
(g6
g7
(lp5949
g5
(g6
g7
(lp5950
g5
(g6
g7
(lp5951
VPickett
p5952
atp5953
Rp5954
(dp5955
g17
VNNP
p5956
sbag5
(g6
g7
(lp5957
V's
p5958
atp5959
Rp5960
(dp5961
g17
VPOS
p5962
sbatp5963
Rp5964
(dp5965
g17
VNP
p5966
sbag5
(g6
g7
(lp5967
Vcharge
p5968
atp5969
Rp5970
(dp5971
g17
VNN
p5972
sbatp5973
Rp5974
(dp5975
g17
VNP
p5976
sbatp5977
Rp5978
(dp5979
g17
VPP
p5980
sbatp5981
Rp5982
(dp5983
g17
VVP
p5984
sbatp5985
Rp5986
(dp5987
g17
VVP
p5988
sbatp5989
Rp5990
(dp5991
g17
g181
sbatp5992
Rp5993
(dp5994
g17
VSBAR
p5995
sbatp5996
Rp5997
(dp5998
g17
VNP
p5999
sbag5
(g6
g7
(lp6000
g5
(g6
g7
(lp6001
Vhad
p6002
atp6003
Rp6004
(dp6005
g17
VVBD
p6006
sbag5
(g6
g7
(lp6007
g5
(g6
g7
(lp6008
Vbeen
p6009
atp6010
Rp6011
(dp6012
g17
VVBN
p6013
sbag5
(g6
g7
(lp6014
g5
(g6
g7
(lp6015
Vsuccessful
p6016
atp6017
Rp6018
(dp6019
g17
VJJ
p6020
sbatp6021
Rp6022
(dp6023
g17
VADJP
p6024
sbatp6025
Rp6026
(dp6027
g17
VVP
p6028
sbatp6029
Rp6030
(dp6031
g17
VVP
p6032
sbag5
(g6
g7
(lp6033
g337
atp6034
Rp6035
(dp6036
g17
g337
sbatp6037
Rp6038
(dp6039
g17
g181
sbatp6040
Rp6041
(dp6042
g17
VROOT
p6043
sbasg348
(icmyPackage
CorE
p6044
(dp6045
g351
(lp6046
(I0
I11
tp6047
a(I0
I17
tp6048
asg355
g5
(g6
g7
(lp6049
g5974
ag6030
ag6035
atp6050
Rp6051
(dp6052
g17
g366
sbsbsg356
(icmyPackage
CorE
p6053
(dp6054
g351
(lp6055
(I0
I4
tp6056
a(I0
I9
tp6057
asg355
g5
(g6
g7
(lp6058
g5903
ag5910
ag5917
ag5939
atp6059
Rp6060
(dp6061
g17
g366
sbsbsg367
g783
sg390
(lp6062
(icmyPackage
Sent
p6063
(dp6064
g394
I2
sg395
I37
sg396
S"(4) What the world would be like today if Pickett's charge had been successful."
p6065
sg398
I1
sg399
I109
sg355
(lp6066
g6041
asbasba(icmyPackage
CELink
p6067
(dp6068
g3
(lp6069
g5
(g6
g7
(lp6070
g5
(g6
g7
(lp6071
g5
(g6
g7
(lp6072
g5
(g6
g7
(lp6073
VIf
p6074
atp6075
Rp6076
(dp6077
g17
VIN
p6078
sbag5
(g6
g7
(lp6079
g5
(g6
g7
(lp6080
g5
(g6
g7
(lp6081
Vwe
p6082
atp6083
Rp6084
(dp6085
g17
VPRP
p6086
sbatp6087
Rp6088
(dp6089
g17
VNP
p6090
sbag5
(g6
g7
(lp6091
g5
(g6
g7
(lp6092
Vsuppose
p6093
atp6094
Rp6095
(dp6096
g17
VVBP
p6097
sbag5
(g6
g7
(lp6098
g5
(g6
g7
(lp6099
Vthat
p6100
atp6101
Rp6102
(dp6103
g17
VIN
p6104
sbag5
(g6
g7
(lp6105
g5
(g6
g7
(lp6106
g5
(g6
g7
(lp6107
Vthere
p6108
atp6109
Rp6110
(dp6111
g17
VEX
p6112
sbatp6113
Rp6114
(dp6115
g17
VNP
p6116
sbag5
(g6
g7
(lp6117
g5
(g6
g7
(lp6118
Vis
p6119
atp6120
Rp6121
(dp6122
g17
VVBZ
p6123
sbag5
(g6
g7
(lp6124
g5
(g6
g7
(lp6125
g5
(g6
g7
(lp6126
g659
atp6127
Rp6128
(dp6129
g17
VDT
p6130
sbag5
(g6
g7
(lp6131
Vtruth
p6132
atp6133
Rp6134
(dp6135
g17
VNN
p6136
sbatp6137
Rp6138
(dp6139
g17
VNP
p6140
sbag5
(g6
g7
(lp6141
g5
(g6
g7
(lp6142
Vabout
p6143
atp6144
Rp6145
(dp6146
g17
VIN
p6147
sbag5
(g6
g7
(lp6148
g5
(g6
g7
(lp6149
g5
(g6
g7
(lp6150
Vwhat
p6151
atp6152
Rp6153
(dp6154
g17
VWP
p6155
sbatp6156
Rp6157
(dp6158
g17
VWHNP
p6159
sbag5
(g6
g7
(lp6160
g5
(g6
g7
(lp6161
g5
(g6
g7
(lp6162
Vrocks
p6163
atp6164
Rp6165
(dp6166
g17
VNNS
p6167
sbatp6168
Rp6169
(dp6170
g17
VNP
p6171
sbag5
(g6
g7
(lp6172
g5
(g6
g7
(lp6173
Vare
p6174
atp6175
Rp6176
(dp6177
g17
VVBP
p6178
sbag5
(g6
g7
(lp6179
g5
(g6
g7
(lp6180
g5
(g6
g7
(lp6181
Vpart
p6182
atp6183
Rp6184
(dp6185
g17
VNN
p6186
sbatp6187
Rp6188
(dp6189
g17
VNP
p6190
sbag5
(g6
g7
(lp6191
g5
(g6
g7
(lp6192
Vof
p6193
atp6194
Rp6195
(dp6196
g17
VIN
p6197
sbag5
(g6
g7
(lp6198
g5
(g6
g7
(lp6199
Vthe
p6200
atp6201
Rp6202
(dp6203
g17
VDT
p6204
sbag5
(g6
g7
(lp6205
Vmountain
p6206
atp6207
Rp6208
(dp6209
g17
VNN
p6210
sbatp6211
Rp6212
(dp6213
g17
VNP
p6214
sbatp6215
Rp6216
(dp6217
g17
VPP
p6218
sbatp6219
Rp6220
(dp6221
g17
VNP
p6222
sbatp6223
Rp6224
(dp6225
g17
VVP
p6226
sbatp6227
Rp6228
(dp6229
g17
g181
sbatp6230
Rp6231
(dp6232
g17
VSBAR
p6233
sbatp6234
Rp6235
(dp6236
g17
VPP
p6237
sbatp6238
Rp6239
(dp6240
g17
VNP
p6241
sbatp6242
Rp6243
(dp6244
g17
VVP
p6245
sbatp6246
Rp6247
(dp6248
g17
g181
sbatp6249
Rp6250
(dp6251
g17
VSBAR
p6252
sbatp6253
Rp6254
(dp6255
g17
VVP
p6256
sbatp6257
Rp6258
(dp6259
g17
g181
sbatp6260
Rp6261
(dp6262
g17
VSBAR
p6263
sbag5
(g6
g7
(lp6264
g213
atp6265
Rp6266
(dp6267
g17
g213
sbag5
(g6
g7
(lp6268
g5
(g6
g7
(lp6269
Vthen
p6270
atp6271
Rp6272
(dp6273
g17
VRB
p6274
sbag5
(g6
g7
(lp6275
Vthe
p6276
atp6277
Rp6278
(dp6279
g17
VDT
p6280
sbag5
(g6
g7
(lp6281
Vpeople
p6282
atp6283
Rp6284
(dp6285
g17
VNNS
p6286
sbag5
(g6
g7
(lp6287
g5
(g6
g7
(lp6288
g5
(g6
g7
(lp6289
Vrefining
p6290
atp6291
Rp6292
(dp6293
g17
VVBG
p6294
sbag5
(g6
g7
(lp6295
g5
(g6
g7
(lp6296
Vit
p6297
atp6298
Rp6299
(dp6300
g17
VPRP
p6301
sbatp6302
Rp6303
(dp6304
g17
VNP
p6305
sbag5
(g6
g7
(lp6306
g5
(g6
g7
(lp6307
Vin
p6308
atp6309
Rp6310
(dp6311
g17
VIN
p6312
sbag5
(g6
g7
(lp6313
g5
(g6
g7
(lp6314
Vdifferent
p6315
atp6316
Rp6317
(dp6318
g17
VJJ
p6319
sbag5
(g6
g7
(lp6320
Vways
p6321
atp6322
Rp6323
(dp6324
g17
VNNS
p6325
sbatp6326
Rp6327
(dp6328
g17
VNP
p6329
sbatp6330
Rp6331
(dp6332
g17
VPP
p6333
sbatp6334
Rp6335
(dp6336
g17
VVP
p6337
sbatp6338
Rp6339
(dp6340
g17
g181
sbatp6341
Rp6342
(dp6343
g17
VNP
p6344
sbag5
(g6
g7
(lp6345
g5
(g6
g7
(lp6346
Vwould
p6347
atp6348
Rp6349
(dp6350
g17
VMD
p6351
sbag5
(g6
g7
(lp6352
g5
(g6
g7
(lp6353
Vget
p6354
atp6355
Rp6356
(dp6357
g17
VVB
p6358
sbag5
(g6
g7
(lp6359
g5
(g6
g7
(lp6360
g5
(g6
g7
(lp6361
Vto
p6362
atp6363
Rp6364
(dp6365
g17
VTO
p6366
sbag5
(g6
g7
(lp6367
g5
(g6
g7
(lp6368
Vargue
p6369
atp6370
Rp6371
(dp6372
g17
VVB
p6373
sbag5
(g6
g7
(lp6374
g5
(g6
g7
(lp6375
Vfruitlessly
p6376
atp6377
Rp6378
(dp6379
g17
VRB
p6380
sbatp6381
Rp6382
(dp6383
g17
VADVP
p6384
sbag5
(g6
g7
(lp6385
g5
(g6
g7
(lp6386
Vabout
p6387
atp6388
Rp6389
(dp6390
g17
VIN
p6391
sbag5
(g6
g7
(lp6392
g5
(g6
g7
(lp6393
g5
(g6
g7
(lp6394
Vwhich
p6395
atp6396
Rp6397
(dp6398
g17
VWDT
p6399
sbatp6400
Rp6401
(dp6402
g17
VWHNP
p6403
sbag5
(g6
g7
(lp6404
g5
(g6
g7
(lp6405
g5
(g6
g7
(lp6406
Vdefinition
p6407
atp6408
Rp6409
(dp6410
g17
VNN
p6411
sbatp6412
Rp6413
(dp6414
g17
VNP
p6415
sbag5
(g6
g7
(lp6416
g5
(g6
g7
(lp6417
Vis
p6418
atp6419
Rp6420
(dp6421
g17
VVBZ
p6422
sbag5
(g6
g7
(lp6423
g5
(g6
g7
(lp6424
Vgetting
p6425
atp6426
Rp6427
(dp6428
g17
VVBG
p6429
sbag5
(g6
g7
(lp6430
g5
(g6
g7
(lp6431
Vcloser
p6432
atp6433
Rp6434
(dp6435
g17
VRBR
p6436
sbatp6437
Rp6438
(dp6439
g17
VADVP
p6440
sbag5
(g6
g7
(lp6441
g5
(g6
g7
(lp6442
Vto
p6443
atp6444
Rp6445
(dp6446
g17
VTO
p6447
sbag5
(g6
g7
(lp6448
g5
(g6
g7
(lp6449
Vthe
p6450
atp6451
Rp6452
(dp6453
g17
VDT
p6454
sbag5
(g6
g7
(lp6455
Vtruth
p6456
atp6457
Rp6458
(dp6459
g17
VNN
p6460
sbatp6461
Rp6462
(dp6463
g17
VNP
p6464
sbatp6465
Rp6466
(dp6467
g17
VPP
p6468
sbatp6469
Rp6470
(dp6471
g17
VVP
p6472
sbatp6473
Rp6474
(dp6475
g17
VVP
p6476
sbatp6477
Rp6478
(dp6479
g17
g181
sbatp6480
Rp6481
(dp6482
g17
VSBAR
p6483
sbatp6484
Rp6485
(dp6486
g17
VPP
p6487
sbatp6488
Rp6489
(dp6490
g17
VVP
p6491
sbatp6492
Rp6493
(dp6494
g17
VVP
p6495
sbatp6496
Rp6497
(dp6498
g17
g181
sbatp6499
Rp6500
(dp6501
g17
VVP
p6502
sbatp6503
Rp6504
(dp6505
g17
VVP
p6506
sbag5
(g6
g7
(lp6507
g337
atp6508
Rp6509
(dp6510
g17
g337
sbatp6511
Rp6512
(dp6513
g17
g181
sbatp6514
Rp6515
(dp6516
g17
VROOT
p6517
sbasg348
(icmyPackage
CorE
p6518
(dp6519
g351
(lp6520
(I0
I1
tp6521
a(I0
I15
tp6522
asg355
g6258
sbsg356
(icmyPackage
CorE
p6523
(dp6524
g351
(lp6525
(I0
I17
tp6526
a(I0
I39
tp6527
asg355
g5
(g6
g7
(lp6528
g6342
ag6504
ag6509
atp6529
Rp6530
(dp6531
g17
g366
sbsbsg367
(icmyPackage
pattern
p6532
(dp6533
g370
I0
sg371
I0
sg372
(lp6534
(lp6535
(lp6536
S'if'
p6537
aS'once'
p6538
aaa(lp6539
S','
p6540
aasg378
(lp6541
I1
aI1
aI1
asg380
(lp6542
S'If some light and mobile detection devices can be invented in the future, many new applications can be imagined, for example, people can get some services while thinking.'
p6543
asg383
I15
sg384
(lp6544
(lp6545
a(lp6546
S'&C@Complete@'
p6547
aa(lp6548
S'&R@Complete@'
p6549
aasbsg390
(lp6550
(icmyPackage
Sent
p6551
(dp6552
g394
I2
sg395
I42
sg396
S'If we suppose that there is a truth about what rocks are part of the mountain, then the people refining it in different ways would get to argue fruitlessly about which definition is getting closer to the truth.'
p6553
sg398
I2
sg399
I127
sg355
(lp6554
g6515
asbasba(icmyPackage
CELink
p6555
(dp6556
g3
(lp6557
g5
(g6
g7
(lp6558
g5
(g6
g7
(lp6559
g5
(g6
g7
(lp6560
g5
(g6
g7
(lp6561
VBesides
p6562
atp6563
Rp6564
(dp6565
g17
VIN
p6566
sbag5
(g6
g7
(lp6567
g5
(g6
g7
(lp6568
Vthese
p6569
atp6570
Rp6571
(dp6572
g17
VDT
p6573
sbag5
(g6
g7
(lp6574
Vtheories
p6575
atp6576
Rp6577
(dp6578
g17
VNNS
p6579
sbatp6580
Rp6581
(dp6582
g17
VNP
p6583
sbatp6584
Rp6585
(dp6586
g17
VPP
p6587
sbag5
(g6
g7
(lp6588
g213
atp6589
Rp6590
(dp6591
g17
g213
sbag5
(g6
g7
(lp6592
g5
(g6
g7
(lp6593
Vthere
p6594
atp6595
Rp6596
(dp6597
g17
VEX
p6598
sbatp6599
Rp6600
(dp6601
g17
VNP
p6602
sbag5
(g6
g7
(lp6603
g5
(g6
g7
(lp6604
Vis
p6605
atp6606
Rp6607
(dp6608
g17
VVBZ
p6609
sbag5
(g6
g7
(lp6610
g5
(g6
g7
(lp6611
g5
(g6
g7
(lp6612
VT3
p6613
atp6614
Rp6615
(dp6616
g17
VNNP
p6617
sbatp6618
Rp6619
(dp6620
g17
VNP
p6621
sbag5
(g6
g7
(lp6622
g5
(g6
g7
(lp6623
Vbased
p6624
atp6625
Rp6626
(dp6627
g17
VVBN
p6628
sbag5
(g6
g7
(lp6629
g5
(g6
g7
(lp6630
Von
p6631
atp6632
Rp6633
(dp6634
g17
VIN
p6635
sbag5
(g6
g7
(lp6636
g5
(g6
g7
(lp6637
g5
(g6
g7
(lp6638
Vplate
p6639
atp6640
Rp6641
(dp6642
g17
VNN
p6643
sbag5
(g6
g7
(lp6644
Vtectonics
p6645
atp6646
Rp6647
(dp6648
g17
VNNS
p6649
sbatp6650
Rp6651
(dp6652
g17
VNP
p6653
sbag5
(g6
g7
(lp6654
g5
(g6
g7
(lp6655
g5
(g6
g7
(lp6656
Vthat
p6657
atp6658
Rp6659
(dp6660
g17
VWDT
p6661
sbatp6662
Rp6663
(dp6664
g17
VWHNP
p6665
sbag5
(g6
g7
(lp6666
g5
(g6
g7
(lp6667
g5
(g6
g7
(lp6668
Vtells
p6669
atp6670
Rp6671
(dp6672
g17
VVBZ
p6673
sbag5
(g6
g7
(lp6674
g5
(g6
g7
(lp6675
Vus
p6676
atp6677
Rp6678
(dp6679
g17
VPRP
p6680
sbatp6681
Rp6682
(dp6683
g17
VNP
p6684
sbag5
(g6
g7
(lp6685
g5
(g6
g7
(lp6686
Vthat
p6687
atp6688
Rp6689
(dp6690
g17
VIN
p6691
sbag5
(g6
g7
(lp6692
g5
(g6
g7
(lp6693
g5
(g6
g7
(lp6694
VEverest
p6695
atp6696
Rp6697
(dp6698
g17
VNNP
p6699
sbatp6700
Rp6701
(dp6702
g17
VNP
p6703
sbag5
(g6
g7
(lp6704
g5
(g6
g7
(lp6705
Vis
p6706
atp6707
Rp6708
(dp6709
g17
VVBZ
p6710
sbag5
(g6
g7
(lp6711
g5
(g6
g7
(lp6712
Vstill
p6713
atp6714
Rp6715
(dp6716
g17
VRB
p6717
sbatp6718
Rp6719
(dp6720
g17
VADVP
p6721
sbag5
(g6
g7
(lp6722
g5
(g6
g7
(lp6723
Vgetting
p6724
atp6725
Rp6726
(dp6727
g17
VVBG
p6728
sbag5
(g6
g7
(lp6729
g5
(g6
g7
(lp6730
Vhigher
p6731
atp6732
Rp6733
(dp6734
g17
VRBR
p6735
sbatp6736
Rp6737
(dp6738
g17
VADVP
p6739
sbatp6740
Rp6741
(dp6742
g17
VVP
p6743
sbatp6744
Rp6745
(dp6746
g17
VVP
p6747
sbatp6748
Rp6749
(dp6750
g17
g181
sbatp6751
Rp6752
(dp6753
g17
VSBAR
p6754
sbatp6755
Rp6756
(dp6757
g17
VVP
p6758
sbatp6759
Rp6760
(dp6761
g17
g181
sbatp6762
Rp6763
(dp6764
g17
VSBAR
p6765
sbatp6766
Rp6767
(dp6768
g17
VNP
p6769
sbatp6770
Rp6771
(dp6772
g17
VPP
p6773
sbatp6774
Rp6775
(dp6776
g17
VPP
p6777
sbatp6778
Rp6779
(dp6780
g17
VNP
p6781
sbatp6782
Rp6783
(dp6784
g17
VVP
p6785
sbag5
(g6
g7
(lp6786
g337
atp6787
Rp6788
(dp6789
g17
g337
sbatp6790
Rp6791
(dp6792
g17
g181
sbatp6793
Rp6794
(dp6795
g17
VROOT
p6796
sbasg348
(icmyPackage
CorE
p6797
(dp6798
g351
(lp6799
(I0
I9
tp6800
a(I0
I19
tp6801
asg355
g6767
sbsg356
(icmyPackage
CorE
p6802
(dp6803
g351
(lp6804
(I0
I0
tp6805
a(I0
I6
tp6806
asg355
g5
(g6
g7
(lp6807
g6585
ag6590
ag6600
ag6607
ag6619
atp6808
Rp6809
(dp6810
g17
g366
sbsbsg367
(icmyPackage
pattern
p6811
(dp6812
g370
I0
sg371
I0
sg372
(lp6813
(lp6814
S'based'
p6815
aS'on'
p6816
aasg378
(lp6817
I2
aI1
aI1
asg380
(lp6818
S'He said he planned to announce details of legislation on Sunday based on a Republican plan that would provide a short-term solution'
p6819
asg383
I48
sg384
(lp6820
(lp6821
S'&R'
p6822
aS'(,)'
p6823
aS'(&ADV)'
p6824
aa(lp6825
S'&V-ing/&NP@C@'
p6826
aS'(&Clause@C@)'
p6827
aasbsg390
(lp6828
(icmyPackage
Sent
p6829
(dp6830
g394
I2
sg395
I43
sg396
S'Besides these theories, there is T3 based on plate tectonics that tells us that Everest is still getting higher.'
p6831
sg398
I2
sg399
I130
sg355
(lp6832
g6794
asbasba(icmyPackage
CELink
p6833
(dp6834
g3
(lp6835
g5
(g6
g7
(lp6836
g5
(g6
g7
(lp6837
g5
(g6
g7
(lp6838
g5
(g6
g7
(lp6839
VIn
p6840
atp6841
Rp6842
(dp6843
g17
VIN
p6844
sbag5
(g6
g7
(lp6845
g5
(g6
g7
(lp6846
Vthe
p6847
atp6848
Rp6849
(dp6850
g17
VDT
p6851
sbag5
(g6
g7
(lp6852
Vsimpler
p6853
atp6854
Rp6855
(dp6856
g17
VJJR
p6857
sbag5
(g6
g7
(lp6858
Vtheory
p6859
atp6860
Rp6861
(dp6862
g17
VNN
p6863
sbag5
(g6
g7
(lp6864
VT1
p6865
atp6866
Rp6867
(dp6868
g17
VNN
p6869
sbatp6870
Rp6871
(dp6872
g17
VNP
p6873
sbatp6874
Rp6875
(dp6876
g17
VPP
p6877
sbag5
(g6
g7
(lp6878
g213
atp6879
Rp6880
(dp6881
g17
g213
sbag5
(g6
g7
(lp6882
g5
(g6
g7
(lp6883
Vthere
p6884
atp6885
Rp6886
(dp6887
g17
VEX
p6888
sbatp6889
Rp6890
(dp6891
g17
VNP
p6892
sbag5
(g6
g7
(lp6893
g5
(g6
g7
(lp6894
Vis
p6895
atp6896
Rp6897
(dp6898
g17
VVBZ
p6899
sbag5
(g6
g7
(lp6900
g5
(g6
g7
(lp6901
g5
(g6
g7
(lp6902
g659
atp6903
Rp6904
(dp6905
g17
VDT
p6906
sbag5
(g6
g7
(lp6907
Vlist
p6908
atp6909
Rp6910
(dp6911
g17
VNN
p6912
sbatp6913
Rp6914
(dp6915
g17
VNP
p6916
sbag5
(g6
g7
(lp6917
g5
(g6
g7
(lp6918
Vof
p6919
atp6920
Rp6921
(dp6922
g17
VIN
p6923
sbag5
(g6
g7
(lp6924
g5
(g6
g7
(lp6925
g5
(g6
g7
(lp6926
Vnames
p6927
atp6928
Rp6929
(dp6930
g17
VNNS
p6931
sbatp6932
Rp6933
(dp6934
g17
VNP
p6935
sbag5
(g6
g7
(lp6936
g5
(g6
g7
(lp6937
Vof
p6938
atp6939
Rp6940
(dp6941
g17
VIN
p6942
sbag5
(g6
g7
(lp6943
g5
(g6
g7
(lp6944
g5
(g6
g7
(lp6945
Vmountains
p6946
atp6947
Rp6948
(dp6949
g17
VNNS
p6950
sbatp6951
Rp6952
(dp6953
g17
VNP
p6954
sbag5
(g6
g7
(lp6955
g5
(g6
g7
(lp6956
Vpaired
p6957
atp6958
Rp6959
(dp6960
g17
VVBN
p6961
sbag5
(g6
g7
(lp6962
g5
(g6
g7
(lp6963
Vwith
p6964
atp6965
Rp6966
(dp6967
g17
VIN
p6968
sbag5
(g6
g7
(lp6969
g5
(g6
g7
(lp6970
g5
(g6
g7
(lp6971
Vlists
p6972
atp6973
Rp6974
(dp6975
g17
VNNS
p6976
sbatp6977
Rp6978
(dp6979
g17
VNP
p6980
sbag5
(g6
g7
(lp6981
g5
(g6
g7
(lp6982
Vof
p6983
atp6984
Rp6985
(dp6986
g17
VIN
p6987
sbag5
(g6
g7
(lp6988
g5
(g6
g7
(lp6989
g5
(g6
g7
(lp6990
Vclimbing
p6991
atp6992
Rp6993
(dp6994
g17
VVBG
p6995
sbag5
(g6
g7
(lp6996
g5
(g6
g7
(lp6997
g5
(g6
g7
(lp6998
Vexpeditions
p6999
atp7000
Rp7001
(dp7002
g17
VNNS
p7003
sbag5
(g6
g7
(lp7004
Vor
p7005
atp7006
Rp7007
(dp7008
g17
VCC
p7009
sbag5
(g6
g7
(lp7010
Vnames
p7011
atp7012
Rp7013
(dp7014
g17
VNNS
p7015
sbatp7016
Rp7017
(dp7018
g17
VNP
p7019
sbag5
(g6
g7
(lp7020
g5
(g6
g7
(lp7021
Vof
p7022
atp7023
Rp7024
(dp7025
g17
VIN
p7026
sbag5
(g6
g7
(lp7027
g5
(g6
g7
(lp7028
Vclimbers
p7029
atp7030
Rp7031
(dp7032
g17
VNNS
p7033
sbatp7034
Rp7035
(dp7036
g17
VNP
p7037
sbatp7038
Rp7039
(dp7040
g17
VPP
p7041
sbatp7042
Rp7043
(dp7044
g17
VNP
p7045
sbatp7046
Rp7047
(dp7048
g17
VVP
p7049
sbatp7050
Rp7051
(dp7052
g17
g181
sbatp7053
Rp7054
(dp7055
g17
VPP
p7056
sbatp7057
Rp7058
(dp7059
g17
VNP
p7060
sbatp7061
Rp7062
(dp7063
g17
VPP
p7064
sbatp7065
Rp7066
(dp7067
g17
VVP
p7068
sbatp7069
Rp7070
(dp7071
g17
VNP
p7072
sbatp7073
Rp7074
(dp7075
g17
VPP
p7076
sbatp7077
Rp7078
(dp7079
g17
VNP
p7080
sbatp7081
Rp7082
(dp7083
g17
VPP
p7084
sbatp7085
Rp7086
(dp7087
g17
VNP
p7088
sbatp7089
Rp7090
(dp7091
g17
VVP
p7092
sbag5
(g6
g7
(lp7093
g337
atp7094
Rp7095
(dp7096
g17
g337
sbatp7097
Rp7098
(dp7099
g17
g181
sbatp7100
Rp7101
(dp7102
g17
VROOT
p7103
sbag5
(g6
g7
(lp7104
g5
(g6
g7
(lp7105
g5
(g6
g7
(lp7106
g5
(g6
g7
(lp7107
VAs
p7108
atp7109
Rp7110
(dp7111
g17
VIN
p7112
sbag5
(g6
g7
(lp7113
g5
(g6
g7
(lp7114
g659
atp7115
Rp7116
(dp7117
g17
VDT
p7118
sbag5
(g6
g7
(lp7119
Vlogical
p7120
atp7121
Rp7122
(dp7123
g17
VJJ
p7124
sbag5
(g6
g7
(lp7125
Vtheory
p7126
atp7127
Rp7128
(dp7129
g17
VNN
p7130
sbatp7131
Rp7132
(dp7133
g17
VNP
p7134
sbatp7135
Rp7136
(dp7137
g17
VPP
p7138
sbag5
(g6
g7
(lp7139
g5
(g6
g7
(lp7140
Vit
p7141
atp7142
Rp7143
(dp7144
g17
VPRP
p7145
sbatp7146
Rp7147
(dp7148
g17
VNP
p7149
sbag5
(g6
g7
(lp7150
g5
(g6
g7
(lp7151
Vwould
p7152
atp7153
Rp7154
(dp7155
g17
VMD
p7156
sbag5
(g6
g7
(lp7157
g5
(g6
g7
(lp7158
Vhave
p7159
atp7160
Rp7161
(dp7162
g17
VVB
p7163
sbag5
(g6
g7
(lp7164
g5
(g6
g7
(lp7165
Vsentences
p7166
atp7167
Rp7168
(dp7169
g17
VNNS
p7170
sbatp7171
Rp7172
(dp7173
g17
VNP
p7174
sbag5
(g6
g7
(lp7175
g5
(g6
g7
(lp7176
Vlike
p7177
atp7178
Rp7179
(dp7180
g17
VIN
p7181
sbatp7182
Rp7183
(dp7184
g17
VPP
p7185
sbatp7186
Rp7187
(dp7188
g17
VVP
p7189
sbatp7190
Rp7191
(dp7192
g17
VVP
p7193
sbag5
(g6
g7
(lp7194
g337
atp7195
Rp7196
(dp7197
g17
g337
sbatp7198
Rp7199
(dp7200
g17
g181
sbatp7201
Rp7202
(dp7203
g17
VROOT
p7204
sbasg348
(icmyPackage
CorE
p7205
(dp7206
g351
(lp7207
(I1
I1
tp7208
a(I1
I9
tp7209
asg355
g5
(g6
g7
(lp7210
g7132
ag7147
ag7191
ag7196
atp7211
Rp7212
(dp7213
g17
g366
sbsbsg356
(icmyPackage
CorE
p7214
(dp7215
g351
(lp7216
(I0
I0
tp7217
a(I0
I24
tp7218
asg355
g7101
sbsg367
g5398
sg390
(lp7219
(icmyPackage
Sent
p7220
(dp7221
g394
I2
sg395
I44
sg396
S'In the simpler theory T1, there is a list of names of mountains paired with lists of climbing expeditions or names of climbers.'
p7222
sg398
I2
sg399
I131
sg355
(lp7223
g7101
asba(icmyPackage
Sent
p7224
(dp7225
g394
I2
sg395
I44
sg396
S'As a logical theory it would have sentences like.'
p7226
sg398
I2
sg399
I132
sg355
(lp7227
g7202
asbasba(icmyPackage
CELink
p7228
(dp7229
g3
(lp7230
g5
(g6
g7
(lp7231
g5
(g6
g7
(lp7232
g5
(g6
g7
(lp7233
g5
(g6
g7
(lp7234
g5
(g6
g7
(lp7235
VIt
p7236
atp7237
Rp7238
(dp7239
g17
VPRP
p7240
sbatp7241
Rp7242
(dp7243
g17
VNP
p7244
sbag5
(g6
g7
(lp7245
g5
(g6
g7
(lp7246
Vmakes
p7247
atp7248
Rp7249
(dp7250
g17
VVBZ
p7251
sbag5
(g6
g7
(lp7252
g5
(g6
g7
(lp7253
Vthe
p7254
atp7255
Rp7256
(dp7257
g17
VDT
p7258
sbag5
(g6
g7
(lp7259
Videas
p7260
atp7261
Rp7262
(dp7263
g17
VNNS
p7264
sbag5
(g6
g7
(lp7265
Vneater
p7266
atp7267
Rp7268
(dp7269
g17
VNN
p7270
sbatp7271
Rp7272
(dp7273
g17
VNP
p7274
sbag5
(g6
g7
(lp7275
g5
(g6
g7
(lp7276
Vif
p7277
atp7278
Rp7279
(dp7280
g17
VIN
p7281
sbag5
(g6
g7
(lp7282
g5
(g6
g7
(lp7283
g5
(g6
g7
(lp7284
Vwe
p7285
atp7286
Rp7287
(dp7288
g17
VPRP
p7289
sbatp7290
Rp7291
(dp7292
g17
VNP
p7293
sbag5
(g6
g7
(lp7294
g5
(g6
g7
(lp7295
Vimagine
p7296
atp7297
Rp7298
(dp7299
g17
VVBP
p7300
sbag5
(g6
g7
(lp7301
g5
(g6
g7
(lp7302
Vthat
p7303
atp7304
Rp7305
(dp7306
g17
VIN
p7307
sbag5
(g6
g7
(lp7308
g5
(g6
g7
(lp7309
g5
(g6
g7
(lp7310
Vthere
p7311
atp7312
Rp7313
(dp7314
g17
VEX
p7315
sbatp7316
Rp7317
(dp7318
g17
VNP
p7319
sbag5
(g6
g7
(lp7320
g5
(g6
g7
(lp7321
Vare
p7322
atp7323
Rp7324
(dp7325
g17
VVBP
p7326
sbag5
(g6
g7
(lp7327
g5
(g6
g7
(lp7328
g5
(g6
g7
(lp7329
g5
(g6
g7
(lp7330
Vtrue
p7331
atp7332
Rp7333
(dp7334
g17
VJJ
p7335
sbag5
(g6
g7
(lp7336
Vand
p7337
atp7338
Rp7339
(dp7340
g17
VCC
p7341
sbag5
(g6
g7
(lp7342
Vcomplete
p7343
atp7344
Rp7345
(dp7346
g17
VJJ
p7347
sbatp7348
Rp7349
(dp7350
g17
VADJP
p7351
sbag5
(g6
g7
(lp7352
Vtheories
p7353
atp7354
Rp7355
(dp7356
g17
VNNS
p7357
sbatp7358
Rp7359
(dp7360
g17
VNP
p7361
sbag5
(g6
g7
(lp7362
g5
(g6
g7
(lp7363
Vof
p7364
atp7365
Rp7366
(dp7367
g17
VIN
p7368
sbag5
(g6
g7
(lp7369
g5
(g6
g7
(lp7370
Vthe
p7371
atp7372
Rp7373
(dp7374
g17
VDT
p7375
sbag5
(g6
g7
(lp7376
Vworld
p7377
atp7378
Rp7379
(dp7380
g17
VNN
p7381
sbatp7382
Rp7383
(dp7384
g17
VNP
p7385
sbatp7386
Rp7387
(dp7388
g17
VPP
p7389
sbatp7390
Rp7391
(dp7392
g17
VNP
p7393
sbag5
(g6
g7
(lp7394
g5
(g6
g7
(lp7395
Veven
p7396
atp7397
Rp7398
(dp7399
g17
VRB
p7400
sbag5
(g6
g7
(lp7401
Vif
p7402
atp7403
Rp7404
(dp7405
g17
VIN
p7406
sbag5
(g6
g7
(lp7407
g5
(g6
g7
(lp7408
g5
(g6
g7
(lp7409
Vthey
p7410
atp7411
Rp7412
(dp7413
g17
VPRP
p7414
sbatp7415
Rp7416
(dp7417
g17
VNP
p7418
sbag5
(g6
g7
(lp7419
g5
(g6
g7
(lp7420
V're
p7421
atp7422
Rp7423
(dp7424
g17
VVBP
p7425
sbag5
(g6
g7
(lp7426
Vnot
p7427
atp7428
Rp7429
(dp7430
g17
VRB
p7431
sbag5
(g6
g7
(lp7432
g5
(g6
g7
(lp7433
Vfinitely
p7434
atp7435
Rp7436
(dp7437
g17
VRB
p7438
sbag5
(g6
g7
(lp7439
Vexpressible
p7440
atp7441
Rp7442
(dp7443
g17
VJJ
p7444
sbatp7445
Rp7446
(dp7447
g17
VADJP
p7448
sbatp7449
Rp7450
(dp7451
g17
VVP
p7452
sbatp7453
Rp7454
(dp7455
g17
g181
sbatp7456
Rp7457
(dp7458
g17
VSBAR
p7459
sbatp7460
Rp7461
(dp7462
g17
VVP
p7463
sbatp7464
Rp7465
(dp7466
g17
g181
sbatp7467
Rp7468
(dp7469
g17
VSBAR
p7470
sbatp7471
Rp7472
(dp7473
g17
VVP
p7474
sbatp7475
Rp7476
(dp7477
g17
g181
sbatp7478
Rp7479
(dp7480
g17
VSBAR
p7481
sbatp7482
Rp7483
(dp7484
g17
VVP
p7485
sbatp7486
Rp7487
(dp7488
g17
g181
sbag5
(g6
g7
(lp7489
Vand
p7490
atp7491
Rp7492
(dp7493
g17
VCC
p7494
sbag5
(g6
g7
(lp7495
g5
(g6
g7
(lp7496
g5
(g6
g7
(lp7497
g5
(g6
g7
(lp7498
Vnone
p7499
atp7500
Rp7501
(dp7502
g17
VNN
p7503
sbatp7504
Rp7505
(dp7506
g17
VNP
p7507
sbag5
(g6
g7
(lp7508
g5
(g6
g7
(lp7509
Vof
p7510
atp7511
Rp7512
(dp7513
g17
VIN
p7514
sbag5
(g6
g7
(lp7515
g5
(g6
g7
(lp7516
g5
(g6
g7
(lp7517
Vthe
p7518
atp7519
Rp7520
(dp7521
g17
VDT
p7522
sbag5
(g6
g7
(lp7523
Vlanguage
p7524
atp7525
Rp7526
(dp7527
g17
VNN
p7528
sbatp7529
Rp7530
(dp7531
g17
VNP
p7532
sbag5
(g6
g7
(lp7533
g5
(g6
g7
(lp7534
Vof
p7535
atp7536
Rp7537
(dp7538
g17
VIN
p7539
sbag5
(g6
g7
(lp7540
g5
(g6
g7
(lp7541
g5
(g6
g7
(lp7542
Vany
p7543
atp7544
Rp7545
(dp7546
g17
VDT
p7547
sbatp7548
Rp7549
(dp7550
g17
VNP
p7551
sbag5
(g6
g7
(lp7552
g5
(g6
g7
(lp7553
Vof
p7554
atp7555
Rp7556
(dp7557
g17
VIN
p7558
sbag5
(g6
g7
(lp7559
g5
(g6
g7
(lp7560
Vthem
p7561
atp7562
Rp7563
(dp7564
g17
VPRP
p7565
sbatp7566
Rp7567
(dp7568
g17
VNP
p7569
sbatp7570
Rp7571
(dp7572
g17
VPP
p7573
sbatp7574
Rp7575
(dp7576
g17
VNP
p7577
sbatp7578
Rp7579
(dp7580
g17
VPP
p7581
sbatp7582
Rp7583
(dp7584
g17
VNP
p7585
sbatp7586
Rp7587
(dp7588
g17
VPP
p7589
sbatp7590
Rp7591
(dp7592
g17
VNP
p7593
sbag5
(g6
g7
(lp7594
g5
(g6
g7
(lp7595
Vis
p7596
atp7597
Rp7598
(dp7599
g17
VVBZ
p7600
sbag5
(g6
g7
(lp7601
g5
(g6
g7
(lp7602
Vknown
p7603
atp7604
Rp7605
(dp7606
g17
VVBN
p7607
sbatp7608
Rp7609
(dp7610
g17
VVP
p7611
sbatp7612
Rp7613
(dp7614
g17
VVP
p7615
sbatp7616
Rp7617
(dp7618
g17
g181
sbag5
(g6
g7
(lp7619
g337
atp7620
Rp7621
(dp7622
g17
g337
sbatp7623
Rp7624
(dp7625
g17
g181
sbatp7626
Rp7627
(dp7628
g17
VROOT
p7629
sbasg348
(icmyPackage
CorE
p7630
(dp7631
g351
(lp7632
(I0
I6
tp7633
a(I0
I35
tp7634
asg355
g5
(g6
g7
(lp7635
g7476
ag7492
ag7617
atp7636
Rp7637
(dp7638
g17
g366
sbsbsg356
(icmyPackage
CorE
p7639
(dp7640
g351
(lp7641
(I0
I0
tp7642
a(I0
I4
tp7643
asg355
g5
(g6
g7
(lp7644
g7242
ag7249
ag7272
atp7645
Rp7646
(dp7647
g17
g366
sbsbsg367
g783
sg390
(lp7648
(icmyPackage
Sent
p7649
(dp7650
g394
I2
sg395
I49
sg396
S"It makes the ideas neater if we imagine that there are true and complete theories of the world even if they're not finitely expressible and none of the language of any of them is known."
p7651
sg398
I2
sg399
I143
sg355
(lp7652
g7627
asbasba(icmyPackage
CELink
p7653
(dp7654
g3
(lp7655
g7637
asg348
(icmyPackage
CorE
p7656
(dp7657
g351
(lp7658
(I0
I14
tp7659
a(I0
I29
tp7660
asg355
g5
(g6
g7
(lp7661
g7454
ag7492
ag7617
atp7662
Rp7663
(dp7664
g17
g366
sbsbsg356
(icmyPackage
CorE
p7665
(dp7666
g351
(lp7667
(I0
I0
tp7668
a(I0
I12
tp7669
asg355
g5
(g6
g7
(lp7670
g7291
ag7298
ag7305
ag7317
ag7324
ag7391
ag7398
atp7671
Rp7672
(dp7673
g17
g366
sbsbsg367
g783
sg390
(lp7674
g7649
asba(icmyPackage
CELink
p7675
(dp7676
g3
(lp7677
g5
(g6
g7
(lp7678
g5
(g6
g7
(lp7679
g5
(g6
g7
(lp7680
g5
(g6
g7
(lp7681
VIf
p7682
atp7683
Rp7684
(dp7685
g17
VIN
p7686
sbag5
(g6
g7
(lp7687
g5
(g6
g7
(lp7688
g5
(g6
g7
(lp7689
Vthis
p7690
atp7691
Rp7692
(dp7693
g17
VDT
p7694
sbatp7695
Rp7696
(dp7697
g17
VNP
p7698
sbag5
(g6
g7
(lp7699
g5
(g6
g7
(lp7700
Vis
p7701
atp7702
Rp7703
(dp7704
g17
VVBZ
p7705
sbag5
(g6
g7
(lp7706
g5
(g6
g7
(lp7707
Vtoo
p7708
atp7709
Rp7710
(dp7711
g17
VRB
p7712
sbag5
(g6
g7
(lp7713
Vplatonic
p7714
atp7715
Rp7716
(dp7717
g17
VJJ
p7718
sbag5
(g6
g7
(lp7719
g5
(g6
g7
(lp7720
Vfor
p7721
atp7722
Rp7723
(dp7724
g17
VIN
p7725
sbag5
(g6
g7
(lp7726
g5
(g6
g7
(lp7727
Vyour
p7728
atp7729
Rp7730
(dp7731
g17
VPRP$
p7732
sbag5
(g6
g7
(lp7733
Vtaste
p7734
atp7735
Rp7736
(dp7737
g17
VNN
p7738
sbatp7739
Rp7740
(dp7741
g17
VNP
p7742
sbatp7743
Rp7744
(dp7745
g17
VPP
p7746
sbatp7747
Rp7748
(dp7749
g17
VADJP
p7750
sbatp7751
Rp7752
(dp7753
g17
VVP
p7754
sbatp7755
Rp7756
(dp7757
g17
g181
sbatp7758
Rp7759
(dp7760
g17
VSBAR
p7761
sbag5
(g6
g7
(lp7762
g213
atp7763
Rp7764
(dp7765
g17
g213
sbag5
(g6
g7
(lp7766
g5
(g6
g7
(lp7767
Vyou
p7768
atp7769
Rp7770
(dp7771
g17
VPRP
p7772
sbatp7773
Rp7774
(dp7775
g17
VNP
p7776
sbag5
(g6
g7
(lp7777
g5
(g6
g7
(lp7778
Vcan
p7779
atp7780
Rp7781
(dp7782
g17
VMD
p7783
sbag5
(g6
g7
(lp7784
g5
(g6
g7
(lp7785
Vregard
p7786
atp7787
Rp7788
(dp7789
g17
VVB
p7790
sbag5
(g6
g7
(lp7791
g5
(g6
g7
(lp7792
g5
(g6
g7
(lp7793
Vapproximating
p7794
atp7795
Rp7796
(dp7797
g17
VVBG
p7798
sbag5
(g6
g7
(lp7799
g5
(g6
g7
(lp7800
g5
(g6
g7
(lp7801
Vthe
p7802
atp7803
Rp7804
(dp7805
g17
VDT
p7806
sbag5
(g6
g7
(lp7807
Vworld
p7808
atp7809
Rp7810
(dp7811
g17
VNN
p7812
sbatp7813
Rp7814
(dp7815
g17
VNP
p7816
sbag5
(g6
g7
(lp7817
g5
(g6
g7
(lp7818
Vas
p7819
atp7820
Rp7821
(dp7822
g17
VIN
p7823
sbag5
(g6
g7
(lp7824
g5
(g6
g7
(lp7825
g659
atp7826
Rp7827
(dp7828
g17
VDT
p7829
sbag5
(g6
g7
(lp7830
Vdifferent
p7831
atp7832
Rp7833
(dp7834
g17
VJJ
p7835
sbag5
(g6
g7
(lp7836
Vnotion
p7837
atp7838
Rp7839
(dp7840
g17
VNN
p7841
sbatp7842
Rp7843
(dp7844
g17
VNP
p7845
sbatp7846
Rp7847
(dp7848
g17
VPP
p7849
sbatp7850
Rp7851
(dp7852
g17
VNP
p7853
sbag5
(g6
g7
(lp7854
g5
(g6
g7
(lp7855
Vthan
p7856
atp7857
Rp7858
(dp7859
g17
VIN
p7860
sbag5
(g6
g7
(lp7861
g5
(g6
g7
(lp7862
g5
(g6
g7
(lp7863
Vthat
p7864
atp7865
Rp7866
(dp7867
g17
VDT
p7868
sbatp7869
Rp7870
(dp7871
g17
VNP
p7872
sbag5
(g6
g7
(lp7873
g5
(g6
g7
(lp7874
Vof
p7875
atp7876
Rp7877
(dp7878
g17
VIN
p7879
sbag5
(g6
g7
(lp7880
g5
(g6
g7
(lp7881
g5
(g6
g7
(lp7882
Vone
p7883
atp7884
Rp7885
(dp7886
g17
VCD
p7887
sbag5
(g6
g7
(lp7888
Vtheory
p7889
atp7890
Rp7891
(dp7892
g17
VNN
p7893
sbatp7894
Rp7895
(dp7896
g17
VNP
p7897
sbag5
(g6
g7
(lp7898
g5
(g6
g7
(lp7899
Vapproximating
p7900
atp7901
Rp7902
(dp7903
g17
VVBG
p7904
sbag5
(g6
g7
(lp7905
g5
(g6
g7
(lp7906
Vanother
p7907
atp7908
Rp7909
(dp7910
g17
VDT
p7911
sbatp7912
Rp7913
(dp7914
g17
VNP
p7915
sbatp7916
Rp7917
(dp7918
g17
VVP
p7919
sbatp7920
Rp7921
(dp7922
g17
VNP
p7923
sbatp7924
Rp7925
(dp7926
g17
VPP
p7927
sbatp7928
Rp7929
(dp7930
g17
VNP
p7931
sbatp7932
Rp7933
(dp7934
g17
VPP
p7935
sbatp7936
Rp7937
(dp7938
g17
VVP
p7939
sbatp7940
Rp7941
(dp7942
g17
g181
sbatp7943
Rp7944
(dp7945
g17
VVP
p7946
sbatp7947
Rp7948
(dp7949
g17
VVP
p7950
sbag5
(g6
g7
(lp7951
g337
atp7952
Rp7953
(dp7954
g17
g337
sbatp7955
Rp7956
(dp7957
g17
g181
sbatp7958
Rp7959
(dp7960
g17
VROOT
p7961
sbasg348
(icmyPackage
CorE
p7962
(dp7963
g351
(lp7964
(I0
I1
tp7965
a(I0
I7
tp7966
asg355
g7756
sbsg356
(icmyPackage
CorE
p7967
(dp7968
g351
(lp7969
(I0
I9
tp7970
a(I0
I26
tp7971
asg355
g5
(g6
g7
(lp7972
g7774
ag7948
ag7953
atp7973
Rp7974
(dp7975
g17
g366
sbsbsg367
g6532
sg390
(lp7976
(icmyPackage
Sent
p7977
(dp7978
g394
I2
sg395
I49
sg396
S'If this is too platonic for your taste, you can regard approximating the world as a different notion than that of one theory approximating another.'
p7979
sg398
I2
sg399
I145
sg355
(lp7980
g7959
asbasba(icmyPackage
CELink
p7981
(dp7982
g3
(lp7983
g5
(g6
g7
(lp7984
g5
(g6
g7
(lp7985
g5
(g6
g7
(lp7986
g5
(g6
g7
(lp7987
g5
(g6
g7
(lp7988
VOne
p7989
atp7990
Rp7991
(dp7992
g17
VCD
p7993
sbag5
(g6
g7
(lp7994
Vsuch
p7995
atp7996
Rp7997
(dp7998
g17
VJJ
p7999
sbag5
(g6
g7
(lp8000
Vtheory
p8001
atp8002
Rp8003
(dp8004
g17
VNN
p8005
sbatp8006
Rp8007
(dp8008
g17
VNP
p8009
sbag5
(g6
g7
(lp8010
g5
(g6
g7
(lp8011
g5
(g6
g7
(lp8012
Vthat
p8013
atp8014
Rp8015
(dp8016
g17
VWDT
p8017
sbatp8018
Rp8019
(dp8020
g17
VWHNP
p8021
sbag5
(g6
g7
(lp8022
g5
(g6
g7
(lp8023
g5
(g6
g7
(lp8024
Vlists
p8025
atp8026
Rp8027
(dp8028
g17
VVBZ
p8029
sbag5
(g6
g7
(lp8030
g5
(g6
g7
(lp8031
Vnames
p8032
atp8033
Rp8034
(dp8035
g17
VNNS
p8036
sbatp8037
Rp8038
(dp8039
g17
VNP
p8040
sbatp8041
Rp8042
(dp8043
g17
VVP
p8044
sbatp8045
Rp8046
(dp8047
g17
g181
sbatp8048
Rp8049
(dp8050
g17
VSBAR
p8051
sbatp8052
Rp8053
(dp8054
g17
VNP
p8055
sbag5
(g6
g7
(lp8056
g5
(g6
g7
(lp8057
Vof
p8058
atp8059
Rp8060
(dp8061
g17
VIN
p8062
sbag5
(g6
g7
(lp8063
g5
(g6
g7
(lp8064
g5
(g6
g7
(lp8065
Vmountains
p8066
atp8067
Rp8068
(dp8069
g17
VNNS
p8070
sbatp8071
Rp8072
(dp8073
g17
VNP
p8074
sbag5
(g6
g7
(lp8075
Vand
p8076
atp8077
Rp8078
(dp8079
g17
VCC
p8080
sbag5
(g6
g7
(lp8081
g5
(g6
g7
(lp8082
g5
(g6
g7
(lp8083
Vthe
p8084
atp8085
Rp8086
(dp8087
g17
VDT
p8088
sbag5
(g6
g7
(lp8089
Vcontinents
p8090
atp8091
Rp8092
(dp8093
g17
VNN
p8094
sbatp8095
Rp8096
(dp8097
g17
VNP
p8098
sbag5
(g6
g7
(lp8099
g5
(g6
g7
(lp8100
Vcontaining
p8101
atp8102
Rp8103
(dp8104
g17
VVBG
p8105
sbag5
(g6
g7
(lp8106
g5
(g6
g7
(lp8107
Vthem
p8108
atp8109
Rp8110
(dp8111
g17
VPRP
p8112
sbatp8113
Rp8114
(dp8115
g17
VNP
p8116
sbatp8117
Rp8118
(dp8119
g17
VVP
p8120
sbatp8121
Rp8122
(dp8123
g17
VNP
p8124
sbatp8125
Rp8126
(dp8127
g17
VNP
p8128
sbatp8129
Rp8130
(dp8131
g17
VPP
p8132
sbag5
(g6
g7
(lp8133
g337
atp8134
Rp8135
(dp8136
g17
g337
sbatp8137
Rp8138
(dp8139
g17
VNP
p8140
sbatp8141
Rp8142
(dp8143
g17
VROOT
p8144
sbag5
(g6
g7
(lp8145
g5
(g6
g7
(lp8146
g5
(g6
g7
(lp8147
g5
(g6
g7
(lp8148
VThus
p8149
atp8150
Rp8151
(dp8152
g17
VRB
p8153
sbatp8154
Rp8155
(dp8156
g17
VADVP
p8157
sbag5
(g6
g7
(lp8158
g5
(g6
g7
(lp8159
Vwe
p8160
atp8161
Rp8162
(dp8163
g17
VPRP
p8164
sbatp8165
Rp8166
(dp8167
g17
VNP
p8168
sbag5
(g6
g7
(lp8169
g5
(g6
g7
(lp8170
Vhave
p8171
atp8172
Rp8173
(dp8174
g17
VVBP
p8175
sbag5
(g6
g7
(lp8176
g5
(g6
g7
(lp8177
g5
(g6
g7
(lp8178
VIn
p8179
atp8180
Rp8181
(dp8182
g17
VIN
p8183
sbag5
(g6
g7
(lp8184
g5
(g6
g7
(lp8185
V-LRB-
p8186
atp8187
Rp8188
(dp8189
g17
V-LRB-
p8190
sbag5
(g6
g7
(lp8191
g5
(g6
g7
(lp8192
VAnnapurna
p8193
atp8194
Rp8195
(dp8196
g17
VNNP
p8197
sbatp8198
Rp8199
(dp8200
g17
VNP
p8201
sbag5
(g6
g7
(lp8202
g213
atp8203
Rp8204
(dp8205
g17
g213
sbag5
(g6
g7
(lp8206
g5
(g6
g7
(lp8207
VAsia
p8208
atp8209
Rp8210
(dp8211
g17
VNNP
p8212
sbatp8213
Rp8214
(dp8215
g17
VNP
p8216
sbag5
(g6
g7
(lp8217
V-RRB-
p8218
atp8219
Rp8220
(dp8221
g17
V-RRB-
p8222
sbatp8223
Rp8224
(dp8225
g17
VPRN
p8226
sbatp8227
Rp8228
(dp8229
g17
VPP
p8230
sbatp8231
Rp8232
(dp8233
g17
g181
sbatp8234
Rp8235
(dp8236
g17
VVP
p8237
sbag5
(g6
g7
(lp8238
g337
atp8239
Rp8240
(dp8241
g17
g337
sbatp8242
Rp8243
(dp8244
g17
g181
sbatp8245
Rp8246
(dp8247
g17
VROOT
p8248
sbasg348
(icmyPackage
CorE
p8249
(dp8250
g351
(lp8251
(I0
I4
tp8252
a(I0
I12
tp8253
asg355
g5
(g6
g7
(lp8254
g8046
ag8130
atp8255
Rp8256
(dp8257
g17
g366
sbsbsg356
(icmyPackage
CorE
p8258
(dp8259
g351
(lp8260
(I1
I1
tp8261
a(I1
I9
tp8262
asg355
g5
(g6
g7
(lp8263
g8166
ag8235
ag8240
atp8264
Rp8265
(dp8266
g17
g366
sbsbsg367
g3933
sg390
(lp8267
(icmyPackage
Sent
p8268
(dp8269
g394
I2
sg395
I51
sg396
S'One such theory that lists names of mountains and the continents containing them.'
p8270
sg398
I2
sg399
I147
sg355
(lp8271
g8142
asba(icmyPackage
Sent
p8272
(dp8273
g394
I2
sg395
I51
sg396
S'Thus we have In(Annapurna,Asia).'
p8274
sg398
I2
sg399
I148
sg355
(lp8275
g8246
asbasba(icmyPackage
CELink
p8276
(dp8277
g3
(lp8278
g5
(g6
g7
(lp8279
g5
(g6
g7
(lp8280
g5
(g6
g7
(lp8281
g5
(g6
g7
(lp8282
g5
(g6
g7
(lp8283
VSomeone
p8284
atp8285
Rp8286
(dp8287
g17
VNN
p8288
sbatp8289
Rp8290
(dp8291
g17
VNP
p8292
sbag5
(g6
g7
(lp8293
g5
(g6
g7
(lp8294
Vwith
p8295
atp8296
Rp8297
(dp8298
g17
VIN
p8299
sbag5
(g6
g7
(lp8300
g5
(g6
g7
(lp8301
g5
(g6
g7
(lp8302
g659
atp8303
Rp8304
(dp8305
g17
VDT
p8306
sbag5
(g6
g7
(lp8307
g5
(g6
g7
(lp8308
Vsufficiently
p8309
atp8310
Rp8311
(dp8312
g17
VRB
p8313
sbag5
(g6
g7
(lp8314
Vdetailed
p8315
atp8316
Rp8317
(dp8318
g17
VVBN
p8319
sbatp8320
Rp8321
(dp8322
g17
VADJP
p8323
sbag5
(g6
g7
(lp8324
Vknowledge
p8325
atp8326
Rp8327
(dp8328
g17
VNN
p8329
sbatp8330
Rp8331
(dp8332
g17
VNP
p8333
sbag5
(g6
g7
(lp8334
g5
(g6
g7
(lp8335
Vof
p8336
atp8337
Rp8338
(dp8339
g17
VIN
p8340
sbag5
(g6
g7
(lp8341
g5
(g6
g7
(lp8342
g5
(g6
g7
(lp8343
Vevents
p8344
atp8345
Rp8346
(dp8347
g17
VNNS
p8348
sbatp8349
Rp8350
(dp8351
g17
VNP
p8352
sbag5
(g6
g7
(lp8353
g5
(g6
g7
(lp8354
Vin
p8355
atp8356
Rp8357
(dp8358
g17
VIN
p8359
sbag5
(g6
g7
(lp8360
g5
(g6
g7
(lp8361
Vthe
p8362
atp8363
Rp8364
(dp8365
g17
VDT
p8366
sbag5
(g6
g7
(lp8367
g5
(g6
g7
(lp8368
g5
(g6
g7
(lp8369
VMiddle
p8370
atp8371
Rp8372
(dp8373
g17
VNNP
p8374
sbag5
(g6
g7
(lp8375
VEast
p8376
atp8377
Rp8378
(dp8379
g17
VNNP
p8380
sbatp8381
Rp8382
(dp8383
g17
VADJP
p8384
sbag5
(g6
g7
(lp8385
Vand
p8386
atp8387
Rp8388
(dp8389
g17
VCC
p8390
sbag5
(g6
g7
(lp8391
g5
(g6
g7
(lp8392
Vof
p8393
atp8394
Rp8395
(dp8396
g17
VIN
p8397
sbag5
(g6
g7
(lp8398
g5
(g6
g7
(lp8399
Vthe
p8400
atp8401
Rp8402
(dp8403
g17
VDT
p8404
sbag5
(g6
g7
(lp8405
VAmerican
p8406
atp8407
Rp8408
(dp8409
g17
VJJ
p8410
sbag5
(g6
g7
(lp8411
Vdecision
p8412
atp8413
Rp8414
(dp8415
g17
VNN
p8416
sbag5
(g6
g7
(lp8417
Vmaking
p8418
atp8419
Rp8420
(dp8421
g17
VNN
p8422
sbatp8423
Rp8424
(dp8425
g17
VNP
p8426
sbatp8427
Rp8428
(dp8429
g17
VPP
p8430
sbatp8431
Rp8432
(dp8433
g17
VUCP
p8434
sbag5
(g6
g7
(lp8435
Vcommunity
p8436
atp8437
Rp8438
(dp8439
g17
VNN
p8440
sbatp8441
Rp8442
(dp8443
g17
VNP
p8444
sbatp8445
Rp8446
(dp8447
g17
VPP
p8448
sbatp8449
Rp8450
(dp8451
g17
VNP
p8452
sbatp8453
Rp8454
(dp8455
g17
VPP
p8456
sbatp8457
Rp8458
(dp8459
g17
VNP
p8460
sbatp8461
Rp8462
(dp8463
g17
VPP
p8464
sbatp8465
Rp8466
(dp8467
g17
VNP
p8468
sbag5
(g6
g7
(lp8469
g5
(g6
g7
(lp8470
Vmight
p8471
atp8472
Rp8473
(dp8474
g17
VMD
p8475
sbag5
(g6
g7
(lp8476
Vnot
p8477
atp8478
Rp8479
(dp8480
g17
VRB
p8481
sbag5
(g6
g7
(lp8482
g5
(g6
g7
(lp8483
Vneed
p8484
atp8485
Rp8486
(dp8487
g17
VVB
p8488
sbag5
(g6
g7
(lp8489
g5
(g6
g7
(lp8490
V``
p8491
atp8492
Rp8493
(dp8494
g17
V``
p8495
sbag5
(g6
g7
(lp8496
g5
(g6
g7
(lp8497
VThe
p8498
atp8499
Rp8500
(dp8501
g17
VDT
p8502
sbag5
(g6
g7
(lp8503
VUS
p8504
atp8505
Rp8506
(dp8507
g17
VNNP
p8508
sbatp8509
Rp8510
(dp8511
g17
VNP
p8512
sbag5
(g6
g7
(lp8513
g5
(g6
g7
(lp8514
Vwants
p8515
atp8516
Rp8517
(dp8518
g17
VVBZ
p8519
sbatp8520
Rp8521
(dp8522
g17
VVP
p8523
sbatp8524
Rp8525
(dp8526
g17
g181
sbatp8527
Rp8528
(dp8529
g17
VVP
p8530
sbatp8531
Rp8532
(dp8533
g17
VVP
p8534
sbag5
(g6
g7
(lp8535
V...
p8536
atp8537
Rp8538
(dp8539
g17
g2347
sbatp8540
Rp8541
(dp8542
g17
g181
sbatp8543
Rp8544
(dp8545
g17
VROOT
p8546
sbag5
(g6
g7
(lp8547
g5
(g6
g7
(lp8548
g5
(g6
g7
(lp8549
g5
(g6
g7
(lp8550
g5
(g6
g7
(lp8551
g213
atp8552
Rp8553
(dp8554
g17
g213
sbag5
(g6
g7
(lp8555
g5
(g6
g7
(lp8556
Vbecause
p8557
atp8558
Rp8559
(dp8560
g17
VIN
p8561
sbag5
(g6
g7
(lp8562
g5
(g6
g7
(lp8563
Vhe
p8564
atp8565
Rp8566
(dp8567
g17
VPRP
p8568
sbatp8569
Rp8570
(dp8571
g17
VNP
p8572
sbatp8573
Rp8574
(dp8575
g17
VPP
p8576
sbatp8577
Rp8578
(dp8579
g17
VPRN
p8580
sbatp8581
Rp8582
(dp8583
g17
VNP
p8584
sbag5
(g6
g7
(lp8585
g5
(g6
g7
(lp8586
Vcould
p8587
atp8588
Rp8589
(dp8590
g17
VMD
p8591
sbag5
(g6
g7
(lp8592
g5
(g6
g7
(lp8593
Vwork
p8594
atp8595
Rp8596
(dp8597
g17
VVB
p8598
sbag5
(g6
g7
(lp8599
g5
(g6
g7
(lp8600
Vdirectly
p8601
atp8602
Rp8603
(dp8604
g17
VRB
p8605
sbatp8606
Rp8607
(dp8608
g17
VADVP
p8609
sbag5
(g6
g7
(lp8610
g5
(g6
g7
(lp8611
Vwith
p8612
atp8613
Rp8614
(dp8615
g17
VIN
p8616
sbag5
(g6
g7
(lp8617
g5
(g6
g7
(lp8618
g5
(g6
g7
(lp8619
Vthe
p8620
atp8621
Rp8622
(dp8623
g17
VDT
p8624
sbag5
(g6
g7
(lp8625
Vvarious
p8626
atp8627
Rp8628
(dp8629
g17
VJJ
p8630
sbag5
(g6
g7
(lp8631
Vdecision
p8632
atp8633
Rp8634
(dp8635
g17
VNN
p8636
sbag5
(g6
g7
(lp8637
Vmakers
p8638
atp8639
Rp8640
(dp8641
g17
VNNS
p8642
sbatp8643
Rp8644
(dp8645
g17
VNP
p8646
sbag5
(g6
g7
(lp8647
Vand
p8648
atp8649
Rp8650
(dp8651
g17
VCC
p8652
sbag5
(g6
g7
(lp8653
g5
(g6
g7
(lp8654
g5
(g6
g7
(lp8655
Vthe
p8656
atp8657
Rp8658
(dp8659
g17
VDT
p8660
sbag5
(g6
g7
(lp8661
Vmotivations
p8662
atp8663
Rp8664
(dp8665
g17
VNNS
p8666
sbag5
(g6
g7
(lp8667
Vand
p8668
atp8669
Rp8670
(dp8671
g17
VCC
p8672
sbag5
(g6
g7
(lp8673
Veffects
p8674
atp8675
Rp8676
(dp8677
g17
VNNS
p8678
sbatp8679
Rp8680
(dp8681
g17
VNP
p8682
sbag5
(g6
g7
(lp8683
g5
(g6
g7
(lp8684
Vof
p8685
atp8686
Rp8687
(dp8688
g17
VIN
p8689
sbag5
(g6
g7
(lp8690
g5
(g6
g7
(lp8691
Vtheir
p8692
atp8693
Rp8694
(dp8695
g17
VPRP$
p8696
sbag5
(g6
g7
(lp8697
Vactions
p8698
atp8699
Rp8700
(dp8701
g17
VNNS
p8702
sbatp8703
Rp8704
(dp8705
g17
VNP
p8706
sbatp8707
Rp8708
(dp8709
g17
VPP
p8710
sbatp8711
Rp8712
(dp8713
g17
VNP
p8714
sbatp8715
Rp8716
(dp8717
g17
VNP
p8718
sbatp8719
Rp8720
(dp8721
g17
VPP
p8722
sbatp8723
Rp8724
(dp8725
g17
VVP
p8726
sbatp8727
Rp8728
(dp8729
g17
VVP
p8730
sbag5
(g6
g7
(lp8731
g337
atp8732
Rp8733
(dp8734
g17
g337
sbatp8735
Rp8736
(dp8737
g17
g181
sbatp8738
Rp8739
(dp8740
g17
VROOT
p8741
sbasg348
(icmyPackage
CorE
p8742
(dp8743
g351
(lp8744
(I1
I2
tp8745
a(I1
I19
tp8746
asg355
g5
(g6
g7
(lp8747
g8570
ag8728
ag8733
atp8748
Rp8749
(dp8750
g17
g366
sbsbsg356
(icmyPackage
CorE
p8751
(dp8752
g351
(lp8753
(I0
I0
tp8754
a(I0
I26
tp8755
asg355
g8544
sbsg367
g1529
sg390
(lp8756
(icmyPackage
Sent
p8757
(dp8758
g394
I2
sg395
I63
sg396
S'Someone with a sufficiently detailed knowledge of events in the Middle East and of the American decision making community might not need "The US wants ...'
p8759
sg398
I3
sg399
I172
sg355
(lp8760
g8544
asba(icmyPackage
Sent
p8761
(dp8762
g394
I2
sg395
I63
sg396
S', because he could work directly with the various decision makers and the motivations and effects of their actions.'
p8763
sg398
I3
sg399
I173
sg355
(lp8764
g8739
asbasba(icmyPackage
CELink
p8765
(dp8766
g3
(lp8767
g5
(g6
g7
(lp8768
g5
(g6
g7
(lp8769
g5
(g6
g7
(lp8770
g5
(g6
g7
(lp8771
VSimilar
p8772
atp8773
Rp8774
(dp8775
g17
VJJ
p8776
sbag5
(g6
g7
(lp8777
Vconsiderations
p8778
atp8779
Rp8780
(dp8781
g17
VNNS
p8782
sbatp8783
Rp8784
(dp8785
g17
VNP
p8786
sbag5
(g6
g7
(lp8787
g5
(g6
g7
(lp8788
Vwould
p8789
atp8790
Rp8791
(dp8792
g17
VMD
p8793
sbag5
(g6
g7
(lp8794
g5
(g6
g7
(lp8795
Vapply
p8796
atp8797
Rp8798
(dp8799
g17
VVB
p8800
sbag5
(g6
g7
(lp8801
g5
(g6
g7
(lp8802
Vif
p8803
atp8804
Rp8805
(dp8806
g17
VIN
p8807
sbag5
(g6
g7
(lp8808
g5
(g6
g7
(lp8809
g5
(g6
g7
(lp8810
Vwe
p8811
atp8812
Rp8813
(dp8814
g17
VPRP
p8815
sbatp8816
Rp8817
(dp8818
g17
VNP
p8819
sbag5
(g6
g7
(lp8820
g5
(g6
g7
(lp8821
Vwere
p8822
atp8823
Rp8824
(dp8825
g17
VVBD
p8826
sbag5
(g6
g7
(lp8827
g5
(g6
g7
(lp8828
Vrelating
p8829
atp8830
Rp8831
(dp8832
g17
VVBG
p8833
sbag5
(g6
g7
(lp8834
g5
(g6
g7
(lp8835
Vit
p8836
atp8837
Rp8838
(dp8839
g17
VPRP
p8840
sbatp8841
Rp8842
(dp8843
g17
VNP
p8844
sbag5
(g6
g7
(lp8845
g5
(g6
g7
(lp8846
Vto
p8847
atp8848
Rp8849
(dp8850
g17
VTO
p8851
sbag5
(g6
g7
(lp8852
g5
(g6
g7
(lp8853
g659
atp8854
Rp8855
(dp8856
g17
VDT
p8857
sbag5
(g6
g7
(lp8858
g5
(g6
g7
(lp8859
g5
(g6
g7
(lp8860
Vmore
p8861
atp8862
Rp8863
(dp8864
g17
VRBR
p8865
sbag5
(g6
g7
(lp8866
Vcomprehensive
p8867
atp8868
Rp8869
(dp8870
g17
VJJ
p8871
sbatp8872
Rp8873
(dp8874
g17
VADJP
p8875
sbag5
(g6
g7
(lp8876
Vbut
p8877
atp8878
Rp8879
(dp8880
g17
VCC
p8881
sbag5
(g6
g7
(lp8882
g5
(g6
g7
(lp8883
Vstill
p8884
atp8885
Rp8886
(dp8887
g17
VRB
p8888
sbatp8889
Rp8890
(dp8891
g17
VADVP
p8892
sbatp8893
Rp8894
(dp8895
g17
VUCP
p8896
sbag5
(g6
g7
(lp8897
Vapproximate
p8898
atp8899
Rp8900
(dp8901
g17
VJJ
p8902
sbag5
(g6
g7
(lp8903
Vtheory
p8904
atp8905
Rp8906
(dp8907
g17
VNN
p8908
sbatp8909
Rp8910
(dp8911
g17
VNP
p8912
sbatp8913
Rp8914
(dp8915
g17
VPP
p8916
sbatp8917
Rp8918
(dp8919
g17
VVP
p8920
sbatp8921
Rp8922
(dp8923
g17
VVP
p8924
sbatp8925
Rp8926
(dp8927
g17
g181
sbatp8928
Rp8929
(dp8930
g17
VSBAR
p8931
sbatp8932
Rp8933
(dp8934
g17
VVP
p8935
sbatp8936
Rp8937
(dp8938
g17
VVP
p8939
sbag5
(g6
g7
(lp8940
g337
atp8941
Rp8942
(dp8943
g17
g337
sbatp8944
Rp8945
(dp8946
g17
g181
sbatp8947
Rp8948
(dp8949
g17
VROOT
p8950
sbasg348
(icmyPackage
CorE
p8951
(dp8952
g351
(lp8953
(I0
I5
tp8954
a(I0
I17
tp8955
asg355
g5
(g6
g7
(lp8956
g8926
ag8942
atp8957
Rp8958
(dp8959
g17
g366
sbsbsg356
(icmyPackage
CorE
p8960
(dp8961
g351
(lp8962
(I0
I0
tp8963
a(I0
I3
tp8964
asg355
g5
(g6
g7
(lp8965
g8784
ag8791
ag8798
atp8966
Rp8967
(dp8968
g17
g366
sbsbsg367
g783
sg390
(lp8969
(icmyPackage
Sent
p8970
(dp8971
g394
I2
sg395
I66
sg396
S'Similar considerations would apply if we were relating it to a more comprehensive but still approximate theory.'
p8972
sg398
I4
sg399
I183
sg355
(lp8973
g8948
asbasba(icmyPackage
CELink
p8974
(dp8975
g3
(lp8976
g5
(g6
g7
(lp8977
g5
(g6
g7
(lp8978
g5
(g6
g7
(lp8979
g5
(g6
g7
(lp8980
VAccording
p8981
atp8982
Rp8983
(dp8984
g17
VVBG
p8985
sbag5
(g6
g7
(lp8986
g5
(g6
g7
(lp8987
Vto
p8988
atp8989
Rp8990
(dp8991
g17
VTO
p8992
sbag5
(g6
g7
(lp8993
g5
(g6
g7
(lp8994
g5
(g6
g7
(lp8995
Vthe
p8996
atp8997
Rp8998
(dp8999
g17
VDT
p9000
sbag5
(g6
g7
(lp9001
Vtheory
p9002
atp9003
Rp9004
(dp9005
g17
VNN
p9006
sbatp9007
Rp9008
(dp9009
g17
VNP
p9010
sbag5
(g6
g7
(lp9011
g5
(g6
g7
(lp9012
Vof
p9013
atp9014
Rp9015
(dp9016
g17
VIN
p9017
sbag5
(g6
g7
(lp9018
g5
(g6
g7
(lp9019
Vrelativity
p9020
atp9021
Rp9022
(dp9023
g17
VNN
p9024
sbatp9025
Rp9026
(dp9027
g17
VNP
p9028
sbatp9029
Rp9030
(dp9031
g17
VPP
p9032
sbatp9033
Rp9034
(dp9035
g17
VNP
p9036
sbatp9037
Rp9038
(dp9039
g17
VPP
p9040
sbatp9041
Rp9042
(dp9043
g17
VPP
p9044
sbag5
(g6
g7
(lp9045
g213
atp9046
Rp9047
(dp9048
g17
g213
sbag5
(g6
g7
(lp9049
g5
(g6
g7
(lp9050
Vdistant
p9051
atp9052
Rp9053
(dp9054
g17
VJJ
p9055
sbag5
(g6
g7
(lp9056
Vsimultaneity
p9057
atp9058
Rp9059
(dp9060
g17
VNN
p9061
sbatp9062
Rp9063
(dp9064
g17
VNP
p9065
sbag5
(g6
g7
(lp9066
g5
(g6
g7
(lp9067
Vis
p9068
atp9069
Rp9070
(dp9071
g17
VVBZ
p9072
sbag5
(g6
g7
(lp9073
g5
(g6
g7
(lp9074
Vill-defined
p9075
atp9076
Rp9077
(dp9078
g17
VJJ
p9079
sbatp9080
Rp9081
(dp9082
g17
VADJP
p9083
sbatp9084
Rp9085
(dp9086
g17
VVP
p9087
sbag5
(g6
g7
(lp9088
g337
atp9089
Rp9090
(dp9091
g17
g337
sbatp9092
Rp9093
(dp9094
g17
g181
sbatp9095
Rp9096
(dp9097
g17
VROOT
p9098
sbasg348
(icmyPackage
CorE
p9099
(dp9100
g351
(lp9101
(I0
I2
tp9102
a(I0
I5
tp9103
asg355
g9034
sbsg356
(icmyPackage
CorE
p9104
(dp9105
g351
(lp9106
(I0
I7
tp9107
a(I0
I11
tp9108
asg355
g5
(g6
g7
(lp9109
g9063
ag9085
ag9090
atp9110
Rp9111
(dp9112
g17
g366
sbsbsg367
(icmyPackage
pattern
p9113
(dp9114
g370
I0
sg371
I0
sg372
(lp9115
(lp9116
S'according'
p9117
aS'to'
p9118
aa(lp9119
g6540
aasg378
(lp9120
I2
aI1
aI1
asg380
(lp9121
S'According to the efficiency principle and regional principle, the radius of the network should be small.'
p9122
asg383
I56
sg384
(lp9123
(lp9124
a(lp9125
S'&NP@C@'
p9126
aa(lp9127
S'&R'
p9128
aasbsg390
(lp9129
(icmyPackage
Sent
p9130
(dp9131
g394
I2
sg395
I69
sg396
S'According to the theory of relativity, distant simultaneity is ill-defined.'
p9132
sg398
I4
sg399
I188
sg355
(lp9133
g9096
asbasba(icmyPackage
CELink
p9134
(dp9135
g3
(lp9136
g5
(g6
g7
(lp9137
g5
(g6
g7
(lp9138
g5
(g6
g7
(lp9139
g5
(g6
g7
(lp9140
g5
(g6
g7
(lp9141
VThese
p9142
atp9143
Rp9144
(dp9145
g17
VDT
p9146
sbatp9147
Rp9148
(dp9149
g17
VNP
p9150
sbag5
(g6
g7
(lp9151
g5
(g6
g7
(lp9152
Vneed
p9153
atp9154
Rp9155
(dp9156
g17
VVBP
p9157
sbag5
(g6
g7
(lp9158
Vnot
p9159
atp9160
Rp9161
(dp9162
g17
VRB
p9163
sbag5
(g6
g7
(lp9164
g5
(g6
g7
(lp9165
Vbe
p9166
atp9167
Rp9168
(dp9169
g17
VVB
p9170
sbag5
(g6
g7
(lp9171
g5
(g6
g7
(lp9172
g5
(g6
g7
(lp9173
Vthe
p9174
atp9175
Rp9176
(dp9177
g17
VDT
p9178
sbag5
(g6
g7
(lp9179
Vnegations
p9180
atp9181
Rp9182
(dp9183
g17
VNNS
p9184
sbatp9185
Rp9186
(dp9187
g17
VNP
p9188
sbag5
(g6
g7
(lp9189
g5
(g6
g7
(lp9190
Vof
p9191
atp9192
Rp9193
(dp9194
g17
VIN
p9195
sbag5
(g6
g7
(lp9196
g5
(g6
g7
(lp9197
Veach
p9198
atp9199
Rp9200
(dp9201
g17
VDT
p9202
sbag5
(g6
g7
(lp9203
Vother
p9204
atp9205
Rp9206
(dp9207
g17
VJJ
p9208
sbatp9209
Rp9210
(dp9211
g17
VNP
p9212
sbatp9213
Rp9214
(dp9215
g17
VPP
p9216
sbatp9217
Rp9218
(dp9219
g17
VNP
p9220
sbatp9221
Rp9222
(dp9223
g17
VVP
p9224
sbatp9225
Rp9226
(dp9227
g17
VVP
p9228
sbatp9229
Rp9230
(dp9231
g17
g181
sbag5
(g6
g7
(lp9232
g213
atp9233
Rp9234
(dp9235
g17
g213
sbag5
(g6
g7
(lp9236
Vso
p9237
atp9238
Rp9239
(dp9240
g17
VIN
p9241
sbag5
(g6
g7
(lp9242
g5
(g6
g7
(lp9243
g5
(g6
g7
(lp9244
Vit
p9245
atp9246
Rp9247
(dp9248
g17
VPRP
p9249
sbatp9250
Rp9251
(dp9252
g17
VNP
p9253
sbag5
(g6
g7
(lp9254
g5
(g6
g7
(lp9255
Vcan
p9256
atp9257
Rp9258
(dp9259
g17
VMD
p9260
sbag5
(g6
g7
(lp9261
g5
(g6
g7
(lp9262
Vhappen
p9263
atp9264
Rp9265
(dp9266
g17
VVB
p9267
sbag5
(g6
g7
(lp9268
g5
(g6
g7
(lp9269
Vthat
p9270
atp9271
Rp9272
(dp9273
g17
VIN
p9274
sbag5
(g6
g7
(lp9275
g5
(g6
g7
(lp9276
g5
(g6
g7
(lp9277
Vit
p9278
atp9279
Rp9280
(dp9281
g17
VPRP
p9282
sbatp9283
Rp9284
(dp9285
g17
VNP
p9286
sbag5
(g6
g7
(lp9287
g5
(g6
g7
(lp9288
Vis
p9289
atp9290
Rp9291
(dp9292
g17
VVBZ
p9293
sbag5
(g6
g7
(lp9294
Vn't
p9295
atp9296
Rp9297
(dp9298
g17
VRB
p9299
sbag5
(g6
g7
(lp9300
g5
(g6
g7
(lp9301
Vjustified
p9302
atp9303
Rp9304
(dp9305
g17
VJJ
p9306
sbag5
(g6
g7
(lp9307
g5
(g6
g7
(lp9308
g5
(g6
g7
(lp9309
Vto
p9310
atp9311
Rp9312
(dp9313
g17
VTO
p9314
sbag5
(g6
g7
(lp9315
g5
(g6
g7
(lp9316
Vsay
p9317
atp9318
Rp9319
(dp9320
g17
VVB
p9321
sbag5
(g6
g7
(lp9322
g5
(g6
g7
(lp9323
Veither
p9324
atp9325
Rp9326
(dp9327
g17
VRB
p9328
sbatp9329
Rp9330
(dp9331
g17
VADVP
p9332
sbag5
(g6
g7
(lp9333
g5
(g6
g7
(lp9334
g5
(g6
g7
(lp9335
Vthat
p9336
atp9337
Rp9338
(dp9339
g17
VIN
p9340
sbag5
(g6
g7
(lp9341
g5
(g6
g7
(lp9342
g5
(g6
g7
(lp9343
g828
atp9344
Rp9345
(dp9346
g17
VSYM
p9347
sbatp9348
Rp9349
(dp9350
g17
VNP
p9351
sbag5
(g6
g7
(lp9352
g5
(g6
g7
(lp9353
Vis
p9354
atp9355
Rp9356
(dp9357
g17
VVBZ
p9358
sbag5
(g6
g7
(lp9359
g5
(g6
g7
(lp9360
Von
p9361
atp9362
Rp9363
(dp9364
g17
VIN
p9365
sbag5
(g6
g7
(lp9366
g5
(g6
g7
(lp9367
Vy
p9368
atp9369
Rp9370
(dp9371
g17
VNN
p9372
sbatp9373
Rp9374
(dp9375
g17
VNP
p9376
sbatp9377
Rp9378
(dp9379
g17
VPP
p9380
sbatp9381
Rp9382
(dp9383
g17
VVP
p9384
sbatp9385
Rp9386
(dp9387
g17
g181
sbatp9388
Rp9389
(dp9390
g17
VSBAR
p9391
sbag5
(g6
g7
(lp9392
Vor
p9393
atp9394
Rp9395
(dp9396
g17
VCC
p9397
sbag5
(g6
g7
(lp9398
g5
(g6
g7
(lp9399
Vthat
p9400
atp9401
Rp9402
(dp9403
g17
VIN
p9404
sbag5
(g6
g7
(lp9405
g5
(g6
g7
(lp9406
g5
(g6
g7
(lp9407
Vit
p9408
atp9409
Rp9410
(dp9411
g17
VPRP
p9412
sbatp9413
Rp9414
(dp9415
g17
VNP
p9416
sbag5
(g6
g7
(lp9417
g5
(g6
g7
(lp9418
Vis
p9419
atp9420
Rp9421
(dp9422
g17
VVBZ
p9423
sbag5
(g6
g7
(lp9424
Vn't
p9425
atp9426
Rp9427
(dp9428
g17
VRB
p9429
sbatp9430
Rp9431
(dp9432
g17
VVP
p9433
sbatp9434
Rp9435
(dp9436
g17
g181
sbatp9437
Rp9438
(dp9439
g17
VSBAR
p9440
sbatp9441
Rp9442
(dp9443
g17
VSBAR
p9444
sbatp9445
Rp9446
(dp9447
g17
VVP
p9448
sbatp9449
Rp9450
(dp9451
g17
VVP
p9452
sbatp9453
Rp9454
(dp9455
g17
g181
sbatp9456
Rp9457
(dp9458
g17
VADJP
p9459
sbatp9460
Rp9461
(dp9462
g17
VVP
p9463
sbatp9464
Rp9465
(dp9466
g17
g181
sbatp9467
Rp9468
(dp9469
g17
VSBAR
p9470
sbatp9471
Rp9472
(dp9473
g17
VVP
p9474
sbatp9475
Rp9476
(dp9477
g17
VVP
p9478
sbatp9479
Rp9480
(dp9481
g17
g181
sbag5
(g6
g7
(lp9482
g337
atp9483
Rp9484
(dp9485
g17
g337
sbatp9486
Rp9487
(dp9488
g17
g181
sbatp9489
Rp9490
(dp9491
g17
VROOT
p9492
sbasg348
(icmyPackage
CorE
p9493
(dp9494
g351
(lp9495
(I0
I0
tp9496
a(I0
I8
tp9497
asg355
g9230
sbsg356
(icmyPackage
CorE
p9498
(dp9499
g351
(lp9500
(I0
I11
tp9501
a(I0
I32
tp9502
asg355
g5
(g6
g7
(lp9503
g9480
ag9484
atp9504
Rp9505
(dp9506
g17
g366
sbsbsg367
g4506
sg390
(lp9507
(icmyPackage
Sent
p9508
(dp9509
g394
I2
sg395
I72
sg396
S"These need not be the negations of each other, so it can happen that it isn't justified to say either that x is on y or that it isn't."
p9510
sg398
I4
sg399
I196
sg355
(lp9511
g9490
asbasba(icmyPackage
CELink
p9512
(dp9513
g3
(lp9514
g5
(g6
g7
(lp9515
g5
(g6
g7
(lp9516
g5
(g6
g7
(lp9517
g5
(g6
g7
(lp9518
VSince
p9519
atp9520
Rp9521
(dp9522
g17
VIN
p9523
sbag5
(g6
g7
(lp9524
g5
(g6
g7
(lp9525
g5
(g6
g7
(lp9526
VT2
p9527
atp9528
Rp9529
(dp9530
g17
VNNP
p9531
sbatp9532
Rp9533
(dp9534
g17
VNP
p9535
sbag5
(g6
g7
(lp9536
g5
(g6
g7
(lp9537
Vhas
p9538
atp9539
Rp9540
(dp9541
g17
VVBZ
p9542
sbag5
(g6
g7
(lp9543
g5
(g6
g7
(lp9544
g5
(g6
g7
(lp9545
Vanother
p9546
atp9547
Rp9548
(dp9549
g17
VDT
p9550
sbag5
(g6
g7
(lp9551
Vparameter
p9552
atp9553
Rp9554
(dp9555
g17
VNN
p9556
sbatp9557
Rp9558
(dp9559
g17
VNP
p9560
sbag5
(g6
g7
(lp9561
g5
(g6
g7
(lp9562
Vfor
p9563
atp9564
Rp9565
(dp9566
g17
VIN
p9567
sbag5
(g6
g7
(lp9568
VOn
p9569
atp9570
Rp9571
(dp9572
g17
VNNP
p9573
sbatp9574
Rp9575
(dp9576
g17
VPP
p9577
sbatp9578
Rp9579
(dp9580
g17
VNP
p9581
sbatp9582
Rp9583
(dp9584
g17
VVP
p9585
sbatp9586
Rp9587
(dp9588
g17
g181
sbatp9589
Rp9590
(dp9591
g17
VSBAR
p9592
sbag5
(g6
g7
(lp9593
g213
atp9594
Rp9595
(dp9596
g17
g213
sbag5
(g6
g7
(lp9597
g5
(g6
g7
(lp9598
g5
(g6
g7
(lp9599
Vmany
p9600
atp9601
Rp9602
(dp9603
g17
VJJ
p9604
sbag5
(g6
g7
(lp9605
Vsituations
p9606
atp9607
Rp9608
(dp9609
g17
VNNS
p9610
sbatp9611
Rp9612
(dp9613
g17
VNP
p9614
sbag5
(g6
g7
(lp9615
g5
(g6
g7
(lp9616
g5
(g6
g7
(lp9617
g5
(g6
g7
(lp9618
V\u005c
p9619
atp9620
Rp9621
(dp9622
g17
VNNP
p9623
sbag5
(g6
g7
(lp9624
Vsigma
p9625
atp9626
Rp9627
(dp9628
g17
VNNP
p9629
sbatp9630
Rp9631
(dp9632
g17
VNP
p9633
sbag5
(g6
g7
(lp9634
g5
(g6
g7
(lp9635
Vcan
p9636
atp9637
Rp9638
(dp9639
g17
VMD
p9640
sbag5
(g6
g7
(lp9641
g5
(g6
g7
(lp9642
Vcorrespond
p9643
atp9644
Rp9645
(dp9646
g17
VVB
p9647
sbag5
(g6
g7
(lp9648
g5
(g6
g7
(lp9649
Vto
p9650
atp9651
Rp9652
(dp9653
g17
VTO
p9654
sbag5
(g6
g7
(lp9655
g5
(g6
g7
(lp9656
g659
atp9657
Rp9658
(dp9659
g17
VDT
p9660
sbag5
(g6
g7
(lp9661
Vsingle
p9662
atp9663
Rp9664
(dp9665
g17
VJJ
p9666
sbag5
(g6
g7
(lp9667
Vsituation
p9668
atp9669
Rp9670
(dp9671
g17
VNN
p9672
sbatp9673
Rp9674
(dp9675
g17
VNP
p9676
sbatp9677
Rp9678
(dp9679
g17
VPP
p9680
sbatp9681
Rp9682
(dp9683
g17
VVP
p9684
sbatp9685
Rp9686
(dp9687
g17
VVP
p9688
sbatp9689
Rp9690
(dp9691
g17
g181
sbatp9692
Rp9693
(dp9694
g17
VSBAR
p9695
sbatp9696
Rp9697
(dp9698
g17
VNP
p9699
sbag5
(g6
g7
(lp9700
g5
(g6
g7
(lp9701
Vs
p9702
atp9703
Rp9704
(dp9705
g17
VVBZ
p9706
sbag5
(g6
g7
(lp9707
g5
(g6
g7
(lp9708
Vin
p9709
atp9710
Rp9711
(dp9712
g17
VIN
p9713
sbag5
(g6
g7
(lp9714
g5
(g6
g7
(lp9715
VT1
p9716
atp9717
Rp9718
(dp9719
g17
VNNP
p9720
sbatp9721
Rp9722
(dp9723
g17
VNP
p9724
sbatp9725
Rp9726
(dp9727
g17
VPP
p9728
sbatp9729
Rp9730
(dp9731
g17
VVP
p9732
sbag5
(g6
g7
(lp9733
g337
atp9734
Rp9735
(dp9736
g17
g337
sbatp9737
Rp9738
(dp9739
g17
g181
sbatp9740
Rp9741
(dp9742
g17
VROOT
p9743
sbasg348
(icmyPackage
CorE
p9744
(dp9745
g351
(lp9746
(I0
I1
tp9747
a(I0
I6
tp9748
asg355
g9587
sbsg356
(icmyPackage
CorE
p9749
(dp9750
g351
(lp9751
(I0
I8
tp9752
a(I0
I21
tp9753
asg355
g5
(g6
g7
(lp9754
g9697
ag9730
ag9735
atp9755
Rp9756
(dp9757
g17
g366
sbsbsg367
(icmyPackage
pattern
p9758
(dp9759
g370
I15
sg371
I0
sg372
(lp9760
(lp9761
S'since'
p9762
aa(lp9763
g6540
aasg378
(lp9764
I3
aI1
aI1
asg380
(lp9765
S'But, since the herpes virus does not always show its symptoms, prevention is not fool proof.'
p9766
asg383
I78
sg384
(lp9767
(lp9768
a(lp9769
S'&C@NCTime@'
p9770
aa(lp9771
S'&R@NCTime@'
p9772
aasbsg390
(lp9773
(icmyPackage
Sent
p9774
(dp9775
g394
I2
sg395
I74
sg396
S'Since T2 has another parameter for On, many situations \\sigma can correspond to a single situation s in T1.'
p9776
sg398
I5
sg399
I203
sg355
(lp9777
g9741
asbasba(icmyPackage
CELink
p9778
(dp9779
g3
(lp9780
g5
(g6
g7
(lp9781
g5
(g6
g7
(lp9782
g5
(g6
g7
(lp9783
g5
(g6
g7
(lp9784
g5
(g6
g7
(lp9785
g5
(g6
g7
(lp9786
VSuppose
p9787
atp9788
Rp9789
(dp9790
g17
VVB
p9791
sbag5
(g6
g7
(lp9792
g5
(g6
g7
(lp9793
g659
atp9794
Rp9795
(dp9796
g17
VDT
p9797
sbag5
(g6
g7
(lp9798
Vrobot
p9799
atp9800
Rp9801
(dp9802
g17
VNN
p9803
sbatp9804
Rp9805
(dp9806
g17
VNP
p9807
sbatp9808
Rp9809
(dp9810
g17
VVP
p9811
sbatp9812
Rp9813
(dp9814
g17
g181
sbag5
(g6
g7
(lp9815
g5
(g6
g7
(lp9816
g5
(g6
g7
(lp9817
Vuses
p9818
atp9819
Rp9820
(dp9821
g17
VVBZ
p9822
sbag5
(g6
g7
(lp9823
g5
(g6
g7
(lp9824
VT1
p9825
atp9826
Rp9827
(dp9828
g17
VNNP
p9829
sbatp9830
Rp9831
(dp9832
g17
VNP
p9833
sbag5
(g6
g7
(lp9834
g5
(g6
g7
(lp9835
Vas
p9836
atp9837
Rp9838
(dp9839
g17
VIN
p9840
sbag5
(g6
g7
(lp9841
g5
(g6
g7
(lp9842
g5
(g6
g7
(lp9843
g659
atp9844
Rp9845
(dp9846
g17
VDT
p9847
sbag5
(g6
g7
(lp9848
Vtheory
p9849
atp9850
Rp9851
(dp9852
g17
VNN
p9853
sbatp9854
Rp9855
(dp9856
g17
VNP
p9857
sbag5
(g6
g7
(lp9858
g5
(g6
g7
(lp9859
Vof
p9860
atp9861
Rp9862
(dp9863
g17
VIN
p9864
sbag5
(g6
g7
(lp9865
g5
(g6
g7
(lp9866
Vthe
p9867
atp9868
Rp9869
(dp9870
g17
VDT
p9871
sbag5
(g6
g7
(lp9872
Vblocks
p9873
atp9874
Rp9875
(dp9876
g17
VNNS
p9877
sbag5
(g6
g7
(lp9878
Vworld
p9879
atp9880
Rp9881
(dp9882
g17
VNN
p9883
sbatp9884
Rp9885
(dp9886
g17
VNP
p9887
sbatp9888
Rp9889
(dp9890
g17
VPP
p9891
sbatp9892
Rp9893
(dp9894
g17
VNP
p9895
sbatp9896
Rp9897
(dp9898
g17
VPP
p9899
sbatp9900
Rp9901
(dp9902
g17
VVP
p9903
sbag5
(g6
g7
(lp9904
Vand
p9905
atp9906
Rp9907
(dp9908
g17
VCC
p9909
sbag5
(g6
g7
(lp9910
g5
(g6
g7
(lp9911
Vtakes
p9912
atp9913
Rp9914
(dp9915
g17
VVBZ
p9916
sbag5
(g6
g7
(lp9917
g5
(g6
g7
(lp9918
Vactions
p9919
atp9920
Rp9921
(dp9922
g17
VNNS
p9923
sbatp9924
Rp9925
(dp9926
g17
VNP
p9927
sbag5
(g6
g7
(lp9928
g5
(g6
g7
(lp9929
Vaccordingly
p9930
atp9931
Rp9932
(dp9933
g17
VRB
p9934
sbatp9935
Rp9936
(dp9937
g17
VADVP
p9938
sbatp9939
Rp9940
(dp9941
g17
VVP
p9942
sbatp9943
Rp9944
(dp9945
g17
VVP
p9946
sbatp9947
Rp9948
(dp9949
g17
g181
sbag5
(g6
g7
(lp9950
g213
atp9951
Rp9952
(dp9953
g17
g213
sbag5
(g6
g7
(lp9954
Vbut
p9955
atp9956
Rp9957
(dp9958
g17
VCC
p9959
sbag5
(g6
g7
(lp9960
g5
(g6
g7
(lp9961
g5
(g6
g7
(lp9962
Vthe
p9963
atp9964
Rp9965
(dp9966
g17
VDT
p9967
sbag5
(g6
g7
(lp9968
Vreal
p9969
atp9970
Rp9971
(dp9972
g17
VJJ
p9973
sbag5
(g6
g7
(lp9974
Vworld
p9975
atp9976
Rp9977
(dp9978
g17
VNN
p9979
sbatp9980
Rp9981
(dp9982
g17
VNP
p9983
sbag5
(g6
g7
(lp9984
g5
(g6
g7
(lp9985
Vcorresponds
p9986
atp9987
Rp9988
(dp9989
g17
VVBZ
p9990
sbag5
(g6
g7
(lp9991
g5
(g6
g7
(lp9992
Vto
p9993
atp9994
Rp9995
(dp9996
g17
VTO
p9997
sbag5
(g6
g7
(lp9998
g5
(g6
g7
(lp9999
VT2
p10000
atp10001
Rp10002
(dp10003
g17
VNNP
p10004
sbatp10005
Rp10006
(dp10007
g17
VNP
p10008
sbatp10009
Rp10010
(dp10011
g17
VPP
p10012
sbatp10013
Rp10014
(dp10015
g17
VVP
p10016
sbatp10017
Rp10018
(dp10019
g17
g181
sbag5
(g6
g7
(lp10020
g337
atp10021
Rp10022
(dp10023
g17
g337
sbatp10024
Rp10025
(dp10026
g17
g181
sbatp10027
Rp10028
(dp10029
g17
VROOT
p10030
sbasg348
(icmyPackage
CorE
p10031
(dp10032
g351
(lp10033
(I0
I0
tp10034
a(I0
I11
tp10035
asg355
g5
(g6
g7
(lp10036
g9813
ag9901
atp10037
Rp10038
(dp10039
g17
g366
sbsbsg356
(icmyPackage
CorE
p10040
(dp10041
g351
(lp10042
(I0
I13
tp10043
a(I0
I14
tp10044
asg355
g5
(g6
g7
(lp10045
g9914
ag9925
atp10046
Rp10047
(dp10048
g17
g366
sbsbsg367
(icmyPackage
pattern
p10049
(dp10050
g370
I2
sg371
I1
sg372
(lp10051
(lp10052
(lp10053
g6540
aS'.'
p10054
aS';'
p10055
aS'and'
p10056
aaa(lp10057
S'accordingly'
p10058
aasg378
(lp10059
I1
aI1
aI1
asg380
(lp10060
S'She knows ahead of time how much enhancement in loan size is coming, and can plan her activities accordingly.'
p10061
asg383
I8
sg384
(lp10062
(lp10063
S'&C'
p10064
aa(lp10065
S'&R'
p10066
aasbsg390
(lp10067
(icmyPackage
Sent
p10068
(dp10069
g394
I2
sg395
I79
sg396
S'Suppose a robot uses T1 as a theory of the blocks world and takes actions accordingly, but the real world corresponds to T2.'
p10070
sg398
I5
sg399
I211
sg355
(lp10071
g10028
asbasba(icmyPackage
CELink
p10072
(dp10073
g3
(lp10074
g5
(g6
g7
(lp10075
g5
(g6
g7
(lp10076
g5
(g6
g7
(lp10077
g5
(g6
g7
(lp10078
VIn
p10079
atp10080
Rp10081
(dp10082
g17
VIN
p10083
sbag5
(g6
g7
(lp10084
g5
(g6
g7
(lp10085
Vnatural
p10086
atp10087
Rp10088
(dp10089
g17
VJJ
p10090
sbag5
(g6
g7
(lp10091
Vlanguage
p10092
atp10093
Rp10094
(dp10095
g17
VNN
p10096
sbatp10097
Rp10098
(dp10099
g17
VNP
p10100
sbatp10101
Rp10102
(dp10103
g17
VPP
p10104
sbag5
(g6
g7
(lp10105
g213
atp10106
Rp10107
(dp10108
g17
g213
sbag5
(g6
g7
(lp10109
g5
(g6
g7
(lp10110
g5
(g6
g7
(lp10111
Vthe
p10112
atp10113
Rp10114
(dp10115
g17
VDT
p10116
sbag5
(g6
g7
(lp10117
Vpresent
p10118
atp10119
Rp10120
(dp10121
g17
VJJ
p10122
sbag5
(g6
g7
(lp10123
Vtense
p10124
atp10125
Rp10126
(dp10127
g17
VNN
p10128
sbatp10129
Rp10130
(dp10131
g17
VNP
p10132
sbag5
(g6
g7
(lp10133
g5
(g6
g7
(lp10134
Vof
p10135
atp10136
Rp10137
(dp10138
g17
VIN
p10139
sbag5
(g6
g7
(lp10140
g5
(g6
g7
(lp10141
g5
(g6
g7
(lp10142
Vthe
p10143
atp10144
Rp10145
(dp10146
g17
VDT
p10147
sbag5
(g6
g7
(lp10148
Vverb
p10149
atp10150
Rp10151
(dp10152
g17
VNN
p10153
sbatp10154
Rp10155
(dp10156
g17
VNP
p10157
sbag5
(g6
g7
(lp10158
V``
p10159
atp10160
Rp10161
(dp10162
g17
V``
p10163
sbag5
(g6
g7
(lp10164
g5
(g6
g7
(lp10165
g5
(g6
g7
(lp10166
Vto
p10167
atp10168
Rp10169
(dp10170
g17
VTO
p10171
sbag5
(g6
g7
(lp10172
g5
(g6
g7
(lp10173
Vbe
p10174
atp10175
Rp10176
(dp10177
g17
VVB
p10178
sbag5
(g6
g7
(lp10179
V''
p10180
atp10181
Rp10182
(dp10183
g17
V''
p10184
sbatp10185
Rp10186
(dp10187
g17
VVP
p10188
sbatp10189
Rp10190
(dp10191
g17
VVP
p10192
sbatp10193
Rp10194
(dp10195
g17
g181
sbatp10196
Rp10197
(dp10198
g17
VNP
p10199
sbatp10200
Rp10201
(dp10202
g17
VPP
p10203
sbatp10204
Rp10205
(dp10206
g17
VNP
p10207
sbag5
(g6
g7
(lp10208
g5
(g6
g7
(lp10209
Vis
p10210
atp10211
Rp10212
(dp10213
g17
VVBZ
p10214
sbag5
(g6
g7
(lp10215
g5
(g6
g7
(lp10216
Vused
p10217
atp10218
Rp10219
(dp10220
g17
VVBN
p10221
sbag5
(g6
g7
(lp10222
g5
(g6
g7
(lp10223
g5
(g6
g7
(lp10224
Vfor
p10225
atp10226
Rp10227
(dp10228
g17
VIN
p10229
sbag5
(g6
g7
(lp10230
g5
(g6
g7
(lp10231
g5
(g6
g7
(lp10232
Vasserting
p10233
atp10234
Rp10235
(dp10236
g17
VVBG
p10237
sbag5
(g6
g7
(lp10238
g5
(g6
g7
(lp10239
g5
(g6
g7
(lp10240
Van
p10241
atp10242
Rp10243
(dp10244
g17
VDT
p10245
sbag5
(g6
g7
(lp10246
Vintrinsic
p10247
atp10248
Rp10249
(dp10250
g17
VJJ
p10251
sbag5
(g6
g7
(lp10252
Vproperty
p10253
atp10254
Rp10255
(dp10256
g17
VNN
p10257
sbatp10258
Rp10259
(dp10260
g17
VNP
p10261
sbag5
(g6
g7
(lp10262
g5
(g6
g7
(lp10263
Vof
p10264
atp10265
Rp10266
(dp10267
g17
VIN
p10268
sbag5
(g6
g7
(lp10269
g5
(g6
g7
(lp10270
Van
p10271
atp10272
Rp10273
(dp10274
g17
VDT
p10275
sbag5
(g6
g7
(lp10276
Ventity
p10277
atp10278
Rp10279
(dp10280
g17
VNN
p10281
sbatp10282
Rp10283
(dp10284
g17
VNP
p10285
sbatp10286
Rp10287
(dp10288
g17
VPP
p10289
sbatp10290
Rp10291
(dp10292
g17
VNP
p10293
sbatp10294
Rp10295
(dp10296
g17
VVP
p10297
sbatp10298
Rp10299
(dp10300
g17
g181
sbatp10301
Rp10302
(dp10303
g17
VPP
p10304
sbag5
(g6
g7
(lp10305
Vand
p10306
atp10307
Rp10308
(dp10309
g17
VCC
p10310
sbag5
(g6
g7
(lp10311
g5
(g6
g7
(lp10312
Vfor
p10313
atp10314
Rp10315
(dp10316
g17
VIN
p10317
sbag5
(g6
g7
(lp10318
g5
(g6
g7
(lp10319
g5
(g6
g7
(lp10320
Vasserting
p10321
atp10322
Rp10323
(dp10324
g17
VVBG
p10325
sbag5
(g6
g7
(lp10326
g5
(g6
g7
(lp10327
g5
(g6
g7
(lp10328
g659
atp10329
Rp10330
(dp10331
g17
VDT
p10332
sbag5
(g6
g7
(lp10333
Vproperty
p10334
atp10335
Rp10336
(dp10337
g17
VNN
p10338
sbatp10339
Rp10340
(dp10341
g17
VNP
p10342
sbag5
(g6
g7
(lp10343
g5
(g6
g7
(lp10344
g5
(g6
g7
(lp10345
Vthat
p10346
atp10347
Rp10348
(dp10349
g17
VWDT
p10350
sbatp10351
Rp10352
(dp10353
g17
VWHNP
p10354
sbag5
(g6
g7
(lp10355
g5
(g6
g7
(lp10356
g5
(g6
g7
(lp10357
Vis
p10358
atp10359
Rp10360
(dp10361
g17
VVBZ
p10362
sbag5
(g6
g7
(lp10363
g5
(g6
g7
(lp10364
Vexpected
p10365
atp10366
Rp10367
(dp10368
g17
VVBN
p10369
sbag5
(g6
g7
(lp10370
g5
(g6
g7
(lp10371
g5
(g6
g7
(lp10372
Vto
p10373
atp10374
Rp10375
(dp10376
g17
VTO
p10377
sbag5
(g6
g7
(lp10378
g5
(g6
g7
(lp10379
Vhold
p10380
atp10381
Rp10382
(dp10383
g17
VVB
p10384
sbag5
(g6
g7
(lp10385
g5
(g6
g7
(lp10386
Vlong
p10387
atp10388
Rp10389
(dp10390
g17
VRB
p10391
sbag5
(g6
g7
(lp10392
Venough
p10393
atp10394
Rp10395
(dp10396
g17
VRB
p10397
sbatp10398
Rp10399
(dp10400
g17
VADVP
p10401
sbag5
(g6
g7
(lp10402
g5
(g6
g7
(lp10403
g5
(g6
g7
(lp10404
Vto
p10405
atp10406
Rp10407
(dp10408
g17
VTO
p10409
sbag5
(g6
g7
(lp10410
g5
(g6
g7
(lp10411
Vprovide
p10412
atp10413
Rp10414
(dp10415
g17
VVB
p10416
sbag5
(g6
g7
(lp10417
g5
(g6
g7
(lp10418
g5
(g6
g7
(lp10419
g659
atp10420
Rp10421
(dp10422
g17
VDT
p10423
sbag5
(g6
g7
(lp10424
Vconstant
p10425
atp10426
Rp10427
(dp10428
g17
VJJ
p10429
sbag5
(g6
g7
(lp10430
Vbackground
p10431
atp10432
Rp10433
(dp10434
g17
VNN
p10435
sbatp10436
Rp10437
(dp10438
g17
VNP
p10439
sbag5
(g6
g7
(lp10440
g5
(g6
g7
(lp10441
Vfor
p10442
atp10443
Rp10444
(dp10445
g17
VIN
p10446
sbag5
(g6
g7
(lp10447
g5
(g6
g7
(lp10448
Vother
p10449
atp10450
Rp10451
(dp10452
g17
VJJ
p10453
sbag5
(g6
g7
(lp10454
Vevents
p10455
atp10456
Rp10457
(dp10458
g17
VNNS
p10459
sbatp10460
Rp10461
(dp10462
g17
VNP
p10463
sbatp10464
Rp10465
(dp10466
g17
VPP
p10467
sbatp10468
Rp10469
(dp10470
g17
VNP
p10471
sbag5
(g6
g7
(lp10472
g5
(g6
g7
(lp10473
Vunder
p10474
atp10475
Rp10476
(dp10477
g17
VIN
p10478
sbag5
(g6
g7
(lp10479
g5
(g6
g7
(lp10480
Vdiscussion
p10481
atp10482
Rp10483
(dp10484
g17
VNN
p10485
sbatp10486
Rp10487
(dp10488
g17
VNP
p10489
sbatp10490
Rp10491
(dp10492
g17
VPP
p10493
sbatp10494
Rp10495
(dp10496
g17
VVP
p10497
sbatp10498
Rp10499
(dp10500
g17
VVP
p10501
sbatp10502
Rp10503
(dp10504
g17
g181
sbatp10505
Rp10506
(dp10507
g17
VVP
p10508
sbatp10509
Rp10510
(dp10511
g17
VVP
p10512
sbatp10513
Rp10514
(dp10515
g17
g181
sbatp10516
Rp10517
(dp10518
g17
VVP
p10519
sbatp10520
Rp10521
(dp10522
g17
VVP
p10523
sbatp10524
Rp10525
(dp10526
g17
g181
sbatp10527
Rp10528
(dp10529
g17
VSBAR
p10530
sbatp10531
Rp10532
(dp10533
g17
VNP
p10534
sbatp10535
Rp10536
(dp10537
g17
VVP
p10538
sbatp10539
Rp10540
(dp10541
g17
g181
sbatp10542
Rp10543
(dp10544
g17
VPP
p10545
sbatp10546
Rp10547
(dp10548
g17
VPP
p10549
sbatp10550
Rp10551
(dp10552
g17
VVP
p10553
sbatp10554
Rp10555
(dp10556
g17
VVP
p10557
sbag5
(g6
g7
(lp10558
g337
atp10559
Rp10560
(dp10561
g17
g337
sbatp10562
Rp10563
(dp10564
g17
g181
sbatp10565
Rp10566
(dp10567
g17
VROOT
p10568
sbasg348
(icmyPackage
CorE
p10569
(dp10570
g351
(lp10571
(I0
I17
tp10572
a(I0
I23
tp10573
asg355
g10299
sbsg356
(icmyPackage
CorE
p10574
(dp10575
g351
(lp10576
(I0
I0
tp10577
a(I0
I15
tp10578
asg355
g5
(g6
g7
(lp10579
g10102
ag10107
ag10205
ag10212
ag10219
atp10580
Rp10581
(dp10582
g17
g366
sbsbsg367
g564
sg390
(lp10583
(icmyPackage
Sent
p10584
(dp10585
g394
I2
sg395
I98
sg396
S'In natural language, the present tense of the verb "to be" is used for asserting an intrinsic property of an entity and for asserting a property that is expected to hold long enough to provide a constant background for other events under discussion.'
p10586
sg398
I6
sg399
I236
sg355
(lp10587
g10566
asbasba(icmyPackage
CELink
p10588
(dp10589
g3
(lp10590
g5
(g6
g7
(lp10591
g5
(g6
g7
(lp10592
g5
(g6
g7
(lp10593
g5
(g6
g7
(lp10594
VIt
p10595
atp10596
Rp10597
(dp10598
g17
VPRP
p10599
sbatp10600
Rp10601
(dp10602
g17
VNP
p10603
sbag5
(g6
g7
(lp10604
g5
(g6
g7
(lp10605
g5
(g6
g7
(lp10606
Vharms
p10607
atp10608
Rp10609
(dp10610
g17
VVBZ
p10611
sbag5
(g6
g7
(lp10612
g5
(g6
g7
(lp10613
Vthe
p10614
atp10615
Rp10616
(dp10617
g17
VDT
p10618
sbag5
(g6
g7
(lp10619
Vmosquito
p10620
atp10621
Rp10622
(dp10623
g17
VNN
p10624
sbag5
(g6
g7
(lp10625
g5
(g6
g7
(lp10626
g5
(g6
g7
(lp10627
Vto
p10628
atp10629
Rp10630
(dp10631
g17
VTO
p10632
sbag5
(g6
g7
(lp10633
g5
(g6
g7
(lp10634
Vbe
p10635
atp10636
Rp10637
(dp10638
g17
VVB
p10639
sbag5
(g6
g7
(lp10640
g5
(g6
g7
(lp10641
Vsquashed
p10642
atp10643
Rp10644
(dp10645
g17
VJJ
p10646
sbatp10647
Rp10648
(dp10649
g17
VADJP
p10650
sbatp10651
Rp10652
(dp10653
g17
VVP
p10654
sbatp10655
Rp10656
(dp10657
g17
VVP
p10658
sbatp10659
Rp10660
(dp10661
g17
g181
sbatp10662
Rp10663
(dp10664
g17
VNP
p10665
sbatp10666
Rp10667
(dp10668
g17
VVP
p10669
sbag5
(g6
g7
(lp10670
Vand
p10671
atp10672
Rp10673
(dp10674
g17
VCC
p10675
sbag5
(g6
g7
(lp10676
g5
(g6
g7
(lp10677
Vhelps
p10678
atp10679
Rp10680
(dp10681
g17
VVBZ
p10682
sbag5
(g6
g7
(lp10683
g5
(g6
g7
(lp10684
Vit
p10685
atp10686
Rp10687
(dp10688
g17
VPRP
p10689
sbatp10690
Rp10691
(dp10692
g17
VNP
p10693
sbag5
(g6
g7
(lp10694
g5
(g6
g7
(lp10695
Vif
p10696
atp10697
Rp10698
(dp10699
g17
VIN
p10700
sbag5
(g6
g7
(lp10701
g5
(g6
g7
(lp10702
g5
(g6
g7
(lp10703
Vit
p10704
atp10705
Rp10706
(dp10707
g17
VPRP
p10708
sbatp10709
Rp10710
(dp10711
g17
VNP
p10712
sbag5
(g6
g7
(lp10713
g5
(g6
g7
(lp10714
Vfinds
p10715
atp10716
Rp10717
(dp10718
g17
VVBZ
p10719
sbag5
(g6
g7
(lp10720
g5
(g6
g7
(lp10721
g5
(g6
g7
(lp10722
Vexposed
p10723
atp10724
Rp10725
(dp10726
g17
VVBN
p10727
sbag5
(g6
g7
(lp10728
Vskin
p10729
atp10730
Rp10731
(dp10732
g17
VNN
p10733
sbatp10734
Rp10735
(dp10736
g17
VNP
p10737
sbag5
(g6
g7
(lp10738
g5
(g6
g7
(lp10739
Vfrom
p10740
atp10741
Rp10742
(dp10743
g17
VIN
p10744
sbag5
(g6
g7
(lp10745
g5
(g6
g7
(lp10746
g5
(g6
g7
(lp10747
Vwhich
p10748
atp10749
Rp10750
(dp10751
g17
VWDT
p10752
sbatp10753
Rp10754
(dp10755
g17
VWHNP
p10756
sbag5
(g6
g7
(lp10757
g5
(g6
g7
(lp10758
g5
(g6
g7
(lp10759
Vto
p10760
atp10761
Rp10762
(dp10763
g17
VTO
p10764
sbag5
(g6
g7
(lp10765
g5
(g6
g7
(lp10766
Vextract
p10767
atp10768
Rp10769
(dp10770
g17
VVB
p10771
sbag5
(g6
g7
(lp10772
g5
(g6
g7
(lp10773
Vblood
p10774
atp10775
Rp10776
(dp10777
g17
VNN
p10778
sbatp10779
Rp10780
(dp10781
g17
VNP
p10782
sbatp10783
Rp10784
(dp10785
g17
VVP
p10786
sbatp10787
Rp10788
(dp10789
g17
VVP
p10790
sbatp10791
Rp10792
(dp10793
g17
g181
sbatp10794
Rp10795
(dp10796
g17
VSBAR
p10797
sbatp10798
Rp10799
(dp10800
g17
VPP
p10801
sbatp10802
Rp10803
(dp10804
g17
VNP
p10805
sbatp10806
Rp10807
(dp10808
g17
VVP
p10809
sbatp10810
Rp10811
(dp10812
g17
g181
sbatp10813
Rp10814
(dp10815
g17
VSBAR
p10816
sbatp10817
Rp10818
(dp10819
g17
VVP
p10820
sbatp10821
Rp10822
(dp10823
g17
VVP
p10824
sbag5
(g6
g7
(lp10825
g337
atp10826
Rp10827
(dp10828
g17
g337
sbatp10829
Rp10830
(dp10831
g17
g181
sbatp10832
Rp10833
(dp10834
g17
VROOT
p10835
sbasg348
(icmyPackage
CorE
p10836
(dp10837
g351
(lp10838
(I0
I11
tp10839
a(I0
I20
tp10840
asg355
g5
(g6
g7
(lp10841
g10811
ag10827
atp10842
Rp10843
(dp10844
g17
g366
sbsbsg356
(icmyPackage
CorE
p10845
(dp10846
g351
(lp10847
(I0
I0
tp10848
a(I0
I9
tp10849
asg355
g5
(g6
g7
(lp10850
g10601
ag10667
ag10673
ag10680
ag10691
atp10851
Rp10852
(dp10853
g17
g366
sbsbsg367
g783
sg390
(lp10854
(icmyPackage
Sent
p10855
(dp10856
g394
I2
sg395
I100
sg396
S'It harms the mosquito to be squashed and helps it if it finds exposed skin from which to extract blood.'
p10857
sg398
I6
sg399
I239
sg355
(lp10858
g10833
asbasba(icmyPackage
CELink
p10859
(dp10860
g3
(lp10861
g5
(g6
g7
(lp10862
g5
(g6
g7
(lp10863
g5
(g6
g7
(lp10864
g5
(g6
g7
(lp10865
VHis
p10866
atp10867
Rp10868
(dp10869
g17
VPRP$
p10870
sbag5
(g6
g7
(lp10871
Vwealth
p10872
atp10873
Rp10874
(dp10875
g17
VNN
p10876
sbatp10877
Rp10878
(dp10879
g17
VNP
p10880
sbag5
(g6
g7
(lp10881
g5
(g6
g7
(lp10882
Vincreases
p10883
atp10884
Rp10885
(dp10886
g17
VVBZ
p10887
sbag5
(g6
g7
(lp10888
g5
(g6
g7
(lp10889
Vas
p10890
atp10891
Rp10892
(dp10893
g17
VIN
p10894
sbag5
(g6
g7
(lp10895
g5
(g6
g7
(lp10896
g5
(g6
g7
(lp10897
Vhe
p10898
atp10899
Rp10900
(dp10901
g17
VPRP
p10902
sbatp10903
Rp10904
(dp10905
g17
VNP
p10906
sbag5
(g6
g7
(lp10907
g5
(g6
g7
(lp10908
g5
(g6
g7
(lp10909
Vis
p10910
atp10911
Rp10912
(dp10913
g17
VVBZ
p10914
sbag5
(g6
g7
(lp10915
g5
(g6
g7
(lp10916
Vpaid
p10917
atp10918
Rp10919
(dp10920
g17
VVBN
p10921
sbatp10922
Rp10923
(dp10924
g17
VVP
p10925
sbatp10926
Rp10927
(dp10928
g17
VVP
p10929
sbag5
(g6
g7
(lp10930
Vand
p10931
atp10932
Rp10933
(dp10934
g17
VCC
p10935
sbag5
(g6
g7
(lp10936
g5
(g6
g7
(lp10937
Vdecreases
p10938
atp10939
Rp10940
(dp10941
g17
VVBZ
p10942
sbag5
(g6
g7
(lp10943
g5
(g6
g7
(lp10944
Vas
p10945
atp10946
Rp10947
(dp10948
g17
VIN
p10949
sbag5
(g6
g7
(lp10950
g5
(g6
g7
(lp10951
g5
(g6
g7
(lp10952
Vhe
p10953
atp10954
Rp10955
(dp10956
g17
VPRP
p10957
sbatp10958
Rp10959
(dp10960
g17
VNP
p10961
sbag5
(g6
g7
(lp10962
g5
(g6
g7
(lp10963
Vspends
p10964
atp10965
Rp10966
(dp10967
g17
VVBZ
p10968
sbag5
(g6
g7
(lp10969
g5
(g6
g7
(lp10970
Vmoney
p10971
atp10972
Rp10973
(dp10974
g17
VNN
p10975
sbatp10976
Rp10977
(dp10978
g17
VNP
p10979
sbatp10980
Rp10981
(dp10982
g17
VVP
p10983
sbatp10984
Rp10985
(dp10986
g17
g181
sbatp10987
Rp10988
(dp10989
g17
VSBAR
p10990
sbatp10991
Rp10992
(dp10993
g17
VVP
p10994
sbatp10995
Rp10996
(dp10997
g17
VVP
p10998
sbatp10999
Rp11000
(dp11001
g17
g181
sbatp11002
Rp11003
(dp11004
g17
VSBAR
p11005
sbatp11006
Rp11007
(dp11008
g17
VVP
p11009
sbag5
(g6
g7
(lp11010
g337
atp11011
Rp11012
(dp11013
g17
g337
sbatp11014
Rp11015
(dp11016
g17
g181
sbatp11017
Rp11018
(dp11019
g17
VROOT
p11020
sbasg348
(icmyPackage
CorE
p11021
(dp11022
g351
(lp11023
(I0
I4
tp11024
a(I0
I13
tp11025
asg355
g5
(g6
g7
(lp11026
g11000
ag11012
atp11027
Rp11028
(dp11029
g17
g366
sbsbsg356
(icmyPackage
CorE
p11030
(dp11031
g351
(lp11032
(I0
I0
tp11033
a(I0
I2
tp11034
asg355
g5
(g6
g7
(lp11035
g10878
ag10885
atp11036
Rp11037
(dp11038
g17
g366
sbsbsg367
g5398
sg390
(lp11039
(icmyPackage
Sent
p11040
(dp11041
g394
I2
sg395
I104
sg396
S'His wealth increases as he is paid and decreases as he spends money.'
p11042
sg398
I6
sg399
I249
sg355
(lp11043
g11018
asbasba(icmyPackage
CELink
p11044
(dp11045
g3
(lp11046
g11028
asg348
(icmyPackage
CorE
p11047
(dp11048
g351
(lp11049
(I0
I6
tp11050
a(I0
I9
tp11051
asg355
g5
(g6
g7
(lp11052
g10985
ag11012
atp11053
Rp11054
(dp11055
g17
g366
sbsbsg356
(icmyPackage
CorE
p11056
(dp11057
g351
(lp11058
(I0
I0
tp11059
a(I0
I4
tp11060
asg355
g5
(g6
g7
(lp11061
g10904
ag10927
ag10933
ag10940
atp11062
Rp11063
(dp11064
g17
g366
sbsbsg367
g5398
sg390
(lp11065
g11040
asba(icmyPackage
CELink
p11066
(dp11067
g3
(lp11068
g5
(g6
g7
(lp11069
g5
(g6
g7
(lp11070
g5
(g6
g7
(lp11071
g5
(g6
g7
(lp11072
VThese
p11073
atp11074
Rp11075
(dp11076
g17
VDT
p11077
sbatp11078
Rp11079
(dp11080
g17
VNP
p11081
sbag5
(g6
g7
(lp11082
g5
(g6
g7
(lp11083
Vpresent
p11084
atp11085
Rp11086
(dp11087
g17
VVBP
p11088
sbag5
(g6
g7
(lp11089
g5
(g6
g7
(lp11090
g659
atp11091
Rp11092
(dp11093
g17
VDT
p11094
sbag5
(g6
g7
(lp11095
Vgeneral
p11096
atp11097
Rp11098
(dp11099
g17
VJJ
p11100
sbag5
(g6
g7
(lp11101
Vreason
p11102
atp11103
Rp11104
(dp11105
g17
VNN
p11106
sbatp11107
Rp11108
(dp11109
g17
VNP
p11110
sbag5
(g6
g7
(lp11111
g5
(g6
g7
(lp11112
Vfor
p11113
atp11114
Rp11115
(dp11116
g17
VIN
p11117
sbag5
(g6
g7
(lp11118
g5
(g6
g7
(lp11119
g5
(g6
g7
(lp11120
Vusing
p11121
atp11122
Rp11123
(dp11124
g17
VVBG
p11125
sbag5
(g6
g7
(lp11126
g5
(g6
g7
(lp11127
Vapproximate
p11128
atp11129
Rp11130
(dp11131
g17
VJJ
p11132
sbag5
(g6
g7
(lp11133
Vconcepts
p11134
atp11135
Rp11136
(dp11137
g17
VNNS
p11138
sbatp11139
Rp11140
(dp11141
g17
VNP
p11142
sbatp11143
Rp11144
(dp11145
g17
VVP
p11146
sbatp11147
Rp11148
(dp11149
g17
g181
sbatp11150
Rp11151
(dp11152
g17
VPP
p11153
sbatp11154
Rp11155
(dp11156
g17
VVP
p11157
sbag5
(g6
g7
(lp11158
g337
atp11159
Rp11160
(dp11161
g17
g337
sbatp11162
Rp11163
(dp11164
g17
g181
sbatp11165
Rp11166
(dp11167
g17
VROOT
p11168
sbasg348
(icmyPackage
CorE
p11169
(dp11170
g351
(lp11171
(I0
I6
tp11172
a(I0
I8
tp11173
asg355
g11148
sbsg356
(icmyPackage
CorE
p11174
(dp11175
g351
(lp11176
(I0
I0
tp11177
a(I0
I4
tp11178
asg355
g5
(g6
g7
(lp11179
g11079
ag11086
ag11108
atp11180
Rp11181
(dp11182
g17
g366
sbsbsg367
g564
sg390
(lp11183
(icmyPackage
Sent
p11184
(dp11185
g394
I2
sg395
I107
sg396
S'These present a general reason for using approximate concepts.'
p11186
sg398
I7
sg399
I256
sg355
(lp11187
g11166
asbasba(icmyPackage
CELink
p11188
(dp11189
g3
(lp11190
g5
(g6
g7
(lp11191
g5
(g6
g7
(lp11192
g5
(g6
g7
(lp11193
g5
(g6
g7
(lp11194
VThis
p11195
atp11196
Rp11197
(dp11198
g17
VDT
p11199
sbag5
(g6
g7
(lp11200
Vreason
p11201
atp11202
Rp11203
(dp11204
g17
VNN
p11205
sbatp11206
Rp11207
(dp11208
g17
VNP
p11209
sbag5
(g6
g7
(lp11210
g5
(g6
g7
(lp11211
Vwill
p11212
atp11213
Rp11214
(dp11215
g17
VMD
p11216
sbag5
(g6
g7
(lp11217
g5
(g6
g7
(lp11218
Valso
p11219
atp11220
Rp11221
(dp11222
g17
VRB
p11223
sbatp11224
Rp11225
(dp11226
g17
VADVP
p11227
sbag5
(g6
g7
(lp11228
g5
(g6
g7
(lp11229
Vapply
p11230
atp11231
Rp11232
(dp11233
g17
VVB
p11234
sbag5
(g6
g7
(lp11235
g5
(g6
g7
(lp11236
g5
(g6
g7
(lp11237
Vto
p11238
atp11239
Rp11240
(dp11241
g17
VTO
p11242
sbag5
(g6
g7
(lp11243
g5
(g6
g7
(lp11244
Vrobots
p11245
atp11246
Rp11247
(dp11248
g17
VNNS
p11249
sbatp11250
Rp11251
(dp11252
g17
VNP
p11253
sbatp11254
Rp11255
(dp11256
g17
VPP
p11257
sbag5
(g6
g7
(lp11258
Vbut
p11259
atp11260
Rp11261
(dp11262
g17
VCC
p11263
sbag5
(g6
g7
(lp11264
g5
(g6
g7
(lp11265
Vperhaps
p11266
atp11267
Rp11268
(dp11269
g17
VRB
p11270
sbatp11271
Rp11272
(dp11273
g17
VADVP
p11274
sbag5
(g6
g7
(lp11275
g5
(g6
g7
(lp11276
Vto
p11277
atp11278
Rp11279
(dp11280
g17
VTO
p11281
sbag5
(g6
g7
(lp11282
g5
(g6
g7
(lp11283
g659
atp11284
Rp11285
(dp11286
g17
VDT
p11287
sbag5
(g6
g7
(lp11288
Vlesser
p11289
atp11290
Rp11291
(dp11292
g17
VJJR
p11293
sbag5
(g6
g7
(lp11294
Vextent
p11295
atp11296
Rp11297
(dp11298
g17
VNN
p11299
sbatp11300
Rp11301
(dp11302
g17
VNP
p11303
sbatp11304
Rp11305
(dp11306
g17
VPP
p11307
sbatp11308
Rp11309
(dp11310
g17
VPP
p11311
sbag5
(g6
g7
(lp11312
g213
atp11313
Rp11314
(dp11315
g17
g213
sbag5
(g6
g7
(lp11316
g5
(g6
g7
(lp11317
Vsince
p11318
atp11319
Rp11320
(dp11321
g17
VIN
p11322
sbag5
(g6
g7
(lp11323
g5
(g6
g7
(lp11324
g5
(g6
g7
(lp11325
Vcomputers
p11326
atp11327
Rp11328
(dp11329
g17
VNNS
p11330
sbatp11331
Rp11332
(dp11333
g17
VNP
p11334
sbag5
(g6
g7
(lp11335
g5
(g6
g7
(lp11336
Vcan
p11337
atp11338
Rp11339
(dp11340
g17
VMD
p11341
sbag5
(g6
g7
(lp11342
g5
(g6
g7
(lp11343
Vperform
p11344
atp11345
Rp11346
(dp11347
g17
VVB
p11348
sbag5
(g6
g7
(lp11349
g5
(g6
g7
(lp11350
Vmore
p11351
atp11352
Rp11353
(dp11354
g17
VRBR
p11355
sbag5
(g6
g7
(lp11356
Vfrequent
p11357
atp11358
Rp11359
(dp11360
g17
VJJ
p11361
sbatp11362
Rp11363
(dp11364
g17
VADJP
p11365
sbag5
(g6
g7
(lp11366
g5
(g6
g7
(lp11367
g5
(g6
g7
(lp11368
Vupdating
p11369
atp11370
Rp11371
(dp11372
g17
VVBG
p11373
sbag5
(g6
g7
(lp11374
g5
(g6
g7
(lp11375
Vthan
p11376
atp11377
Rp11378
(dp11379
g17
VIN
p11380
sbag5
(g6
g7
(lp11381
g5
(g6
g7
(lp11382
Vcan
p11383
atp11384
Rp11385
(dp11386
g17
VNN
p11387
sbag5
(g6
g7
(lp11388
Vpeople
p11389
atp11390
Rp11391
(dp11392
g17
VNNS
p11393
sbatp11394
Rp11395
(dp11396
g17
VNP
p11397
sbatp11398
Rp11399
(dp11400
g17
VPP
p11401
sbatp11402
Rp11403
(dp11404
g17
VVP
p11405
sbatp11406
Rp11407
(dp11408
g17
g181
sbatp11409
Rp11410
(dp11411
g17
VVP
p11412
sbatp11413
Rp11414
(dp11415
g17
VVP
p11416
sbatp11417
Rp11418
(dp11419
g17
g181
sbatp11420
Rp11421
(dp11422
g17
VSBAR
p11423
sbatp11424
Rp11425
(dp11426
g17
VVP
p11427
sbatp11428
Rp11429
(dp11430
g17
VVP
p11431
sbag5
(g6
g7
(lp11432
g337
atp11433
Rp11434
(dp11435
g17
g337
sbatp11436
Rp11437
(dp11438
g17
g181
sbatp11439
Rp11440
(dp11441
g17
VROOT
p11442
sbasg348
(icmyPackage
CorE
p11443
(dp11444
g351
(lp11445
(I0
I15
tp11446
a(I0
I24
tp11447
asg355
g5
(g6
g7
(lp11448
g11418
ag11434
atp11449
Rp11450
(dp11451
g17
g366
sbsbsg356
(icmyPackage
CorE
p11452
(dp11453
g351
(lp11454
(I0
I0
tp11455
a(I0
I12
tp11456
asg355
g5
(g6
g7
(lp11457
g11207
ag11214
ag11225
ag11232
ag11309
atp11458
Rp11459
(dp11460
g17
g366
sbsbsg367
(icmyPackage
pattern
p11461
(dp11462
g370
I23
sg371
I1
sg372
(lp11463
(lp11464
S'since'
p11465
aasg378
(lp11466
I3
aI1
aI1
asg380
(lp11467
S'This is one of the simplest cases since the surface is so thin.'
p11468
aS'He could not answer the question, since he had not made up his mind.'
p11469
aS'That manager has been a basket case here since his wife left him.'
p11470
asg383
I79
sg384
(lp11471
(lp11472
S'&R@NCTime@'
p11473
aS'(,)'
p11474
aa(lp11475
S'&C@NCTime@'
p11476
aasbsg390
(lp11477
(icmyPackage
Sent
p11478
(dp11479
g394
I2
sg395
I109
sg396
S'This reason will also apply to robots but perhaps to a lesser extent, since computers can perform more frequent updating than can people.'
p11480
sg398
I7
sg399
I261
sg355
(lp11481
g11440
asbasba(icmyPackage
CELink
p11482
(dp11483
g3
(lp11484
g5
(g6
g7
(lp11485
g5
(g6
g7
(lp11486
g5
(g6
g7
(lp11487
g5
(g6
g7
(lp11488
VIf
p11489
atp11490
Rp11491
(dp11492
g17
VIN
p11493
sbag5
(g6
g7
(lp11494
g5
(g6
g7
(lp11495
g5
(g6
g7
(lp11496
Vwe
p11497
atp11498
Rp11499
(dp11500
g17
VPRP
p11501
sbatp11502
Rp11503
(dp11504
g17
VNP
p11505
sbag5
(g6
g7
(lp11506
g5
(g6
g7
(lp11507
Vare
p11508
atp11509
Rp11510
(dp11511
g17
VVBP
p11512
sbag5
(g6
g7
(lp11513
g5
(g6
g7
(lp11514
Vlucky
p11515
atp11516
Rp11517
(dp11518
g17
VJJ
p11519
sbag5
(g6
g7
(lp11520
g5
(g6
g7
(lp11521
Vin
p11522
atp11523
Rp11524
(dp11525
g17
VIN
p11526
sbag5
(g6
g7
(lp11527
g5
(g6
g7
(lp11528
g5
(g6
g7
(lp11529
Vhow
p11530
atp11531
Rp11532
(dp11533
g17
VWRB
p11534
sbatp11535
Rp11536
(dp11537
g17
VWHADVP
p11538
sbag5
(g6
g7
(lp11539
g5
(g6
g7
(lp11540
g5
(g6
g7
(lp11541
Vreality
p11542
atp11543
Rp11544
(dp11545
g17
VNN
p11546
sbatp11547
Rp11548
(dp11549
g17
VNP
p11550
sbag5
(g6
g7
(lp11551
g5
(g6
g7
(lp11552
Vturns
p11553
atp11554
Rp11555
(dp11556
g17
VVBZ
p11557
sbag5
(g6
g7
(lp11558
g5
(g6
g7
(lp11559
Vout
p11560
atp11561
Rp11562
(dp11563
g17
VRP
p11564
sbatp11565
Rp11566
(dp11567
g17
VPRT
p11568
sbatp11569
Rp11570
(dp11571
g17
VVP
p11572
sbatp11573
Rp11574
(dp11575
g17
g181
sbatp11576
Rp11577
(dp11578
g17
VSBAR
p11579
sbatp11580
Rp11581
(dp11582
g17
VPP
p11583
sbatp11584
Rp11585
(dp11586
g17
VADJP
p11587
sbatp11588
Rp11589
(dp11590
g17
VVP
p11591
sbatp11592
Rp11593
(dp11594
g17
g181
sbatp11595
Rp11596
(dp11597
g17
VSBAR
p11598
sbag5
(g6
g7
(lp11599
g213
atp11600
Rp11601
(dp11602
g17
g213
sbag5
(g6
g7
(lp11603
g5
(g6
g7
(lp11604
Vthe
p11605
atp11606
Rp11607
(dp11608
g17
VDT
p11609
sbag5
(g6
g7
(lp11610
VQ
p11611
atp11612
Rp11613
(dp11614
g17
VNNP
p11615
sbag5
(g6
g7
(lp11616
V'
p11617
atp11618
Rp11619
(dp11620
g17
V''
p11621
sbag5
(g6
g7
(lp11622
Vfunctions
p11623
atp11624
Rp11625
(dp11626
g17
VNNS
p11627
sbatp11628
Rp11629
(dp11630
g17
VNP
p11631
sbag5
(g6
g7
(lp11632
g5
(g6
g7
(lp11633
Vcorrespond
p11634
atp11635
Rp11636
(dp11637
g17
VVBD
p11638
sbag5
(g6
g7
(lp11639
g5
(g6
g7
(lp11640
Vto
p11641
atp11642
Rp11643
(dp11644
g17
VTO
p11645
sbag5
(g6
g7
(lp11646
g5
(g6
g7
(lp11647
Vthe
p11648
atp11649
Rp11650
(dp11651
g17
VDT
p11652
sbag5
(g6
g7
(lp11653
g11611
atp11654
Rp11655
(dp11656
g17
VNNP
p11657
sbag5
(g6
g7
(lp11658
Vfunctions
p11659
atp11660
Rp11661
(dp11662
g17
VNNS
p11663
sbatp11664
Rp11665
(dp11666
g17
VNP
p11667
sbatp11668
Rp11669
(dp11670
g17
VPP
p11671
sbag5
(g6
g7
(lp11672
g213
atp11673
Rp11674
(dp11675
g17
g213
sbag5
(g6
g7
(lp11676
g5
(g6
g7
(lp11677
Vi.e.
p11678
atp11679
Rp11680
(dp11681
g17
VRB
p11682
sbatp11683
Rp11684
(dp11685
g17
VADVP
p11686
sbatp11687
Rp11688
(dp11689
g17
VVP
p11690
sbatp11691
Rp11692
(dp11693
g17
g181
sbatp11694
Rp11695
(dp11696
g17
VROOT
p11697
sbasg348
(icmyPackage
CorE
p11698
(dp11699
g351
(lp11700
(I0
I1
tp11701
a(I0
I8
tp11702
asg355
g11593
sbsg356
(icmyPackage
CorE
p11703
(dp11704
g351
(lp11705
(I0
I10
tp11706
a(I0
I20
tp11707
asg355
g5
(g6
g7
(lp11708
g11629
ag11688
atp11709
Rp11710
(dp11711
g17
g366
sbsbsg367
g6532
sg390
(lp11712
(icmyPackage
Sent
p11713
(dp11714
g394
I3
sg395
I118
sg396
S"If we are lucky in how reality turns out, the Q' functions correspond to the Q functions, i.e."
p11715
sg398
I0
sg399
I278
sg355
(lp11716
g11695
asbasba(icmyPackage
CELink
p11717
(dp11718
g3
(lp11719
g5
(g6
g7
(lp11720
g5
(g6
g7
(lp11721
g5
(g6
g7
(lp11722
g5
(g6
g7
(lp11723
g5
(g6
g7
(lp11724
VIf
p11725
atp11726
Rp11727
(dp11728
g17
VIN
p11729
sbag5
(g6
g7
(lp11730
g5
(g6
g7
(lp11731
g5
(g6
g7
(lp11732
Vwe
p11733
atp11734
Rp11735
(dp11736
g17
VPRP
p11737
sbatp11738
Rp11739
(dp11740
g17
VNP
p11741
sbag5
(g6
g7
(lp11742
g5
(g6
g7
(lp11743
Vare
p11744
atp11745
Rp11746
(dp11747
g17
VVBP
p11748
sbag5
(g6
g7
(lp11749
g5
(g6
g7
(lp11750
Vvery
p11751
atp11752
Rp11753
(dp11754
g17
VRB
p11755
sbag5
(g6
g7
(lp11756
Vfortunate
p11757
atp11758
Rp11759
(dp11760
g17
VJJ
p11761
sbatp11762
Rp11763
(dp11764
g17
VADJP
p11765
sbatp11766
Rp11767
(dp11768
g17
VVP
p11769
sbatp11770
Rp11771
(dp11772
g17
g181
sbatp11773
Rp11774
(dp11775
g17
VSBAR
p11776
sbag5
(g6
g7
(lp11777
g5
(g6
g7
(lp11778
Vwe
p11779
atp11780
Rp11781
(dp11782
g17
VPRP
p11783
sbatp11784
Rp11785
(dp11786
g17
VNP
p11787
sbag5
(g6
g7
(lp11788
g5
(g6
g7
(lp11789
Vmay
p11790
atp11791
Rp11792
(dp11793
g17
VMD
p11794
sbag5
(g6
g7
(lp11795
g5
(g6
g7
(lp11796
Vbe
p11797
atp11798
Rp11799
(dp11800
g17
VVB
p11801
sbag5
(g6
g7
(lp11802
g5
(g6
g7
(lp11803
Vable
p11804
atp11805
Rp11806
(dp11807
g17
VJJ
p11808
sbag5
(g6
g7
(lp11809
g5
(g6
g7
(lp11810
g5
(g6
g7
(lp11811
Vto
p11812
atp11813
Rp11814
(dp11815
g17
VTO
p11816
sbag5
(g6
g7
(lp11817
g5
(g6
g7
(lp11818
Vknow
p11819
atp11820
Rp11821
(dp11822
g17
VVB
p11823
sbag5
(g6
g7
(lp11824
g5
(g6
g7
(lp11825
g5
(g6
g7
(lp11826
Vwhen
p11827
atp11828
Rp11829
(dp11830
g17
VWRB
p11831
sbatp11832
Rp11833
(dp11834
g17
VWHADVP
p11835
sbag5
(g6
g7
(lp11836
g5
(g6
g7
(lp11837
g5
(g6
g7
(lp11838
g5
(g6
g7
(lp11839
Vwe
p11840
atp11841
Rp11842
(dp11843
g17
VPRP
p11844
sbatp11845
Rp11846
(dp11847
g17
VNP
p11848
sbag5
(g6
g7
(lp11849
g5
(g6
g7
(lp11850
Vare
p11851
atp11852
Rp11853
(dp11854
g17
VVBP
p11855
sbag5
(g6
g7
(lp11856
g5
(g6
g7
(lp11857
Vlucky
p11858
atp11859
Rp11860
(dp11861
g17
VJJ
p11862
sbatp11863
Rp11864
(dp11865
g17
VADJP
p11866
sbatp11867
Rp11868
(dp11869
g17
VVP
p11870
sbatp11871
Rp11872
(dp11873
g17
g181
sbag5
(g6
g7
(lp11874
g213
atp11875
Rp11876
(dp11877
g17
g213
sbag5
(g6
g7
(lp11878
Vand
p11879
atp11880
Rp11881
(dp11882
g17
VCC
p11883
sbag5
(g6
g7
(lp11884
g5
(g6
g7
(lp11885
g5
(g6
g7
(lp11886
Vwe
p11887
atp11888
Rp11889
(dp11890
g17
VPRP
p11891
sbatp11892
Rp11893
(dp11894
g17
VNP
p11895
sbag5
(g6
g7
(lp11896
g5
(g6
g7
(lp11897
Vhave
p11898
atp11899
Rp11900
(dp11901
g17
VVBP
p11902
sbag5
(g6
g7
(lp11903
g5
(g6
g7
(lp11904
VKnowLucky
p11905
atp11906
Rp11907
(dp11908
g17
VVBN
p11909
sbag5
(g6
g7
(lp11910
V-LRB-
p11911
atp11912
Rp11913
(dp11914
g17
V-LRB-
p11915
sbag5
(g6
g7
(lp11916
g5
(g6
g7
(lp11917
Vo1
p11918
atp11919
Rp11920
(dp11921
g17
VNNS
p11922
sbatp11923
Rp11924
(dp11925
g17
VNP
p11926
sbag5
(g6
g7
(lp11927
g213
atp11928
Rp11929
(dp11930
g17
g213
sbatp11931
Rp11932
(dp11933
g17
VVP
p11934
sbatp11935
Rp11936
(dp11937
g17
VVP
p11938
sbatp11939
Rp11940
(dp11941
g17
g181
sbatp11942
Rp11943
(dp11944
g17
g181
sbatp11945
Rp11946
(dp11947
g17
VSBAR
p11948
sbatp11949
Rp11950
(dp11951
g17
VVP
p11952
sbatp11953
Rp11954
(dp11955
g17
VVP
p11956
sbatp11957
Rp11958
(dp11959
g17
g181
sbatp11960
Rp11961
(dp11962
g17
VADJP
p11963
sbag5
(g6
g7
(lp11964
V...
p11965
atp11966
Rp11967
(dp11968
g17
g2347
sbag5
(g6
g7
(lp11969
g5
(g6
g7
(lp11970
g5
(g6
g7
(lp11971
g213
atp11972
Rp11973
(dp11974
g17
g213
sbag5
(g6
g7
(lp11975
g5
(g6
g7
(lp11976
Vok
p11977
atp11978
Rp11979
(dp11980
g17
VNN
p11981
sbatp11982
Rp11983
(dp11984
g17
VNP
p11985
sbag5
(g6
g7
(lp11986
V-RRB-
p11987
atp11988
Rp11989
(dp11990
g17
V-RRB-
p11991
sbag5
(g6
g7
(lp11992
V-
p11993
atp11994
Rp11995
(dp11996
g17
VNNS
p11997
sbatp11998
Rp11999
(dp12000
g17
VNP
p12001
sbag5
(g6
g7
(lp12002
g5
(g6
g7
(lp12003
g5
(g6
g7
(lp12004
g5
(g6
g7
(lp12005
V>
p12006
atp12007
Rp12008
(dp12009
g17
VVBZ
p12010
sbag5
(g6
g7
(lp12011
g5
(g6
g7
(lp12012
VLucky
p12013
atp12014
Rp12015
(dp12016
g17
VVBN
p12017
sbag5
(g6
g7
(lp12018
V-LRB-
p12019
atp12020
Rp12021
(dp12022
g17
V-LRB-
p12023
sbag5
(g6
g7
(lp12024
g5
(g6
g7
(lp12025
Vr1
p12026
atp12027
Rp12028
(dp12029
g17
VNNS
p12030
sbatp12031
Rp12032
(dp12033
g17
VNP
p12034
sbag5
(g6
g7
(lp12035
g213
atp12036
Rp12037
(dp12038
g17
g213
sbatp12039
Rp12040
(dp12041
g17
VVP
p12042
sbatp12043
Rp12044
(dp12045
g17
VVP
p12046
sbag5
(g6
g7
(lp12047
V...
p12048
atp12049
Rp12050
(dp12051
g17
g2347
sbatp12052
Rp12053
(dp12054
g17
g181
sbatp12055
Rp12056
(dp12057
g17
VSBAR
p12058
sbatp12059
Rp12060
(dp12061
g17
VNP
p12062
sbatp12063
Rp12064
(dp12065
g17
VVP
p12066
sbatp12067
Rp12068
(dp12069
g17
VVP
p12070
sbatp12071
Rp12072
(dp12073
g17
g181
sbag5
(g6
g7
(lp12074
g213
atp12075
Rp12076
(dp12077
g17
g213
sbag5
(g6
g7
(lp12078
g5
(g6
g7
(lp12079
Vrn
p12080
atp12081
Rp12082
(dp12083
g17
VVBP
p12084
sbatp12085
Rp12086
(dp12087
g17
VVP
p12088
sbag5
(g6
g7
(lp12089
V-RRB-
p12090
atp12091
Rp12092
(dp12093
g17
V-RRB-
p12094
sbag5
(g6
g7
(lp12095
g337
atp12096
Rp12097
(dp12098
g17
g337
sbatp12099
Rp12100
(dp12101
g17
g181
sbatp12102
Rp12103
(dp12104
g17
VROOT
p12105
sbasg348
(icmyPackage
CorE
p12106
(dp12107
g351
(lp12108
(I0
I1
tp12109
a(I0
I14
tp12110
asg355
g5
(g6
g7
(lp12111
g11771
ag11785
ag11792
ag11799
ag11806
ag11814
ag11821
ag11833
ag11872
atp12112
Rp12113
(dp12114
g17
g366
sbsbsg356
(icmyPackage
CorE
p12115
(dp12116
g351
(lp12117
(I0
I16
tp12118
a(I0
I23
tp12119
asg355
g5
(g6
g7
(lp12120
g11881
ag11940
ag11967
atp12121
Rp12122
(dp12123
g17
g366
sbsbsg367
g6532
sg390
(lp12124
(icmyPackage
Sent
p12125
(dp12126
g394
I3
sg395
I119
sg396
S'If we are very fortunate we may be able to know when we are lucky, and we have KnowLucky(o1,...,ok) -> Lucky(r1,...,rn).'
p12127
sg398
I0
sg399
I281
sg355
(lp12128
g12103
asbasba(icmyPackage
CELink
p12129
(dp12130
g3
(lp12131
g5
(g6
g7
(lp12132
g5
(g6
g7
(lp12133
g5
(g6
g7
(lp12134
g5
(g6
g7
(lp12135
VThis
p12136
atp12137
Rp12138
(dp12139
g17
VDT
p12140
sbatp12141
Rp12142
(dp12143
g17
VNP
p12144
sbag5
(g6
g7
(lp12145
g5
(g6
g7
(lp12146
Vmakes
p12147
atp12148
Rp12149
(dp12150
g17
VVBZ
p12151
sbag5
(g6
g7
(lp12152
g5
(g6
g7
(lp12153
g5
(g6
g7
(lp12154
g5
(g6
g7
(lp12155
Vthe
p12156
atp12157
Rp12158
(dp12159
g17
VDT
p12160
sbag5
(g6
g7
(lp12161
Vconcept
p12162
atp12163
Rp12164
(dp12165
g17
VNN
p12166
sbatp12167
Rp12168
(dp12169
g17
VNP
p12170
sbag5
(g6
g7
(lp12171
g5
(g6
g7
(lp12172
Vof
p12173
atp12174
Rp12175
(dp12176
g17
VIN
p12177
sbag5
(g6
g7
(lp12178
g5
(g6
g7
(lp12179
VD
p12180
atp12181
Rp12182
(dp12183
g17
VNNP
p12184
sbatp12185
Rp12186
(dp12187
g17
VNP
p12188
sbatp12189
Rp12190
(dp12191
g17
VPP
p12192
sbatp12193
Rp12194
(dp12195
g17
VNP
p12196
sbag5
(g6
g7
(lp12197
g5
(g6
g7
(lp12198
Vflipflop
p12199
atp12200
Rp12201
(dp12202
g17
VVB
p12203
sbag5
(g6
g7
(lp12204
g5
(g6
g7
(lp12205
g5
(g6
g7
(lp12206
Vitself
p12207
atp12208
Rp12209
(dp12210
g17
VPRP
p12211
sbatp12212
Rp12213
(dp12214
g17
VNP
p12215
sbag5
(g6
g7
(lp12216
g5
(g6
g7
(lp12217
Vapproximate
p12218
atp12219
Rp12220
(dp12221
g17
VJJ
p12222
sbatp12223
Rp12224
(dp12225
g17
VVP
p12226
sbatp12227
Rp12228
(dp12229
g17
g181
sbatp12230
Rp12231
(dp12232
g17
VVP
p12233
sbatp12234
Rp12235
(dp12236
g17
g181
sbag5
(g6
g7
(lp12237
g213
atp12238
Rp12239
(dp12240
g17
g213
sbag5
(g6
g7
(lp12241
g5
(g6
g7
(lp12242
Vperhaps
p12243
atp12244
Rp12245
(dp12246
g17
VRB
p12247
sbatp12248
Rp12249
(dp12250
g17
VADVP
p12251
sbag5
(g6
g7
(lp12252
g5
(g6
g7
(lp12253
Vnot
p12254
atp12255
Rp12256
(dp12257
g17
VRB
p12258
sbag5
(g6
g7
(lp12259
Vin
p12260
atp12261
Rp12262
(dp12263
g17
VIN
p12264
sbag5
(g6
g7
(lp12265
g5
(g6
g7
(lp12266
g5
(g6
g7
(lp12267
Vthe
p12268
atp12269
Rp12270
(dp12271
g17
VDT
p12272
sbag5
(g6
g7
(lp12273
Vsame
p12274
atp12275
Rp12276
(dp12277
g17
VJJ
p12278
sbag5
(g6
g7
(lp12279
Vsense
p12280
atp12281
Rp12282
(dp12283
g17
VNN
p12284
sbatp12285
Rp12286
(dp12287
g17
VNP
p12288
sbag5
(g6
g7
(lp12289
g5
(g6
g7
(lp12290
Vas
p12291
atp12292
Rp12293
(dp12294
g17
VIN
p12295
sbag5
(g6
g7
(lp12296
g5
(g6
g7
(lp12297
Vsome
p12298
atp12299
Rp12300
(dp12301
g17
VDT
p12302
sbag5
(g6
g7
(lp12303
Vother
p12304
atp12305
Rp12306
(dp12307
g17
VJJ
p12308
sbag5
(g6
g7
(lp12309
Vapproximate
p12310
atp12311
Rp12312
(dp12313
g17
VJJ
p12314
sbag5
(g6
g7
(lp12315
Vtheories
p12316
atp12317
Rp12318
(dp12319
g17
VNNS
p12320
sbatp12321
Rp12322
(dp12323
g17
VNP
p12324
sbatp12325
Rp12326
(dp12327
g17
VPP
p12328
sbatp12329
Rp12330
(dp12331
g17
VNP
p12332
sbatp12333
Rp12334
(dp12335
g17
VPP
p12336
sbatp12337
Rp12338
(dp12339
g17
VVP
p12340
sbag5
(g6
g7
(lp12341
g337
atp12342
Rp12343
(dp12344
g17
g337
sbatp12345
Rp12346
(dp12347
g17
g181
sbatp12348
Rp12349
(dp12350
g17
VROOT
p12351
sbag5
(g6
g7
(lp12352
g5
(g6
g7
(lp12353
g5
(g6
g7
(lp12354
g5
(g6
g7
(lp12355
g5
(g6
g7
(lp12356
VThus
p12357
atp12358
Rp12359
(dp12360
g17
VRB
p12361
sbatp12362
Rp12363
(dp12364
g17
VADVP
p12365
sbag5
(g6
g7
(lp12366
g5
(g6
g7
(lp12367
g5
(g6
g7
(lp12368
Vthe
p12369
atp12370
Rp12371
(dp12372
g17
VDT
p12373
sbag5
(g6
g7
(lp12374
Vtheory
p12375
atp12376
Rp12377
(dp12378
g17
VNN
p12379
sbatp12380
Rp12381
(dp12382
g17
VNP
p12383
sbag5
(g6
g7
(lp12384
g5
(g6
g7
(lp12385
Vof
p12386
atp12387
Rp12388
(dp12389
g17
VIN
p12390
sbag5
(g6
g7
(lp12391
g5
(g6
g7
(lp12392
Vsequential
p12393
atp12394
Rp12395
(dp12396
g17
VJJ
p12397
sbag5
(g6
g7
(lp12398
Vcircuits
p12399
atp12400
Rp12401
(dp12402
g17
VNNS
p12403
sbatp12404
Rp12405
(dp12406
g17
VNP
p12407
sbatp12408
Rp12409
(dp12410
g17
VPP
p12411
sbatp12412
Rp12413
(dp12414
g17
VNP
p12415
sbag5
(g6
g7
(lp12416
g5
(g6
g7
(lp12417
Vis
p12418
atp12419
Rp12420
(dp12421
g17
VVBZ
p12422
sbag5
(g6
g7
(lp12423
g5
(g6
g7
(lp12424
Van
p12425
atp12426
Rp12427
(dp12428
g17
VDT
p12429
sbag5
(g6
g7
(lp12430
Vapproximate
p12431
atp12432
Rp12433
(dp12434
g17
VJJ
p12435
sbag5
(g6
g7
(lp12436
Vtheory
p12437
atp12438
Rp12439
(dp12440
g17
VNN
p12441
sbatp12442
Rp12443
(dp12444
g17
VNP
p12445
sbatp12446
Rp12447
(dp12448
g17
VVP
p12449
sbatp12450
Rp12451
(dp12452
g17
g181
sbag5
(g6
g7
(lp12453
g213
atp12454
Rp12455
(dp12456
g17
g213
sbag5
(g6
g7
(lp12457
Vand
p12458
atp12459
Rp12460
(dp12461
g17
VCC
p12462
sbag5
(g6
g7
(lp12463
g5
(g6
g7
(lp12464
g5
(g6
g7
(lp12465
Vit
p12466
atp12467
Rp12468
(dp12469
g17
VPRP
p12470
sbatp12471
Rp12472
(dp12473
g17
VNP
p12474
sbag5
(g6
g7
(lp12475
g5
(g6
g7
(lp12476
Vis
p12477
atp12478
Rp12479
(dp12480
g17
VVBZ
p12481
sbag5
(g6
g7
(lp12482
Vnot
p12483
atp12484
Rp12485
(dp12486
g17
VRB
p12487
sbag5
(g6
g7
(lp12488
g5
(g6
g7
(lp12489
Van
p12490
atp12491
Rp12492
(dp12493
g17
VDT
p12494
sbag5
(g6
g7
(lp12495
Vapproximation
p12496
atp12497
Rp12498
(dp12499
g17
VNN
p12500
sbatp12501
Rp12502
(dp12503
g17
VNP
p12504
sbag5
(g6
g7
(lp12505
g5
(g6
g7
(lp12506
Vto
p12507
atp12508
Rp12509
(dp12510
g17
VTO
p12511
sbag5
(g6
g7
(lp12512
g5
(g6
g7
(lp12513
g5
(g6
g7
(lp12514
g659
atp12515
Rp12516
(dp12517
g17
VDT
p12518
sbag5
(g6
g7
(lp12519
Vdefinite
p12520
atp12521
Rp12522
(dp12523
g17
VJJ
p12524
sbag5
(g6
g7
(lp12525
g5
(g6
g7
(lp12526
Vless
p12527
atp12528
Rp12529
(dp12530
g17
VRBR
p12531
sbag5
(g6
g7
(lp12532
Vapproximate
p12533
atp12534
Rp12535
(dp12536
g17
VJJ
p12537
sbatp12538
Rp12539
(dp12540
g17
VADJP
p12541
sbag5
(g6
g7
(lp12542
Vtheory
p12543
atp12544
Rp12545
(dp12546
g17
VNN
p12547
sbatp12548
Rp12549
(dp12550
g17
VNP
p12551
sbag5
(g6
g7
(lp12552
g5
(g6
g7
(lp12553
Vof
p12554
atp12555
Rp12556
(dp12557
g17
VIN
p12558
sbag5
(g6
g7
(lp12559
g5
(g6
g7
(lp12560
Vpurely
p12561
atp12562
Rp12563
(dp12564
g17
VRB
p12565
sbag5
(g6
g7
(lp12566
Vdigital
p12567
atp12568
Rp12569
(dp12570
g17
VJJ
p12571
sbag5
(g6
g7
(lp12572
Vcircuits
p12573
atp12574
Rp12575
(dp12576
g17
VNNS
p12577
sbatp12578
Rp12579
(dp12580
g17
VNP
p12581
sbatp12582
Rp12583
(dp12584
g17
VPP
p12585
sbatp12586
Rp12587
(dp12588
g17
VNP
p12589
sbatp12590
Rp12591
(dp12592
g17
VPP
p12593
sbatp12594
Rp12595
(dp12596
g17
VVP
p12597
sbatp12598
Rp12599
(dp12600
g17
g181
sbag5
(g6
g7
(lp12601
g337
atp12602
Rp12603
(dp12604
g17
g337
sbatp12605
Rp12606
(dp12607
g17
g181
sbatp12608
Rp12609
(dp12610
g17
VROOT
p12611
sbasg348
(icmyPackage
CorE
p12612
(dp12613
g351
(lp12614
(I0
I0
tp12615
a(I0
I20
tp12616
asg355
g5
(g6
g7
(lp12617
g12142
ag12338
atp12618
Rp12619
(dp12620
g17
g366
sbsbsg356
(icmyPackage
CorE
p12621
(dp12622
g351
(lp12623
(I1
I1
tp12624
a(I1
I27
tp12625
asg355
g5
(g6
g7
(lp12626
g12413
ag12447
ag12455
ag12460
ag12599
ag12603
atp12627
Rp12628
(dp12629
g17
g366
sbsbsg367
g3933
sg390
(lp12630
(icmyPackage
Sent
p12631
(dp12632
g394
I3
sg395
I125
sg396
S'This makes the concept of D flipflop itself approximate, perhaps not in the same sense as some other approximate theories.'
p12633
sg398
I1
sg399
I294
sg355
(lp12634
g12349
asba(icmyPackage
Sent
p12635
(dp12636
g394
I3
sg395
I126
sg396
S'Thus the theory of sequential circuits is an approximate theory, and it is not an approximation to a definite less approximate theory of purely digital circuits.'
p12637
sg398
I1
sg399
I295
sg355
(lp12638
g12609
asbasba(icmyPackage
CELink
p12639
(dp12640
g3
(lp12641
g5
(g6
g7
(lp12642
g5
(g6
g7
(lp12643
g5
(g6
g7
(lp12644
g5
(g6
g7
(lp12645
VSuppose
p12646
atp12647
Rp12648
(dp12649
g17
VVB
p12650
sbag5
(g6
g7
(lp12651
g5
(g6
g7
(lp12652
g5
(g6
g7
(lp12653
Van
p12654
atp12655
Rp12656
(dp12657
g17
VDT
p12658
sbag5
(g6
g7
(lp12659
Vapproximate
p12660
atp12661
Rp12662
(dp12663
g17
VJJ
p12664
sbag5
(g6
g7
(lp12665
Vconcept
p12666
atp12667
Rp12668
(dp12669
g17
VNN
p12670
sbatp12671
Rp12672
(dp12673
g17
VNP
p12674
sbag5
(g6
g7
(lp12675
g5
(g6
g7
(lp12676
Vrepresented
p12677
atp12678
Rp12679
(dp12680
g17
VVBN
p12681
sbag5
(g6
g7
(lp12682
g5
(g6
g7
(lp12683
Vby
p12684
atp12685
Rp12686
(dp12687
g17
VIN
p12688
sbag5
(g6
g7
(lp12689
g5
(g6
g7
(lp12690
g5
(g6
g7
(lp12691
g659
atp12692
Rp12693
(dp12694
g17
VDT
p12695
sbag5
(g6
g7
(lp12696
Vpredicate
p12697
atp12698
Rp12699
(dp12700
g17
VJJ
p12701
sbag5
(g6
g7
(lp12702
g843
atp12703
Rp12704
(dp12705
g17
VNN
p12706
sbatp12707
Rp12708
(dp12709
g17
VNP
p12710
sbag5
(g6
g7
(lp12711
g5
(g6
g7
(lp12712
g5
(g6
g7
(lp12713
V-LRB-
p12714
atp12715
Rp12716
(dp12717
g17
V-LRB-
p12718
sbag5
(g6
g7
(lp12719
g5
(g6
g7
(lp12720
g828
atp12721
Rp12722
(dp12723
g17
VSYM
p12724
sbatp12725
Rp12726
(dp12727
g17
VNP
p12728
sbag5
(g6
g7
(lp12729
V-RRB-
p12730
atp12731
Rp12732
(dp12733
g17
V-RRB-
p12734
sbag5
(g6
g7
(lp12735
g5
(g6
g7
(lp12736
Vhas
p12737
atp12738
Rp12739
(dp12740
g17
VVBZ
p12741
sbag5
(g6
g7
(lp12742
g5
(g6
g7
(lp12743
g5
(g6
g7
(lp12744
g5
(g6
g7
(lp12745
g659
atp12746
Rp12747
(dp12748
g17
VDT
p12749
sbag5
(g6
g7
(lp12750
Vsufficient
p12751
atp12752
Rp12753
(dp12754
g17
VJJ
p12755
sbag5
(g6
g7
(lp12756
Vcondition
p12757
atp12758
Rp12759
(dp12760
g17
VNN
p12761
sbag5
(g6
g7
(lp12762
Vsuff
p12763
atp12764
Rp12765
(dp12766
g17
VNN
p12767
sbatp12768
Rp12769
(dp12770
g17
VNP
p12771
sbag5
(g6
g7
(lp12772
V-LRB-
p12773
atp12774
Rp12775
(dp12776
g17
V-LRB-
p12777
sbag5
(g6
g7
(lp12778
g5
(g6
g7
(lp12779
g828
atp12780
Rp12781
(dp12782
g17
VSYM
p12783
sbatp12784
Rp12785
(dp12786
g17
VNP
p12787
sbag5
(g6
g7
(lp12788
V-RRB-
p12789
atp12790
Rp12791
(dp12792
g17
V-RRB-
p12793
sbatp12794
Rp12795
(dp12796
g17
VNP
p12797
sbag5
(g6
g7
(lp12798
Vand
p12799
atp12800
Rp12801
(dp12802
g17
VCC
p12803
sbag5
(g6
g7
(lp12804
g5
(g6
g7
(lp12805
g5
(g6
g7
(lp12806
g659
atp12807
Rp12808
(dp12809
g17
VDT
p12810
sbag5
(g6
g7
(lp12811
Vnecessary
p12812
atp12813
Rp12814
(dp12815
g17
VJJ
p12816
sbag5
(g6
g7
(lp12817
Vcondition
p12818
atp12819
Rp12820
(dp12821
g17
VNN
p12822
sbag5
(g6
g7
(lp12823
Vnec
p12824
atp12825
Rp12826
(dp12827
g17
VNN
p12828
sbatp12829
Rp12830
(dp12831
g17
VNP
p12832
sbag5
(g6
g7
(lp12833
V-LRB-
p12834
atp12835
Rp12836
(dp12837
g17
V-LRB-
p12838
sbag5
(g6
g7
(lp12839
g5
(g6
g7
(lp12840
g828
atp12841
Rp12842
(dp12843
g17
VSYM
p12844
sbatp12845
Rp12846
(dp12847
g17
VNP
p12848
sbag5
(g6
g7
(lp12849
V-RRB-
p12850
atp12851
Rp12852
(dp12853
g17
V-RRB-
p12854
sbatp12855
Rp12856
(dp12857
g17
VNP
p12858
sbatp12859
Rp12860
(dp12861
g17
VNP
p12862
sbatp12863
Rp12864
(dp12865
g17
VVP
p12866
sbatp12867
Rp12868
(dp12869
g17
g181
sbatp12870
Rp12871
(dp12872
g17
VSBAR
p12873
sbatp12874
Rp12875
(dp12876
g17
VNP
p12877
sbatp12878
Rp12879
(dp12880
g17
VPP
p12881
sbatp12882
Rp12883
(dp12884
g17
VVP
p12885
sbatp12886
Rp12887
(dp12888
g17
VNP
p12889
sbatp12890
Rp12891
(dp12892
g17
VVP
p12893
sbag5
(g6
g7
(lp12894
g337
atp12895
Rp12896
(dp12897
g17
g337
sbatp12898
Rp12899
(dp12900
g17
g181
sbatp12901
Rp12902
(dp12903
g17
VROOT
p12904
sbag5
(g6
g7
(lp12905
g5
(g6
g7
(lp12906
g5
(g6
g7
(lp12907
VThus
p12908
atp12909
Rp12910
(dp12911
g17
VVBZ
p12912
sbag5
(g6
g7
(lp12913
g5
(g6
g7
(lp12914
Vwe
p12915
atp12916
Rp12917
(dp12918
g17
VPRP
p12919
sbatp12920
Rp12921
(dp12922
g17
VNP
p12923
sbag5
(g6
g7
(lp12924
g5
(g6
g7
(lp12925
Vhave
p12926
atp12927
Rp12928
(dp12929
g17
VVB
p12930
sbatp12931
Rp12932
(dp12933
g17
VVP
p12934
sbatp12935
Rp12936
(dp12937
g17
VSINV
p12938
sbatp12939
Rp12940
(dp12941
g17
VROOT
p12942
sbasg348
(icmyPackage
CorE
p12943
(dp12944
g351
(lp12945
(I0
I0
tp12946
a(I0
I27
tp12947
asg355
g12891
sbsg356
(icmyPackage
CorE
p12948
(dp12949
g351
(lp12950
(I1
I1
tp12951
a(I1
I2
tp12952
asg355
g5
(g6
g7
(lp12953
g12921
ag12932
atp12954
Rp12955
(dp12956
g17
g366
sbsbsg367
g3933
sg390
(lp12957
(icmyPackage
Sent
p12958
(dp12959
g394
I4
sg395
I127
sg396
S'Suppose an approximate concept represented by a predicate p(x) has a sufficient condition suff(x) and a necessary condition nec(x).'
p12960
sg398
I0
sg399
I298
sg355
(lp12961
g12902
asba(icmyPackage
Sent
p12962
(dp12963
g394
I4
sg395
I127
sg396
S'Thus we have'
p12964
sg398
I0
sg399
I299
sg355
(lp12965
g12940
asbasba.