(lp0
(icmyPackage
CELink
p1
(dp2
S'PTreelst'
p3
(lp4
ccopy_reg
_reconstructor
p5
(cnltk.tree
Tree
p6
c__builtin__
list
p7
(lp8
g5
(g6
g7
(lp9
g5
(g6
g7
(lp10
g5
(g6
g7
(lp11
g5
(g6
g7
(lp12
VLogic
p13
atp14
Rp15
(dp16
S'_label'
p17
VNNP
p18
sbag5
(g6
g7
(lp19
Vprogrammers
p20
atp21
Rp22
(dp23
g17
VNNS
p24
sbatp25
Rp26
(dp27
g17
VNP
p28
sbag5
(g6
g7
(lp29
g5
(g6
g7
(lp30
Vlike
p31
atp32
Rp33
(dp34
g17
VVBP
p35
sbag5
(g6
g7
(lp36
g5
(g6
g7
(lp37
g5
(g6
g7
(lp38
Vto
p39
atp40
Rp41
(dp42
g17
VTO
p43
sbag5
(g6
g7
(lp44
g5
(g6
g7
(lp45
Vregard
p46
atp47
Rp48
(dp49
g17
VVB
p50
sbag5
(g6
g7
(lp51
g5
(g6
g7
(lp52
Vprogramming
p53
atp54
Rp55
(dp56
g17
VNN
p57
sbatp58
Rp59
(dp60
g17
VNP
p61
sbag5
(g6
g7
(lp62
g5
(g6
g7
(lp63
Vas
p64
atp65
Rp66
(dp67
g17
VIN
p68
sbag5
(g6
g7
(lp69
g5
(g6
g7
(lp70
Vcontrolled
p71
atp72
Rp73
(dp74
g17
VJJ
p75
sbag5
(g6
g7
(lp76
Vdeduction
p77
atp78
Rp79
(dp80
g17
VNN
p81
sbatp82
Rp83
(dp84
g17
VNP
p85
sbatp86
Rp87
(dp88
g17
VPP
p89
sbatp90
Rp91
(dp92
g17
VVP
p93
sbatp94
Rp95
(dp96
g17
VVP
p97
sbatp98
Rp99
(dp100
g17
VS
p101
sbatp102
Rp103
(dp104
g17
VVP
p105
sbatp106
Rp107
(dp108
g17
g101
sbag5
(g6
g7
(lp109
V,
p110
atp111
Rp112
(dp113
g17
g110
sbag5
(g6
g7
(lp114
Vand
p115
atp116
Rp117
(dp118
g17
VCC
p119
sbag5
(g6
g7
(lp120
g5
(g6
g7
(lp121
g5
(g6
g7
(lp122
Vthere
p123
atp124
Rp125
(dp126
g17
VEX
p127
sbatp128
Rp129
(dp130
g17
VNP
p131
sbag5
(g6
g7
(lp132
g5
(g6
g7
(lp133
Vhave
p134
atp135
Rp136
(dp137
g17
VVBP
p138
sbag5
(g6
g7
(lp139
g5
(g6
g7
(lp140
Vbeen
p141
atp142
Rp143
(dp144
g17
VVBN
p145
sbag5
(g6
g7
(lp146
g5
(g6
g7
(lp147
g5
(g6
g7
(lp148
Vseveral
p149
atp150
Rp151
(dp152
g17
VJJ
p153
sbag5
(g6
g7
(lp154
Vproposals
p155
atp156
Rp157
(dp158
g17
VNNS
p159
sbatp160
Rp161
(dp162
g17
VNP
p163
sbag5
(g6
g7
(lp164
g5
(g6
g7
(lp165
Vfor
p166
atp167
Rp168
(dp169
g17
VIN
p170
sbag5
(g6
g7
(lp171
g5
(g6
g7
(lp172
g5
(g6
g7
(lp173
g5
(g6
g7
(lp174
Vcontrolling
p175
atp176
Rp177
(dp178
g17
VVBG
p179
sbag5
(g6
g7
(lp180
g5
(g6
g7
(lp181
g5
(g6
g7
(lp182
Vthe
p183
atp184
Rp185
(dp186
g17
VDT
p187
sbag5
(g6
g7
(lp188
Vdeduction
p189
atp190
Rp191
(dp192
g17
VNN
p193
sbatp194
Rp195
(dp196
g17
VNP
p197
sbag5
(g6
g7
(lp198
g5
(g6
g7
(lp199
Vexpressed
p200
atp201
Rp202
(dp203
g17
VVBN
p204
sbag5
(g6
g7
(lp205
g5
(g6
g7
(lp206
Vby
p207
atp208
Rp209
(dp210
g17
VIN
p211
sbag5
(g6
g7
(lp212
g5
(g6
g7
(lp213
Va
p214
atp215
Rp216
(dp217
g17
VDT
p218
sbag5
(g6
g7
(lp219
VProlog
p220
atp221
Rp222
(dp223
g17
VNNP
p224
sbag5
(g6
g7
(lp225
Vprogram
p226
atp227
Rp228
(dp229
g17
VNN
p230
sbatp231
Rp232
(dp233
g17
VNP
p234
sbatp235
Rp236
(dp237
g17
VPP
p238
sbatp239
Rp240
(dp241
g17
VVP
p242
sbatp243
Rp244
(dp245
g17
VNP
p246
sbatp247
Rp248
(dp249
g17
VVP
p250
sbag5
(g6
g7
(lp251
Vand
p252
atp253
Rp254
(dp255
g17
VCC
p256
sbag5
(g6
g7
(lp257
Vnot
p258
atp259
Rp260
(dp261
g17
VRB
p262
sbag5
(g6
g7
(lp263
g5
(g6
g7
(lp264
g5
(g6
g7
(lp265
Valways
p266
atp267
Rp268
(dp269
g17
VRB
p270
sbatp271
Rp272
(dp273
g17
VADVP
p274
sbag5
(g6
g7
(lp275
Vusing
p276
atp277
Rp278
(dp279
g17
VVBG
p280
sbag5
(g6
g7
(lp281
g5
(g6
g7
(lp282
g5
(g6
g7
(lp283
VProlog
p284
atp285
Rp286
(dp287
g17
VNNP
p288
sbag5
(g6
g7
(lp289
V's
p290
atp291
Rp292
(dp293
g17
VPOS
p294
sbatp295
Rp296
(dp297
g17
VNP
p298
sbag5
(g6
g7
(lp299
Vnormal
p300
atp301
Rp302
(dp303
g17
VJJ
p304
sbag5
(g6
g7
(lp305
Vbacktracking
p306
atp307
Rp308
(dp309
g17
VNN
p310
sbag5
(g6
g7
(lp311
Valgorithm
p312
atp313
Rp314
(dp315
g17
VNN
p316
sbatp317
Rp318
(dp319
g17
VNP
p320
sbatp321
Rp322
(dp323
g17
VVP
p324
sbatp325
Rp326
(dp327
g17
VVP
p328
sbatp329
Rp330
(dp331
g17
g101
sbatp332
Rp333
(dp334
g17
VPP
p335
sbatp336
Rp337
(dp338
g17
VNP
p339
sbatp340
Rp341
(dp342
g17
VVP
p343
sbatp344
Rp345
(dp346
g17
VVP
p347
sbatp348
Rp349
(dp350
g17
g101
sbag5
(g6
g7
(lp351
V.
p352
atp353
Rp354
(dp355
g17
g352
sbatp356
Rp357
(dp358
g17
g101
sbatp359
Rp360
(dp361
g17
VROOT
p362
sbasS'cause'
p363
(icmyPackage
CorE
p364
(dp365
S'span'
p366
(lp367
(I0
I17
tp368
a(I0
I33
tp369
asS'PTree'
p370
g330
sbsS'effect'
p371
(icmyPackage
CorE
p372
(dp373
g366
(lp374
(I0
I0
tp375
a(I0
I15
tp376
asg370
g5
(g6
g7
(lp377
g107
ag112
ag117
ag129
ag136
ag143
ag161
atp378
Rp379
(dp380
g17
S'ROOT'
p381
sbsbsS'pt'
p382
(icmyPackage
pattern
p383
(dp384
S'pfreq'
p385
I25
sS'moresent'
p386
I0
sS'main_token'
p387
(lp388
(lp389
S'for'
p390
aasS'ptype'
p391
(lp392
I2
aI1
aI1
asS'cases'
p393
(lp394
S'She was angry with him for being late.'
p395
asS'id'
p396
I44
sS'constraints'
p397
(lp398
(lp399
S'&R'
p400
aa(lp401
S'&V-ing@C@'
p402
aasbsS'sInfo'
p403
(lp404
(icmyPackage
Sent
p405
(dp406
S'Ctag'
p407
I0
sS'Ptag'
p408
I0
sS'text'
p409
S"Logic programmers like to regard programming as controlled deduction, and there have been several proposals for controlling the deduction expressed by a Prolog program and not always using Prolog's normal backtracking algorithm."
p410
sS'SCtag'
p411
I0
sS'Stag'
p412
I1
sg370
(lp413
g360
asbasba(icmyPackage
CELink
p414
(dp415
g3
(lp416
g5
(g6
g7
(lp417
g5
(g6
g7
(lp418
g5
(g6
g7
(lp419
g5
(g6
g7
(lp420
g5
(g6
g7
(lp421
VPereira
p422
atp423
Rp424
(dp425
g17
VNNP
p426
sbag5
(g6
g7
(lp427
Vand
p428
atp429
Rp430
(dp431
g17
VCC
p432
sbag5
(g6
g7
(lp433
VPorto
p434
atp435
Rp436
(dp437
g17
VNNP
p438
sbatp439
Rp440
(dp441
g17
VNP
p442
sbag5
(g6
g7
(lp443
g5
(g6
g7
(lp444
V-LRB-
p445
atp446
Rp447
(dp448
g17
V-LRB-
p449
sbag5
(g6
g7
(lp450
g5
(g6
g7
(lp451
V1980
p452
atp453
Rp454
(dp455
g17
VCD
p456
sbatp457
Rp458
(dp459
g17
VNP
p460
sbag5
(g6
g7
(lp461
V-RRB-
p462
atp463
Rp464
(dp465
g17
V-RRB-
p466
sbatp467
Rp468
(dp469
g17
VPRN
p470
sbatp471
Rp472
(dp473
g17
VNP
p474
sbag5
(g6
g7
(lp475
g5
(g6
g7
(lp476
g5
(g6
g7
(lp477
Vgive
p478
atp479
Rp480
(dp481
g17
VVB
p482
sbag5
(g6
g7
(lp483
g5
(g6
g7
(lp484
g214
atp485
Rp486
(dp487
g17
VDT
p488
sbag5
(g6
g7
(lp489
Vlogic
p490
atp491
Rp492
(dp493
g17
VNN
p494
sbag5
(g6
g7
(lp495
Vprogram
p496
atp497
Rp498
(dp499
g17
VNN
p500
sbatp501
Rp502
(dp503
g17
VNP
p504
sbag5
(g6
g7
(lp505
g5
(g6
g7
(lp506
Vfor
p507
atp508
Rp509
(dp510
g17
VIN
p511
sbag5
(g6
g7
(lp512
g5
(g6
g7
(lp513
g5
(g6
g7
(lp514
Vcoloring
p515
atp516
Rp517
(dp518
g17
VVBG
p519
sbag5
(g6
g7
(lp520
g5
(g6
g7
(lp521
Vplanar
p522
atp523
Rp524
(dp525
g17
VNN
p526
sbag5
(g6
g7
(lp527
Vmaps
p528
atp529
Rp530
(dp531
g17
VNNS
p532
sbatp533
Rp534
(dp535
g17
VNP
p536
sbag5
(g6
g7
(lp537
g5
(g6
g7
(lp538
Vwith
p539
atp540
Rp541
(dp542
g17
VIN
p543
sbag5
(g6
g7
(lp544
g5
(g6
g7
(lp545
Vfour
p546
atp547
Rp548
(dp549
g17
VCD
p550
sbag5
(g6
g7
(lp551
Vcolors
p552
atp553
Rp554
(dp555
g17
VNNS
p556
sbatp557
Rp558
(dp559
g17
VNP
p560
sbatp561
Rp562
(dp563
g17
VPP
p564
sbatp565
Rp566
(dp567
g17
VVP
p568
sbatp569
Rp570
(dp571
g17
g101
sbatp572
Rp573
(dp574
g17
VPP
p575
sbatp576
Rp577
(dp578
g17
VVP
p579
sbag5
(g6
g7
(lp580
Vand
p581
atp582
Rp583
(dp584
g17
VCC
p585
sbag5
(g6
g7
(lp586
g5
(g6
g7
(lp587
Vdiscuss
p588
atp589
Rp590
(dp591
g17
VVB
p592
sbag5
(g6
g7
(lp593
g5
(g6
g7
(lp594
g5
(g6
g7
(lp595
Vhow
p596
atp597
Rp598
(dp599
g17
VWRB
p600
sbatp601
Rp602
(dp603
g17
VWHADVP
p604
sbag5
(g6
g7
(lp605
g5
(g6
g7
(lp606
g5
(g6
g7
(lp607
V``
p608
atp609
Rp610
(dp611
g17
V``
p612
sbag5
(g6
g7
(lp613
Vselective
p614
atp615
Rp616
(dp617
g17
VJJ
p618
sbag5
(g6
g7
(lp619
Vbacktracking
p620
atp621
Rp622
(dp623
g17
VNN
p624
sbag5
(g6
g7
(lp625
V''
p626
atp627
Rp628
(dp629
g17
V''
p630
sbatp631
Rp632
(dp633
g17
VNP
p634
sbag5
(g6
g7
(lp635
g5
(g6
g7
(lp636
Vcan
p637
atp638
Rp639
(dp640
g17
VMD
p641
sbag5
(g6
g7
(lp642
g5
(g6
g7
(lp643
Vreduce
p644
atp645
Rp646
(dp647
g17
VVB
p648
sbag5
(g6
g7
(lp649
g5
(g6
g7
(lp650
g5
(g6
g7
(lp651
Vthe
p652
atp653
Rp654
(dp655
g17
VDT
p656
sbag5
(g6
g7
(lp657
Vsearch
p658
atp659
Rp660
(dp661
g17
VNN
p662
sbatp663
Rp664
(dp665
g17
VNP
p666
sbag5
(g6
g7
(lp667
g5
(g6
g7
(lp668
Vinvolved
p669
atp670
Rp671
(dp672
g17
VVBN
p673
sbag5
(g6
g7
(lp674
g5
(g6
g7
(lp675
Vin
p676
atp677
Rp678
(dp679
g17
VIN
p680
sbag5
(g6
g7
(lp681
g5
(g6
g7
(lp682
g5
(g6
g7
(lp683
Vcoloring
p684
atp685
Rp686
(dp687
g17
VVBG
p688
sbag5
(g6
g7
(lp689
g5
(g6
g7
(lp690
g214
atp691
Rp692
(dp693
g17
VDT
p694
sbag5
(g6
g7
(lp695
Vmap
p696
atp697
Rp698
(dp699
g17
VNN
p700
sbatp701
Rp702
(dp703
g17
VNP
p704
sbag5
(g6
g7
(lp705
g5
(g6
g7
(lp706
Vfrom
p707
atp708
Rp709
(dp710
g17
VIN
p711
sbag5
(g6
g7
(lp712
g5
(g6
g7
(lp713
g5
(g6
g7
(lp714
Vthat
p715
atp716
Rp717
(dp718
g17
VDT
p719
sbatp720
Rp721
(dp722
g17
VNP
p723
sbag5
(g6
g7
(lp724
g5
(g6
g7
(lp725
Vdone
p726
atp727
Rp728
(dp729
g17
VVBN
p730
sbag5
(g6
g7
(lp731
g5
(g6
g7
(lp732
Vby
p733
atp734
Rp735
(dp736
g17
VIN
p737
sbag5
(g6
g7
(lp738
g5
(g6
g7
(lp739
g5
(g6
g7
(lp740
g214
atp741
Rp742
(dp743
g17
VDT
p744
sbag5
(g6
g7
(lp745
Vstraightforward
p746
atp747
Rp748
(dp749
g17
VNNP
p750
sbag5
(g6
g7
(lp751
VPROLOG
p752
atp753
Rp754
(dp755
g17
VNNP
p756
sbag5
(g6
g7
(lp757
Vexecution
p758
atp759
Rp760
(dp761
g17
VNN
p762
sbatp763
Rp764
(dp765
g17
VNP
p766
sbag5
(g6
g7
(lp767
g5
(g6
g7
(lp768
Vof
p769
atp770
Rp771
(dp772
g17
VIN
p773
sbag5
(g6
g7
(lp774
g5
(g6
g7
(lp775
Vthe
p776
atp777
Rp778
(dp779
g17
VDT
p780
sbag5
(g6
g7
(lp781
Vsame
p782
atp783
Rp784
(dp785
g17
VJJ
p786
sbag5
(g6
g7
(lp787
Vprogram
p788
atp789
Rp790
(dp791
g17
VNN
p792
sbatp793
Rp794
(dp795
g17
VNP
p796
sbatp797
Rp798
(dp799
g17
VPP
p800
sbatp801
Rp802
(dp803
g17
VNP
p804
sbatp805
Rp806
(dp807
g17
VPP
p808
sbatp809
Rp810
(dp811
g17
VVP
p812
sbatp813
Rp814
(dp815
g17
VNP
p816
sbatp817
Rp818
(dp819
g17
VPP
p820
sbatp821
Rp822
(dp823
g17
VVP
p824
sbatp825
Rp826
(dp827
g17
g101
sbatp828
Rp829
(dp830
g17
VPP
p831
sbatp832
Rp833
(dp834
g17
VVP
p835
sbatp836
Rp837
(dp838
g17
VNP
p839
sbatp840
Rp841
(dp842
g17
VVP
p843
sbatp844
Rp845
(dp846
g17
VVP
p847
sbatp848
Rp849
(dp850
g17
g101
sbatp851
Rp852
(dp853
g17
VSBAR
p854
sbatp855
Rp856
(dp857
g17
VVP
p858
sbatp859
Rp860
(dp861
g17
VVP
p862
sbag5
(g6
g7
(lp863
g352
atp864
Rp865
(dp866
g17
g352
sbatp867
Rp868
(dp869
g17
g101
sbatp870
Rp871
(dp872
g17
VROOT
p873
sbasg363
(icmyPackage
CorE
p874
(dp875
g366
(lp876
(I0
I11
tp877
a(I0
I16
tp878
asg370
g570
sbsg371
(icmyPackage
CorE
p879
(dp880
g366
(lp881
(I0
I0
tp882
a(I0
I9
tp883
asg370
g5
(g6
g7
(lp884
g472
ag480
ag502
atp885
Rp886
(dp887
g17
g381
sbsbsg382
g383
sg403
(lp888
(icmyPackage
Sent
p889
(dp890
g407
I1
sg408
I3
sg409
S'Pereira and Porto (1980) give a logic program for coloring planar maps with four colors and discuss how "selective backtracking" can reduce the search involved in coloring a map from that done by a straightforward PROLOG execution of the same program.'
p891
sg411
I0
sg412
I8
sg370
(lp892
g871
asbasba(icmyPackage
CELink
p893
(dp894
g3
(lp895
g5
(g6
g7
(lp896
g5
(g6
g7
(lp897
g5
(g6
g7
(lp898
g5
(g6
g7
(lp899
g5
(g6
g7
(lp900
VThe
p901
atp902
Rp903
(dp904
g17
VDT
p905
sbag5
(g6
g7
(lp906
Vdiscussion
p907
atp908
Rp909
(dp910
g17
VNN
p911
sbatp912
Rp913
(dp914
g17
VNP
p915
sbag5
(g6
g7
(lp916
g5
(g6
g7
(lp917
Vby
p918
atp919
Rp920
(dp921
g17
VIN
p922
sbag5
(g6
g7
(lp923
g5
(g6
g7
(lp924
VPereira
p925
atp926
Rp927
(dp928
g17
VNNP
p929
sbag5
(g6
g7
(lp930
Vand
p931
atp932
Rp933
(dp934
g17
VCC
p935
sbag5
(g6
g7
(lp936
VPorto
p937
atp938
Rp939
(dp940
g17
VNNP
p941
sbatp942
Rp943
(dp944
g17
VNP
p945
sbatp946
Rp947
(dp948
g17
VPP
p949
sbatp950
Rp951
(dp952
g17
VNP
p953
sbag5
(g6
g7
(lp954
g5
(g6
g7
(lp955
Vtreats
p956
atp957
Rp958
(dp959
g17
VVBZ
p960
sbag5
(g6
g7
(lp961
g5
(g6
g7
(lp962
g5
(g6
g7
(lp963
g5
(g6
g7
(lp964
Vcoloring
p965
atp966
Rp967
(dp968
g17
VVBG
p969
sbag5
(g6
g7
(lp970
Vmaps
p971
atp972
Rp973
(dp974
g17
VNNS
p975
sbatp976
Rp977
(dp978
g17
VNP
p979
sbag5
(g6
g7
(lp980
g5
(g6
g7
(lp981
Vpurely
p982
atp983
Rp984
(dp985
g17
VRB
p986
sbag5
(g6
g7
(lp987
g5
(g6
g7
(lp988
Vas
p989
atp990
Rp991
(dp992
g17
VIN
p993
sbag5
(g6
g7
(lp994
g5
(g6
g7
(lp995
Van
p996
atp997
Rp998
(dp999
g17
VDT
p1000
sbag5
(g6
g7
(lp1001
Vexample
p1002
atp1003
Rp1004
(dp1005
g17
VNN
p1006
sbatp1007
Rp1008
(dp1009
g17
VNP
p1010
sbatp1011
Rp1012
(dp1013
g17
VPP
p1014
sbatp1015
Rp1016
(dp1017
g17
VADJP
p1018
sbatp1019
Rp1020
(dp1021
g17
VNP
p1022
sbag5
(g6
g7
(lp1023
g5
(g6
g7
(lp1024
Vof
p1025
atp1026
Rp1027
(dp1028
g17
VIN
p1029
sbag5
(g6
g7
(lp1030
g5
(g6
g7
(lp1031
Vlogic
p1032
atp1033
Rp1034
(dp1035
g17
VNN
p1036
sbag5
(g6
g7
(lp1037
Vprogramming
p1038
atp1039
Rp1040
(dp1041
g17
VNN
p1042
sbatp1043
Rp1044
(dp1045
g17
VNP
p1046
sbatp1047
Rp1048
(dp1049
g17
VPP
p1050
sbag5
(g6
g7
(lp1051
g110
atp1052
Rp1053
(dp1054
g17
g110
sbag5
(g6
g7
(lp1055
Vand
p1056
atp1057
Rp1058
(dp1059
g17
VCC
p1060
sbag5
(g6
g7
(lp1061
g5
(g6
g7
(lp1062
Vthe
p1063
atp1064
Rp1065
(dp1066
g17
VDT
p1067
sbag5
(g6
g7
(lp1068
Vimprovements
p1069
atp1070
Rp1071
(dp1072
g17
VNNS
p1073
sbag5
(g6
g7
(lp1074
g5
(g6
g7
(lp1075
g5
(g6
g7
(lp1076
Vthey
p1077
atp1078
Rp1079
(dp1080
g17
VPRP
p1081
sbatp1082
Rp1083
(dp1084
g17
VNP
p1085
sbag5
(g6
g7
(lp1086
g5
(g6
g7
(lp1087
Vdiscuss
p1088
atp1089
Rp1090
(dp1091
g17
VVB
p1092
sbag5
(g6
g7
(lp1093
g5
(g6
g7
(lp1094
Vapply
p1095
atp1096
Rp1097
(dp1098
g17
VVB
p1099
sbag5
(g6
g7
(lp1100
g5
(g6
g7
(lp1101
Vto
p1102
atp1103
Rp1104
(dp1105
g17
VTO
p1106
sbag5
(g6
g7
(lp1107
g5
(g6
g7
(lp1108
Vall
p1109
atp1110
Rp1111
(dp1112
g17
VDT
p1113
sbag5
(g6
g7
(lp1114
Vlogic
p1115
atp1116
Rp1117
(dp1118
g17
VNN
p1119
sbag5
(g6
g7
(lp1120
Vprogram
p1121
atp1122
Rp1123
(dp1124
g17
VNN
p1125
sbag5
(g6
g7
(lp1126
Vsystems
p1127
atp1128
Rp1129
(dp1130
g17
VNNS
p1131
sbatp1132
Rp1133
(dp1134
g17
VNP
p1135
sbatp1136
Rp1137
(dp1138
g17
VPP
p1139
sbatp1140
Rp1141
(dp1142
g17
VVP
p1143
sbatp1144
Rp1145
(dp1146
g17
VVP
p1147
sbatp1148
Rp1149
(dp1150
g17
g101
sbatp1151
Rp1152
(dp1153
g17
VNP
p1154
sbatp1155
Rp1156
(dp1157
g17
VNP
p1158
sbatp1159
Rp1160
(dp1161
g17
VVP
p1162
sbag5
(g6
g7
(lp1163
g352
atp1164
Rp1165
(dp1166
g17
g352
sbatp1167
Rp1168
(dp1169
g17
g101
sbatp1170
Rp1171
(dp1172
g17
VROOT
p1173
sbasg363
(icmyPackage
CorE
p1174
(dp1175
g366
(lp1176
(I0
I11
tp1177
a(I0
I26
tp1178
asg370
g5
(g6
g7
(lp1179
g1008
ag1048
ag1053
ag1058
ag1065
ag1071
ag1083
ag1090
ag1097
ag1104
ag1111
ag1117
ag1123
atp1180
Rp1181
(dp1182
g17
g381
sbsbsg371
(icmyPackage
CorE
p1183
(dp1184
g366
(lp1185
(I0
I0
tp1186
a(I0
I9
tp1187
asg370
g5
(g6
g7
(lp1188
g951
ag958
ag977
ag984
atp1189
Rp1190
(dp1191
g17
g381
sbsbsg382
(icmyPackage
pattern
p1192
(dp1193
g385
I26
sg386
I1
sg387
(lp1194
(lp1195
S'as'
p1196
aasg391
(lp1197
I3
aI1
aI1
asg393
(lp1198
S'You do not need to worry about the operation, as the software is very easy to use.'
p1199
asg396
I80
sg397
(lp1200
(lp1201
S'&R@Complete@'
p1202
aS'(,)'
p1203
aS'(-such/-same/-seem/-regard/-regards/-regarded/-view/-views/-viewed/-denote/-denoted/-denotes)'
p1204
aa(lp1205
S'(-if/-follow/-follows/-&adv)'
p1206
aS'&C@Complete@'
p1207
aasbsg403
(lp1208
(icmyPackage
Sent
p1209
(dp1210
g407
I1
sg408
I4
sg409
S'The discussion by Pereira and Porto treats coloring maps purely as an example of logic programming, and the improvements they discuss apply to all logic program systems.'
p1211
sg411
I0
sg412
I9
sg370
(lp1212
g1171
asbasba(icmyPackage
CELink
p1213
(dp1214
g3
(lp1215
g5
(g6
g7
(lp1216
g5
(g6
g7
(lp1217
g5
(g6
g7
(lp1218
g5
(g6
g7
(lp1219
VIf
p1220
atp1221
Rp1222
(dp1223
g17
VIN
p1224
sbag5
(g6
g7
(lp1225
g5
(g6
g7
(lp1226
g5
(g6
g7
(lp1227
Vthey
p1228
atp1229
Rp1230
(dp1231
g17
VPRP
p1232
sbatp1233
Rp1234
(dp1235
g17
VNP
p1236
sbag5
(g6
g7
(lp1237
g5
(g6
g7
(lp1238
Vare
p1239
atp1240
Rp1241
(dp1242
g17
VVBP
p1243
sbag5
(g6
g7
(lp1244
g5
(g6
g7
(lp1245
g5
(g6
g7
(lp1246
Vto
p1247
atp1248
Rp1249
(dp1250
g17
VTO
p1251
sbag5
(g6
g7
(lp1252
g5
(g6
g7
(lp1253
Vbe
p1254
atp1255
Rp1256
(dp1257
g17
VVB
p1258
sbag5
(g6
g7
(lp1259
g5
(g6
g7
(lp1260
Vregarded
p1261
atp1262
Rp1263
(dp1264
g17
VVBN
p1265
sbag5
(g6
g7
(lp1266
g5
(g6
g7
(lp1267
Vas
p1268
atp1269
Rp1270
(dp1271
g17
VIN
p1272
sbag5
(g6
g7
(lp1273
g5
(g6
g7
(lp1274
Vcontrol
p1275
atp1276
Rp1277
(dp1278
g17
VNN
p1279
sbag5
(g6
g7
(lp1280
Vstructures
p1281
atp1282
Rp1283
(dp1284
g17
VNNS
p1285
sbatp1286
Rp1287
(dp1288
g17
VNP
p1289
sbatp1290
Rp1291
(dp1292
g17
VPP
p1293
sbatp1294
Rp1295
(dp1296
g17
VVP
p1297
sbatp1298
Rp1299
(dp1300
g17
VVP
p1301
sbatp1302
Rp1303
(dp1304
g17
VVP
p1305
sbatp1306
Rp1307
(dp1308
g17
g101
sbatp1309
Rp1310
(dp1311
g17
VVP
p1312
sbatp1313
Rp1314
(dp1315
g17
g101
sbatp1316
Rp1317
(dp1318
g17
VSBAR
p1319
sbag5
(g6
g7
(lp1320
g110
atp1321
Rp1322
(dp1323
g17
g110
sbag5
(g6
g7
(lp1324
g5
(g6
g7
(lp1325
Vit
p1326
atp1327
Rp1328
(dp1329
g17
VPRP
p1330
sbatp1331
Rp1332
(dp1333
g17
VNP
p1334
sbag5
(g6
g7
(lp1335
g5
(g6
g7
(lp1336
Vis
p1337
atp1338
Rp1339
(dp1340
g17
VVBZ
p1341
sbag5
(g6
g7
(lp1342
Vnot
p1343
atp1344
Rp1345
(dp1346
g17
VRB
p1347
sbag5
(g6
g7
(lp1348
g5
(g6
g7
(lp1349
Vyet
p1350
atp1351
Rp1352
(dp1353
g17
VRB
p1354
sbatp1355
Rp1356
(dp1357
g17
VADVP
p1358
sbag5
(g6
g7
(lp1359
g5
(g6
g7
(lp1360
Vclear
p1361
atp1362
Rp1363
(dp1364
g17
VJJ
p1365
sbatp1366
Rp1367
(dp1368
g17
VADJP
p1369
sbag5
(g6
g7
(lp1370
g5
(g6
g7
(lp1371
g5
(g6
g7
(lp1372
Vhow
p1373
atp1374
Rp1375
(dp1376
g17
VWRB
p1377
sbatp1378
Rp1379
(dp1380
g17
VWHADVP
p1381
sbag5
(g6
g7
(lp1382
g5
(g6
g7
(lp1383
g5
(g6
g7
(lp1384
Vthey
p1385
atp1386
Rp1387
(dp1388
g17
VPRP
p1389
sbatp1390
Rp1391
(dp1392
g17
VNP
p1393
sbag5
(g6
g7
(lp1394
g5
(g6
g7
(lp1395
Vare
p1396
atp1397
Rp1398
(dp1399
g17
VVBP
p1400
sbag5
(g6
g7
(lp1401
g5
(g6
g7
(lp1402
Vbest
p1403
atp1404
Rp1405
(dp1406
g17
VRBS
p1407
sbatp1408
Rp1409
(dp1410
g17
VADVP
p1411
sbag5
(g6
g7
(lp1412
g5
(g6
g7
(lp1413
Vexpressed
p1414
atp1415
Rp1416
(dp1417
g17
VVBN
p1418
sbatp1419
Rp1420
(dp1421
g17
VVP
p1422
sbatp1423
Rp1424
(dp1425
g17
VVP
p1426
sbatp1427
Rp1428
(dp1429
g17
g101
sbatp1430
Rp1431
(dp1432
g17
VSBAR
p1433
sbatp1434
Rp1435
(dp1436
g17
VVP
p1437
sbag5
(g6
g7
(lp1438
g352
atp1439
Rp1440
(dp1441
g17
g352
sbatp1442
Rp1443
(dp1444
g17
g101
sbatp1445
Rp1446
(dp1447
g17
VROOT
p1448
sbasg363
(icmyPackage
CorE
p1449
(dp1450
g366
(lp1451
(I0
I1
tp1452
a(I0
I8
tp1453
asg370
g1314
sbsg371
(icmyPackage
CorE
p1454
(dp1455
g366
(lp1456
(I0
I10
tp1457
a(I0
I20
tp1458
asg370
g5
(g6
g7
(lp1459
g1332
ag1435
ag1440
atp1460
Rp1461
(dp1462
g17
g381
sbsbsg382
(icmyPackage
pattern
p1463
(dp1464
g385
I0
sg386
I0
sg387
(lp1465
(lp1466
(lp1467
S'if'
p1468
aS'once'
p1469
aaa(lp1470
S','
p1471
aasg391
(lp1472
I1
aI1
aI1
asg393
(lp1473
S'If some light and mobile detection devices can be invented in the future, many new applications can be imagined, for example, people can get some services while thinking.'
p1474
asg396
I15
sg397
(lp1475
(lp1476
a(lp1477
S'&C@Complete@'
p1478
aa(lp1479
S'&R@Complete@'
p1480
aasbsg403
(lp1481
(icmyPackage
Sent
p1482
(dp1483
g407
I1
sg408
I5
sg409
S'If they are to be regarded as control structures, it is not yet clear how they are best expressed.'
p1484
sg411
I0
sg412
I13
sg370
(lp1485
g1446
asbasba(icmyPackage
CELink
p1486
(dp1487
g3
(lp1488
g5
(g6
g7
(lp1489
g5
(g6
g7
(lp1490
g5
(g6
g7
(lp1491
g5
(g6
g7
(lp1492
VHowever
p1493
atp1494
Rp1495
(dp1496
g17
VRB
p1497
sbatp1498
Rp1499
(dp1500
g17
VADVP
p1501
sbag5
(g6
g7
(lp1502
g110
atp1503
Rp1504
(dp1505
g17
g110
sbag5
(g6
g7
(lp1506
g5
(g6
g7
(lp1507
Vit
p1508
atp1509
Rp1510
(dp1511
g17
VPRP
p1512
sbatp1513
Rp1514
(dp1515
g17
VNP
p1516
sbag5
(g6
g7
(lp1517
g5
(g6
g7
(lp1518
Vis
p1519
atp1520
Rp1521
(dp1522
g17
VVBZ
p1523
sbag5
(g6
g7
(lp1524
g5
(g6
g7
(lp1525
Valso
p1526
atp1527
Rp1528
(dp1529
g17
VRB
p1530
sbatp1531
Rp1532
(dp1533
g17
VADVP
p1534
sbag5
(g6
g7
(lp1535
g5
(g6
g7
(lp1536
Vinteresting
p1537
atp1538
Rp1539
(dp1540
g17
VJJ
p1541
sbag5
(g6
g7
(lp1542
g5
(g6
g7
(lp1543
g5
(g6
g7
(lp1544
Vto
p1545
atp1546
Rp1547
(dp1548
g17
VTO
p1549
sbag5
(g6
g7
(lp1550
g5
(g6
g7
(lp1551
Vtry
p1552
atp1553
Rp1554
(dp1555
g17
VVB
p1556
sbag5
(g6
g7
(lp1557
g5
(g6
g7
(lp1558
g5
(g6
g7
(lp1559
Vto
p1560
atp1561
Rp1562
(dp1563
g17
VTO
p1564
sbag5
(g6
g7
(lp1565
g5
(g6
g7
(lp1566
Vregard
p1567
atp1568
Rp1569
(dp1570
g17
VVB
p1571
sbag5
(g6
g7
(lp1572
g5
(g6
g7
(lp1573
Vthe
p1574
atp1575
Rp1576
(dp1577
g17
VDT
p1578
sbag5
(g6
g7
(lp1579
Valgorithms
p1580
atp1581
Rp1582
(dp1583
g17
VNNS
p1584
sbatp1585
Rp1586
(dp1587
g17
VNP
p1588
sbag5
(g6
g7
(lp1589
g5
(g6
g7
(lp1590
Vas
p1591
atp1592
Rp1593
(dp1594
g17
VIN
p1595
sbag5
(g6
g7
(lp1596
g5
(g6
g7
(lp1597
g5
(g6
g7
(lp1598
Vcontrol
p1599
atp1600
Rp1601
(dp1602
g17
VNN
p1603
sbatp1604
Rp1605
(dp1606
g17
VNP
p1607
sbag5
(g6
g7
(lp1608
g5
(g6
g7
(lp1609
Vattached
p1610
atp1611
Rp1612
(dp1613
g17
VVBN
p1614
sbag5
(g6
g7
(lp1615
g5
(g6
g7
(lp1616
Vto
p1617
atp1618
Rp1619
(dp1620
g17
VTO
p1621
sbag5
(g6
g7
(lp1622
g5
(g6
g7
(lp1623
Vthe
p1624
atp1625
Rp1626
(dp1627
g17
VDT
p1628
sbag5
(g6
g7
(lp1629
VPereira-Porto
p1630
atp1631
Rp1632
(dp1633
g17
VJJ
p1634
sbag5
(g6
g7
(lp1635
Vlogic
p1636
atp1637
Rp1638
(dp1639
g17
VNN
p1640
sbag5
(g6
g7
(lp1641
Vprogram
p1642
atp1643
Rp1644
(dp1645
g17
VNN
p1646
sbatp1647
Rp1648
(dp1649
g17
VNP
p1650
sbatp1651
Rp1652
(dp1653
g17
VPP
p1654
sbag5
(g6
g7
(lp1655
g5
(g6
g7
(lp1656
Vfor
p1657
atp1658
Rp1659
(dp1660
g17
VIN
p1661
sbag5
(g6
g7
(lp1662
g5
(g6
g7
(lp1663
g5
(g6
g7
(lp1664
Vcoloring
p1665
atp1666
Rp1667
(dp1668
g17
VVBG
p1669
sbag5
(g6
g7
(lp1670
g5
(g6
g7
(lp1671
g214
atp1672
Rp1673
(dp1674
g17
VDT
p1675
sbag5
(g6
g7
(lp1676
Vspecific
p1677
atp1678
Rp1679
(dp1680
g17
VJJ
p1681
sbag5
(g6
g7
(lp1682
Vmap
p1683
atp1684
Rp1685
(dp1686
g17
VNN
p1687
sbatp1688
Rp1689
(dp1690
g17
VNP
p1691
sbatp1692
Rp1693
(dp1694
g17
VVP
p1695
sbatp1696
Rp1697
(dp1698
g17
g101
sbatp1699
Rp1700
(dp1701
g17
VPP
p1702
sbatp1703
Rp1704
(dp1705
g17
VVP
p1706
sbatp1707
Rp1708
(dp1709
g17
VNP
p1710
sbatp1711
Rp1712
(dp1713
g17
VPP
p1714
sbatp1715
Rp1716
(dp1717
g17
VVP
p1718
sbatp1719
Rp1720
(dp1721
g17
VVP
p1722
sbatp1723
Rp1724
(dp1725
g17
g101
sbatp1726
Rp1727
(dp1728
g17
VVP
p1729
sbatp1730
Rp1731
(dp1732
g17
VVP
p1733
sbatp1734
Rp1735
(dp1736
g17
g101
sbatp1737
Rp1738
(dp1739
g17
VADJP
p1740
sbatp1741
Rp1742
(dp1743
g17
VVP
p1744
sbag5
(g6
g7
(lp1745
g352
atp1746
Rp1747
(dp1748
g17
g352
sbatp1749
Rp1750
(dp1751
g17
g101
sbatp1752
Rp1753
(dp1754
g17
VROOT
p1755
sbasg363
(icmyPackage
CorE
p1756
(dp1757
g366
(lp1758
(I0
I21
tp1759
a(I0
I24
tp1760
asg370
g1697
sbsg371
(icmyPackage
CorE
p1761
(dp1762
g366
(lp1763
(I0
I0
tp1764
a(I0
I19
tp1765
asg370
g5
(g6
g7
(lp1766
g1499
ag1504
ag1514
ag1521
ag1532
ag1539
ag1547
ag1554
ag1562
ag1569
ag1586
ag1593
ag1605
ag1612
ag1652
atp1767
Rp1768
(dp1769
g17
g381
sbsbsg382
g383
sg403
(lp1770
(icmyPackage
Sent
p1771
(dp1772
g407
I1
sg408
I5
sg409
S'However, it is also interesting to try to regard the algorithms as control attached to the Pereira-Porto logic program for coloring a specific map.'
p1773
sg411
I0
sg412
I16
sg370
(lp1774
g1753
asbasba(icmyPackage
CELink
p1775
(dp1776
g3
(lp1777
g5
(g6
g7
(lp1778
g5
(g6
g7
(lp1779
g5
(g6
g7
(lp1780
g5
(g6
g7
(lp1781
VThe
p1782
atp1783
Rp1784
(dp1785
g17
VDT
p1786
sbag5
(g6
g7
(lp1787
Vfirst
p1788
atp1789
Rp1790
(dp1791
g17
VJJ
p1792
sbatp1793
Rp1794
(dp1795
g17
VNP
p1796
sbag5
(g6
g7
(lp1797
g5
(g6
g7
(lp1798
Vexpresses
p1799
atp1800
Rp1801
(dp1802
g17
VVBZ
p1803
sbag5
(g6
g7
(lp1804
g5
(g6
g7
(lp1805
Vthat
p1806
atp1807
Rp1808
(dp1809
g17
VIN
p1810
sbag5
(g6
g7
(lp1811
g5
(g6
g7
(lp1812
g5
(g6
g7
(lp1813
Vthe
p1814
atp1815
Rp1816
(dp1817
g17
VDT
p1818
sbag5
(g6
g7
(lp1819
Vadjacent
p1820
atp1821
Rp1822
(dp1823
g17
VJJ
p1824
sbag5
(g6
g7
(lp1825
Vcountries
p1826
atp1827
Rp1828
(dp1829
g17
VNNS
p1830
sbatp1831
Rp1832
(dp1833
g17
VNP
p1834
sbag5
(g6
g7
(lp1835
g5
(g6
g7
(lp1836
Vmust
p1837
atp1838
Rp1839
(dp1840
g17
VMD
p1841
sbag5
(g6
g7
(lp1842
g5
(g6
g7
(lp1843
Vhave
p1844
atp1845
Rp1846
(dp1847
g17
VVB
p1848
sbag5
(g6
g7
(lp1849
g5
(g6
g7
(lp1850
Vdifferent
p1851
atp1852
Rp1853
(dp1854
g17
VJJ
p1855
sbag5
(g6
g7
(lp1856
Vcolors
p1857
atp1858
Rp1859
(dp1860
g17
VNNS
p1861
sbatp1862
Rp1863
(dp1864
g17
VNP
p1865
sbag5
(g6
g7
(lp1866
g5
(g6
g7
(lp1867
Vby
p1868
atp1869
Rp1870
(dp1871
g17
VIN
p1872
sbag5
(g6
g7
(lp1873
g5
(g6
g7
(lp1874
g5
(g6
g7
(lp1875
Vlisting
p1876
atp1877
Rp1878
(dp1879
g17
VVBG
p1880
sbag5
(g6
g7
(lp1881
g5
(g6
g7
(lp1882
g5
(g6
g7
(lp1883
Vthe
p1884
atp1885
Rp1886
(dp1887
g17
VDT
p1888
sbag5
(g6
g7
(lp1889
Vpairs
p1890
atp1891
Rp1892
(dp1893
g17
VNNS
p1894
sbatp1895
Rp1896
(dp1897
g17
VNP
p1898
sbag5
(g6
g7
(lp1899
g5
(g6
g7
(lp1900
Vof
p1901
atp1902
Rp1903
(dp1904
g17
VIN
p1905
sbag5
(g6
g7
(lp1906
g5
(g6
g7
(lp1907
g5
(g6
g7
(lp1908
Vcolors
p1909
atp1910
Rp1911
(dp1912
g17
VNNS
p1913
sbatp1914
Rp1915
(dp1916
g17
VNP
p1917
sbag5
(g6
g7
(lp1918
g5
(g6
g7
(lp1919
g5
(g6
g7
(lp1920
Vthat
p1921
atp1922
Rp1923
(dp1924
g17
VWDT
p1925
sbatp1926
Rp1927
(dp1928
g17
VWHNP
p1929
sbag5
(g6
g7
(lp1930
g5
(g6
g7
(lp1931
g5
(g6
g7
(lp1932
Vmay
p1933
atp1934
Rp1935
(dp1936
g17
VMD
p1937
sbag5
(g6
g7
(lp1938
g5
(g6
g7
(lp1939
Vbe
p1940
atp1941
Rp1942
(dp1943
g17
VVB
p1944
sbag5
(g6
g7
(lp1945
g5
(g6
g7
(lp1946
Vadjacent
p1947
atp1948
Rp1949
(dp1950
g17
VJJ
p1951
sbatp1952
Rp1953
(dp1954
g17
VADJP
p1955
sbatp1956
Rp1957
(dp1958
g17
VVP
p1959
sbatp1960
Rp1961
(dp1962
g17
VVP
p1963
sbatp1964
Rp1965
(dp1966
g17
g101
sbatp1967
Rp1968
(dp1969
g17
VSBAR
p1970
sbatp1971
Rp1972
(dp1973
g17
VNP
p1974
sbatp1975
Rp1976
(dp1977
g17
VPP
p1978
sbatp1979
Rp1980
(dp1981
g17
VNP
p1982
sbatp1983
Rp1984
(dp1985
g17
VVP
p1986
sbatp1987
Rp1988
(dp1989
g17
g101
sbatp1990
Rp1991
(dp1992
g17
VPP
p1993
sbatp1994
Rp1995
(dp1996
g17
VVP
p1997
sbatp1998
Rp1999
(dp2000
g17
VVP
p2001
sbatp2002
Rp2003
(dp2004
g17
g101
sbatp2005
Rp2006
(dp2007
g17
VSBAR
p2008
sbatp2009
Rp2010
(dp2011
g17
VVP
p2012
sbag5
(g6
g7
(lp2013
g352
atp2014
Rp2015
(dp2016
g17
g352
sbatp2017
Rp2018
(dp2019
g17
g101
sbatp2020
Rp2021
(dp2022
g17
VROOT
p2023
sbasg363
(icmyPackage
CorE
p2024
(dp2025
g366
(lp2026
(I0
I12
tp2027
a(I0
I20
tp2028
asg370
g1988
sbsg371
(icmyPackage
CorE
p2029
(dp2030
g366
(lp2031
(I0
I0
tp2032
a(I0
I10
tp2033
asg370
g5
(g6
g7
(lp2034
g1794
ag1801
ag1808
ag1832
ag1839
ag1846
ag1863
atp2035
Rp2036
(dp2037
g17
g381
sbsbsg382
(icmyPackage
pattern
p2038
(dp2039
g385
I0
sg386
I0
sg387
(lp2040
(lp2041
(lp2042
S'by'
p2043
aS'through'
p2044
aaasg391
(lp2045
I2
aI1
aI1
asg393
(lp2046
S'The similar relation can be detected by analyzing the contents of nodes based on such approaches as the Latent Semantic Analysis (LSA) and the Vector Space Model (VSM)'
p2047
asg396
I68
sg397
(lp2048
(lp2049
S'&R@Complete@'
p2050
aa(lp2051
S'&V-ing@C@'
p2052
aasbsg403
(lp2053
(icmyPackage
Sent
p2054
(dp2055
g407
I2
sg408
I6
sg409
S'The first expresses that the adjacent countries must have different colors by listing the pairs of colors that may be adjacent.'
p2056
sg411
I0
sg412
I18
sg370
(lp2057
g2021
asbasba(icmyPackage
CELink
p2058
(dp2059
g3
(lp2060
g5
(g6
g7
(lp2061
g5
(g6
g7
(lp2062
g5
(g6
g7
(lp2063
g5
(g6
g7
(lp2064
VFor
p2065
atp2066
Rp2067
(dp2068
g17
VIN
p2069
sbag5
(g6
g7
(lp2070
g5
(g6
g7
(lp2071
g5
(g6
g7
(lp2072
Vthe
p2073
atp2074
Rp2075
(dp2076
g17
VDT
p2077
sbag5
(g6
g7
(lp2078
Vmap
p2079
atp2080
Rp2081
(dp2082
g17
VNN
p2083
sbatp2084
Rp2085
(dp2086
g17
VNP
p2087
sbag5
(g6
g7
(lp2088
g5
(g6
g7
(lp2089
Vof
p2090
atp2091
Rp2092
(dp2093
g17
VIN
p2094
sbag5
(g6
g7
(lp2095
g5
(g6
g7
(lp2096
VFigure
p2097
atp2098
Rp2099
(dp2100
g17
VNNP
p2101
sbag5
(g6
g7
(lp2102
V1
p2103
atp2104
Rp2105
(dp2106
g17
VCD
p2107
sbatp2108
Rp2109
(dp2110
g17
VNP
p2111
sbatp2112
Rp2113
(dp2114
g17
VPP
p2115
sbag5
(g6
g7
(lp2116
g110
atp2117
Rp2118
(dp2119
g17
g110
sbag5
(g6
g7
(lp2120
g5
(g6
g7
(lp2121
g5
(g6
g7
(lp2122
Vwhich
p2123
atp2124
Rp2125
(dp2126
g17
VWDT
p2127
sbatp2128
Rp2129
(dp2130
g17
VWHNP
p2131
sbag5
(g6
g7
(lp2132
g5
(g6
g7
(lp2133
g5
(g6
g7
(lp2134
Vthey
p2135
atp2136
Rp2137
(dp2138
g17
VPRP
p2139
sbatp2140
Rp2141
(dp2142
g17
VNP
p2143
sbag5
(g6
g7
(lp2144
g5
(g6
g7
(lp2145
Vuse
p2146
atp2147
Rp2148
(dp2149
g17
VVBP
p2150
sbag5
(g6
g7
(lp2151
g5
(g6
g7
(lp2152
Vas
p2153
atp2154
Rp2155
(dp2156
g17
VIN
p2157
sbag5
(g6
g7
(lp2158
g5
(g6
g7
(lp2159
Van
p2160
atp2161
Rp2162
(dp2163
g17
VDT
p2164
sbag5
(g6
g7
(lp2165
Vexample
p2166
atp2167
Rp2168
(dp2169
g17
VNN
p2170
sbatp2171
Rp2172
(dp2173
g17
VNP
p2174
sbatp2175
Rp2176
(dp2177
g17
VPP
p2178
sbatp2179
Rp2180
(dp2181
g17
VVP
p2182
sbatp2183
Rp2184
(dp2185
g17
g101
sbatp2186
Rp2187
(dp2188
g17
VSBAR
p2189
sbatp2190
Rp2191
(dp2192
g17
VNP
p2193
sbatp2194
Rp2195
(dp2196
g17
VPP
p2197
sbag5
(g6
g7
(lp2198
g110
atp2199
Rp2200
(dp2201
g17
g110
sbag5
(g6
g7
(lp2202
g5
(g6
g7
(lp2203
Vit
p2204
atp2205
Rp2206
(dp2207
g17
VPRP
p2208
sbatp2209
Rp2210
(dp2211
g17
VNP
p2212
sbag5
(g6
g7
(lp2213
g5
(g6
g7
(lp2214
Vis
p2215
atp2216
Rp2217
(dp2218
g17
VVBZ
p2219
sbatp2220
Rp2221
(dp2222
g17
VVP
p2223
sbatp2224
Rp2225
(dp2226
g17
g101
sbatp2227
Rp2228
(dp2229
g17
VROOT
p2230
sbasg363
(icmyPackage
CorE
p2231
(dp2232
g366
(lp2233
(I0
I11
tp2234
a(I0
I15
tp2235
asg370
g5
(g6
g7
(lp2236
g2172
ag2200
ag2210
ag2221
atp2237
Rp2238
(dp2239
g17
g381
sbsbsg371
(icmyPackage
CorE
p2240
(dp2241
g366
(lp2242
(I0
I8
tp2243
a(I0
I9
tp2244
asg370
g5
(g6
g7
(lp2245
g2141
ag2148
atp2246
Rp2247
(dp2248
g17
g381
sbsbsg382
g1192
sg403
(lp2249
(icmyPackage
Sent
p2250
(dp2251
g407
I2
sg408
I8
sg409
S'For the map of Figure 1, which they use as an example, it is'
p2252
sg411
I0
sg412
I28
sg370
(lp2253
g2228
asbasba(icmyPackage
CELink
p2254
(dp2255
g3
(lp2256
g5
(g6
g7
(lp2257
g5
(g6
g7
(lp2258
g5
(g6
g7
(lp2259
g5
(g6
g7
(lp2260
VThey
p2261
atp2262
Rp2263
(dp2264
g17
VPRP
p2265
sbatp2266
Rp2267
(dp2268
g17
VNP
p2269
sbag5
(g6
g7
(lp2270
g5
(g6
g7
(lp2271
Vpoint
p2272
atp2273
Rp2274
(dp2275
g17
VVBP
p2276
sbag5
(g6
g7
(lp2277
g5
(g6
g7
(lp2278
Vout
p2279
atp2280
Rp2281
(dp2282
g17
VRP
p2283
sbatp2284
Rp2285
(dp2286
g17
VPRT
p2287
sbag5
(g6
g7
(lp2288
g5
(g6
g7
(lp2289
Vthat
p2290
atp2291
Rp2292
(dp2293
g17
VIN
p2294
sbag5
(g6
g7
(lp2295
g5
(g6
g7
(lp2296
g5
(g6
g7
(lp2297
g5
(g6
g7
(lp2298
Vwhen
p2299
atp2300
Rp2301
(dp2302
g17
VWRB
p2303
sbatp2304
Rp2305
(dp2306
g17
VWHADVP
p2307
sbag5
(g6
g7
(lp2308
g5
(g6
g7
(lp2309
g5
(g6
g7
(lp2310
Van
p2311
atp2312
Rp2313
(dp2314
g17
VDT
p2315
sbag5
(g6
g7
(lp2316
Vattempt
p2317
atp2318
Rp2319
(dp2320
g17
VNN
p2321
sbag5
(g6
g7
(lp2322
g5
(g6
g7
(lp2323
g5
(g6
g7
(lp2324
Vto
p2325
atp2326
Rp2327
(dp2328
g17
VTO
p2329
sbag5
(g6
g7
(lp2330
g5
(g6
g7
(lp2331
Vsatisfy
p2332
atp2333
Rp2334
(dp2335
g17
VVB
p2336
sbag5
(g6
g7
(lp2337
g5
(g6
g7
(lp2338
g214
atp2339
Rp2340
(dp2341
g17
VDT
p2342
sbag5
(g6
g7
(lp2343
Vliteral
p2344
atp2345
Rp2346
(dp2347
g17
VJJ
p2348
sbag5
(g6
g7
(lp2349
Vfails
p2350
atp2351
Rp2352
(dp2353
g17
VNN
p2354
sbatp2355
Rp2356
(dp2357
g17
VNP
p2358
sbag5
(g6
g7
(lp2359
g110
atp2360
Rp2361
(dp2362
g17
g110
sbag5
(g6
g7
(lp2363
g5
(g6
g7
(lp2364
Vbecause
p2365
atp2366
Rp2367
(dp2368
g17
VIN
p2369
sbag5
(g6
g7
(lp2370
g5
(g6
g7
(lp2371
g5
(g6
g7
(lp2372
Vthe
p2373
atp2374
Rp2375
(dp2376
g17
VDT
p2377
sbag5
(g6
g7
(lp2378
Vtwo
p2379
atp2380
Rp2381
(dp2382
g17
VCD
p2383
sbag5
(g6
g7
(lp2384
Vadjacent
p2385
atp2386
Rp2387
(dp2388
g17
VJJ
p2389
sbag5
(g6
g7
(lp2390
Vregions
p2391
atp2392
Rp2393
(dp2394
g17
VNNS
p2395
sbatp2396
Rp2397
(dp2398
g17
VNP
p2399
sbag5
(g6
g7
(lp2400
g5
(g6
g7
(lp2401
Vmentioned
p2402
atp2403
Rp2404
(dp2405
g17
VVBD
p2406
sbatp2407
Rp2408
(dp2409
g17
VVP
p2410
sbatp2411
Rp2412
(dp2413
g17
g101
sbatp2414
Rp2415
(dp2416
g17
VSBAR
p2417
sbatp2418
Rp2419
(dp2420
g17
VVP
p2421
sbatp2422
Rp2423
(dp2424
g17
VVP
p2425
sbatp2426
Rp2427
(dp2428
g17
g101
sbatp2429
Rp2430
(dp2431
g17
VNP
p2432
sbag5
(g6
g7
(lp2433
g5
(g6
g7
(lp2434
Vhave
p2435
atp2436
Rp2437
(dp2438
g17
VVBP
p2439
sbag5
(g6
g7
(lp2440
g5
(g6
g7
(lp2441
Vbeen
p2442
atp2443
Rp2444
(dp2445
g17
VVBN
p2446
sbag5
(g6
g7
(lp2447
g5
(g6
g7
(lp2448
Vassigned
p2449
atp2450
Rp2451
(dp2452
g17
VVBN
p2453
sbag5
(g6
g7
(lp2454
g5
(g6
g7
(lp2455
Vthe
p2456
atp2457
Rp2458
(dp2459
g17
VDT
p2460
sbag5
(g6
g7
(lp2461
Vsame
p2462
atp2463
Rp2464
(dp2465
g17
VJJ
p2466
sbag5
(g6
g7
(lp2467
Vcolor
p2468
atp2469
Rp2470
(dp2471
g17
VNN
p2472
sbatp2473
Rp2474
(dp2475
g17
VNP
p2476
sbatp2477
Rp2478
(dp2479
g17
VVP
p2480
sbatp2481
Rp2482
(dp2483
g17
VVP
p2484
sbatp2485
Rp2486
(dp2487
g17
VVP
p2488
sbatp2489
Rp2490
(dp2491
g17
g101
sbatp2492
Rp2493
(dp2494
g17
VSBAR
p2495
sbag5
(g6
g7
(lp2496
g110
atp2497
Rp2498
(dp2499
g17
g110
sbag5
(g6
g7
(lp2500
g5
(g6
g7
(lp2501
Vstandard
p2502
atp2503
Rp2504
(dp2505
g17
VJJ
p2506
sbag5
(g6
g7
(lp2507
VPROLOG
p2508
atp2509
Rp2510
(dp2511
g17
VNN
p2512
sbatp2513
Rp2514
(dp2515
g17
VNP
p2516
sbag5
(g6
g7
(lp2517
g5
(g6
g7
(lp2518
Vwill
p2519
atp2520
Rp2521
(dp2522
g17
VMD
p2523
sbag5
(g6
g7
(lp2524
g5
(g6
g7
(lp2525
Vtake
p2526
atp2527
Rp2528
(dp2529
g17
VVB
p2530
sbag5
(g6
g7
(lp2531
g5
(g6
g7
(lp2532
Vback
p2533
atp2534
Rp2535
(dp2536
g17
VRP
p2537
sbatp2538
Rp2539
(dp2540
g17
VPRT
p2541
sbag5
(g6
g7
(lp2542
g5
(g6
g7
(lp2543
g5
(g6
g7
(lp2544
Vthe
p2545
atp2546
Rp2547
(dp2548
g17
VDT
p2549
sbag5
(g6
g7
(lp2550
Vmost
p2551
atp2552
Rp2553
(dp2554
g17
VRBS
p2555
sbag5
(g6
g7
(lp2556
Vrecent
p2557
atp2558
Rp2559
(dp2560
g17
VJJ
p2561
sbag5
(g6
g7
(lp2562
Vassignment
p2563
atp2564
Rp2565
(dp2566
g17
VNN
p2567
sbatp2568
Rp2569
(dp2570
g17
VNP
p2571
sbag5
(g6
g7
(lp2572
g5
(g6
g7
(lp2573
Vof
p2574
atp2575
Rp2576
(dp2577
g17
VIN
p2578
sbag5
(g6
g7
(lp2579
g5
(g6
g7
(lp2580
g214
atp2581
Rp2582
(dp2583
g17
VDT
p2584
sbag5
(g6
g7
(lp2585
Vcolor
p2586
atp2587
Rp2588
(dp2589
g17
VNN
p2590
sbatp2591
Rp2592
(dp2593
g17
VNP
p2594
sbatp2595
Rp2596
(dp2597
g17
VPP
p2598
sbatp2599
Rp2600
(dp2601
g17
VNP
p2602
sbag5
(g6
g7
(lp2603
g5
(g6
g7
(lp2604
Veven
p2605
atp2606
Rp2607
(dp2608
g17
VRB
p2609
sbag5
(g6
g7
(lp2610
Vif
p2611
atp2612
Rp2613
(dp2614
g17
VIN
p2615
sbag5
(g6
g7
(lp2616
g5
(g6
g7
(lp2617
g5
(g6
g7
(lp2618
g5
(g6
g7
(lp2619
Vthe
p2620
atp2621
Rp2622
(dp2623
g17
VDT
p2624
sbag5
(g6
g7
(lp2625
Vregion
p2626
atp2627
Rp2628
(dp2629
g17
VNN
p2630
sbatp2631
Rp2632
(dp2633
g17
VNP
p2634
sbag5
(g6
g7
(lp2635
g5
(g6
g7
(lp2636
g5
(g6
g7
(lp2637
Vmost
p2638
atp2639
Rp2640
(dp2641
g17
VRBS
p2642
sbag5
(g6
g7
(lp2643
Vrecently
p2644
atp2645
Rp2646
(dp2647
g17
VRB
p2648
sbatp2649
Rp2650
(dp2651
g17
VADVP
p2652
sbag5
(g6
g7
(lp2653
Vcolored
p2654
atp2655
Rp2656
(dp2657
g17
VVBN
p2658
sbatp2659
Rp2660
(dp2661
g17
VVP
p2662
sbatp2663
Rp2664
(dp2665
g17
VNP
p2666
sbag5
(g6
g7
(lp2667
g5
(g6
g7
(lp2668
Vwas
p2669
atp2670
Rp2671
(dp2672
g17
VVBD
p2673
sbag5
(g6
g7
(lp2674
g5
(g6
g7
(lp2675
g5
(g6
g7
(lp2676
Vneither
p2677
atp2678
Rp2679
(dp2680
g17
VDT
p2681
sbatp2682
Rp2683
(dp2684
g17
VNP
p2685
sbag5
(g6
g7
(lp2686
g5
(g6
g7
(lp2687
Vof
p2688
atp2689
Rp2690
(dp2691
g17
VIN
p2692
sbag5
(g6
g7
(lp2693
g5
(g6
g7
(lp2694
g5
(g6
g7
(lp2695
Vthose
p2696
atp2697
Rp2698
(dp2699
g17
VDT
p2700
sbatp2701
Rp2702
(dp2703
g17
VNP
p2704
sbag5
(g6
g7
(lp2705
g5
(g6
g7
(lp2706
Vinvolved
p2707
atp2708
Rp2709
(dp2710
g17
VVBN
p2711
sbag5
(g6
g7
(lp2712
g5
(g6
g7
(lp2713
Vin
p2714
atp2715
Rp2716
(dp2717
g17
VIN
p2718
sbag5
(g6
g7
(lp2719
g5
(g6
g7
(lp2720
Vthe
p2721
atp2722
Rp2723
(dp2724
g17
VDT
p2725
sbag5
(g6
g7
(lp2726
Vincompatibility
p2727
atp2728
Rp2729
(dp2730
g17
VNN
p2731
sbatp2732
Rp2733
(dp2734
g17
VNP
p2735
sbatp2736
Rp2737
(dp2738
g17
VPP
p2739
sbatp2740
Rp2741
(dp2742
g17
VVP
p2743
sbatp2744
Rp2745
(dp2746
g17
VNP
p2747
sbatp2748
Rp2749
(dp2750
g17
VPP
p2751
sbatp2752
Rp2753
(dp2754
g17
VNP
p2755
sbatp2756
Rp2757
(dp2758
g17
VVP
p2759
sbatp2760
Rp2761
(dp2762
g17
g101
sbatp2763
Rp2764
(dp2765
g17
VSBAR
p2766
sbatp2767
Rp2768
(dp2769
g17
VVP
p2770
sbatp2771
Rp2772
(dp2773
g17
VVP
p2774
sbatp2775
Rp2776
(dp2777
g17
g101
sbatp2778
Rp2779
(dp2780
g17
VSBAR
p2781
sbatp2782
Rp2783
(dp2784
g17
VVP
p2785
sbag5
(g6
g7
(lp2786
g352
atp2787
Rp2788
(dp2789
g17
g352
sbatp2790
Rp2791
(dp2792
g17
g101
sbatp2793
Rp2794
(dp2795
g17
VROOT
p2796
sbasg363
(icmyPackage
CorE
p2797
(dp2798
g366
(lp2799
(I0
I14
tp2800
a(I0
I24
tp2801
asg370
g5
(g6
g7
(lp2802
g2412
ag2486
atp2803
Rp2804
(dp2805
g17
g381
sbsbsg371
(icmyPackage
CorE
p2806
(dp2807
g366
(lp2808
(I0
I26
tp2809
a(I0
I53
tp2810
asg370
g5
(g6
g7
(lp2811
g2514
ag2772
ag2788
atp2812
Rp2813
(dp2814
g17
g381
sbsbsg382
(icmyPackage
pattern
p2815
(dp2816
g385
I18
sg386
I0
sg387
(lp2817
(lp2818
S'because'
p2819
aa(lp2820
g1471
aasg391
(lp2821
I3
aI1
aI1
asg393
(lp2822
S'Because he was absent for two weeks, the other students in his class are ahead of him.'
p2823
asg396
I75
sg397
(lp2824
(lp2825
a(lp2826
S'&C'
p2827
aa(lp2828
S'&R'
p2829
aasbsg403
(lp2830
(icmyPackage
Sent
p2831
(dp2832
g407
I2
sg408
I11
sg409
S'They point out that when an attempt to satisfy a literal fails, because the two adjacent regions mentioned have been assigned the same color, standard PROLOG will take back the most recent assignment of a color even if the region most recently colored was neither of those involved in the incompatibility.'
p2833
sg411
I0
sg412
I33
sg370
(lp2834
g2794
asbasba(icmyPackage
CELink
p2835
(dp2836
g3
(lp2837
g2813
asg363
(icmyPackage
CorE
p2838
(dp2839
g366
(lp2840
(I0
I14
tp2841
a(I0
I27
tp2842
asg370
g5
(g6
g7
(lp2843
g2761
ag2788
atp2844
Rp2845
(dp2846
g17
g381
sbsbsg371
(icmyPackage
CorE
p2847
(dp2848
g366
(lp2849
(I0
I0
tp2850
a(I0
I12
tp2851
asg370
g5
(g6
g7
(lp2852
g2514
ag2521
ag2528
ag2539
ag2600
ag2607
atp2853
Rp2854
(dp2855
g17
g381
sbsbsg382
(icmyPackage
pattern
p2856
(dp2857
g385
I0
sg386
I0
sg387
(lp2858
(lp2859
S'if'
p2860
aasg391
(lp2861
I1
aI1
aI1
asg393
(lp2862
S'An effective knowledge flow network enables a research team to be very powerful in generating new knowledge if every node can innovate and output new knowledge to appropriate members.'
p2863
asg396
I14
sg397
(lp2864
(lp2865
S'&R@Complete@'
p2866
aa(lp2867
S'&C@Complete@'
p2868
aasbsg403
(lp2869
g2831
asba(icmyPackage
CELink
p2870
(dp2871
g3
(lp2872
g5
(g6
g7
(lp2873
g5
(g6
g7
(lp2874
g5
(g6
g7
(lp2875
g5
(g6
g7
(lp2876
VNo
p2877
atp2878
Rp2879
(dp2880
g17
VDT
p2881
sbag5
(g6
g7
(lp2882
Vmatter
p2883
atp2884
Rp2885
(dp2886
g17
VNN
p2887
sbag5
(g6
g7
(lp2888
g5
(g6
g7
(lp2889
g5
(g6
g7
(lp2890
Vhow
p2891
atp2892
Rp2893
(dp2894
g17
VWRB
p2895
sbatp2896
Rp2897
(dp2898
g17
VWHADVP
p2899
sbag5
(g6
g7
(lp2900
g5
(g6
g7
(lp2901
g5
(g6
g7
(lp2902
g5
(g6
g7
(lp2903
Vthe
p2904
atp2905
Rp2906
(dp2907
g17
VDT
p2908
sbag5
(g6
g7
(lp2909
Vrest
p2910
atp2911
Rp2912
(dp2913
g17
VNN
p2914
sbatp2915
Rp2916
(dp2917
g17
VNP
p2918
sbag5
(g6
g7
(lp2919
g5
(g6
g7
(lp2920
Vof
p2921
atp2922
Rp2923
(dp2924
g17
VIN
p2925
sbag5
(g6
g7
(lp2926
g5
(g6
g7
(lp2927
Vthe
p2928
atp2929
Rp2930
(dp2931
g17
VDT
p2932
sbag5
(g6
g7
(lp2933
Vmap
p2934
atp2935
Rp2936
(dp2937
g17
VNN
p2938
sbatp2939
Rp2940
(dp2941
g17
VNP
p2942
sbatp2943
Rp2944
(dp2945
g17
VPP
p2946
sbatp2947
Rp2948
(dp2949
g17
VNP
p2950
sbag5
(g6
g7
(lp2951
g5
(g6
g7
(lp2952
Vis
p2953
atp2954
Rp2955
(dp2956
g17
VVBZ
p2957
sbag5
(g6
g7
(lp2958
g5
(g6
g7
(lp2959
Vcolored
p2960
atp2961
Rp2962
(dp2963
g17
VVBN
p2964
sbatp2965
Rp2966
(dp2967
g17
VVP
p2968
sbatp2969
Rp2970
(dp2971
g17
VVP
p2972
sbatp2973
Rp2974
(dp2975
g17
g101
sbatp2976
Rp2977
(dp2978
g17
VSBAR
p2979
sbatp2980
Rp2981
(dp2982
g17
VADVP
p2983
sbag5
(g6
g7
(lp2984
g110
atp2985
Rp2986
(dp2987
g17
g110
sbag5
(g6
g7
(lp2988
g5
(g6
g7
(lp2989
Vthere
p2990
atp2991
Rp2992
(dp2993
g17
VEX
p2994
sbatp2995
Rp2996
(dp2997
g17
VNP
p2998
sbag5
(g6
g7
(lp2999
g5
(g6
g7
(lp3000
Vis
p3001
atp3002
Rp3003
(dp3004
g17
VVBZ
p3005
sbag5
(g6
g7
(lp3006
g5
(g6
g7
(lp3007
Valways
p3008
atp3009
Rp3010
(dp3011
g17
VRB
p3012
sbatp3013
Rp3014
(dp3015
g17
VADVP
p3016
sbag5
(g6
g7
(lp3017
g5
(g6
g7
(lp3018
g5
(g6
g7
(lp3019
g214
atp3020
Rp3021
(dp3022
g17
VDT
p3023
sbag5
(g6
g7
(lp3024
Vcolor
p3025
atp3026
Rp3027
(dp3028
g17
VNN
p3029
sbatp3030
Rp3031
(dp3032
g17
VNP
p3033
sbag5
(g6
g7
(lp3034
g5
(g6
g7
(lp3035
Vavailable
p3036
atp3037
Rp3038
(dp3039
g17
VJJ
p3040
sbag5
(g6
g7
(lp3041
g5
(g6
g7
(lp3042
Vfor
p3043
atp3044
Rp3045
(dp3046
g17
VIN
p3047
sbag5
(g6
g7
(lp3048
g5
(g6
g7
(lp3049
Vsuch
p3050
atp3051
Rp3052
(dp3053
g17
VPDT
p3054
sbag5
(g6
g7
(lp3055
g214
atp3056
Rp3057
(dp3058
g17
VDT
p3059
sbag5
(g6
g7
(lp3060
Vcountry
p3061
atp3062
Rp3063
(dp3064
g17
VNN
p3065
sbatp3066
Rp3067
(dp3068
g17
VNP
p3069
sbatp3070
Rp3071
(dp3072
g17
VPP
p3073
sbag5
(g6
g7
(lp3074
g5
(g6
g7
(lp3075
V.1
p3076
atp3077
Rp3078
(dp3079
g17
VCD
p3080
sbatp3081
Rp3082
(dp3083
g17
VNP
p3084
sbatp3085
Rp3086
(dp3087
g17
VADJP
p3088
sbag5
(g6
g7
(lp3089
g5
(g6
g7
(lp3090
g5
(g6
g7
(lp3091
g5
(g6
g7
(lp3092
VWe
p3093
atp3094
Rp3095
(dp3096
g17
VPRP
p3097
sbatp3098
Rp3099
(dp3100
g17
VNP
p3101
sbag5
(g6
g7
(lp3102
g5
(g6
g7
(lp3103
Vuse
p3104
atp3105
Rp3106
(dp3107
g17
VVBP
p3108
sbag5
(g6
g7
(lp3109
g5
(g6
g7
(lp3110
Vthis
p3111
atp3112
Rp3113
(dp3114
g17
VDT
p3115
sbatp3116
Rp3117
(dp3118
g17
VNP
p3119
sbag5
(g6
g7
(lp3120
g5
(g6
g7
(lp3121
Vin
p3122
atp3123
Rp3124
(dp3125
g17
VIN
p3126
sbag5
(g6
g7
(lp3127
g5
(g6
g7
(lp3128
g5
(g6
g7
(lp3129
g5
(g6
g7
(lp3130
Vto
p3131
atp3132
Rp3133
(dp3134
g17
VTO
p3135
sbag5
(g6
g7
(lp3136
g5
(g6
g7
(lp3137
Vimprove
p3138
atp3139
Rp3140
(dp3141
g17
VVB
p3142
sbag5
(g6
g7
(lp3143
g5
(g6
g7
(lp3144
g214
atp3145
Rp3146
(dp3147
g17
VDT
p3148
sbag5
(g6
g7
(lp3149
VPereira-Porto
p3150
atp3151
Rp3152
(dp3153
g17
VJJ
p3154
sbag5
(g6
g7
(lp3155
Vmap
p3156
atp3157
Rp3158
(dp3159
g17
VNN
p3160
sbag5
(g6
g7
(lp3161
Vcoloring
p3162
atp3163
Rp3164
(dp3165
g17
VVBG
p3166
sbag5
(g6
g7
(lp3167
Vprogram
p3168
atp3169
Rp3170
(dp3171
g17
VNN
p3172
sbatp3173
Rp3174
(dp3175
g17
VNP
p3176
sbag5
(g6
g7
(lp3177
g5
(g6
g7
(lp3178
Vby
p3179
atp3180
Rp3181
(dp3182
g17
VIN
p3183
sbag5
(g6
g7
(lp3184
g5
(g6
g7
(lp3185
g5
(g6
g7
(lp3186
g5
(g6
g7
(lp3187
V``
p3188
atp3189
Rp3190
(dp3191
g17
V``
p3192
sbag5
(g6
g7
(lp3193
Vreducing
p3194
atp3195
Rp3196
(dp3197
g17
VVBG
p3198
sbag5
(g6
g7
(lp3199
g5
(g6
g7
(lp3200
Vthe
p3201
atp3202
Rp3203
(dp3204
g17
VDT
p3205
sbag5
(g6
g7
(lp3206
Vmap
p3207
atp3208
Rp3209
(dp3210
g17
VNN
p3211
sbatp3212
Rp3213
(dp3214
g17
VNP
p3215
sbag5
(g6
g7
(lp3216
V''
p3217
atp3218
Rp3219
(dp3220
g17
V''
p3221
sbag5
(g6
g7
(lp3222
g5
(g6
g7
(lp3223
Vby
p3224
atp3225
Rp3226
(dp3227
g17
VIN
p3228
sbag5
(g6
g7
(lp3229
g5
(g6
g7
(lp3230
g5
(g6
g7
(lp3231
Vremoving
p3232
atp3233
Rp3234
(dp3235
g17
VVBG
p3236
sbag5
(g6
g7
(lp3237
g5
(g6
g7
(lp3238
Vsuch
p3239
atp3240
Rp3241
(dp3242
g17
VJJ
p3243
sbag5
(g6
g7
(lp3244
Vcountries
p3245
atp3246
Rp3247
(dp3248
g17
VNNS
p3249
sbatp3250
Rp3251
(dp3252
g17
VNP
p3253
sbatp3254
Rp3255
(dp3256
g17
VVP
p3257
sbatp3258
Rp3259
(dp3260
g17
g101
sbatp3261
Rp3262
(dp3263
g17
VPP
p3264
sbatp3265
Rp3266
(dp3267
g17
VVP
p3268
sbag5
(g6
g7
(lp3269
Vand
p3270
atp3271
Rp3272
(dp3273
g17
VCC
p3274
sbag5
(g6
g7
(lp3275
g5
(g6
g7
(lp3276
Vdoing
p3277
atp3278
Rp3279
(dp3280
g17
VVBG
p3281
sbag5
(g6
g7
(lp3282
g5
(g6
g7
(lp3283
Vour
p3284
atp3285
Rp3286
(dp3287
g17
VPRP$
p3288
sbag5
(g6
g7
(lp3289
Vtrial-and-error
p3290
atp3291
Rp3292
(dp3293
g17
VJJ
p3294
sbag5
(g6
g7
(lp3295
Vcoloring
p3296
atp3297
Rp3298
(dp3299
g17
VNN
p3300
sbatp3301
Rp3302
(dp3303
g17
VNP
p3304
sbag5
(g6
g7
(lp3305
g5
(g6
g7
(lp3306
Von
p3307
atp3308
Rp3309
(dp3310
g17
VIN
p3311
sbag5
(g6
g7
(lp3312
g5
(g6
g7
(lp3313
Vthe
p3314
atp3315
Rp3316
(dp3317
g17
VDT
p3318
sbag5
(g6
g7
(lp3319
Vreduced
p3320
atp3321
Rp3322
(dp3323
g17
VVBN
p3324
sbag5
(g6
g7
(lp3325
Vmap
p3326
atp3327
Rp3328
(dp3329
g17
VNN
p3330
sbatp3331
Rp3332
(dp3333
g17
VNP
p3334
sbatp3335
Rp3336
(dp3337
g17
VPP
p3338
sbatp3339
Rp3340
(dp3341
g17
VVP
p3342
sbatp3343
Rp3344
(dp3345
g17
VVP
p3346
sbatp3347
Rp3348
(dp3349
g17
g101
sbatp3350
Rp3351
(dp3352
g17
VPP
p3353
sbatp3354
Rp3355
(dp3356
g17
VVP
p3357
sbatp3358
Rp3359
(dp3360
g17
VVP
p3361
sbatp3362
Rp3363
(dp3364
g17
g101
sbatp3365
Rp3366
(dp3367
g17
VNP
p3368
sbatp3369
Rp3370
(dp3371
g17
VPP
p3372
sbag5
(g6
g7
(lp3373
g110
atp3374
Rp3375
(dp3376
g17
g110
sbag5
(g6
g7
(lp3377
g5
(g6
g7
(lp3378
Vconfident
p3379
atp3380
Rp3381
(dp3382
g17
VJJ
p3383
sbag5
(g6
g7
(lp3384
g5
(g6
g7
(lp3385
Vthat
p3386
atp3387
Rp3388
(dp3389
g17
VIN
p3390
sbag5
(g6
g7
(lp3391
g5
(g6
g7
(lp3392
g5
(g6
g7
(lp3393
Vonce
p3394
atp3395
Rp3396
(dp3397
g17
VIN
p3398
sbag5
(g6
g7
(lp3399
g5
(g6
g7
(lp3400
g5
(g6
g7
(lp3401
Vthe
p3402
atp3403
Rp3404
(dp3405
g17
VDT
p3406
sbag5
(g6
g7
(lp3407
Vreduced
p3408
atp3409
Rp3410
(dp3411
g17
VVBN
p3412
sbag5
(g6
g7
(lp3413
Vmap
p3414
atp3415
Rp3416
(dp3417
g17
VNN
p3418
sbatp3419
Rp3420
(dp3421
g17
VNP
p3422
sbag5
(g6
g7
(lp3423
g5
(g6
g7
(lp3424
Vis
p3425
atp3426
Rp3427
(dp3428
g17
VVBZ
p3429
sbag5
(g6
g7
(lp3430
g5
(g6
g7
(lp3431
Vcolored
p3432
atp3433
Rp3434
(dp3435
g17
VVBN
p3436
sbatp3437
Rp3438
(dp3439
g17
VVP
p3440
sbatp3441
Rp3442
(dp3443
g17
VVP
p3444
sbatp3445
Rp3446
(dp3447
g17
g101
sbatp3448
Rp3449
(dp3450
g17
VSBAR
p3451
sbag5
(g6
g7
(lp3452
g110
atp3453
Rp3454
(dp3455
g17
g110
sbag5
(g6
g7
(lp3456
g5
(g6
g7
(lp3457
Vthe
p3458
atp3459
Rp3460
(dp3461
g17
VDT
p3462
sbag5
(g6
g7
(lp3463
Vcoloring
p3464
atp3465
Rp3466
(dp3467
g17
VNN
p3468
sbatp3469
Rp3470
(dp3471
g17
VNP
p3472
sbag5
(g6
g7
(lp3473
g5
(g6
g7
(lp3474
Vcan
p3475
atp3476
Rp3477
(dp3478
g17
VMD
p3479
sbag5
(g6
g7
(lp3480
g5
(g6
g7
(lp3481
Vbe
p3482
atp3483
Rp3484
(dp3485
g17
VVB
p3486
sbag5
(g6
g7
(lp3487
g5
(g6
g7
(lp3488
Vextended
p3489
atp3490
Rp3491
(dp3492
g17
VVBN
p3493
sbag5
(g6
g7
(lp3494
g5
(g6
g7
(lp3495
Vto
p3496
atp3497
Rp3498
(dp3499
g17
VTO
p3500
sbag5
(g6
g7
(lp3501
g5
(g6
g7
(lp3502
Vthe
p3503
atp3504
Rp3505
(dp3506
g17
VDT
p3507
sbag5
(g6
g7
(lp3508
Vomitted
p3509
atp3510
Rp3511
(dp3512
g17
VVBN
p3513
sbag5
(g6
g7
(lp3514
Vcountries
p3515
atp3516
Rp3517
(dp3518
g17
VNNS
p3519
sbatp3520
Rp3521
(dp3522
g17
VNP
p3523
sbatp3524
Rp3525
(dp3526
g17
VPP
p3527
sbatp3528
Rp3529
(dp3530
g17
VVP
p3531
sbatp3532
Rp3533
(dp3534
g17
VVP
p3535
sbatp3536
Rp3537
(dp3538
g17
VVP
p3539
sbatp3540
Rp3541
(dp3542
g17
g101
sbatp3543
Rp3544
(dp3545
g17
VSBAR
p3546
sbatp3547
Rp3548
(dp3549
g17
VADJP
p3550
sbatp3551
Rp3552
(dp3553
g17
VVP
p3554
sbatp3555
Rp3556
(dp3557
g17
g101
sbatp3558
Rp3559
(dp3560
g17
VSBAR
p3561
sbatp3562
Rp3563
(dp3564
g17
VNP
p3565
sbatp3566
Rp3567
(dp3568
g17
VVP
p3569
sbag5
(g6
g7
(lp3570
g352
atp3571
Rp3572
(dp3573
g17
g352
sbatp3574
Rp3575
(dp3576
g17
g101
sbatp3577
Rp3578
(dp3579
g17
VROOT
p3580
sbasg363
(icmyPackage
CorE
p3581
(dp3582
g366
(lp3583
(I0
I56
tp3584
a(I0
I60
tp3585
asg370
g3446
sbsg371
(icmyPackage
CorE
p3586
(dp3587
g366
(lp3588
(I0
I62
tp3589
a(I0
I71
tp3590
asg370
g5
(g6
g7
(lp3591
g3470
ag3537
ag3572
atp3592
Rp3593
(dp3594
g17
g381
sbsbsg382
g1463
sg403
(lp3595
(icmyPackage
Sent
p3596
(dp3597
g407
I3
sg408
I14
sg409
S'No matter how the rest of the map is colored, there is always a color available for such a country.1 We use this in to improve a Pereira-Porto map coloring program by "reducing the map" by removing such countries and doing our trial-and-error coloring on the reduced map, confident that once the reduced map is colored, the coloring can be extended to the omitted countries.'
p3598
sg411
I0
sg412
I41
sg370
(lp3599
g3578
asbasba(icmyPackage
CELink
p3600
(dp3601
g3
(lp3602
g5
(g6
g7
(lp3603
g5
(g6
g7
(lp3604
g5
(g6
g7
(lp3605
g5
(g6
g7
(lp3606
VThe
p3607
atp3608
Rp3609
(dp3610
g17
VDT
p3611
sbag5
(g6
g7
(lp3612
Videa
p3613
atp3614
Rp3615
(dp3616
g17
VNN
p3617
sbatp3618
Rp3619
(dp3620
g17
VNP
p3621
sbag5
(g6
g7
(lp3622
g5
(g6
g7
(lp3623
Vis
p3624
atp3625
Rp3626
(dp3627
g17
VVBZ
p3628
sbag5
(g6
g7
(lp3629
g5
(g6
g7
(lp3630
Veven
p3631
atp3632
Rp3633
(dp3634
g17
VRB
p3635
sbag5
(g6
g7
(lp3636
Vmore
p3637
atp3638
Rp3639
(dp3640
g17
VRBR
p3641
sbag5
(g6
g7
(lp3642
Vpowerful
p3643
atp3644
Rp3645
(dp3646
g17
VJJ
p3647
sbatp3648
Rp3649
(dp3650
g17
VADJP
p3651
sbag5
(g6
g7
(lp3652
g110
atp3653
Rp3654
(dp3655
g17
g110
sbag5
(g6
g7
(lp3656
g5
(g6
g7
(lp3657
Vbecause
p3658
atp3659
Rp3660
(dp3661
g17
VIN
p3662
sbag5
(g6
g7
(lp3663
g5
(g6
g7
(lp3664
g5
(g6
g7
(lp3665
g5
(g6
g7
(lp3666
Veliminating
p3667
atp3668
Rp3669
(dp3670
g17
VVBG
p3671
sbag5
(g6
g7
(lp3672
g5
(g6
g7
(lp3673
Vcountries
p3674
atp3675
Rp3676
(dp3677
g17
VNNS
p3678
sbatp3679
Rp3680
(dp3681
g17
VNP
p3682
sbag5
(g6
g7
(lp3683
g5
(g6
g7
(lp3684
Vwith
p3685
atp3686
Rp3687
(dp3688
g17
VIN
p3689
sbag5
(g6
g7
(lp3690
g5
(g6
g7
(lp3691
g5
(g6
g7
(lp3692
Vthree
p3693
atp3694
Rp3695
(dp3696
g17
VCD
p3697
sbag5
(g6
g7
(lp3698
Vor
p3699
atp3700
Rp3701
(dp3702
g17
VCC
p3703
sbag5
(g6
g7
(lp3704
Vfewer
p3705
atp3706
Rp3707
(dp3708
g17
VJJR
p3709
sbatp3710
Rp3711
(dp3712
g17
VQP
p3713
sbag5
(g6
g7
(lp3714
Vneighbors
p3715
atp3716
Rp3717
(dp3718
g17
VNNS
p3719
sbatp3720
Rp3721
(dp3722
g17
VNP
p3723
sbatp3724
Rp3725
(dp3726
g17
VPP
p3727
sbatp3728
Rp3729
(dp3730
g17
VVP
p3731
sbatp3732
Rp3733
(dp3734
g17
g101
sbag5
(g6
g7
(lp3735
g5
(g6
g7
(lp3736
Vmay
p3737
atp3738
Rp3739
(dp3740
g17
VMD
p3741
sbag5
(g6
g7
(lp3742
g5
(g6
g7
(lp3743
Vremove
p3744
atp3745
Rp3746
(dp3747
g17
VVB
p3748
sbag5
(g6
g7
(lp3749
g5
(g6
g7
(lp3750
Venough
p3751
atp3752
Rp3753
(dp3754
g17
VJJ
p3755
sbag5
(g6
g7
(lp3756
Vneighbors
p3757
atp3758
Rp3759
(dp3760
g17
VNNS
p3761
sbatp3762
Rp3763
(dp3764
g17
VNP
p3765
sbag5
(g6
g7
(lp3766
g5
(g6
g7
(lp3767
Vfrom
p3768
atp3769
Rp3770
(dp3771
g17
VIN
p3772
sbag5
(g6
g7
(lp3773
g5
(g6
g7
(lp3774
Vsome
p3775
atp3776
Rp3777
(dp3778
g17
VDT
p3779
sbag5
(g6
g7
(lp3780
Vother
p3781
atp3782
Rp3783
(dp3784
g17
VJJ
p3785
sbag5
(g6
g7
(lp3786
Vcountries
p3787
atp3788
Rp3789
(dp3790
g17
VNNS
p3791
sbatp3792
Rp3793
(dp3794
g17
VNP
p3795
sbatp3796
Rp3797
(dp3798
g17
VPP
p3799
sbag5
(g6
g7
(lp3800
g5
(g6
g7
(lp3801
Vso
p3802
atp3803
Rp3804
(dp3805
g17
VRB
p3806
sbag5
(g6
g7
(lp3807
Vthat
p3808
atp3809
Rp3810
(dp3811
g17
VIN
p3812
sbag5
(g6
g7
(lp3813
g5
(g6
g7
(lp3814
g5
(g6
g7
(lp3815
Vthey
p3816
atp3817
Rp3818
(dp3819
g17
VPRP
p3820
sbatp3821
Rp3822
(dp3823
g17
VNP
p3824
sbag5
(g6
g7
(lp3825
g5
(g6
g7
(lp3826
g5
(g6
g7
(lp3827
Vhave
p3828
atp3829
Rp3830
(dp3831
g17
VVBP
p3832
sbag5
(g6
g7
(lp3833
g5
(g6
g7
(lp3834
g5
(g6
g7
(lp3835
Vthree
p3836
atp3837
Rp3838
(dp3839
g17
VCD
p3840
sbag5
(g6
g7
(lp3841
Vor
p3842
atp3843
Rp3844
(dp3845
g17
VCC
p3846
sbag5
(g6
g7
(lp3847
Vfewer
p3848
atp3849
Rp3850
(dp3851
g17
VJJR
p3852
sbatp3853
Rp3854
(dp3855
g17
VQP
p3856
sbag5
(g6
g7
(lp3857
Vneighbors
p3858
atp3859
Rp3860
(dp3861
g17
VNNS
p3862
sbatp3863
Rp3864
(dp3865
g17
VNP
p3866
sbatp3867
Rp3868
(dp3869
g17
VVP
p3870
sbag5
(g6
g7
(lp3871
Vand
p3872
atp3873
Rp3874
(dp3875
g17
VCC
p3876
sbag5
(g6
g7
(lp3877
g5
(g6
g7
(lp3878
Vcan
p3879
atp3880
Rp3881
(dp3882
g17
VMD
p3883
sbag5
(g6
g7
(lp3884
g5
(g6
g7
(lp3885
Vthemselves
p3886
atp3887
Rp3888
(dp3889
g17
VPRP
p3890
sbatp3891
Rp3892
(dp3893
g17
VADVP
p3894
sbag5
(g6
g7
(lp3895
g5
(g6
g7
(lp3896
Vbe
p3897
atp3898
Rp3899
(dp3900
g17
VVB
p3901
sbag5
(g6
g7
(lp3902
g5
(g6
g7
(lp3903
Vremoved
p3904
atp3905
Rp3906
(dp3907
g17
VVBN
p3908
sbatp3909
Rp3910
(dp3911
g17
VVP
p3912
sbatp3913
Rp3914
(dp3915
g17
VVP
p3916
sbatp3917
Rp3918
(dp3919
g17
VVP
p3920
sbatp3921
Rp3922
(dp3923
g17
VVP
p3924
sbatp3925
Rp3926
(dp3927
g17
g101
sbatp3928
Rp3929
(dp3930
g17
VSBAR
p3931
sbatp3932
Rp3933
(dp3934
g17
VVP
p3935
sbatp3936
Rp3937
(dp3938
g17
VVP
p3939
sbatp3940
Rp3941
(dp3942
g17
g101
sbatp3943
Rp3944
(dp3945
g17
VSBAR
p3946
sbatp3947
Rp3948
(dp3949
g17
VVP
p3950
sbag5
(g6
g7
(lp3951
g352
atp3952
Rp3953
(dp3954
g17
g352
sbatp3955
Rp3956
(dp3957
g17
g101
sbatp3958
Rp3959
(dp3960
g17
VROOT
p3961
sbasg363
(icmyPackage
CorE
p3962
(dp3963
g366
(lp3964
(I0
I0
tp3965
a(I0
I22
tp3966
asg370
g5
(g6
g7
(lp3967
g3619
ag3626
ag3649
ag3654
ag3660
ag3733
ag3739
ag3746
ag3763
ag3797
atp3968
Rp3969
(dp3970
g17
g381
sbsbsg371
(icmyPackage
CorE
p3971
(dp3972
g366
(lp3973
(I0
I25
tp3974
a(I0
I36
tp3975
asg370
g5
(g6
g7
(lp3976
g3926
ag3953
atp3977
Rp3978
(dp3979
g17
g381
sbsbsg382
(icmyPackage
pattern
p3980
(dp3981
g385
I45
sg386
I0
sg387
(lp3982
(lp3983
S'so'
p3984
aS'that'
p3985
aasg391
(lp3986
I3
aI1
aI1
asg393
(lp3987
S'The teacher then decided to ask him some very easy questions so that he could get a few right.'
p3988
asg396
I77
sg397
(lp3989
(lp3990
S'&C'
p3991
aa(lp3992
S'&R'
p3993
aasbsg403
(lp3994
(icmyPackage
Sent
p3995
(dp3996
g407
I3
sg408
I15
sg409
S'The idea is even more powerful, because eliminating countries with three or fewer neighbors may remove enough neighbors from some other countries so that they have three or fewer neighbors and can themselves be removed.'
p3997
sg411
I0
sg412
I42
sg370
(lp3998
g3959
asbasba(icmyPackage
CELink
p3999
(dp4000
g3
(lp4001
g3969
asg363
(icmyPackage
CorE
p4002
(dp4003
g366
(lp4004
(I0
I8
tp4005
a(I0
I22
tp4006
asg370
g5
(g6
g7
(lp4007
g3733
ag3739
ag3746
ag3763
ag3797
atp4008
Rp4009
(dp4010
g17
g381
sbsbsg371
(icmyPackage
CorE
p4011
(dp4012
g366
(lp4013
(I0
I0
tp4014
a(I0
I5
tp4015
asg370
g5
(g6
g7
(lp4016
g3619
ag3626
ag3649
atp4017
Rp4018
(dp4019
g17
g381
sbsbsg382
(icmyPackage
pattern
p4020
(dp4021
g385
I407
sg386
I1
sg387
(lp4022
(lp4023
S'because'
p4024
aasg391
(lp4025
I3
aI1
aI1
asg393
(lp4026
S'It ends up in burnout and less production, because we inevitably run out of energy.'
p4027
asg396
I76
sg397
(lp4028
(lp4029
S'&R'
p4030
aS'(,)'
p4031
aS'(&ADV)'
p4032
aa(lp4033
S'&C'
p4034
aasbsg403
(lp4035
g3995
asba(icmyPackage
CELink
p4036
(dp4037
g3
(lp4038
g3959
ag5
(g6
g7
(lp4039
g5
(g6
g7
(lp4040
g5
(g6
g7
(lp4041
g5
(g6
g7
(lp4042
VTherefore
p4043
atp4044
Rp4045
(dp4046
g17
VRB
p4047
sbatp4048
Rp4049
(dp4050
g17
VADVP
p4051
sbag5
(g6
g7
(lp4052
g110
atp4053
Rp4054
(dp4055
g17
g110
sbag5
(g6
g7
(lp4056
g5
(g6
g7
(lp4057
Vthe
p4058
atp4059
Rp4060
(dp4061
g17
VDT
p4062
sbag5
(g6
g7
(lp4063
Vreduction
p4064
atp4065
Rp4066
(dp4067
g17
VNN
p4068
sbag5
(g6
g7
(lp4069
Vprocess
p4070
atp4071
Rp4072
(dp4073
g17
VNN
p4074
sbatp4075
Rp4076
(dp4077
g17
VNP
p4078
sbag5
(g6
g7
(lp4079
g5
(g6
g7
(lp4080
Vshould
p4081
atp4082
Rp4083
(dp4084
g17
VMD
p4085
sbag5
(g6
g7
(lp4086
g5
(g6
g7
(lp4087
Vbe
p4088
atp4089
Rp4090
(dp4091
g17
VVB
p4092
sbag5
(g6
g7
(lp4093
g5
(g6
g7
(lp4094
Vcontinued
p4095
atp4096
Rp4097
(dp4098
g17
VVBN
p4099
sbag5
(g6
g7
(lp4100
g5
(g6
g7
(lp4101
Vuntil
p4102
atp4103
Rp4104
(dp4105
g17
VIN
p4106
sbag5
(g6
g7
(lp4107
g5
(g6
g7
(lp4108
g5
(g6
g7
(lp4109
g214
atp4110
Rp4111
(dp4112
g17
VDT
p4113
sbag5
(g6
g7
(lp4114
g5
(g6
g7
(lp4115
Vcompletely
p4116
atp4117
Rp4118
(dp4119
g17
VRB
p4120
sbag5
(g6
g7
(lp4121
Vreduced
p4122
atp4123
Rp4124
(dp4125
g17
VJJ
p4126
sbatp4127
Rp4128
(dp4129
g17
VADJP
p4130
sbag5
(g6
g7
(lp4131
Vmap
p4132
atp4133
Rp4134
(dp4135
g17
VNN
p4136
sbatp4137
Rp4138
(dp4139
g17
VNP
p4140
sbag5
(g6
g7
(lp4141
g5
(g6
g7
(lp4142
Vis
p4143
atp4144
Rp4145
(dp4146
g17
VVBZ
p4147
sbag5
(g6
g7
(lp4148
g5
(g6
g7
(lp4149
Vobtained
p4150
atp4151
Rp4152
(dp4153
g17
VVBN
p4154
sbag5
(g6
g7
(lp4155
g5
(g6
g7
(lp4156
Vin
p4157
atp4158
Rp4159
(dp4160
g17
VIN
p4161
sbag5
(g6
g7
(lp4162
g5
(g6
g7
(lp4163
g5
(g6
g7
(lp4164
Vwhich
p4165
atp4166
Rp4167
(dp4168
g17
VWDT
p4169
sbatp4170
Rp4171
(dp4172
g17
VWHNP
p4173
sbag5
(g6
g7
(lp4174
g5
(g6
g7
(lp4175
g5
(g6
g7
(lp4176
Vall
p4177
atp4178
Rp4179
(dp4180
g17
VDT
p4181
sbag5
(g6
g7
(lp4182
Vcountries
p4183
atp4184
Rp4185
(dp4186
g17
VNNS
p4187
sbatp4188
Rp4189
(dp4190
g17
VNP
p4191
sbag5
(g6
g7
(lp4192
g5
(g6
g7
(lp4193
Vhave
p4194
atp4195
Rp4196
(dp4197
g17
VVBP
p4198
sbag5
(g6
g7
(lp4199
g5
(g6
g7
(lp4200
g5
(g6
g7
(lp4201
Vat
p4202
atp4203
Rp4204
(dp4205
g17
VIN
p4206
sbag5
(g6
g7
(lp4207
Vleast
p4208
atp4209
Rp4210
(dp4211
g17
VJJS
p4212
sbag5
(g6
g7
(lp4213
Vfour
p4214
atp4215
Rp4216
(dp4217
g17
VCD
p4218
sbatp4219
Rp4220
(dp4221
g17
VQP
p4222
sbag5
(g6
g7
(lp4223
Vneighbors
p4224
atp4225
Rp4226
(dp4227
g17
VNNS
p4228
sbatp4229
Rp4230
(dp4231
g17
VNP
p4232
sbatp4233
Rp4234
(dp4235
g17
VVP
p4236
sbatp4237
Rp4238
(dp4239
g17
g101
sbatp4240
Rp4241
(dp4242
g17
VSBAR
p4243
sbatp4244
Rp4245
(dp4246
g17
VPP
p4247
sbatp4248
Rp4249
(dp4250
g17
VVP
p4251
sbatp4252
Rp4253
(dp4254
g17
VVP
p4255
sbatp4256
Rp4257
(dp4258
g17
g101
sbatp4259
Rp4260
(dp4261
g17
VSBAR
p4262
sbatp4263
Rp4264
(dp4265
g17
VVP
p4266
sbatp4267
Rp4268
(dp4269
g17
VVP
p4270
sbatp4271
Rp4272
(dp4273
g17
VVP
p4274
sbag5
(g6
g7
(lp4275
g352
atp4276
Rp4277
(dp4278
g17
g352
sbatp4279
Rp4280
(dp4281
g17
g101
sbatp4282
Rp4283
(dp4284
g17
VROOT
p4285
sbasg363
(icmyPackage
CorE
p4286
(dp4287
g366
(lp4288
(I0
I0
tp4289
a(I0
I35
tp4290
asg370
g5
(g6
g7
(lp4291
g3619
ag3948
atp4292
Rp4293
(dp4294
g17
g381
sbsbsg371
(icmyPackage
CorE
p4295
(dp4296
g366
(lp4297
(I1
I2
tp4298
a(I1
I24
tp4299
asg370
g5
(g6
g7
(lp4300
g4076
ag4272
ag4277
atp4301
Rp4302
(dp4303
g17
g381
sbsbsg382
(icmyPackage
pattern
p4304
(dp4305
g385
I62
sg386
I1
sg387
(lp4306
(lp4307
S'therefore'
p4308
aasg391
(lp4309
I1
aI1
aI1
asg393
(lp4310
S'He never lies; therefore, everyone likes to make friends with him.'
p4311
asg396
I1
sg397
(lp4312
(lp4313
S'&C'
p4314
aS'(,/;/./--)'
p4315
aS'(&AND)'
p4316
aa(lp4317
S'(,)'
p4318
aS'&R'
p4319
aasbsg403
(lp4320
g3995
a(icmyPackage
Sent
p4321
(dp4322
g407
I3
sg408
I15
sg409
S'Therefore, the reduction process should be continued until a completely reduced map is obtained in which all countries have at least four neighbors.'
p4323
sg411
I0
sg412
I43
sg370
(lp4324
g4283
asbasba(icmyPackage
CELink
p4325
(dp4326
g3
(lp4327
g5
(g6
g7
(lp4328
g5
(g6
g7
(lp4329
g5
(g6
g7
(lp4330
g5
(g6
g7
(lp4331
VLikewise
p4332
atp4333
Rp4334
(dp4335
g17
VRB
p4336
sbatp4337
Rp4338
(dp4339
g17
VADVP
p4340
sbag5
(g6
g7
(lp4341
g5
(g6
g7
(lp4342
g5
(g6
g7
(lp4343
Vthe
p4344
atp4345
Rp4346
(dp4347
g17
VDT
p4348
sbag5
(g6
g7
(lp4349
Vmap
p4350
atp4351
Rp4352
(dp4353
g17
VNN
p4354
sbatp4355
Rp4356
(dp4357
g17
VNP
p4358
sbag5
(g6
g7
(lp4359
g5
(g6
g7
(lp4360
Vof
p4361
atp4362
Rp4363
(dp4364
g17
VIN
p4365
sbag5
(g6
g7
(lp4366
g5
(g6
g7
(lp4367
VFigure
p4368
atp4369
Rp4370
(dp4371
g17
VNNP
p4372
sbag5
(g6
g7
(lp4373
g2103
atp4374
Rp4375
(dp4376
g17
VCD
p4377
sbatp4378
Rp4379
(dp4380
g17
VNP
p4381
sbatp4382
Rp4383
(dp4384
g17
VPP
p4385
sbatp4386
Rp4387
(dp4388
g17
VNP
p4389
sbag5
(g6
g7
(lp4390
g5
(g6
g7
(lp4391
Vreduces
p4392
atp4393
Rp4394
(dp4395
g17
VVBZ
p4396
sbag5
(g6
g7
(lp4397
g5
(g6
g7
(lp4398
Vto
p4399
atp4400
Rp4401
(dp4402
g17
VTO
p4403
sbag5
(g6
g7
(lp4404
g5
(g6
g7
(lp4405
Vthe
p4406
atp4407
Rp4408
(dp4409
g17
VDT
p4410
sbag5
(g6
g7
(lp4411
Vempty
p4412
atp4413
Rp4414
(dp4415
g17
VJJ
p4416
sbag5
(g6
g7
(lp4417
Vmap
p4418
atp4419
Rp4420
(dp4421
g17
VNN
p4422
sbatp4423
Rp4424
(dp4425
g17
VNP
p4426
sbatp4427
Rp4428
(dp4429
g17
VPP
p4430
sbatp4431
Rp4432
(dp4433
g17
VVP
p4434
sbag5
(g6
g7
(lp4435
g352
atp4436
Rp4437
(dp4438
g17
g352
sbatp4439
Rp4440
(dp4441
g17
g101
sbatp4442
Rp4443
(dp4444
g17
VROOT
p4445
sbag5
(g6
g7
(lp4446
g5
(g6
g7
(lp4447
g5
(g6
g7
(lp4448
g5
(g6
g7
(lp4449
VThus
p4450
atp4451
Rp4452
(dp4453
g17
VRB
p4454
sbatp4455
Rp4456
(dp4457
g17
VADVP
p4458
sbag5
(g6
g7
(lp4459
g5
(g6
g7
(lp4460
Vwe
p4461
atp4462
Rp4463
(dp4464
g17
VPRP
p4465
sbatp4466
Rp4467
(dp4468
g17
VNP
p4469
sbag5
(g6
g7
(lp4470
g5
(g6
g7
(lp4471
Vmay
p4472
atp4473
Rp4474
(dp4475
g17
VMD
p4476
sbag5
(g6
g7
(lp4477
g5
(g6
g7
(lp4478
Vremove
p4479
atp4480
Rp4481
(dp4482
g17
VVB
p4483
sbag5
(g6
g7
(lp4484
g5
(g6
g7
(lp4485
g5
(g6
g7
(lp4486
Vcountry
p4487
atp4488
Rp4489
(dp4490
g17
VNN
p4491
sbag5
(g6
g7
(lp4492
V4
p4493
atp4494
Rp4495
(dp4496
g17
VCD
p4497
sbatp4498
Rp4499
(dp4500
g17
VNP
p4501
sbag5
(g6
g7
(lp4502
g5
(g6
g7
(lp4503
Vwith
p4504
atp4505
Rp4506
(dp4507
g17
VIN
p4508
sbag5
(g6
g7
(lp4509
g5
(g6
g7
(lp4510
g5
(g6
g7
(lp4511
Vtwo
p4512
atp4513
Rp4514
(dp4515
g17
VCD
p4516
sbag5
(g6
g7
(lp4517
Vneighbors
p4518
atp4519
Rp4520
(dp4521
g17
VNNS
p4522
sbatp4523
Rp4524
(dp4525
g17
VNP
p4526
sbag5
(g6
g7
(lp4527
Vand
p4528
atp4529
Rp4530
(dp4531
g17
VCC
p4532
sbag5
(g6
g7
(lp4533
g5
(g6
g7
(lp4534
Vcountry
p4535
atp4536
Rp4537
(dp4538
g17
VNN
p4539
sbag5
(g6
g7
(lp4540
V5
p4541
atp4542
Rp4543
(dp4544
g17
VCD
p4545
sbatp4546
Rp4547
(dp4548
g17
VNP
p4549
sbatp4550
Rp4551
(dp4552
g17
VNP
p4553
sbatp4554
Rp4555
(dp4556
g17
VPP
p4557
sbatp4558
Rp4559
(dp4560
g17
VNP
p4561
sbag5
(g6
g7
(lp4562
g5
(g6
g7
(lp4563
Vwith
p4564
atp4565
Rp4566
(dp4567
g17
VIN
p4568
sbag5
(g6
g7
(lp4569
g5
(g6
g7
(lp4570
Vthree
p4571
atp4572
Rp4573
(dp4574
g17
VCD
p4575
sbag5
(g6
g7
(lp4576
Vneigbors
p4577
atp4578
Rp4579
(dp4580
g17
VNNS
p4581
sbatp4582
Rp4583
(dp4584
g17
VNP
p4585
sbatp4586
Rp4587
(dp4588
g17
VPP
p4589
sbatp4590
Rp4591
(dp4592
g17
VVP
p4593
sbatp4594
Rp4595
(dp4596
g17
VVP
p4597
sbag5
(g6
g7
(lp4598
g352
atp4599
Rp4600
(dp4601
g17
g352
sbatp4602
Rp4603
(dp4604
g17
g101
sbatp4605
Rp4606
(dp4607
g17
VROOT
p4608
sbasg363
(icmyPackage
CorE
p4609
(dp4610
g366
(lp4611
(I0
I0
tp4612
a(I0
I10
tp4613
asg370
g5
(g6
g7
(lp4614
g4338
ag4387
ag4432
atp4615
Rp4616
(dp4617
g17
g381
sbsbsg371
(icmyPackage
CorE
p4618
(dp4619
g366
(lp4620
(I1
I1
tp4621
a(I1
I15
tp4622
asg370
g5
(g6
g7
(lp4623
g4467
ag4595
ag4600
atp4624
Rp4625
(dp4626
g17
g381
sbsbsg382
(icmyPackage
pattern
p4627
(dp4628
g385
I35
sg386
I1
sg387
(lp4629
(lp4630
S'thus'
p4631
aasg391
(lp4632
I1
aI1
aI1
asg393
(lp4633
S'Japan will be on the dark side of the Earth, and thus will lack the warming influence of the Sun.'
p4634
asg396
I2
sg397
(lp4635
(lp4636
S'&C'
p4637
aS'(,/;/./--)'
p4638
aS'(&AND)'
p4639
aa(lp4640
S'&R'
p4641
aasbsg403
(lp4642
(icmyPackage
Sent
p4643
(dp4644
g407
I3
sg408
I16
sg409
S'Likewise the map of Figure 1 reduces to the empty map.'
p4645
sg411
I0
sg412
I46
sg370
(lp4646
g4443
asba(icmyPackage
Sent
p4647
(dp4648
g407
I3
sg408
I16
sg409
S'Thus we may remove country 4 with two neighbors and country 5 with three neigbors.'
p4649
sg411
I0
sg412
I47
sg370
(lp4650
g4606
asbasba(icmyPackage
CELink
p4651
(dp4652
g3
(lp4653
g5
(g6
g7
(lp4654
g5
(g6
g7
(lp4655
g5
(g6
g7
(lp4656
g5
(g6
g7
(lp4657
g5
(g6
g7
(lp4658
VThis
p4659
atp4660
Rp4661
(dp4662
g17
VDT
p4663
sbatp4664
Rp4665
(dp4666
g17
VNP
p4667
sbag5
(g6
g7
(lp4668
g5
(g6
g7
(lp4669
Vleaves
p4670
atp4671
Rp4672
(dp4673
g17
VVBZ
p4674
sbag5
(g6
g7
(lp4675
g5
(g6
g7
(lp4676
Vall
p4677
atp4678
Rp4679
(dp4680
g17
VPDT
p4681
sbag5
(g6
g7
(lp4682
Vthe
p4683
atp4684
Rp4685
(dp4686
g17
VDT
p4687
sbag5
(g6
g7
(lp4688
Vremaining
p4689
atp4690
Rp4691
(dp4692
g17
VJJ
p4693
sbag5
(g6
g7
(lp4694
Vcountries
p4695
atp4696
Rp4697
(dp4698
g17
VNNS
p4699
sbatp4700
Rp4701
(dp4702
g17
VNP
p4703
sbag5
(g6
g7
(lp4704
g5
(g6
g7
(lp4705
Vwith
p4706
atp4707
Rp4708
(dp4709
g17
VIN
p4710
sbag5
(g6
g7
(lp4711
g5
(g6
g7
(lp4712
g5
(g6
g7
(lp4713
Vthree
p4714
atp4715
Rp4716
(dp4717
g17
VCD
p4718
sbag5
(g6
g7
(lp4719
Vor
p4720
atp4721
Rp4722
(dp4723
g17
VCC
p4724
sbag5
(g6
g7
(lp4725
Vfewer
p4726
atp4727
Rp4728
(dp4729
g17
VJJR
p4730
sbatp4731
Rp4732
(dp4733
g17
VQP
p4734
sbag5
(g6
g7
(lp4735
Vneighbors
p4736
atp4737
Rp4738
(dp4739
g17
VNNS
p4740
sbatp4741
Rp4742
(dp4743
g17
VNP
p4744
sbatp4745
Rp4746
(dp4747
g17
VPP
p4748
sbatp4749
Rp4750
(dp4751
g17
VVP
p4752
sbatp4753
Rp4754
(dp4755
g17
g101
sbag5
(g6
g7
(lp4756
g110
atp4757
Rp4758
(dp4759
g17
g110
sbag5
(g6
g7
(lp4760
Vso
p4761
atp4762
Rp4763
(dp4764
g17
VIN
p4765
sbag5
(g6
g7
(lp4766
g5
(g6
g7
(lp4767
g5
(g6
g7
(lp4768
g5
(g6
g7
(lp4769
Vthe
p4770
atp4771
Rp4772
(dp4773
g17
VDT
p4774
sbag5
(g6
g7
(lp4775
Vsecond
p4776
atp4777
Rp4778
(dp4779
g17
VJJ
p4780
sbag5
(g6
g7
(lp4781
Vcycle
p4782
atp4783
Rp4784
(dp4785
g17
VNN
p4786
sbatp4787
Rp4788
(dp4789
g17
VNP
p4790
sbag5
(g6
g7
(lp4791
g5
(g6
g7
(lp4792
Vof
p4793
atp4794
Rp4795
(dp4796
g17
VIN
p4797
sbag5
(g6
g7
(lp4798
g5
(g6
g7
(lp4799
Vreduction
p4800
atp4801
Rp4802
(dp4803
g17
VNN
p4804
sbatp4805
Rp4806
(dp4807
g17
VNP
p4808
sbatp4809
Rp4810
(dp4811
g17
VPP
p4812
sbatp4813
Rp4814
(dp4815
g17
VNP
p4816
sbag5
(g6
g7
(lp4817
g5
(g6
g7
(lp4818
Vleaves
p4819
atp4820
Rp4821
(dp4822
g17
VVBZ
p4823
sbag5
(g6
g7
(lp4824
g5
(g6
g7
(lp4825
g5
(g6
g7
(lp4826
Vthe
p4827
atp4828
Rp4829
(dp4830
g17
VDT
p4831
sbag5
(g6
g7
(lp4832
Vnull
p4833
atp4834
Rp4835
(dp4836
g17
VJJ
p4837
sbag5
(g6
g7
(lp4838
Vmap
p4839
atp4840
Rp4841
(dp4842
g17
VNN
p4843
sbatp4844
Rp4845
(dp4846
g17
VNP
p4847
sbag5
(g6
g7
(lp4848
g110
atp4849
Rp4850
(dp4851
g17
g110
sbag5
(g6
g7
(lp4852
g5
(g6
g7
(lp4853
Vreduced
p4854
atp4855
Rp4856
(dp4857
g17
VJJ
p4858
sbag5
(g6
g7
(lp4859
Vmap
p4860
atp4861
Rp4862
(dp4863
g17
VNN
p4864
sbatp4865
Rp4866
(dp4867
g17
VNP
p4868
sbatp4869
Rp4870
(dp4871
g17
VNP
p4872
sbatp4873
Rp4874
(dp4875
g17
VVP
p4876
sbatp4877
Rp4878
(dp4879
g17
g101
sbag5
(g6
g7
(lp4880
g352
atp4881
Rp4882
(dp4883
g17
g352
sbatp4884
Rp4885
(dp4886
g17
g101
sbatp4887
Rp4888
(dp4889
g17
VROOT
p4890
sbasg363
(icmyPackage
CorE
p4891
(dp4892
g366
(lp4893
(I0
I0
tp4894
a(I0
I10
tp4895
asg370
g4754
sbsg371
(icmyPackage
CorE
p4896
(dp4897
g366
(lp4898
(I0
I13
tp4899
a(I0
I25
tp4900
asg370
g5
(g6
g7
(lp4901
g4878
ag4882
atp4902
Rp4903
(dp4904
g17
g381
sbsbsg382
(icmyPackage
pattern
p4905
(dp4906
g385
I265
sg386
I1
sg387
(lp4907
(lp4908
S'so'
p4909
aasg391
(lp4910
I1
aI1
aI1
asg393
(lp4911
S'It was not long before he saw me looking at him, and so he began to move.'
p4912
asg396
I0
sg397
(lp4913
(lp4914
S'&C'
p4915
aS'(,/;/./--)'
p4916
aS'(&AND)'
p4917
aa(lp4918
S'(-far)'
p4919
aS'(,)'
p4920
aS'&R'
p4921
aasbsg403
(lp4922
(icmyPackage
Sent
p4923
(dp4924
g407
I3
sg408
I16
sg409
S'This leaves all the remaining countries with three or fewer neighbors, so the second cycle of reduction leaves the null map, reduced map.'
p4925
sg411
I0
sg412
I48
sg370
(lp4926
g4888
asbasba(icmyPackage
CELink
p4927
(dp4928
g3
(lp4929
g4888
ag5
(g6
g7
(lp4930
g5
(g6
g7
(lp4931
g5
(g6
g7
(lp4932
g5
(g6
g7
(lp4933
VTherefore
p4934
atp4935
Rp4936
(dp4937
g17
VRB
p4938
sbatp4939
Rp4940
(dp4941
g17
VADVP
p4942
sbag5
(g6
g7
(lp4943
g110
atp4944
Rp4945
(dp4946
g17
g110
sbag5
(g6
g7
(lp4947
g5
(g6
g7
(lp4948
g5
(g6
g7
(lp4949
Vwhen
p4950
atp4951
Rp4952
(dp4953
g17
VWRB
p4954
sbatp4955
Rp4956
(dp4957
g17
VWHADVP
p4958
sbag5
(g6
g7
(lp4959
g5
(g6
g7
(lp4960
g5
(g6
g7
(lp4961
Vwe
p4962
atp4963
Rp4964
(dp4965
g17
VPRP
p4966
sbatp4967
Rp4968
(dp4969
g17
VNP
p4970
sbag5
(g6
g7
(lp4971
g5
(g6
g7
(lp4972
Vcolored
p4973
atp4974
Rp4975
(dp4976
g17
VVBN
p4977
sbag5
(g6
g7
(lp4978
g5
(g6
g7
(lp4979
Vin
p4980
atp4981
Rp4982
(dp4983
g17
VIN
p4984
sbag5
(g6
g7
(lp4985
g5
(g6
g7
(lp4986
g5
(g6
g7
(lp4987
Vthe
p4988
atp4989
Rp4990
(dp4991
g17
VDT
p4992
sbag5
(g6
g7
(lp4993
Vreverse
p4994
atp4995
Rp4996
(dp4997
g17
VJJ
p4998
sbag5
(g6
g7
(lp4999
Vorder
p5000
atp5001
Rp5002
(dp5003
g17
VNN
p5004
sbag5
(g6
g7
(lp5005
g2103
atp5006
Rp5007
(dp5008
g17
VCD
p5009
sbatp5010
Rp5011
(dp5012
g17
VNP
p5013
sbag5
(g6
g7
(lp5014
g110
atp5015
Rp5016
(dp5017
g17
g110
sbag5
(g6
g7
(lp5018
g5
(g6
g7
(lp5019
V2
p5020
atp5021
Rp5022
(dp5023
g17
VCD
p5024
sbatp5025
Rp5026
(dp5027
g17
VNP
p5028
sbag5
(g6
g7
(lp5029
g110
atp5030
Rp5031
(dp5032
g17
g110
sbag5
(g6
g7
(lp5033
g5
(g6
g7
(lp5034
V3
p5035
atp5036
Rp5037
(dp5038
g17
VCD
p5039
sbatp5040
Rp5041
(dp5042
g17
VNP
p5043
sbag5
(g6
g7
(lp5044
g110
atp5045
Rp5046
(dp5047
g17
g110
sbag5
(g6
g7
(lp5048
g5
(g6
g7
(lp5049
V6
p5050
atp5051
Rp5052
(dp5053
g17
VCD
p5054
sbatp5055
Rp5056
(dp5057
g17
VNP
p5058
sbag5
(g6
g7
(lp5059
g110
atp5060
Rp5061
(dp5062
g17
g110
sbag5
(g6
g7
(lp5063
g5
(g6
g7
(lp5064
g4493
atp5065
Rp5066
(dp5067
g17
VCD
p5068
sbatp5069
Rp5070
(dp5071
g17
VNP
p5072
sbag5
(g6
g7
(lp5073
g110
atp5074
Rp5075
(dp5076
g17
g110
sbag5
(g6
g7
(lp5077
g5
(g6
g7
(lp5078
g4541
atp5079
Rp5080
(dp5081
g17
VCD
p5082
sbatp5083
Rp5084
(dp5085
g17
VNP
p5086
sbatp5087
Rp5088
(dp5089
g17
VNP
p5090
sbatp5091
Rp5092
(dp5093
g17
VPP
p5094
sbatp5095
Rp5096
(dp5097
g17
VVP
p5098
sbatp5099
Rp5100
(dp5101
g17
g101
sbatp5102
Rp5103
(dp5104
g17
VSBAR
p5105
sbag5
(g6
g7
(lp5106
g110
atp5107
Rp5108
(dp5109
g17
g110
sbag5
(g6
g7
(lp5110
g5
(g6
g7
(lp5111
Veach
p5112
atp5113
Rp5114
(dp5115
g17
VDT
p5116
sbag5
(g6
g7
(lp5117
Vcountry
p5118
atp5119
Rp5120
(dp5121
g17
VNN
p5122
sbatp5123
Rp5124
(dp5125
g17
VNP
p5126
sbag5
(g6
g7
(lp5127
g5
(g6
g7
(lp5128
Vis
p5129
atp5130
Rp5131
(dp5132
g17
VVBZ
p5133
sbag5
(g6
g7
(lp5134
g5
(g6
g7
(lp5135
Vcolored
p5136
atp5137
Rp5138
(dp5139
g17
VVBN
p5140
sbag5
(g6
g7
(lp5141
g5
(g6
g7
(lp5142
Vwithout
p5143
atp5144
Rp5145
(dp5146
g17
VIN
p5147
sbag5
(g6
g7
(lp5148
g5
(g6
g7
(lp5149
g5
(g6
g7
(lp5150
Vchanging
p5151
atp5152
Rp5153
(dp5154
g17
VVBG
p5155
sbag5
(g6
g7
(lp5156
g5
(g6
g7
(lp5157
g5
(g6
g7
(lp5158
Vthe
p5159
atp5160
Rp5161
(dp5162
g17
VDT
p5163
sbag5
(g6
g7
(lp5164
Vcolor
p5165
atp5166
Rp5167
(dp5168
g17
VNN
p5169
sbatp5170
Rp5171
(dp5172
g17
VNP
p5173
sbag5
(g6
g7
(lp5174
g5
(g6
g7
(lp5175
Vof
p5176
atp5177
Rp5178
(dp5179
g17
VIN
p5180
sbag5
(g6
g7
(lp5181
g5
(g6
g7
(lp5182
Vany
p5183
atp5184
Rp5185
(dp5186
g17
VDT
p5187
sbag5
(g6
g7
(lp5188
Vpreviously
p5189
atp5190
Rp5191
(dp5192
g17
VRB
p5193
sbag5
(g6
g7
(lp5194
Vcolored
p5195
atp5196
Rp5197
(dp5198
g17
VVBN
p5199
sbag5
(g6
g7
(lp5200
Vcountry
p5201
atp5202
Rp5203
(dp5204
g17
VNN
p5205
sbatp5206
Rp5207
(dp5208
g17
VNP
p5209
sbatp5210
Rp5211
(dp5212
g17
VPP
p5213
sbatp5214
Rp5215
(dp5216
g17
VNP
p5217
sbatp5218
Rp5219
(dp5220
g17
VVP
p5221
sbatp5222
Rp5223
(dp5224
g17
g101
sbatp5225
Rp5226
(dp5227
g17
VPP
p5228
sbatp5229
Rp5230
(dp5231
g17
VVP
p5232
sbatp5233
Rp5234
(dp5235
g17
VVP
p5236
sbag5
(g6
g7
(lp5237
g352
atp5238
Rp5239
(dp5240
g17
g352
sbatp5241
Rp5242
(dp5243
g17
g101
sbatp5244
Rp5245
(dp5246
g17
VROOT
p5247
sbasg363
(icmyPackage
CorE
p5248
(dp5249
g366
(lp5250
(I0
I1
tp5251
a(I0
I24
tp5252
asg370
g5
(g6
g7
(lp5253
g4750
ag4758
ag4763
ag4878
atp5254
Rp5255
(dp5256
g17
g381
sbsbsg371
(icmyPackage
CorE
p5257
(dp5258
g366
(lp5259
(I1
I2
tp5260
a(I1
I34
tp5261
asg370
g5
(g6
g7
(lp5262
g5103
ag5108
ag5124
ag5234
ag5239
atp5263
Rp5264
(dp5265
g17
g381
sbsbsg382
g4304
sg403
(lp5266
g4923
a(icmyPackage
Sent
p5267
(dp5268
g407
I3
sg408
I16
sg409
S'Therefore, when we colored in the reverse order 1, 2, 3, 6, 4, 5, each country is colored without changing the color of any previously colored country.'
p5269
sg411
I0
sg412
I49
sg370
(lp5270
g5245
asbasba(icmyPackage
CELink
p5271
(dp5272
g3
(lp5273
g5
(g6
g7
(lp5274
g5
(g6
g7
(lp5275
g5
(g6
g7
(lp5276
g5
(g6
g7
(lp5277
VIf
p5278
atp5279
Rp5280
(dp5281
g17
VIN
p5282
sbag5
(g6
g7
(lp5283
g5
(g6
g7
(lp5284
g5
(g6
g7
(lp5285
Vthe
p5286
atp5287
Rp5288
(dp5289
g17
VDT
p5290
sbag5
(g6
g7
(lp5291
Vprogrammer
p5292
atp5293
Rp5294
(dp5295
g17
VNN
p5296
sbatp5297
Rp5298
(dp5299
g17
VNP
p5300
sbag5
(g6
g7
(lp5301
g5
(g6
g7
(lp5302
Vperforms
p5303
atp5304
Rp5305
(dp5306
g17
VVBZ
p5307
sbag5
(g6
g7
(lp5308
g5
(g6
g7
(lp5309
Vthis
p5310
atp5311
Rp5312
(dp5313
g17
VDT
p5314
sbag5
(g6
g7
(lp5315
Vreduction
p5316
atp5317
Rp5318
(dp5319
g17
VNN
p5320
sbatp5321
Rp5322
(dp5323
g17
VNP
p5324
sbag5
(g6
g7
(lp5325
g5
(g6
g7
(lp5326
Vbefore
p5327
atp5328
Rp5329
(dp5330
g17
VIN
p5331
sbag5
(g6
g7
(lp5332
g5
(g6
g7
(lp5333
g5
(g6
g7
(lp5334
Vhe
p5335
atp5336
Rp5337
(dp5338
g17
VPRP
p5339
sbatp5340
Rp5341
(dp5342
g17
VNP
p5343
sbag5
(g6
g7
(lp5344
g5
(g6
g7
(lp5345
Vwrites
p5346
atp5347
Rp5348
(dp5349
g17
VVBZ
p5350
sbag5
(g6
g7
(lp5351
g5
(g6
g7
(lp5352
Vthe
p5353
atp5354
Rp5355
(dp5356
g17
VDT
p5357
sbag5
(g6
g7
(lp5358
Vgoal
p5359
atp5360
Rp5361
(dp5362
g17
VNN
p5363
sbag5
(g6
g7
(lp5364
Vstatement
p5365
atp5366
Rp5367
(dp5368
g17
VNN
p5369
sbatp5370
Rp5371
(dp5372
g17
VNP
p5373
sbatp5374
Rp5375
(dp5376
g17
VVP
p5377
sbatp5378
Rp5379
(dp5380
g17
g101
sbatp5381
Rp5382
(dp5383
g17
VSBAR
p5384
sbatp5385
Rp5386
(dp5387
g17
VVP
p5388
sbatp5389
Rp5390
(dp5391
g17
g101
sbatp5392
Rp5393
(dp5394
g17
VSBAR
p5395
sbag5
(g6
g7
(lp5396
g110
atp5397
Rp5398
(dp5399
g17
g110
sbag5
(g6
g7
(lp5400
g5
(g6
g7
(lp5401
Vhe
p5402
atp5403
Rp5404
(dp5405
g17
VPRP
p5406
sbatp5407
Rp5408
(dp5409
g17
VNP
p5410
sbag5
(g6
g7
(lp5411
g5
(g6
g7
(lp5412
Vwill
p5413
atp5414
Rp5415
(dp5416
g17
VMD
p5417
sbag5
(g6
g7
(lp5418
g5
(g6
g7
(lp5419
Vwrite
p5420
atp5421
Rp5422
(dp5423
g17
VVB
p5424
sbatp5425
Rp5426
(dp5427
g17
VVP
p5428
sbatp5429
Rp5430
(dp5431
g17
VVP
p5432
sbatp5433
Rp5434
(dp5435
g17
g101
sbatp5436
Rp5437
(dp5438
g17
VROOT
p5439
sbasg363
(icmyPackage
CorE
p5440
(dp5441
g366
(lp5442
(I0
I1
tp5443
a(I0
I11
tp5444
asg370
g5390
sbsg371
(icmyPackage
CorE
p5445
(dp5446
g366
(lp5447
(I0
I13
tp5448
a(I0
I15
tp5449
asg370
g5
(g6
g7
(lp5450
g5408
ag5430
atp5451
Rp5452
(dp5453
g17
g381
sbsbsg382
g1463
sg403
(lp5454
(icmyPackage
Sent
p5455
(dp5456
g407
I3
sg408
I17
sg409
S'If the programmer performs this reduction before he writes the goal statement, he will write'
p5457
sg411
I0
sg412
I50
sg370
(lp5458
g5437
asbasba(icmyPackage
CELink
p5459
(dp5460
g3
(lp5461
g5
(g6
g7
(lp5462
g5
(g6
g7
(lp5463
g5
(g6
g7
(lp5464
g5
(g6
g7
(lp5465
VNamely
p5466
atp5467
Rp5468
(dp5469
g17
VRB
p5470
sbatp5471
Rp5472
(dp5473
g17
VADVP
p5474
sbag5
(g6
g7
(lp5475
g110
atp5476
Rp5477
(dp5478
g17
g110
sbag5
(g6
g7
(lp5479
g5
(g6
g7
(lp5480
g5
(g6
g7
(lp5481
Vafter
p5482
atp5483
Rp5484
(dp5485
g17
VIN
p5486
sbag5
(g6
g7
(lp5487
g5
(g6
g7
(lp5488
g5
(g6
g7
(lp5489
VR1
p5490
atp5491
Rp5492
(dp5493
g17
VNNP
p5494
sbatp5495
Rp5496
(dp5497
g17
VNP
p5498
sbag5
(g6
g7
(lp5499
g5
(g6
g7
(lp5500
Vhas
p5501
atp5502
Rp5503
(dp5504
g17
VVBZ
p5505
sbag5
(g6
g7
(lp5506
g5
(g6
g7
(lp5507
Vbeen
p5508
atp5509
Rp5510
(dp5511
g17
VVBN
p5512
sbag5
(g6
g7
(lp5513
g5
(g6
g7
(lp5514
Vchosen
p5515
atp5516
Rp5517
(dp5518
g17
VVBN
p5519
sbag5
(g6
g7
(lp5520
g5
(g6
g7
(lp5521
Varbitrarily
p5522
atp5523
Rp5524
(dp5525
g17
VRB
p5526
sbatp5527
Rp5528
(dp5529
g17
VADVP
p5530
sbatp5531
Rp5532
(dp5533
g17
VVP
p5534
sbatp5535
Rp5536
(dp5537
g17
VVP
p5538
sbatp5539
Rp5540
(dp5541
g17
VVP
p5542
sbatp5543
Rp5544
(dp5545
g17
g101
sbatp5546
Rp5547
(dp5548
g17
VSBAR
p5549
sbag5
(g6
g7
(lp5550
g5
(g6
g7
(lp5551
g110
atp5552
Rp5553
(dp5554
g17
g110
sbag5
(g6
g7
(lp5555
g5
(g6
g7
(lp5556
g5
(g6
g7
(lp5557
Vseveral
p5558
atp5559
Rp5560
(dp5561
g17
VJJ
p5562
sbag5
(g6
g7
(lp5563
Vvalues
p5564
atp5565
Rp5566
(dp5567
g17
VNNS
p5568
sbatp5569
Rp5570
(dp5571
g17
VNP
p5572
sbag5
(g6
g7
(lp5573
g5
(g6
g7
(lp5574
Vwill
p5575
atp5576
Rp5577
(dp5578
g17
VMD
p5579
sbag5
(g6
g7
(lp5580
g5
(g6
g7
(lp5581
Vhave
p5582
atp5583
Rp5584
(dp5585
g17
VVB
p5586
sbag5
(g6
g7
(lp5587
g5
(g6
g7
(lp5588
g5
(g6
g7
(lp5589
Vto
p5590
atp5591
Rp5592
(dp5593
g17
VTO
p5594
sbag5
(g6
g7
(lp5595
g5
(g6
g7
(lp5596
Vbe
p5597
atp5598
Rp5599
(dp5600
g17
VVB
p5601
sbag5
(g6
g7
(lp5602
g5
(g6
g7
(lp5603
Vtried
p5604
atp5605
Rp5606
(dp5607
g17
VVBN
p5608
sbag5
(g6
g7
(lp5609
g5
(g6
g7
(lp5610
Vfor
p5611
atp5612
Rp5613
(dp5614
g17
VIN
p5615
sbag5
(g6
g7
(lp5616
g5
(g6
g7
(lp5617
g5
(g6
g7
(lp5618
Veach
p5619
atp5620
Rp5621
(dp5622
g17
VDT
p5623
sbatp5624
Rp5625
(dp5626
g17
VNP
p5627
sbag5
(g6
g7
(lp5628
g5
(g6
g7
(lp5629
Vof
p5630
atp5631
Rp5632
(dp5633
g17
VIN
p5634
sbag5
(g6
g7
(lp5635
g5
(g6
g7
(lp5636
g5
(g6
g7
(lp5637
Vthe
p5638
atp5639
Rp5640
(dp5641
g17
VDT
p5642
sbag5
(g6
g7
(lp5643
Vvariables
p5644
atp5645
Rp5646
(dp5647
g17
VNNS
p5648
sbag5
(g6
g7
(lp5649
VR1
p5650
atp5651
Rp5652
(dp5653
g17
VNN
p5654
sbatp5655
Rp5656
(dp5657
g17
VNP
p5658
sbag5
(g6
g7
(lp5659
g110
atp5660
Rp5661
(dp5662
g17
g110
sbag5
(g6
g7
(lp5663
g5
(g6
g7
(lp5664
VR2
p5665
atp5666
Rp5667
(dp5668
g17
VNNP
p5669
sbag5
(g6
g7
(lp5670
g110
atp5671
Rp5672
(dp5673
g17
g110
sbag5
(g6
g7
(lp5674
VR3
p5675
atp5676
Rp5677
(dp5678
g17
VNNP
p5679
sbag5
(g6
g7
(lp5680
g110
atp5681
Rp5682
(dp5683
g17
g110
sbag5
(g6
g7
(lp5684
VR6
p5685
atp5686
Rp5687
(dp5688
g17
VNNP
p5689
sbag5
(g6
g7
(lp5690
g110
atp5691
Rp5692
(dp5693
g17
g110
sbag5
(g6
g7
(lp5694
VR4
p5695
atp5696
Rp5697
(dp5698
g17
VNNP
p5699
sbag5
(g6
g7
(lp5700
g110
atp5701
Rp5702
(dp5703
g17
g110
sbatp5704
Rp5705
(dp5706
g17
VNP
p5707
sbag5
(g6
g7
(lp5708
Vand
p5709
atp5710
Rp5711
(dp5712
g17
VCC
p5713
sbag5
(g6
g7
(lp5714
g5
(g6
g7
(lp5715
VR5
p5716
atp5717
Rp5718
(dp5719
g17
VNNP
p5720
sbatp5721
Rp5722
(dp5723
g17
VNP
p5724
sbatp5725
Rp5726
(dp5727
g17
VNP
p5728
sbatp5729
Rp5730
(dp5731
g17
VPP
p5732
sbatp5733
Rp5734
(dp5735
g17
VNP
p5736
sbatp5737
Rp5738
(dp5739
g17
VPP
p5740
sbatp5741
Rp5742
(dp5743
g17
VVP
p5744
sbatp5745
Rp5746
(dp5747
g17
VVP
p5748
sbatp5749
Rp5750
(dp5751
g17
VVP
p5752
sbatp5753
Rp5754
(dp5755
g17
g101
sbatp5756
Rp5757
(dp5758
g17
VVP
p5759
sbatp5760
Rp5761
(dp5762
g17
VVP
p5763
sbatp5764
Rp5765
(dp5766
g17
g101
sbag5
(g6
g7
(lp5767
g110
atp5768
Rp5769
(dp5770
g17
g110
sbatp5771
Rp5772
(dp5773
g17
VPRN
p5774
sbag5
(g6
g7
(lp5775
Vbut
p5776
atp5777
Rp5778
(dp5779
g17
VCC
p5780
sbag5
(g6
g7
(lp5781
g5
(g6
g7
(lp5782
Vonce
p5783
atp5784
Rp5785
(dp5786
g17
VIN
p5787
sbag5
(g6
g7
(lp5788
g5
(g6
g7
(lp5789
g5
(g6
g7
(lp5790
g214
atp5791
Rp5792
(dp5793
g17
VDT
p5794
sbag5
(g6
g7
(lp5795
Vvalue
p5796
atp5797
Rp5798
(dp5799
g17
VNN
p5800
sbatp5801
Rp5802
(dp5803
g17
VNP
p5804
sbag5
(g6
g7
(lp5805
g5
(g6
g7
(lp5806
Vhas
p5807
atp5808
Rp5809
(dp5810
g17
VVBZ
p5811
sbag5
(g6
g7
(lp5812
g5
(g6
g7
(lp5813
Vbeen
p5814
atp5815
Rp5816
(dp5817
g17
VVBN
p5818
sbag5
(g6
g7
(lp5819
g5
(g6
g7
(lp5820
Vfound
p5821
atp5822
Rp5823
(dp5824
g17
VVBN
p5825
sbag5
(g6
g7
(lp5826
g5
(g6
g7
(lp5827
Vthat
p5828
atp5829
Rp5830
(dp5831
g17
VIN
p5832
sbag5
(g6
g7
(lp5833
g5
(g6
g7
(lp5834
g5
(g6
g7
(lp5835
Vis
p5836
atp5837
Rp5838
(dp5839
g17
VVBZ
p5840
sbag5
(g6
g7
(lp5841
g5
(g6
g7
(lp5842
Vcompatible
p5843
atp5844
Rp5845
(dp5846
g17
VJJ
p5847
sbag5
(g6
g7
(lp5848
g5
(g6
g7
(lp5849
Vwith
p5850
atp5851
Rp5852
(dp5853
g17
VIN
p5854
sbag5
(g6
g7
(lp5855
g5
(g6
g7
(lp5856
Vthe
p5857
atp5858
Rp5859
(dp5860
g17
VDT
p5861
sbag5
(g6
g7
(lp5862
g5
(g6
g7
(lp5863
Vpreviously
p5864
atp5865
Rp5866
(dp5867
g17
VRB
p5868
sbag5
(g6
g7
(lp5869
Vdetermined
p5870
atp5871
Rp5872
(dp5873
g17
VVBN
p5874
sbatp5875
Rp5876
(dp5877
g17
VADJP
p5878
sbag5
(g6
g7
(lp5879
Vvariables
p5880
atp5881
Rp5882
(dp5883
g17
VNNS
p5884
sbatp5885
Rp5886
(dp5887
g17
VNP
p5888
sbatp5889
Rp5890
(dp5891
g17
VPP
p5892
sbatp5893
Rp5894
(dp5895
g17
VADJP
p5896
sbatp5897
Rp5898
(dp5899
g17
VVP
p5900
sbatp5901
Rp5902
(dp5903
g17
g101
sbatp5904
Rp5905
(dp5906
g17
VSBAR
p5907
sbatp5908
Rp5909
(dp5910
g17
VVP
p5911
sbatp5912
Rp5913
(dp5914
g17
VVP
p5915
sbatp5916
Rp5917
(dp5918
g17
VVP
p5919
sbatp5920
Rp5921
(dp5922
g17
g101
sbatp5923
Rp5924
(dp5925
g17
VSBAR
p5926
sbatp5927
Rp5928
(dp5929
g17
VSBAR
p5930
sbag5
(g6
g7
(lp5931
g110
atp5932
Rp5933
(dp5934
g17
g110
sbag5
(g6
g7
(lp5935
g5
(g6
g7
(lp5936
Vit
p5937
atp5938
Rp5939
(dp5940
g17
VPRP
p5941
sbatp5942
Rp5943
(dp5944
g17
VNP
p5945
sbag5
(g6
g7
(lp5946
g5
(g6
g7
(lp5947
Vwo
p5948
atp5949
Rp5950
(dp5951
g17
VMD
p5952
sbag5
(g6
g7
(lp5953
Vn't
p5954
atp5955
Rp5956
(dp5957
g17
VRB
p5958
sbag5
(g6
g7
(lp5959
g5
(g6
g7
(lp5960
Vhave
p5961
atp5962
Rp5963
(dp5964
g17
VVB
p5965
sbag5
(g6
g7
(lp5966
g5
(g6
g7
(lp5967
g5
(g6
g7
(lp5968
Vto
p5969
atp5970
Rp5971
(dp5972
g17
VTO
p5973
sbag5
(g6
g7
(lp5974
g5
(g6
g7
(lp5975
Vbe
p5976
atp5977
Rp5978
(dp5979
g17
VVB
p5980
sbag5
(g6
g7
(lp5981
g5
(g6
g7
(lp5982
Vchanged
p5983
atp5984
Rp5985
(dp5986
g17
VVBN
p5987
sbag5
(g6
g7
(lp5988
g5
(g6
g7
(lp5989
Vagain
p5990
atp5991
Rp5992
(dp5993
g17
VRB
p5994
sbatp5995
Rp5996
(dp5997
g17
VADVP
p5998
sbatp5999
Rp6000
(dp6001
g17
VVP
p6002
sbatp6003
Rp6004
(dp6005
g17
VVP
p6006
sbatp6007
Rp6008
(dp6009
g17
VVP
p6010
sbatp6011
Rp6012
(dp6013
g17
g101
sbatp6014
Rp6015
(dp6016
g17
VVP
p6017
sbatp6018
Rp6019
(dp6020
g17
VVP
p6021
sbag5
(g6
g7
(lp6022
g352
atp6023
Rp6024
(dp6025
g17
g352
sbatp6026
Rp6027
(dp6028
g17
g101
sbatp6029
Rp6030
(dp6031
g17
VROOT
p6032
sbasg363
(icmyPackage
CorE
p6033
(dp6034
g366
(lp6035
(I0
I36
tp6036
a(I0
I48
tp6037
asg370
g5921
sbsg371
(icmyPackage
CorE
p6038
(dp6039
g366
(lp6040
(I0
I50
tp6041
a(I0
I58
tp6042
asg370
g5
(g6
g7
(lp6043
g5943
ag6019
ag6024
atp6044
Rp6045
(dp6046
g17
g381
sbsbsg382
g1463
sg403
(lp6047
(icmyPackage
Sent
p6048
(dp6049
g407
I3
sg408
I19
sg409
S"Namely, after R1 has been chosen arbitrarily, several values will have to be tried for each of the variables R1, R2, R3, R6, R4, and R5, but once a value has been found that is compatible with the previously determined variables, it won't have to be changed again."
p6050
sg411
I0
sg412
I53
sg370
(lp6051
g6030
asbasba(icmyPackage
CELink
p6052
(dp6053
g3
(lp6054
g5
(g6
g7
(lp6055
g5
(g6
g7
(lp6056
g5
(g6
g7
(lp6057
g5
(g6
g7
(lp6058
VThe
p6059
atp6060
Rp6061
(dp6062
g17
VDT
p6063
sbag5
(g6
g7
(lp6064
Vnew
p6065
atp6066
Rp6067
(dp6068
g17
VJJ
p6069
sbag5
(g6
g7
(lp6070
VPROLOG
p6071
atp6072
Rp6073
(dp6074
g17
VNNP
p6075
sbag5
(g6
g7
(lp6076
Vprogram
p6077
atp6078
Rp6079
(dp6080
g17
VNN
p6081
sbatp6082
Rp6083
(dp6084
g17
VNP
p6085
sbag5
(g6
g7
(lp6086
g5
(g6
g7
(lp6087
Vis
p6088
atp6089
Rp6090
(dp6091
g17
VVBZ
p6092
sbag5
(g6
g7
(lp6093
g5
(g6
g7
(lp6094
Vlogically
p6095
atp6096
Rp6097
(dp6098
g17
VRB
p6099
sbatp6100
Rp6101
(dp6102
g17
VADVP
p6103
sbag5
(g6
g7
(lp6104
g5
(g6
g7
(lp6105
Vequivalent
p6106
atp6107
Rp6108
(dp6109
g17
VJJ
p6110
sbag5
(g6
g7
(lp6111
g5
(g6
g7
(lp6112
Vto
p6113
atp6114
Rp6115
(dp6116
g17
VTO
p6117
sbag5
(g6
g7
(lp6118
g5
(g6
g7
(lp6119
Vthe
p6120
atp6121
Rp6122
(dp6123
g17
VDT
p6124
sbag5
(g6
g7
(lp6125
Vprevious
p6126
atp6127
Rp6128
(dp6129
g17
VJJ
p6130
sbag5
(g6
g7
(lp6131
Vprogram
p6132
atp6133
Rp6134
(dp6135
g17
VNN
p6136
sbatp6137
Rp6138
(dp6139
g17
VNP
p6140
sbatp6141
Rp6142
(dp6143
g17
VPP
p6144
sbatp6145
Rp6146
(dp6147
g17
VADJP
p6148
sbag5
(g6
g7
(lp6149
g5
(g6
g7
(lp6150
Vbecause
p6151
atp6152
Rp6153
(dp6154
g17
VIN
p6155
sbag5
(g6
g7
(lp6156
g5
(g6
g7
(lp6157
g5
(g6
g7
(lp6158
Vit
p6159
atp6160
Rp6161
(dp6162
g17
VPRP
p6163
sbatp6164
Rp6165
(dp6166
g17
VNP
p6167
sbag5
(g6
g7
(lp6168
g5
(g6
g7
(lp6169
Vis
p6170
atp6171
Rp6172
(dp6173
g17
VVBZ
p6174
sbag5
(g6
g7
(lp6175
g5
(g6
g7
(lp6176
Vjust
p6177
atp6178
Rp6179
(dp6180
g17
VRB
p6181
sbatp6182
Rp6183
(dp6184
g17
VADVP
p6185
sbag5
(g6
g7
(lp6186
g5
(g6
g7
(lp6187
g5
(g6
g7
(lp6188
g214
atp6189
Rp6190
(dp6191
g17
VDT
p6192
sbag5
(g6
g7
(lp6193
Vrearrangement
p6194
atp6195
Rp6196
(dp6197
g17
VNN
p6198
sbatp6199
Rp6200
(dp6201
g17
VNP
p6202
sbag5
(g6
g7
(lp6203
g5
(g6
g7
(lp6204
Vof
p6205
atp6206
Rp6207
(dp6208
g17
VIN
p6209
sbag5
(g6
g7
(lp6210
g5
(g6
g7
(lp6211
g5
(g6
g7
(lp6212
Vthe
p6213
atp6214
Rp6215
(dp6216
g17
VDT
p6217
sbag5
(g6
g7
(lp6218
Vliterals
p6219
atp6220
Rp6221
(dp6222
g17
VNNS
p6223
sbatp6224
Rp6225
(dp6226
g17
VNP
p6227
sbag5
(g6
g7
(lp6228
g5
(g6
g7
(lp6229
Vof
p6230
atp6231
Rp6232
(dp6233
g17
VIN
p6234
sbag5
(g6
g7
(lp6235
g5
(g6
g7
(lp6236
g214
atp6237
Rp6238
(dp6239
g17
VDT
p6240
sbag5
(g6
g7
(lp6241
Vconjunction
p6242
atp6243
Rp6244
(dp6245
g17
VNN
p6246
sbatp6247
Rp6248
(dp6249
g17
VNP
p6250
sbatp6251
Rp6252
(dp6253
g17
VPP
p6254
sbatp6255
Rp6256
(dp6257
g17
VNP
p6258
sbatp6259
Rp6260
(dp6261
g17
VPP
p6262
sbatp6263
Rp6264
(dp6265
g17
VNP
p6266
sbatp6267
Rp6268
(dp6269
g17
VVP
p6270
sbatp6271
Rp6272
(dp6273
g17
g101
sbatp6274
Rp6275
(dp6276
g17
VSBAR
p6277
sbatp6278
Rp6279
(dp6280
g17
VVP
p6281
sbag5
(g6
g7
(lp6282
g352
atp6283
Rp6284
(dp6285
g17
g352
sbatp6286
Rp6287
(dp6288
g17
g101
sbatp6289
Rp6290
(dp6291
g17
VROOT
p6292
sbasg363
(icmyPackage
CorE
p6293
(dp6294
g366
(lp6295
(I0
I12
tp6296
a(I0
I23
tp6297
asg370
g5
(g6
g7
(lp6298
g6272
ag6284
atp6299
Rp6300
(dp6301
g17
g381
sbsbsg371
(icmyPackage
CorE
p6302
(dp6303
g366
(lp6304
(I0
I0
tp6305
a(I0
I10
tp6306
asg370
g5
(g6
g7
(lp6307
g6083
ag6090
ag6101
ag6146
atp6308
Rp6309
(dp6310
g17
g381
sbsbsg382
g4020
sg403
(lp6311
(icmyPackage
Sent
p6312
(dp6313
g407
I3
sg408
I20
sg409
S'The new PROLOG program is logically equivalent to the previous program because it is just a rearrangement of the literals of a conjunction.'
p6314
sg411
I0
sg412
I54
sg370
(lp6315
g6290
asbasba(icmyPackage
CELink
p6316
(dp6317
g3
(lp6318
g5
(g6
g7
(lp6319
g5
(g6
g7
(lp6320
g5
(g6
g7
(lp6321
g5
(g6
g7
(lp6322
g5
(g6
g7
(lp6323
g5
(g6
g7
(lp6324
VAnother
p6325
atp6326
Rp6327
(dp6328
g17
VDT
p6329
sbag5
(g6
g7
(lp6330
Videa
p6331
atp6332
Rp6333
(dp6334
g17
VNN
p6335
sbatp6336
Rp6337
(dp6338
g17
VNP
p6339
sbag5
(g6
g7
(lp6340
g5
(g6
g7
(lp6341
Vof
p6342
atp6343
Rp6344
(dp6345
g17
VIN
p6346
sbag5
(g6
g7
(lp6347
g5
(g6
g7
(lp6348
VKempe
p6349
atp6350
Rp6351
(dp6352
g17
VNNP
p6353
sbag5
(g6
g7
(lp6354
V's
p6355
atp6356
Rp6357
(dp6358
g17
VPOS
p6359
sbatp6360
Rp6361
(dp6362
g17
VNP
p6363
sbatp6364
Rp6365
(dp6366
g17
VPP
p6367
sbatp6368
Rp6369
(dp6370
g17
VNP
p6371
sbag5
(g6
g7
(lp6372
g5
(g6
g7
(lp6373
Vcan
p6374
atp6375
Rp6376
(dp6377
g17
VMD
p6378
sbag5
(g6
g7
(lp6379
g5
(g6
g7
(lp6380
Vbe
p6381
atp6382
Rp6383
(dp6384
g17
VVB
p6385
sbag5
(g6
g7
(lp6386
g5
(g6
g7
(lp6387
Vused
p6388
atp6389
Rp6390
(dp6391
g17
VVBN
p6392
sbag5
(g6
g7
(lp6393
g5
(g6
g7
(lp6394
g5
(g6
g7
(lp6395
Vto
p6396
atp6397
Rp6398
(dp6399
g17
VTO
p6400
sbag5
(g6
g7
(lp6401
g5
(g6
g7
(lp6402
Vstrengthen
p6403
atp6404
Rp6405
(dp6406
g17
VVB
p6407
sbag5
(g6
g7
(lp6408
g5
(g6
g7
(lp6409
Vthe
p6410
atp6411
Rp6412
(dp6413
g17
VDT
p6414
sbag5
(g6
g7
(lp6415
Vreduction
p6416
atp6417
Rp6418
(dp6419
g17
VNN
p6420
sbag5
(g6
g7
(lp6421
Vprocess
p6422
atp6423
Rp6424
(dp6425
g17
VNN
p6426
sbatp6427
Rp6428
(dp6429
g17
VNP
p6430
sbatp6431
Rp6432
(dp6433
g17
VVP
p6434
sbatp6435
Rp6436
(dp6437
g17
VVP
p6438
sbatp6439
Rp6440
(dp6441
g17
g101
sbatp6442
Rp6443
(dp6444
g17
VVP
p6445
sbatp6446
Rp6447
(dp6448
g17
VVP
p6449
sbatp6450
Rp6451
(dp6452
g17
VVP
p6453
sbatp6454
Rp6455
(dp6456
g17
g101
sbag5
(g6
g7
(lp6457
g110
atp6458
Rp6459
(dp6460
g17
g110
sbag5
(g6
g7
(lp6461
Vbut
p6462
atp6463
Rp6464
(dp6465
g17
VCC
p6466
sbag5
(g6
g7
(lp6467
g5
(g6
g7
(lp6468
g5
(g6
g7
(lp6469
g5
(g6
g7
(lp6470
Vregarding
p6471
atp6472
Rp6473
(dp6474
g17
VVBG
p6475
sbag5
(g6
g7
(lp6476
g5
(g6
g7
(lp6477
Vit
p6478
atp6479
Rp6480
(dp6481
g17
VPRP
p6482
sbatp6483
Rp6484
(dp6485
g17
VNP
p6486
sbag5
(g6
g7
(lp6487
g5
(g6
g7
(lp6488
Vas
p6489
atp6490
Rp6491
(dp6492
g17
VIN
p6493
sbag5
(g6
g7
(lp6494
g5
(g6
g7
(lp6495
g5
(g6
g7
(lp6496
Vmere
p6497
atp6498
Rp6499
(dp6500
g17
VJJ
p6501
sbag5
(g6
g7
(lp6502
Vcontrol
p6503
atp6504
Rp6505
(dp6506
g17
VNN
p6507
sbatp6508
Rp6509
(dp6510
g17
VNP
p6511
sbag5
(g6
g7
(lp6512
g5
(g6
g7
(lp6513
Vadded
p6514
atp6515
Rp6516
(dp6517
g17
VVBN
p6518
sbag5
(g6
g7
(lp6519
g5
(g6
g7
(lp6520
Vto
p6521
atp6522
Rp6523
(dp6524
g17
VTO
p6525
sbag5
(g6
g7
(lp6526
g5
(g6
g7
(lp6527
Vthe
p6528
atp6529
Rp6530
(dp6531
g17
VDT
p6532
sbag5
(g6
g7
(lp6533
Voriginal
p6534
atp6535
Rp6536
(dp6537
g17
VJJ
p6538
sbag5
(g6
g7
(lp6539
Vlogic
p6540
atp6541
Rp6542
(dp6543
g17
VNN
p6544
sbag5
(g6
g7
(lp6545
Vprogram
p6546
atp6547
Rp6548
(dp6549
g17
VNN
p6550
sbatp6551
Rp6552
(dp6553
g17
VNP
p6554
sbatp6555
Rp6556
(dp6557
g17
VPP
p6558
sbatp6559
Rp6560
(dp6561
g17
VVP
p6562
sbatp6563
Rp6564
(dp6565
g17
VNP
p6566
sbatp6567
Rp6568
(dp6569
g17
VPP
p6570
sbatp6571
Rp6572
(dp6573
g17
VVP
p6574
sbatp6575
Rp6576
(dp6577
g17
g101
sbag5
(g6
g7
(lp6578
g5
(g6
g7
(lp6579
Vseems
p6580
atp6581
Rp6582
(dp6583
g17
VVBZ
p6584
sbag5
(g6
g7
(lp6585
g5
(g6
g7
(lp6586
Veven
p6587
atp6588
Rp6589
(dp6590
g17
VRB
p6591
sbag5
(g6
g7
(lp6592
Vharder
p6593
atp6594
Rp6595
(dp6596
g17
VJJR
p6597
sbatp6598
Rp6599
(dp6600
g17
VADJP
p6601
sbatp6602
Rp6603
(dp6604
g17
VVP
p6605
sbatp6606
Rp6607
(dp6608
g17
g101
sbag5
(g6
g7
(lp6609
g352
atp6610
Rp6611
(dp6612
g17
g352
sbatp6613
Rp6614
(dp6615
g17
g101
sbatp6616
Rp6617
(dp6618
g17
VROOT
p6619
sbasg363
(icmyPackage
CorE
p6620
(dp6621
g366
(lp6622
(I0
I18
tp6623
a(I0
I29
tp6624
asg370
g5
(g6
g7
(lp6625
g6564
ag6603
ag6611
atp6626
Rp6627
(dp6628
g17
g381
sbsbsg371
(icmyPackage
CorE
p6629
(dp6630
g366
(lp6631
(I0
I1
tp6632
a(I0
I16
tp6633
asg370
g5
(g6
g7
(lp6634
g6333
ag6365
ag6451
ag6459
ag6464
ag6473
ag6484
atp6635
Rp6636
(dp6637
g17
g381
sbsbsg382
g1192
sg403
(lp6638
(icmyPackage
Sent
p6639
(dp6640
g407
I4
sg408
I21
sg409
S"Another idea of Kempe's can be used to strengthen the reduction process, but regarding it as mere control added to the original logic program seems even harder."
p6641
sg411
I0
sg412
I57
sg370
(lp6642
g6617
asbasba(icmyPackage
CELink
p6643
(dp6644
g3
(lp6645
g5
(g6
g7
(lp6646
g5
(g6
g7
(lp6647
g5
(g6
g7
(lp6648
g5
(g6
g7
(lp6649
VThe
p6650
atp6651
Rp6652
(dp6653
g17
VDT
p6654
sbag5
(g6
g7
(lp6655
Vstrengthened
p6656
atp6657
Rp6658
(dp6659
g17
VJJ
p6660
sbag5
(g6
g7
(lp6661
Vreduction
p6662
atp6663
Rp6664
(dp6665
g17
VNN
p6666
sbag5
(g6
g7
(lp6667
Vprocedure
p6668
atp6669
Rp6670
(dp6671
g17
VNN
p6672
sbatp6673
Rp6674
(dp6675
g17
VNP
p6676
sbag5
(g6
g7
(lp6677
g5
(g6
g7
(lp6678
Valso
p6679
atp6680
Rp6681
(dp6682
g17
VRB
p6683
sbatp6684
Rp6685
(dp6686
g17
VADVP
p6687
sbag5
(g6
g7
(lp6688
g5
(g6
g7
(lp6689
Vremoves
p6690
atp6691
Rp6692
(dp6693
g17
VVBZ
p6694
sbag5
(g6
g7
(lp6695
g5
(g6
g7
(lp6696
Vcountries
p6697
atp6698
Rp6699
(dp6700
g17
VNNS
p6701
sbatp6702
Rp6703
(dp6704
g17
VNP
p6705
sbag5
(g6
g7
(lp6706
g5
(g6
g7
(lp6707
Vwith
p6708
atp6709
Rp6710
(dp6711
g17
VIN
p6712
sbag5
(g6
g7
(lp6713
g5
(g6
g7
(lp6714
Vfour
p6715
atp6716
Rp6717
(dp6718
g17
VCD
p6719
sbag5
(g6
g7
(lp6720
Vneighbors
p6721
atp6722
Rp6723
(dp6724
g17
VNNS
p6725
sbatp6726
Rp6727
(dp6728
g17
VNP
p6729
sbatp6730
Rp6731
(dp6732
g17
VPP
p6733
sbag5
(g6
g7
(lp6734
g5
(g6
g7
(lp6735
Vso
p6736
atp6737
Rp6738
(dp6739
g17
VRB
p6740
sbag5
(g6
g7
(lp6741
Vthat
p6742
atp6743
Rp6744
(dp6745
g17
VIN
p6746
sbag5
(g6
g7
(lp6747
g5
(g6
g7
(lp6748
g5
(g6
g7
(lp6749
Vthe
p6750
atp6751
Rp6752
(dp6753
g17
VDT
p6754
sbag5
(g6
g7
(lp6755
Vreduced
p6756
atp6757
Rp6758
(dp6759
g17
VVBN
p6760
sbag5
(g6
g7
(lp6761
Vmap
p6762
atp6763
Rp6764
(dp6765
g17
VNN
p6766
sbatp6767
Rp6768
(dp6769
g17
VNP
p6770
sbag5
(g6
g7
(lp6771
g5
(g6
g7
(lp6772
Vcontains
p6773
atp6774
Rp6775
(dp6776
g17
VVBZ
p6777
sbag5
(g6
g7
(lp6778
g5
(g6
g7
(lp6779
Vonly
p6780
atp6781
Rp6782
(dp6783
g17
VJJ
p6784
sbag5
(g6
g7
(lp6785
Vcountries
p6786
atp6787
Rp6788
(dp6789
g17
VNNS
p6790
sbatp6791
Rp6792
(dp6793
g17
VNP
p6794
sbag5
(g6
g7
(lp6795
g5
(g6
g7
(lp6796
Vwith
p6797
atp6798
Rp6799
(dp6800
g17
VIN
p6801
sbag5
(g6
g7
(lp6802
g5
(g6
g7
(lp6803
g5
(g6
g7
(lp6804
Vfive
p6805
atp6806
Rp6807
(dp6808
g17
VCD
p6809
sbag5
(g6
g7
(lp6810
Vor
p6811
atp6812
Rp6813
(dp6814
g17
VCC
p6815
sbag5
(g6
g7
(lp6816
Vmore
p6817
atp6818
Rp6819
(dp6820
g17
VJJR
p6821
sbatp6822
Rp6823
(dp6824
g17
VQP
p6825
sbag5
(g6
g7
(lp6826
Vneighbors
p6827
atp6828
Rp6829
(dp6830
g17
VNNS
p6831
sbatp6832
Rp6833
(dp6834
g17
VNP
p6835
sbatp6836
Rp6837
(dp6838
g17
VPP
p6839
sbatp6840
Rp6841
(dp6842
g17
VVP
p6843
sbatp6844
Rp6845
(dp6846
g17
g101
sbatp6847
Rp6848
(dp6849
g17
VSBAR
p6850
sbatp6851
Rp6852
(dp6853
g17
VVP
p6854
sbag5
(g6
g7
(lp6855
g352
atp6856
Rp6857
(dp6858
g17
g352
sbatp6859
Rp6860
(dp6861
g17
g101
sbatp6862
Rp6863
(dp6864
g17
VROOT
p6865
sbasg363
(icmyPackage
CorE
p6866
(dp6867
g366
(lp6868
(I0
I0
tp6869
a(I0
I9
tp6870
asg370
g5
(g6
g7
(lp6871
g6674
ag6685
ag6692
ag6703
ag6731
atp6872
Rp6873
(dp6874
g17
g381
sbsbsg371
(icmyPackage
CorE
p6875
(dp6876
g366
(lp6877
(I0
I12
tp6878
a(I0
I23
tp6879
asg370
g5
(g6
g7
(lp6880
g6845
ag6857
atp6881
Rp6882
(dp6883
g17
g381
sbsbsg382
g3980
sg403
(lp6884
(icmyPackage
Sent
p6885
(dp6886
g407
I4
sg408
I22
sg409
S'The strengthened reduction procedure also removes countries with four neighbors so that the reduced map contains only countries with five or more neighbors.'
p6887
sg411
I0
sg412
I58
sg370
(lp6888
g6863
asbasba(icmyPackage
CELink
p6889
(dp6890
g3
(lp6891
g5
(g6
g7
(lp6892
g5
(g6
g7
(lp6893
g5
(g6
g7
(lp6894
g5
(g6
g7
(lp6895
g5
(g6
g7
(lp6896
VThe
p6897
atp6898
Rp6899
(dp6900
g17
VDT
p6901
sbag5
(g6
g7
(lp6902
Vvalidity
p6903
atp6904
Rp6905
(dp6906
g17
VNN
p6907
sbatp6908
Rp6909
(dp6910
g17
VNP
p6911
sbag5
(g6
g7
(lp6912
g5
(g6
g7
(lp6913
Vof
p6914
atp6915
Rp6916
(dp6917
g17
VIN
p6918
sbag5
(g6
g7
(lp6919
g5
(g6
g7
(lp6920
Vthis
p6921
atp6922
Rp6923
(dp6924
g17
VDT
p6925
sbag5
(g6
g7
(lp6926
Vreduction
p6927
atp6928
Rp6929
(dp6930
g17
VNN
p6931
sbatp6932
Rp6933
(dp6934
g17
VNP
p6935
sbatp6936
Rp6937
(dp6938
g17
VPP
p6939
sbatp6940
Rp6941
(dp6942
g17
VNP
p6943
sbag5
(g6
g7
(lp6944
g5
(g6
g7
(lp6945
Vdepends
p6946
atp6947
Rp6948
(dp6949
g17
VVBZ
p6950
sbag5
(g6
g7
(lp6951
g5
(g6
g7
(lp6952
Von
p6953
atp6954
Rp6955
(dp6956
g17
VIN
p6957
sbag5
(g6
g7
(lp6958
g5
(g6
g7
(lp6959
Vthe
p6960
atp6961
Rp6962
(dp6963
g17
VDT
p6964
sbag5
(g6
g7
(lp6965
Vfollowing
p6966
atp6967
Rp6968
(dp6969
g17
VJJ
p6970
sbag5
(g6
g7
(lp6971
VKempe
p6972
atp6973
Rp6974
(dp6975
g17
VNNP
p6976
sbag5
(g6
g7
(lp6977
Vproof
p6978
atp6979
Rp6980
(dp6981
g17
VNN
p6982
sbatp6983
Rp6984
(dp6985
g17
VNP
p6986
sbatp6987
Rp6988
(dp6989
g17
VPP
p6990
sbag5
(g6
g7
(lp6991
g5
(g6
g7
(lp6992
Vthat
p6993
atp6994
Rp6995
(dp6996
g17
VIN
p6997
sbag5
(g6
g7
(lp6998
g5
(g6
g7
(lp6999
g5
(g6
g7
(lp7000
Vif
p7001
atp7002
Rp7003
(dp7004
g17
VIN
p7005
sbag5
(g6
g7
(lp7006
g5
(g6
g7
(lp7007
g5
(g6
g7
(lp7008
Vwe
p7009
atp7010
Rp7011
(dp7012
g17
VPRP
p7013
sbatp7014
Rp7015
(dp7016
g17
VNP
p7017
sbag5
(g6
g7
(lp7018
g5
(g6
g7
(lp7019
g5
(g6
g7
(lp7020
Vhave
p7021
atp7022
Rp7023
(dp7024
g17
VVBP
p7025
sbag5
(g6
g7
(lp7026
g5
(g6
g7
(lp7027
Vcolored
p7028
atp7029
Rp7030
(dp7031
g17
VVBN
p7032
sbag5
(g6
g7
(lp7033
g5
(g6
g7
(lp7034
g214
atp7035
Rp7036
(dp7037
g17
VDT
p7038
sbag5
(g6
g7
(lp7039
Vpartial
p7040
atp7041
Rp7042
(dp7043
g17
VJJ
p7044
sbag5
(g6
g7
(lp7045
Vmap
p7046
atp7047
Rp7048
(dp7049
g17
VNN
p7050
sbatp7051
Rp7052
(dp7053
g17
VNP
p7054
sbatp7055
Rp7056
(dp7057
g17
VVP
p7058
sbatp7059
Rp7060
(dp7061
g17
VVP
p7062
sbag5
(g6
g7
(lp7063
Vand
p7064
atp7065
Rp7066
(dp7067
g17
VCC
p7068
sbag5
(g6
g7
(lp7069
g5
(g6
g7
(lp7070
Vwant
p7071
atp7072
Rp7073
(dp7074
g17
VVBP
p7075
sbag5
(g6
g7
(lp7076
g5
(g6
g7
(lp7077
g5
(g6
g7
(lp7078
Vto
p7079
atp7080
Rp7081
(dp7082
g17
VTO
p7083
sbag5
(g6
g7
(lp7084
g5
(g6
g7
(lp7085
Vadd
p7086
atp7087
Rp7088
(dp7089
g17
VVB
p7090
sbag5
(g6
g7
(lp7091
g5
(g6
g7
(lp7092
g214
atp7093
Rp7094
(dp7095
g17
VDT
p7096
sbag5
(g6
g7
(lp7097
Vcountry
p7098
atp7099
Rp7100
(dp7101
g17
VNN
p7102
sbatp7103
Rp7104
(dp7105
g17
VNP
p7106
sbag5
(g6
g7
(lp7107
g5
(g6
g7
(lp7108
Vwith
p7109
atp7110
Rp7111
(dp7112
g17
VIN
p7113
sbag5
(g6
g7
(lp7114
g5
(g6
g7
(lp7115
Vfour
p7116
atp7117
Rp7118
(dp7119
g17
VCD
p7120
sbag5
(g6
g7
(lp7121
Vneighbors
p7122
atp7123
Rp7124
(dp7125
g17
VNNS
p7126
sbatp7127
Rp7128
(dp7129
g17
VNP
p7130
sbatp7131
Rp7132
(dp7133
g17
VPP
p7134
sbatp7135
Rp7136
(dp7137
g17
VVP
p7138
sbatp7139
Rp7140
(dp7141
g17
VVP
p7142
sbatp7143
Rp7144
(dp7145
g17
g101
sbatp7146
Rp7147
(dp7148
g17
VVP
p7149
sbatp7150
Rp7151
(dp7152
g17
VVP
p7153
sbatp7154
Rp7155
(dp7156
g17
g101
sbatp7157
Rp7158
(dp7159
g17
VSBAR
p7160
sbag5
(g6
g7
(lp7161
g110
atp7162
Rp7163
(dp7164
g17
g110
sbag5
(g6
g7
(lp7165
g5
(g6
g7
(lp7166
Vwe
p7167
atp7168
Rp7169
(dp7170
g17
VPRP
p7171
sbatp7172
Rp7173
(dp7174
g17
VNP
p7175
sbag5
(g6
g7
(lp7176
g5
(g6
g7
(lp7177
Vcan
p7178
atp7179
Rp7180
(dp7181
g17
VMD
p7182
sbag5
(g6
g7
(lp7183
g5
(g6
g7
(lp7184
Valways
p7185
atp7186
Rp7187
(dp7188
g17
VRB
p7189
sbatp7190
Rp7191
(dp7192
g17
VADVP
p7193
sbag5
(g6
g7
(lp7194
g5
(g6
g7
(lp7195
Vrevise
p7196
atp7197
Rp7198
(dp7199
g17
VVB
p7200
sbag5
(g6
g7
(lp7201
g5
(g6
g7
(lp7202
g5
(g6
g7
(lp7203
Vthe
p7204
atp7205
Rp7206
(dp7207
g17
VDT
p7208
sbag5
(g6
g7
(lp7209
Vcoloring
p7210
atp7211
Rp7212
(dp7213
g17
VNN
p7214
sbatp7215
Rp7216
(dp7217
g17
VNP
p7218
sbag5
(g6
g7
(lp7219
g5
(g6
g7
(lp7220
Vof
p7221
atp7222
Rp7223
(dp7224
g17
VIN
p7225
sbag5
(g6
g7
(lp7226
g5
(g6
g7
(lp7227
Vthe
p7228
atp7229
Rp7230
(dp7231
g17
VDT
p7232
sbag5
(g6
g7
(lp7233
Vpartial
p7234
atp7235
Rp7236
(dp7237
g17
VJJ
p7238
sbag5
(g6
g7
(lp7239
Vmap
p7240
atp7241
Rp7242
(dp7243
g17
VNN
p7244
sbatp7245
Rp7246
(dp7247
g17
VNP
p7248
sbatp7249
Rp7250
(dp7251
g17
VPP
p7252
sbatp7253
Rp7254
(dp7255
g17
VNP
p7256
sbag5
(g6
g7
(lp7257
g5
(g6
g7
(lp7258
g5
(g6
g7
(lp7259
Vto
p7260
atp7261
Rp7262
(dp7263
g17
VTO
p7264
sbag5
(g6
g7
(lp7265
g5
(g6
g7
(lp7266
Vpermit
p7267
atp7268
Rp7269
(dp7270
g17
VVB
p7271
sbag5
(g6
g7
(lp7272
g5
(g6
g7
(lp7273
g5
(g6
g7
(lp7274
Vcoloring
p7275
atp7276
Rp7277
(dp7278
g17
VVBG
p7279
sbag5
(g6
g7
(lp7280
g5
(g6
g7
(lp7281
Vthe
p7282
atp7283
Rp7284
(dp7285
g17
VDT
p7286
sbag5
(g6
g7
(lp7287
Vfour
p7288
atp7289
Rp7290
(dp7291
g17
VCD
p7292
sbag5
(g6
g7
(lp7293
Vneighbor
p7294
atp7295
Rp7296
(dp7297
g17
VNN
p7298
sbag5
(g6
g7
(lp7299
Vcountry
p7300
atp7301
Rp7302
(dp7303
g17
VNN
p7304
sbatp7305
Rp7306
(dp7307
g17
VNP
p7308
sbatp7309
Rp7310
(dp7311
g17
VVP
p7312
sbatp7313
Rp7314
(dp7315
g17
g101
sbatp7316
Rp7317
(dp7318
g17
VVP
p7319
sbatp7320
Rp7321
(dp7322
g17
VVP
p7323
sbatp7324
Rp7325
(dp7326
g17
g101
sbatp7327
Rp7328
(dp7329
g17
VVP
p7330
sbatp7331
Rp7332
(dp7333
g17
VVP
p7334
sbatp7335
Rp7336
(dp7337
g17
g101
sbatp7338
Rp7339
(dp7340
g17
VSBAR
p7341
sbatp7342
Rp7343
(dp7344
g17
VVP
p7345
sbag5
(g6
g7
(lp7346
g352
atp7347
Rp7348
(dp7349
g17
g352
sbatp7350
Rp7351
(dp7352
g17
g101
sbatp7353
Rp7354
(dp7355
g17
VROOT
p7356
sbasg363
(icmyPackage
CorE
p7357
(dp7358
g366
(lp7359
(I0
I13
tp7360
a(I0
I27
tp7361
asg370
g7155
sbsg371
(icmyPackage
CorE
p7362
(dp7363
g366
(lp7364
(I0
I29
tp7365
a(I0
I46
tp7366
asg370
g5
(g6
g7
(lp7367
g7173
ag7332
ag7348
atp7368
Rp7369
(dp7370
g17
g381
sbsbsg382
g1463
sg403
(lp7371
(icmyPackage
Sent
p7372
(dp7373
g407
I4
sg408
I22
sg409
S'The validity of this reduction depends on the following Kempe proof that if we have colored a partial map and want to add a country with four neighbors, we can always revise the coloring of the partial map to permit coloring the four neighbor country.'
p7374
sg411
I0
sg412
I59
sg370
(lp7375
g7354
asbasba(icmyPackage
CELink
p7376
(dp7377
g3
(lp7378
g5
(g6
g7
(lp7379
g5
(g6
g7
(lp7380
g5
(g6
g7
(lp7381
g5
(g6
g7
(lp7382
VIf
p7383
atp7384
Rp7385
(dp7386
g17
VIN
p7387
sbag5
(g6
g7
(lp7388
g5
(g6
g7
(lp7389
g5
(g6
g7
(lp7390
g5
(g6
g7
(lp7391
Vfewer
p7392
atp7393
Rp7394
(dp7395
g17
VJJR
p7396
sbag5
(g6
g7
(lp7397
Vthan
p7398
atp7399
Rp7400
(dp7401
g17
VIN
p7402
sbag5
(g6
g7
(lp7403
Vfour
p7404
atp7405
Rp7406
(dp7407
g17
VCD
p7408
sbatp7409
Rp7410
(dp7411
g17
VQP
p7412
sbag5
(g6
g7
(lp7413
Vcolors
p7414
atp7415
Rp7416
(dp7417
g17
VNNS
p7418
sbatp7419
Rp7420
(dp7421
g17
VNP
p7422
sbag5
(g6
g7
(lp7423
g5
(g6
g7
(lp7424
Vhave
p7425
atp7426
Rp7427
(dp7428
g17
VVBP
p7429
sbag5
(g6
g7
(lp7430
g5
(g6
g7
(lp7431
Vbeen
p7432
atp7433
Rp7434
(dp7435
g17
VVBN
p7436
sbag5
(g6
g7
(lp7437
g5
(g6
g7
(lp7438
Vused
p7439
atp7440
Rp7441
(dp7442
g17
VVBN
p7443
sbag5
(g6
g7
(lp7444
g5
(g6
g7
(lp7445
g5
(g6
g7
(lp7446
Vto
p7447
atp7448
Rp7449
(dp7450
g17
VTO
p7451
sbag5
(g6
g7
(lp7452
g5
(g6
g7
(lp7453
Vcolor
p7454
atp7455
Rp7456
(dp7457
g17
VVB
p7458
sbag5
(g6
g7
(lp7459
g5
(g6
g7
(lp7460
Vthe
p7461
atp7462
Rp7463
(dp7464
g17
VDT
p7465
sbag5
(g6
g7
(lp7466
Vneighbors
p7467
atp7468
Rp7469
(dp7470
g17
VNNS
p7471
sbatp7472
Rp7473
(dp7474
g17
VNP
p7475
sbatp7476
Rp7477
(dp7478
g17
VVP
p7479
sbatp7480
Rp7481
(dp7482
g17
VVP
p7483
sbatp7484
Rp7485
(dp7486
g17
g101
sbatp7487
Rp7488
(dp7489
g17
VVP
p7490
sbatp7491
Rp7492
(dp7493
g17
VVP
p7494
sbatp7495
Rp7496
(dp7497
g17
VVP
p7498
sbatp7499
Rp7500
(dp7501
g17
g101
sbatp7502
Rp7503
(dp7504
g17
VSBAR
p7505
sbag5
(g6
g7
(lp7506
g110
atp7507
Rp7508
(dp7509
g17
g110
sbag5
(g6
g7
(lp7510
g5
(g6
g7
(lp7511
Vthere
p7512
atp7513
Rp7514
(dp7515
g17
VEX
p7516
sbatp7517
Rp7518
(dp7519
g17
VNP
p7520
sbag5
(g6
g7
(lp7521
g5
(g6
g7
(lp7522
Vis
p7523
atp7524
Rp7525
(dp7526
g17
VVBZ
p7527
sbag5
(g6
g7
(lp7528
g5
(g6
g7
(lp7529
g5
(g6
g7
(lp7530
Vno
p7531
atp7532
Rp7533
(dp7534
g17
VDT
p7535
sbag5
(g6
g7
(lp7536
Vproblem
p7537
atp7538
Rp7539
(dp7540
g17
VNN
p7541
sbatp7542
Rp7543
(dp7544
g17
VNP
p7545
sbag5
(g6
g7
(lp7546
g110
atp7547
Rp7548
(dp7549
g17
g110
sbag5
(g6
g7
(lp7550
g5
(g6
g7
(lp7551
Vso
p7552
atp7553
Rp7554
(dp7555
g17
VIN
p7556
sbag5
(g6
g7
(lp7557
g5
(g6
g7
(lp7558
g5
(g6
g7
(lp7559
Vsuppose
p7560
atp7561
Rp7562
(dp7563
g17
VVBP
p7564
sbag5
(g6
g7
(lp7565
g5
(g6
g7
(lp7566
Vthat
p7567
atp7568
Rp7569
(dp7570
g17
VIN
p7571
sbag5
(g6
g7
(lp7572
g5
(g6
g7
(lp7573
g5
(g6
g7
(lp7574
Vthe
p7575
atp7576
Rp7577
(dp7578
g17
VDT
p7579
sbag5
(g6
g7
(lp7580
Vfour
p7581
atp7582
Rp7583
(dp7584
g17
VCD
p7585
sbag5
(g6
g7
(lp7586
Vneighbors
p7587
atp7588
Rp7589
(dp7590
g17
VNNS
p7591
sbatp7592
Rp7593
(dp7594
g17
VNP
p7595
sbag5
(g6
g7
(lp7596
g5
(g6
g7
(lp7597
Vhave
p7598
atp7599
Rp7600
(dp7601
g17
VVBP
p7602
sbag5
(g6
g7
(lp7603
g5
(g6
g7
(lp7604
Vbeen
p7605
atp7606
Rp7607
(dp7608
g17
VVBN
p7609
sbag5
(g6
g7
(lp7610
g5
(g6
g7
(lp7611
Vcolored
p7612
atp7613
Rp7614
(dp7615
g17
VVBN
p7616
sbag5
(g6
g7
(lp7617
g5
(g6
g7
(lp7618
Vwith
p7619
atp7620
Rp7621
(dp7622
g17
VIN
p7623
sbag5
(g6
g7
(lp7624
g5
(g6
g7
(lp7625
Vfour
p7626
atp7627
Rp7628
(dp7629
g17
VCD
p7630
sbag5
(g6
g7
(lp7631
Vdifferent
p7632
atp7633
Rp7634
(dp7635
g17
VJJ
p7636
sbag5
(g6
g7
(lp7637
Vcolors
p7638
atp7639
Rp7640
(dp7641
g17
VNNS
p7642
sbatp7643
Rp7644
(dp7645
g17
VNP
p7646
sbatp7647
Rp7648
(dp7649
g17
VPP
p7650
sbag5
(g6
g7
(lp7651
g5
(g6
g7
(lp7652
Vas
p7653
atp7654
Rp7655
(dp7656
g17
VIN
p7657
sbag5
(g6
g7
(lp7658
g5
(g6
g7
(lp7659
g5
(g6
g7
(lp7660
Vshown
p7661
atp7662
Rp7663
(dp7664
g17
VVBN
p7665
sbag5
(g6
g7
(lp7666
g5
(g6
g7
(lp7667
Vin
p7668
atp7669
Rp7670
(dp7671
g17
VIN
p7672
sbag5
(g6
g7
(lp7673
g5
(g6
g7
(lp7674
VFigure
p7675
atp7676
Rp7677
(dp7678
g17
VNNP
p7679
sbag5
(g6
g7
(lp7680
g5020
atp7681
Rp7682
(dp7683
g17
VCD
p7684
sbatp7685
Rp7686
(dp7687
g17
VNP
p7688
sbatp7689
Rp7690
(dp7691
g17
VPP
p7692
sbatp7693
Rp7694
(dp7695
g17
VVP
p7696
sbatp7697
Rp7698
(dp7699
g17
g101
sbatp7700
Rp7701
(dp7702
g17
VSBAR
p7703
sbatp7704
Rp7705
(dp7706
g17
VVP
p7707
sbatp7708
Rp7709
(dp7710
g17
VVP
p7711
sbatp7712
Rp7713
(dp7714
g17
VVP
p7715
sbatp7716
Rp7717
(dp7718
g17
g101
sbatp7719
Rp7720
(dp7721
g17
VSBAR
p7722
sbatp7723
Rp7724
(dp7725
g17
VVP
p7726
sbatp7727
Rp7728
(dp7729
g17
g101
sbatp7730
Rp7731
(dp7732
g17
VSBAR
p7733
sbatp7734
Rp7735
(dp7736
g17
VNP
p7737
sbatp7738
Rp7739
(dp7740
g17
VVP
p7741
sbag5
(g6
g7
(lp7742
g352
atp7743
Rp7744
(dp7745
g17
g352
sbatp7746
Rp7747
(dp7748
g17
g101
sbatp7749
Rp7750
(dp7751
g17
VROOT
p7752
sbasg363
(icmyPackage
CorE
p7753
(dp7754
g366
(lp7755
(I0
I0
tp7756
a(I0
I16
tp7757
asg370
g5
(g6
g7
(lp7758
g7503
ag7508
ag7518
ag7525
ag7543
atp7759
Rp7760
(dp7761
g17
g381
sbsbsg371
(icmyPackage
CorE
p7762
(dp7763
g366
(lp7764
(I0
I19
tp7765
a(I0
I36
tp7766
asg370
g5
(g6
g7
(lp7767
g7728
ag7744
atp7768
Rp7769
(dp7770
g17
g381
sbsbsg382
g4905
sg403
(lp7771
(icmyPackage
Sent
p7772
(dp7773
g407
I4
sg408
I23
sg409
S'If fewer than four colors have been used to color the neighbors, there is no problem, so suppose that the four neighbors have been colored with four different colors as shown in Figure 2.'
p7774
sg411
I0
sg412
I60
sg370
(lp7775
g7750
asbasba(icmyPackage
CELink
p7776
(dp7777
g3
(lp7778
g7760
asg363
(icmyPackage
CorE
p7779
(dp7780
g366
(lp7781
(I0
I1
tp7782
a(I0
I11
tp7783
asg370
g7500
sbsg371
(icmyPackage
CorE
p7784
(dp7785
g366
(lp7786
(I0
I13
tp7787
a(I0
I16
tp7788
asg370
g5
(g6
g7
(lp7789
g7518
ag7525
ag7543
atp7790
Rp7791
(dp7792
g17
g381
sbsbsg382
g1463
sg403
(lp7793
g7772
asba(icmyPackage
CELink
p7794
(dp7795
g3
(lp7796
g5
(g6
g7
(lp7797
g5
(g6
g7
(lp7798
g5
(g6
g7
(lp7799
g5
(g6
g7
(lp7800
VIf
p7801
atp7802
Rp7803
(dp7804
g17
VIN
p7805
sbag5
(g6
g7
(lp7806
Vnot
p7807
atp7808
Rp7809
(dp7810
g17
VRB
p7811
sbatp7812
Rp7813
(dp7814
g17
VPP
p7815
sbag5
(g6
g7
(lp7816
g110
atp7817
Rp7818
(dp7819
g17
g110
sbag5
(g6
g7
(lp7820
g5
(g6
g7
(lp7821
Vwe
p7822
atp7823
Rp7824
(dp7825
g17
VPRP
p7826
sbatp7827
Rp7828
(dp7829
g17
VNP
p7830
sbag5
(g6
g7
(lp7831
g5
(g6
g7
(lp7832
Vrecolor
p7833
atp7834
Rp7835
(dp7836
g17
VVBP
p7837
sbag5
(g6
g7
(lp7838
g5
(g6
g7
(lp7839
Vthe
p7840
atp7841
Rp7842
(dp7843
g17
VDT
p7844
sbag5
(g6
g7
(lp7845
Vpartial
p7846
atp7847
Rp7848
(dp7849
g17
VJJ
p7850
sbag5
(g6
g7
(lp7851
Vmap
p7852
atp7853
Rp7854
(dp7855
g17
VNN
p7856
sbatp7857
Rp7858
(dp7859
g17
VNP
p7860
sbag5
(g6
g7
(lp7861
g5
(g6
g7
(lp7862
Vby
p7863
atp7864
Rp7865
(dp7866
g17
VIN
p7867
sbag5
(g6
g7
(lp7868
g5
(g6
g7
(lp7869
g5
(g6
g7
(lp7870
Vreversing
p7871
atp7872
Rp7873
(dp7874
g17
VVBG
p7875
sbag5
(g6
g7
(lp7876
g5
(g6
g7
(lp7877
Vblue
p7878
atp7879
Rp7880
(dp7881
g17
VJJ
p7882
sbag5
(g6
g7
(lp7883
Vand
p7884
atp7885
Rp7886
(dp7887
g17
VCC
p7888
sbag5
(g6
g7
(lp7889
Vyellow
p7890
atp7891
Rp7892
(dp7893
g17
VJJ
p7894
sbatp7895
Rp7896
(dp7897
g17
VADJP
p7898
sbag5
(g6
g7
(lp7899
g5
(g6
g7
(lp7900
Von
p7901
atp7902
Rp7903
(dp7904
g17
VIN
p7905
sbag5
(g6
g7
(lp7906
g5
(g6
g7
(lp7907
g5
(g6
g7
(lp7908
Vall
p7909
atp7910
Rp7911
(dp7912
g17
VDT
p7913
sbag5
(g6
g7
(lp7914
Vcountries
p7915
atp7916
Rp7917
(dp7918
g17
VNNS
p7919
sbatp7920
Rp7921
(dp7922
g17
VNP
p7923
sbag5
(g6
g7
(lp7924
g5
(g6
g7
(lp7925
Vin
p7926
atp7927
Rp7928
(dp7929
g17
VIN
p7930
sbag5
(g6
g7
(lp7931
g5
(g6
g7
(lp7932
VS.
p7933
atp7934
Rp7935
(dp7936
g17
VNNP
p7937
sbatp7938
Rp7939
(dp7940
g17
VNP
p7941
sbatp7942
Rp7943
(dp7944
g17
VPP
p7945
sbatp7946
Rp7947
(dp7948
g17
VNP
p7949
sbatp7950
Rp7951
(dp7952
g17
VPP
p7953
sbatp7954
Rp7955
(dp7956
g17
VVP
p7957
sbatp7958
Rp7959
(dp7960
g17
g101
sbatp7961
Rp7962
(dp7963
g17
VPP
p7964
sbatp7965
Rp7966
(dp7967
g17
VVP
p7968
sbatp7969
Rp7970
(dp7971
g17
g101
sbatp7972
Rp7973
(dp7974
g17
VROOT
p7975
sbasg363
(icmyPackage
CorE
p7976
(dp7977
g366
(lp7978
(I0
I9
tp7979
a(I0
I17
tp7980
asg370
g7959
sbsg371
(icmyPackage
CorE
p7981
(dp7982
g366
(lp7983
(I0
I0
tp7984
a(I0
I7
tp7985
asg370
g5
(g6
g7
(lp7986
g7813
ag7818
ag7828
ag7835
ag7858
atp7987
Rp7988
(dp7989
g17
g381
sbsbsg382
g2038
sg403
(lp7990
(icmyPackage
Sent
p7991
(dp7992
g407
I4
sg408
I24
sg409
S'If not, we recolor the partial map by reversing blue and yellow on all countries in S.'
p7993
sg411
I0
sg412
I65
sg370
(lp7994
g7973
asbasba(icmyPackage
CELink
p7995
(dp7996
g3
(lp7997
g5
(g6
g7
(lp7998
g5
(g6
g7
(lp7999
g5
(g6
g7
(lp8000
VThen
p8001
atp8002
Rp8003
(dp8004
g17
VRB
p8005
sbag5
(g6
g7
(lp8006
g5
(g6
g7
(lp8007
g5
(g6
g7
(lp8008
Vthere
p8009
atp8010
Rp8011
(dp8012
g17
VRB
p8013
sbatp8014
Rp8015
(dp8016
g17
VADVP
p8017
sbag5
(g6
g7
(lp8018
Vcan
p8019
atp8020
Rp8021
(dp8022
g17
VMD
p8023
sbag5
(g6
g7
(lp8024
Vnot
p8025
atp8026
Rp8027
(dp8028
g17
VRB
p8029
sbag5
(g6
g7
(lp8030
g5
(g6
g7
(lp8031
Vbe
p8032
atp8033
Rp8034
(dp8035
g17
VVB
p8036
sbag5
(g6
g7
(lp8037
g5
(g6
g7
(lp8038
g5
(g6
g7
(lp8039
g214
atp8040
Rp8041
(dp8042
g17
VDT
p8043
sbag5
(g6
g7
(lp8044
Vred-green
p8045
atp8046
Rp8047
(dp8048
g17
VJJ
p8049
sbag5
(g6
g7
(lp8050
Vchain
p8051
atp8052
Rp8053
(dp8054
g17
VNN
p8055
sbatp8056
Rp8057
(dp8058
g17
VNP
p8059
sbag5
(g6
g7
(lp8060
g5
(g6
g7
(lp8061
Vfrom
p8062
atp8063
Rp8064
(dp8065
g17
VIN
p8066
sbag5
(g6
g7
(lp8067
g5
(g6
g7
(lp8068
g5
(g6
g7
(lp8069
VB
p8070
atp8071
Rp8072
(dp8073
g17
VNNP
p8074
sbatp8075
Rp8076
(dp8077
g17
VNP
p8078
sbag5
(g6
g7
(lp8079
g5
(g6
g7
(lp8080
Vto
p8081
atp8082
Rp8083
(dp8084
g17
VTO
p8085
sbag5
(g6
g7
(lp8086
g5
(g6
g7
(lp8087
g5
(g6
g7
(lp8088
VD
p8089
atp8090
Rp8091
(dp8092
g17
VNNP
p8093
sbatp8094
Rp8095
(dp8096
g17
VNP
p8097
sbag5
(g6
g7
(lp8098
g5
(g6
g7
(lp8099
V-LRB-
p8100
atp8101
Rp8102
(dp8103
g17
V-LRB-
p8104
sbag5
(g6
g7
(lp8105
g5
(g6
g7
(lp8106
Vby
p8107
atp8108
Rp8109
(dp8110
g17
VIN
p8111
sbag5
(g6
g7
(lp8112
g5
(g6
g7
(lp8113
g5
(g6
g7
(lp8114
Vthe
p8115
atp8116
Rp8117
(dp8118
g17
VDT
p8119
sbag5
(g6
g7
(lp8120
Vtopology
p8121
atp8122
Rp8123
(dp8124
g17
VNN
p8125
sbatp8126
Rp8127
(dp8128
g17
VNP
p8129
sbag5
(g6
g7
(lp8130
g5
(g6
g7
(lp8131
Vof
p8132
atp8133
Rp8134
(dp8135
g17
VIN
p8136
sbag5
(g6
g7
(lp8137
g5
(g6
g7
(lp8138
Vthe
p8139
atp8140
Rp8141
(dp8142
g17
VDT
p8143
sbag5
(g6
g7
(lp8144
Vplane
p8145
atp8146
Rp8147
(dp8148
g17
VNN
p8149
sbag5
(g6
g7
(lp8150
Vor
p8151
atp8152
Rp8153
(dp8154
g17
VCC
p8155
sbag5
(g6
g7
(lp8156
Vsphere
p8157
atp8158
Rp8159
(dp8160
g17
VNN
p8161
sbatp8162
Rp8163
(dp8164
g17
VNP
p8165
sbatp8166
Rp8167
(dp8168
g17
VPP
p8169
sbatp8170
Rp8171
(dp8172
g17
VNP
p8173
sbatp8174
Rp8175
(dp8176
g17
VPP
p8177
sbag5
(g6
g7
(lp8178
V-RRB-
p8179
atp8180
Rp8181
(dp8182
g17
V-RRB-
p8183
sbatp8184
Rp8185
(dp8186
g17
VPRN
p8187
sbatp8188
Rp8189
(dp8190
g17
VNP
p8191
sbatp8192
Rp8193
(dp8194
g17
VPP
p8195
sbatp8196
Rp8197
(dp8198
g17
VNP
p8199
sbatp8200
Rp8201
(dp8202
g17
VPP
p8203
sbatp8204
Rp8205
(dp8206
g17
VNP
p8207
sbag5
(g6
g7
(lp8208
g110
atp8209
Rp8210
(dp8211
g17
g110
sbag5
(g6
g7
(lp8212
g5
(g6
g7
(lp8213
Vso
p8214
atp8215
Rp8216
(dp8217
g17
VRB
p8218
sbag5
(g6
g7
(lp8219
Vthat
p8220
atp8221
Rp8222
(dp8223
g17
VIN
p8224
sbag5
(g6
g7
(lp8225
g5
(g6
g7
(lp8226
g5
(g6
g7
(lp8227
g5
(g6
g7
(lp8228
g214
atp8229
Rp8230
(dp8231
g17
VDT
p8232
sbag5
(g6
g7
(lp8233
Vred-green
p8234
atp8235
Rp8236
(dp8237
g17
VJJ
p8238
sbag5
(g6
g7
(lp8239
VKempe
p8240
atp8241
Rp8242
(dp8243
g17
VNNP
p8244
sbag5
(g6
g7
(lp8245
Vtransformation
p8246
atp8247
Rp8248
(dp8249
g17
VNN
p8250
sbatp8251
Rp8252
(dp8253
g17
VNP
p8254
sbag5
(g6
g7
(lp8255
g5
(g6
g7
(lp8256
Vapplied
p8257
atp8258
Rp8259
(dp8260
g17
VVBN
p8261
sbag5
(g6
g7
(lp8262
g5
(g6
g7
(lp8263
Vto
p8264
atp8265
Rp8266
(dp8267
g17
VTO
p8268
sbag5
(g6
g7
(lp8269
g5
(g6
g7
(lp8270
g5
(g6
g7
(lp8271
Vthe
p8272
atp8273
Rp8274
(dp8275
g17
VDT
p8276
sbag5
(g6
g7
(lp8277
Vred-green
p8278
atp8279
Rp8280
(dp8281
g17
VJJ
p8282
sbag5
(g6
g7
(lp8283
VKempe
p8284
atp8285
Rp8286
(dp8287
g17
VNNP
p8288
sbag5
(g6
g7
(lp8289
Vcomponent
p8290
atp8291
Rp8292
(dp8293
g17
VNN
p8294
sbatp8295
Rp8296
(dp8297
g17
VNP
p8298
sbag5
(g6
g7
(lp8299
g5
(g6
g7
(lp8300
Vof
p8301
atp8302
Rp8303
(dp8304
g17
VIN
p8305
sbag5
(g6
g7
(lp8306
g5
(g6
g7
(lp8307
g8089
atp8308
Rp8309
(dp8310
g17
VNNP
p8311
sbatp8312
Rp8313
(dp8314
g17
VNP
p8315
sbatp8316
Rp8317
(dp8318
g17
VPP
p8319
sbatp8320
Rp8321
(dp8322
g17
VNP
p8323
sbatp8324
Rp8325
(dp8326
g17
VPP
p8327
sbatp8328
Rp8329
(dp8330
g17
VVP
p8331
sbatp8332
Rp8333
(dp8334
g17
VNP
p8335
sbag5
(g6
g7
(lp8336
g5
(g6
g7
(lp8337
Vwill
p8338
atp8339
Rp8340
(dp8341
g17
VMD
p8342
sbag5
(g6
g7
(lp8343
g5
(g6
g7
(lp8344
Vmake
p8345
atp8346
Rp8347
(dp8348
g17
VVB
p8349
sbag5
(g6
g7
(lp8350
g5
(g6
g7
(lp8351
g8089
atp8352
Rp8353
(dp8354
g17
VNNP
p8355
sbatp8356
Rp8357
(dp8358
g17
VNP
p8359
sbatp8360
Rp8361
(dp8362
g17
VVP
p8363
sbatp8364
Rp8365
(dp8366
g17
VVP
p8367
sbatp8368
Rp8369
(dp8370
g17
g101
sbatp8371
Rp8372
(dp8373
g17
VSBAR
p8374
sbatp8375
Rp8376
(dp8377
g17
VVP
p8378
sbatp8379
Rp8380
(dp8381
g17
VVP
p8382
sbag5
(g6
g7
(lp8383
g5
(g6
g7
(lp8384
g5
(g6
g7
(lp8385
Vgreen
p8386
atp8387
Rp8388
(dp8389
g17
VJJ
p8390
sbatp8391
Rp8392
(dp8393
g17
VNP
p8394
sbag5
(g6
g7
(lp8395
g110
atp8396
Rp8397
(dp8398
g17
g110
sbag5
(g6
g7
(lp8399
g5
(g6
g7
(lp8400
Vleaving
p8401
atp8402
Rp8403
(dp8404
g17
VVBG
p8405
sbag5
(g6
g7
(lp8406
g5
(g6
g7
(lp8407
Vred
p8408
atp8409
Rp8410
(dp8411
g17
VJJ
p8412
sbag5
(g6
g7
(lp8413
g5
(g6
g7
(lp8414
Vavailable
p8415
atp8416
Rp8417
(dp8418
g17
VJJ
p8419
sbag5
(g6
g7
(lp8420
g5
(g6
g7
(lp8421
Vto
p8422
atp8423
Rp8424
(dp8425
g17
VTO
p8426
sbag5
(g6
g7
(lp8427
g5
(g6
g7
(lp8428
Vcolor
p8429
atp8430
Rp8431
(dp8432
g17
VNN
p8433
sbatp8434
Rp8435
(dp8436
g17
VNP
p8437
sbatp8438
Rp8439
(dp8440
g17
VPP
p8441
sbatp8442
Rp8443
(dp8444
g17
VADJP
p8445
sbag5
(g6
g7
(lp8446
VX.
p8447
atp8448
Rp8449
(dp8450
g17
VNNS
p8451
sbatp8452
Rp8453
(dp8454
g17
VNP
p8455
sbatp8456
Rp8457
(dp8458
g17
VVP
p8459
sbatp8460
Rp8461
(dp8462
g17
VNP
p8463
sbatp8464
Rp8465
(dp8466
g17
VSINV
p8467
sbatp8468
Rp8469
(dp8470
g17
VROOT
p8471
sbasg363
(icmyPackage
CorE
p8472
(dp8473
g366
(lp8474
(I0
I0
tp8475
a(I0
I22
tp8476
asg370
g5
(g6
g7
(lp8477
g8003
ag8015
ag8021
ag8027
ag8034
ag8205
ag8210
atp8478
Rp8479
(dp8480
g17
g381
sbsbsg371
(icmyPackage
CorE
p8481
(dp8482
g366
(lp8483
(I0
I25
tp8484
a(I0
I39
tp8485
asg370
g8369
sbsg382
g3980
sg403
(lp8486
(icmyPackage
Sent
p8487
(dp8488
g407
I4
sg408
I26
sg409
S'Then there cannot be a red-green chain from B to D (by the topology of the plane or sphere), so that a red-green Kempe transformation applied to the red-green Kempe component of D will make D green, leaving red available to color X.'
p8489
sg411
I0
sg412
I70
sg370
(lp8490
g8469
asbasba(icmyPackage
CELink
p8491
(dp8492
g3
(lp8493
g5
(g6
g7
(lp8494
g5
(g6
g7
(lp8495
g5
(g6
g7
(lp8496
g5
(g6
g7
(lp8497
g5
(g6
g7
(lp8498
g5
(g6
g7
(lp8499
VIf
p8500
atp8501
Rp8502
(dp8503
g17
VIN
p8504
sbag5
(g6
g7
(lp8505
g5
(g6
g7
(lp8506
g5
(g6
g7
(lp8507
Vwe
p8508
atp8509
Rp8510
(dp8511
g17
VPRP
p8512
sbatp8513
Rp8514
(dp8515
g17
VNP
p8516
sbag5
(g6
g7
(lp8517
g5
(g6
g7
(lp8518
g5
(g6
g7
(lp8519
Vhave
p8520
atp8521
Rp8522
(dp8523
g17
VVBP
p8524
sbag5
(g6
g7
(lp8525
g5
(g6
g7
(lp8526
Vcolored
p8527
atp8528
Rp8529
(dp8530
g17
VVBN
p8531
sbag5
(g6
g7
(lp8532
g5
(g6
g7
(lp8533
g214
atp8534
Rp8535
(dp8536
g17
VDT
p8537
sbag5
(g6
g7
(lp8538
Vpartial
p8539
atp8540
Rp8541
(dp8542
g17
VJJ
p8543
sbag5
(g6
g7
(lp8544
Vmap
p8545
atp8546
Rp8547
(dp8548
g17
VNN
p8549
sbatp8550
Rp8551
(dp8552
g17
VNP
p8553
sbatp8554
Rp8555
(dp8556
g17
VVP
p8557
sbatp8558
Rp8559
(dp8560
g17
VVP
p8561
sbag5
(g6
g7
(lp8562
Vand
p8563
atp8564
Rp8565
(dp8566
g17
VCC
p8567
sbag5
(g6
g7
(lp8568
g5
(g6
g7
(lp8569
Vwant
p8570
atp8571
Rp8572
(dp8573
g17
VVBP
p8574
sbag5
(g6
g7
(lp8575
g5
(g6
g7
(lp8576
g5
(g6
g7
(lp8577
Vto
p8578
atp8579
Rp8580
(dp8581
g17
VTO
p8582
sbag5
(g6
g7
(lp8583
g5
(g6
g7
(lp8584
Vadd
p8585
atp8586
Rp8587
(dp8588
g17
VVB
p8589
sbag5
(g6
g7
(lp8590
g5
(g6
g7
(lp8591
g214
atp8592
Rp8593
(dp8594
g17
VDT
p8595
sbag5
(g6
g7
(lp8596
Vcountry
p8597
atp8598
Rp8599
(dp8600
g17
VNN
p8601
sbatp8602
Rp8603
(dp8604
g17
VNP
p8605
sbag5
(g6
g7
(lp8606
g5
(g6
g7
(lp8607
Vwith
p8608
atp8609
Rp8610
(dp8611
g17
VIN
p8612
sbag5
(g6
g7
(lp8613
g5
(g6
g7
(lp8614
Vfour
p8615
atp8616
Rp8617
(dp8618
g17
VCD
p8619
sbag5
(g6
g7
(lp8620
Vneighbors
p8621
atp8622
Rp8623
(dp8624
g17
VNNS
p8625
sbatp8626
Rp8627
(dp8628
g17
VNP
p8629
sbatp8630
Rp8631
(dp8632
g17
VPP
p8633
sbatp8634
Rp8635
(dp8636
g17
VVP
p8637
sbatp8638
Rp8639
(dp8640
g17
VVP
p8641
sbatp8642
Rp8643
(dp8644
g17
g101
sbatp8645
Rp8646
(dp8647
g17
VVP
p8648
sbatp8649
Rp8650
(dp8651
g17
VVP
p8652
sbatp8653
Rp8654
(dp8655
g17
g101
sbatp8656
Rp8657
(dp8658
g17
VSBAR
p8659
sbag5
(g6
g7
(lp8660
g110
atp8661
Rp8662
(dp8663
g17
g110
sbag5
(g6
g7
(lp8664
g5
(g6
g7
(lp8665
Vwe
p8666
atp8667
Rp8668
(dp8669
g17
VPRP
p8670
sbatp8671
Rp8672
(dp8673
g17
VNP
p8674
sbag5
(g6
g7
(lp8675
g5
(g6
g7
(lp8676
Vcan
p8677
atp8678
Rp8679
(dp8680
g17
VMD
p8681
sbag5
(g6
g7
(lp8682
g5
(g6
g7
(lp8683
Vdo
p8684
atp8685
Rp8686
(dp8687
g17
VVB
p8688
sbag5
(g6
g7
(lp8689
g5
(g6
g7
(lp8690
Vso
p8691
atp8692
Rp8693
(dp8694
g17
VRB
p8695
sbatp8696
Rp8697
(dp8698
g17
VADVP
p8699
sbatp8700
Rp8701
(dp8702
g17
VVP
p8703
sbatp8704
Rp8705
(dp8706
g17
VVP
p8707
sbatp8708
Rp8709
(dp8710
g17
g101
sbag5
(g6
g7
(lp8711
g110
atp8712
Rp8713
(dp8714
g17
g110
sbag5
(g6
g7
(lp8715
Vbut
p8716
atp8717
Rp8718
(dp8719
g17
VCC
p8720
sbag5
(g6
g7
(lp8721
g5
(g6
g7
(lp8722
g5
(g6
g7
(lp8723
Vwe
p8724
atp8725
Rp8726
(dp8727
g17
VPRP
p8728
sbatp8729
Rp8730
(dp8731
g17
VNP
p8732
sbag5
(g6
g7
(lp8733
g5
(g6
g7
(lp8734
Vmay
p8735
atp8736
Rp8737
(dp8738
g17
VMD
p8739
sbag5
(g6
g7
(lp8740
g5
(g6
g7
(lp8741
Vhave
p8742
atp8743
Rp8744
(dp8745
g17
VVB
p8746
sbag5
(g6
g7
(lp8747
g5
(g6
g7
(lp8748
g5
(g6
g7
(lp8749
Vto
p8750
atp8751
Rp8752
(dp8753
g17
VTO
p8754
sbag5
(g6
g7
(lp8755
g5
(g6
g7
(lp8756
Vmodify
p8757
atp8758
Rp8759
(dp8760
g17
VVB
p8761
sbag5
(g6
g7
(lp8762
g5
(g6
g7
(lp8763
Vthe
p8764
atp8765
Rp8766
(dp8767
g17
VDT
p8768
sbag5
(g6
g7
(lp8769
Vprevious
p8770
atp8771
Rp8772
(dp8773
g17
VJJ
p8774
sbag5
(g6
g7
(lp8775
Vcoloring
p8776
atp8777
Rp8778
(dp8779
g17
VNN
p8780
sbatp8781
Rp8782
(dp8783
g17
VNP
p8784
sbag5
(g6
g7
(lp8785
g5
(g6
g7
(lp8786
Vby
p8787
atp8788
Rp8789
(dp8790
g17
VIN
p8791
sbag5
(g6
g7
(lp8792
g5
(g6
g7
(lp8793
g5
(g6
g7
(lp8794
Vmeans
p8795
atp8796
Rp8797
(dp8798
g17
VNNS
p8799
sbatp8800
Rp8801
(dp8802
g17
VNP
p8803
sbag5
(g6
g7
(lp8804
g5
(g6
g7
(lp8805
Vof
p8806
atp8807
Rp8808
(dp8809
g17
VIN
p8810
sbag5
(g6
g7
(lp8811
g5
(g6
g7
(lp8812
g214
atp8813
Rp8814
(dp8815
g17
VDT
p8816
sbag5
(g6
g7
(lp8817
VKempe
p8818
atp8819
Rp8820
(dp8821
g17
VNNP
p8822
sbag5
(g6
g7
(lp8823
Vtransformation
p8824
atp8825
Rp8826
(dp8827
g17
VNN
p8828
sbag5
(g6
g7
(lp8829
V.2
p8830
atp8831
Rp8832
(dp8833
g17
VCD
p8834
sbatp8835
Rp8836
(dp8837
g17
VNP
p8838
sbatp8839
Rp8840
(dp8841
g17
VPP
p8842
sbatp8843
Rp8844
(dp8845
g17
VNP
p8846
sbatp8847
Rp8848
(dp8849
g17
VPP
p8850
sbatp8851
Rp8852
(dp8853
g17
VVP
p8854
sbatp8855
Rp8856
(dp8857
g17
VVP
p8858
sbatp8859
Rp8860
(dp8861
g17
g101
sbatp8862
Rp8863
(dp8864
g17
VVP
p8865
sbatp8866
Rp8867
(dp8868
g17
VVP
p8869
sbatp8870
Rp8871
(dp8872
g17
g101
sbatp8873
Rp8874
(dp8875
g17
g101
sbatp8876
Rp8877
(dp8878
g17
VFRAG
p8879
sbatp8880
Rp8881
(dp8882
g17
VROOT
p8883
sbasg363
(icmyPackage
CorE
p8884
(dp8885
g366
(lp8886
(I0
I0
tp8887
a(I0
I19
tp8888
asg370
g5
(g6
g7
(lp8889
g8657
ag8662
ag8672
ag8679
ag8686
atp8890
Rp8891
(dp8892
g17
g381
sbsbsg371
(icmyPackage
CorE
p8893
(dp8894
g366
(lp8895
(I0
I22
tp8896
a(I0
I37
tp8897
asg370
g5
(g6
g7
(lp8898
g8718
ag8871
atp8899
Rp8900
(dp8901
g17
g381
sbsbsg382
g4905
sg403
(lp8902
(icmyPackage
Sent
p8903
(dp8904
g407
I4
sg408
I28
sg409
S'If we have colored a partial map and want to add a country with four neighbors, we can do so, but we may have to modify the previous coloring by means of a Kempe transformation.2'
p8905
sg411
I0
sg412
I73
sg370
(lp8906
g8881
asbasba(icmyPackage
CELink
p8907
(dp8908
g3
(lp8909
g8891
asg363
(icmyPackage
CorE
p8910
(dp8911
g366
(lp8912
(I0
I1
tp8913
a(I0
I15
tp8914
asg370
g8654
sbsg371
(icmyPackage
CorE
p8915
(dp8916
g366
(lp8917
(I0
I17
tp8918
a(I0
I19
tp8919
asg370
g5
(g6
g7
(lp8920
g8672
ag8679
ag8686
atp8921
Rp8922
(dp8923
g17
g381
sbsbsg382
g1463
sg403
(lp8924
g8903
asba(icmyPackage
CELink
p8925
(dp8926
g3
(lp8927
g5
(g6
g7
(lp8928
g5
(g6
g7
(lp8929
g5
(g6
g7
(lp8930
g5
(g6
g7
(lp8931
VFrom
p8932
atp8933
Rp8934
(dp8935
g17
VIN
p8936
sbag5
(g6
g7
(lp8937
g5
(g6
g7
(lp8938
g5
(g6
g7
(lp8939
Vthe
p8940
atp8941
Rp8942
(dp8943
g17
VDT
p8944
sbag5
(g6
g7
(lp8945
Vpoint
p8946
atp8947
Rp8948
(dp8949
g17
VNN
p8950
sbatp8951
Rp8952
(dp8953
g17
VNP
p8954
sbag5
(g6
g7
(lp8955
g5
(g6
g7
(lp8956
Vof
p8957
atp8958
Rp8959
(dp8960
g17
VIN
p8961
sbag5
(g6
g7
(lp8962
g5
(g6
g7
(lp8963
g5
(g6
g7
(lp8964
Vview
p8965
atp8966
Rp8967
(dp8968
g17
VNN
p8969
sbatp8970
Rp8971
(dp8972
g17
VNP
p8973
sbag5
(g6
g7
(lp8974
g5
(g6
g7
(lp8975
Vof
p8976
atp8977
Rp8978
(dp8979
g17
VIN
p8980
sbag5
(g6
g7
(lp8981
g5
(g6
g7
(lp8982
Vlogic
p8983
atp8984
Rp8985
(dp8986
g17
VNN
p8987
sbag5
(g6
g7
(lp8988
Vprogramming
p8989
atp8990
Rp8991
(dp8992
g17
VNN
p8993
sbatp8994
Rp8995
(dp8996
g17
VNP
p8997
sbatp8998
Rp8999
(dp9000
g17
VPP
p9001
sbatp9002
Rp9003
(dp9004
g17
VNP
p9005
sbatp9006
Rp9007
(dp9008
g17
VPP
p9009
sbatp9010
Rp9011
(dp9012
g17
VNP
p9013
sbatp9014
Rp9015
(dp9016
g17
VPP
p9017
sbag5
(g6
g7
(lp9018
g110
atp9019
Rp9020
(dp9021
g17
g110
sbag5
(g6
g7
(lp9022
g5
(g6
g7
(lp9023
g5
(g6
g7
(lp9024
g5
(g6
g7
(lp9025
Vsuccessively
p9026
atp9027
Rp9028
(dp9029
g17
VRB
p9030
sbatp9031
Rp9032
(dp9033
g17
VADVP
p9034
sbag5
(g6
g7
(lp9035
Vreducing
p9036
atp9037
Rp9038
(dp9039
g17
VVBG
p9040
sbag5
(g6
g7
(lp9041
g5
(g6
g7
(lp9042
Vthe
p9043
atp9044
Rp9045
(dp9046
g17
VDT
p9047
sbag5
(g6
g7
(lp9048
Vmap
p9049
atp9050
Rp9051
(dp9052
g17
VNN
p9053
sbatp9054
Rp9055
(dp9056
g17
VNP
p9057
sbag5
(g6
g7
(lp9058
g5
(g6
g7
(lp9059
Vby
p9060
atp9061
Rp9062
(dp9063
g17
VIN
p9064
sbag5
(g6
g7
(lp9065
g5
(g6
g7
(lp9066
g5
(g6
g7
(lp9067
Vpostponing
p9068
atp9069
Rp9070
(dp9071
g17
VVBG
p9072
sbag5
(g6
g7
(lp9073
g5
(g6
g7
(lp9074
Vcountries
p9075
atp9076
Rp9077
(dp9078
g17
VNNS
p9079
sbatp9080
Rp9081
(dp9082
g17
VNP
p9083
sbag5
(g6
g7
(lp9084
g5
(g6
g7
(lp9085
Vwith
p9086
atp9087
Rp9088
(dp9089
g17
VIN
p9090
sbag5
(g6
g7
(lp9091
g5
(g6
g7
(lp9092
g5
(g6
g7
(lp9093
Vthree
p9094
atp9095
Rp9096
(dp9097
g17
VCD
p9098
sbag5
(g6
g7
(lp9099
Vor
p9100
atp9101
Rp9102
(dp9103
g17
VCC
p9104
sbag5
(g6
g7
(lp9105
Vfewer
p9106
atp9107
Rp9108
(dp9109
g17
VJJR
p9110
sbatp9111
Rp9112
(dp9113
g17
VQP
p9114
sbag5
(g6
g7
(lp9115
Vneighbors
p9116
atp9117
Rp9118
(dp9119
g17
VNNS
p9120
sbatp9121
Rp9122
(dp9123
g17
VNP
p9124
sbatp9125
Rp9126
(dp9127
g17
VPP
p9128
sbatp9129
Rp9130
(dp9131
g17
VVP
p9132
sbatp9133
Rp9134
(dp9135
g17
g101
sbatp9136
Rp9137
(dp9138
g17
VPP
p9139
sbatp9140
Rp9141
(dp9142
g17
VVP
p9143
sbatp9144
Rp9145
(dp9146
g17
g101
sbag5
(g6
g7
(lp9147
g5
(g6
g7
(lp9148
Vis
p9149
atp9150
Rp9151
(dp9152
g17
VVBZ
p9153
sbag5
(g6
g7
(lp9154
g5
(g6
g7
(lp9155
g5
(g6
g7
(lp9156
Van
p9157
atp9158
Rp9159
(dp9160
g17
VDT
p9161
sbag5
(g6
g7
(lp9162
Vexample
p9163
atp9164
Rp9165
(dp9166
g17
VNN
p9167
sbatp9168
Rp9169
(dp9170
g17
VNP
p9171
sbag5
(g6
g7
(lp9172
g5
(g6
g7
(lp9173
Vof
p9174
atp9175
Rp9176
(dp9177
g17
VIN
p9178
sbag5
(g6
g7
(lp9179
g5
(g6
g7
(lp9180
g5
(g6
g7
(lp9181
g214
atp9182
Rp9183
(dp9184
g17
VDT
p9185
sbag5
(g6
g7
(lp9186
g5
(g6
g7
(lp9187
Vmore
p9188
atp9189
Rp9190
(dp9191
g17
VRBR
p9192
sbag5
(g6
g7
(lp9193
Vgeneral
p9194
atp9195
Rp9196
(dp9197
g17
VJJ
p9198
sbatp9199
Rp9200
(dp9201
g17
VADJP
p9202
sbag5
(g6
g7
(lp9203
Vnotion
p9204
atp9205
Rp9206
(dp9207
g17
VNN
p9208
sbatp9209
Rp9210
(dp9211
g17
VNP
p9212
sbag5
(g6
g7
(lp9213
V--
p9214
atp9215
Rp9216
(dp9217
g17
V:
p9218
sbag5
(g6
g7
(lp9219
g5
(g6
g7
(lp9220
g5
(g6
g7
(lp9221
Vthat
p9222
atp9223
Rp9224
(dp9225
g17
VDT
p9226
sbatp9227
Rp9228
(dp9229
g17
VNP
p9230
sbag5
(g6
g7
(lp9231
g5
(g6
g7
(lp9232
Vof
p9233
atp9234
Rp9235
(dp9236
g17
VIN
p9237
sbag5
(g6
g7
(lp9238
g5
(g6
g7
(lp9239
g214
atp9240
Rp9241
(dp9242
g17
VDT
p9243
sbag5
(g6
g7
(lp9244
Vpostponable
p9245
atp9246
Rp9247
(dp9248
g17
VJJ
p9249
sbag5
(g6
g7
(lp9250
Vvariable
p9251
atp9252
Rp9253
(dp9254
g17
VNN
p9255
sbatp9256
Rp9257
(dp9258
g17
VNP
p9259
sbatp9260
Rp9261
(dp9262
g17
VPP
p9263
sbatp9264
Rp9265
(dp9266
g17
VNP
p9267
sbatp9268
Rp9269
(dp9270
g17
VNP
p9271
sbatp9272
Rp9273
(dp9274
g17
VPP
p9275
sbatp9276
Rp9277
(dp9278
g17
VNP
p9279
sbatp9280
Rp9281
(dp9282
g17
VVP
p9283
sbag5
(g6
g7
(lp9284
g352
atp9285
Rp9286
(dp9287
g17
g352
sbatp9288
Rp9289
(dp9290
g17
g101
sbatp9291
Rp9292
(dp9293
g17
VROOT
p9294
sbasg363
(icmyPackage
CorE
p9295
(dp9296
g366
(lp9297
(I0
I14
tp9298
a(I0
I20
tp9299
asg370
g9134
sbsg371
(icmyPackage
CorE
p9300
(dp9301
g366
(lp9302
(I0
I21
tp9303
a(I0
I35
tp9304
asg370
g5
(g6
g7
(lp9305
g9281
ag9286
atp9306
Rp9307
(dp9308
g17
g381
sbsbsg382
(icmyPackage
pattern
p9309
(dp9310
g385
I0
sg386
I0
sg387
(lp9311
(lp9312
(lp9313
S'by'
p9314
aS'through'
p9315
aaasg391
(lp9316
I2
aI1
aI1
asg393
(lp9317
S'By extracting comments and comparisons of the cited articles and then organizing them according to the time of publication discovers and displays how the area has developed as a research literature.'
p9318
asg396
I67
sg397
(lp9319
(lp9320
a(lp9321
S'&V-ing@C@'
p9322
aS'&R'
p9323
aasbsg403
(lp9324
(icmyPackage
Sent
p9325
(dp9326
g407
I5
sg408
I30
sg409
S'From the point of view of logic programming, successively reducing the map by postponing countries with three or fewer neighbors is an example of a more general notion -- that of a postponable variable.'
p9327
sg411
I0
sg412
I75
sg370
(lp9328
g9292
asbasba(icmyPackage
CELink
p9329
(dp9330
g3
(lp9331
g5
(g6
g7
(lp9332
g5
(g6
g7
(lp9333
g5
(g6
g7
(lp9334
g5
(g6
g7
(lp9335
VMoreover
p9336
atp9337
Rp9338
(dp9339
g17
VRB
p9340
sbatp9341
Rp9342
(dp9343
g17
VADVP
p9344
sbag5
(g6
g7
(lp9345
g110
atp9346
Rp9347
(dp9348
g17
g110
sbag5
(g6
g7
(lp9349
g5
(g6
g7
(lp9350
g5
(g6
g7
(lp9351
Vjust
p9352
atp9353
Rp9354
(dp9355
g17
VRB
p9356
sbag5
(g6
g7
(lp9357
Vas
p9358
atp9359
Rp9360
(dp9361
g17
VRB
p9362
sbatp9363
Rp9364
(dp9365
g17
VNP
p9366
sbag5
(g6
g7
(lp9367
g5
(g6
g7
(lp9368
Vin
p9369
atp9370
Rp9371
(dp9372
g17
VIN
p9373
sbag5
(g6
g7
(lp9374
g5
(g6
g7
(lp9375
g5
(g6
g7
(lp9376
Vthe
p9377
atp9378
Rp9379
(dp9380
g17
VDT
p9381
sbag5
(g6
g7
(lp9382
Vmap
p9383
atp9384
Rp9385
(dp9386
g17
VNN
p9387
sbag5
(g6
g7
(lp9388
Vcoloring
p9389
atp9390
Rp9391
(dp9392
g17
VVBG
p9393
sbag5
(g6
g7
(lp9394
Vproblem
p9395
atp9396
Rp9397
(dp9398
g17
VNN
p9399
sbatp9400
Rp9401
(dp9402
g17
VNP
p9403
sbag5
(g6
g7
(lp9404
g110
atp9405
Rp9406
(dp9407
g17
g110
sbag5
(g6
g7
(lp9408
g5
(g6
g7
(lp9409
Vpostponing
p9410
atp9411
Rp9412
(dp9413
g17
VVBG
p9414
sbag5
(g6
g7
(lp9415
g5
(g6
g7
(lp9416
Vsome
p9417
atp9418
Rp9419
(dp9420
g17
VDT
p9421
sbag5
(g6
g7
(lp9422
Vvariables
p9423
atp9424
Rp9425
(dp9426
g17
VNNS
p9427
sbatp9428
Rp9429
(dp9430
g17
VNP
p9431
sbatp9432
Rp9433
(dp9434
g17
VVP
p9435
sbatp9436
Rp9437
(dp9438
g17
VNP
p9439
sbatp9440
Rp9441
(dp9442
g17
VPP
p9443
sbatp9444
Rp9445
(dp9446
g17
VNP
p9447
sbag5
(g6
g7
(lp9448
g5
(g6
g7
(lp9449
Vmay
p9450
atp9451
Rp9452
(dp9453
g17
VMD
p9454
sbag5
(g6
g7
(lp9455
g5
(g6
g7
(lp9456
Vremove
p9457
atp9458
Rp9459
(dp9460
g17
VVB
p9461
sbag5
(g6
g7
(lp9462
g5
(g6
g7
(lp9463
g5
(g6
g7
(lp9464
Venough
p9465
atp9466
Rp9467
(dp9468
g17
VJJ
p9469
sbag5
(g6
g7
(lp9470
Vgoals
p9471
atp9472
Rp9473
(dp9474
g17
VNNS
p9475
sbatp9476
Rp9477
(dp9478
g17
VNP
p9479
sbag5
(g6
g7
(lp9480
g5
(g6
g7
(lp9481
Vinvolving
p9482
atp9483
Rp9484
(dp9485
g17
VVBG
p9486
sbag5
(g6
g7
(lp9487
g5
(g6
g7
(lp9488
Vother
p9489
atp9490
Rp9491
(dp9492
g17
VJJ
p9493
sbag5
(g6
g7
(lp9494
Vvariables
p9495
atp9496
Rp9497
(dp9498
g17
VNNS
p9499
sbatp9500
Rp9501
(dp9502
g17
VNP
p9503
sbag5
(g6
g7
(lp9504
g5
(g6
g7
(lp9505
Vso
p9506
atp9507
Rp9508
(dp9509
g17
VRB
p9510
sbag5
(g6
g7
(lp9511
Vthat
p9512
atp9513
Rp9514
(dp9515
g17
VIN
p9516
sbag5
(g6
g7
(lp9517
g5
(g6
g7
(lp9518
g5
(g6
g7
(lp9519
g5
(g6
g7
(lp9520
Vthey
p9521
atp9522
Rp9523
(dp9524
g17
VPRP
p9525
sbatp9526
Rp9527
(dp9528
g17
VNP
p9529
sbag5
(g6
g7
(lp9530
g5
(g6
g7
(lp9531
Vin
p9532
atp9533
Rp9534
(dp9535
g17
VIN
p9536
sbag5
(g6
g7
(lp9537
g5
(g6
g7
(lp9538
Vturn
p9539
atp9540
Rp9541
(dp9542
g17
VNN
p9543
sbatp9544
Rp9545
(dp9546
g17
VNP
p9547
sbatp9548
Rp9549
(dp9550
g17
VPP
p9551
sbatp9552
Rp9553
(dp9554
g17
VNP
p9555
sbag5
(g6
g7
(lp9556
g5
(g6
g7
(lp9557
Vbecome
p9558
atp9559
Rp9560
(dp9561
g17
VVBP
p9562
sbag5
(g6
g7
(lp9563
g5
(g6
g7
(lp9564
Vpostponable
p9565
atp9566
Rp9567
(dp9568
g17
VJJ
p9569
sbatp9570
Rp9571
(dp9572
g17
VADJP
p9573
sbatp9574
Rp9575
(dp9576
g17
VVP
p9577
sbatp9578
Rp9579
(dp9580
g17
g101
sbatp9581
Rp9582
(dp9583
g17
VSBAR
p9584
sbatp9585
Rp9586
(dp9587
g17
VVP
p9588
sbatp9589
Rp9590
(dp9591
g17
VNP
p9592
sbatp9593
Rp9594
(dp9595
g17
VVP
p9596
sbatp9597
Rp9598
(dp9599
g17
VVP
p9600
sbag5
(g6
g7
(lp9601
g352
atp9602
Rp9603
(dp9604
g17
g352
sbatp9605
Rp9606
(dp9607
g17
g101
sbatp9608
Rp9609
(dp9610
g17
VROOT
p9611
sbasg363
(icmyPackage
CorE
p9612
(dp9613
g366
(lp9614
(I0
I0
tp9615
a(I0
I19
tp9616
asg370
g5
(g6
g7
(lp9617
g9342
ag9347
ag9445
ag9452
ag9459
ag9477
ag9484
ag9501
atp9618
Rp9619
(dp9620
g17
g381
sbsbsg371
(icmyPackage
CorE
p9621
(dp9622
g366
(lp9623
(I0
I22
tp9624
a(I0
I27
tp9625
asg370
g5
(g6
g7
(lp9626
g9579
ag9603
atp9627
Rp9628
(dp9629
g17
g381
sbsbsg382
g3980
sg403
(lp9630
(icmyPackage
Sent
p9631
(dp9632
g407
I5
sg408
I30
sg409
S'Moreover, just as in the map coloring problem, postponing some variables may remove enough goals involving other variables so that they in turn become postponable.'
p9633
sg411
I0
sg412
I78
sg370
(lp9634
g9609
asbasba(icmyPackage
CELink
p9635
(dp9636
g3
(lp9637
g5
(g6
g7
(lp9638
g5
(g6
g7
(lp9639
g5
(g6
g7
(lp9640
g5
(g6
g7
(lp9641
VIf
p9642
atp9643
Rp9644
(dp9645
g17
VIN
p9646
sbag5
(g6
g7
(lp9647
g5
(g6
g7
(lp9648
g5
(g6
g7
(lp9649
Vthere
p9650
atp9651
Rp9652
(dp9653
g17
VEX
p9654
sbatp9655
Rp9656
(dp9657
g17
VNP
p9658
sbag5
(g6
g7
(lp9659
g5
(g6
g7
(lp9660
Vwere
p9661
atp9662
Rp9663
(dp9664
g17
VVBD
p9665
sbag5
(g6
g7
(lp9666
g5
(g6
g7
(lp9667
g5
(g6
g7
(lp9668
Vonly
p9669
atp9670
Rp9671
(dp9672
g17
VRB
p9673
sbag5
(g6
g7
(lp9674
Vone
p9675
atp9676
Rp9677
(dp9678
g17
VCD
p9679
sbag5
(g6
g7
(lp9680
Vstage
p9681
atp9682
Rp9683
(dp9684
g17
VNN
p9685
sbatp9686
Rp9687
(dp9688
g17
VNP
p9689
sbag5
(g6
g7
(lp9690
g5
(g6
g7
(lp9691
Vof
p9692
atp9693
Rp9694
(dp9695
g17
VIN
p9696
sbag5
(g6
g7
(lp9697
g5
(g6
g7
(lp9698
Vpostponement
p9699
atp9700
Rp9701
(dp9702
g17
VNN
p9703
sbatp9704
Rp9705
(dp9706
g17
VNP
p9707
sbatp9708
Rp9709
(dp9710
g17
VPP
p9711
sbatp9712
Rp9713
(dp9714
g17
VNP
p9715
sbatp9716
Rp9717
(dp9718
g17
VVP
p9719
sbatp9720
Rp9721
(dp9722
g17
g101
sbatp9723
Rp9724
(dp9725
g17
VSBAR
p9726
sbag5
(g6
g7
(lp9727
g110
atp9728
Rp9729
(dp9730
g17
g110
sbag5
(g6
g7
(lp9731
g5
(g6
g7
(lp9732
Vwe
p9733
atp9734
Rp9735
(dp9736
g17
VPRP
p9737
sbatp9738
Rp9739
(dp9740
g17
VNP
p9741
sbag5
(g6
g7
(lp9742
g5
(g6
g7
(lp9743
Vcould
p9744
atp9745
Rp9746
(dp9747
g17
VMD
p9748
sbag5
(g6
g7
(lp9749
g5
(g6
g7
(lp9750
Vregard
p9751
atp9752
Rp9753
(dp9754
g17
VVB
p9755
sbag5
(g6
g7
(lp9756
g5
(g6
g7
(lp9757
Vpostponement
p9758
atp9759
Rp9760
(dp9761
g17
VNN
p9762
sbatp9763
Rp9764
(dp9765
g17
VNP
p9766
sbag5
(g6
g7
(lp9767
g5
(g6
g7
(lp9768
Vas
p9769
atp9770
Rp9771
(dp9772
g17
VIN
p9773
sbag5
(g6
g7
(lp9774
g5
(g6
g7
(lp9775
g5
(g6
g7
(lp9776
g214
atp9777
Rp9778
(dp9779
g17
VDT
p9780
sbag5
(g6
g7
(lp9781
Vcase
p9782
atp9783
Rp9784
(dp9785
g17
VNN
p9786
sbatp9787
Rp9788
(dp9789
g17
VNP
p9790
sbag5
(g6
g7
(lp9791
g5
(g6
g7
(lp9792
Vof
p9793
atp9794
Rp9795
(dp9796
g17
VIN
p9797
sbag5
(g6
g7
(lp9798
g5
(g6
g7
(lp9799
g5
(g6
g7
(lp9800
Vselecting
p9801
atp9802
Rp9803
(dp9804
g17
VVBG
p9805
sbag5
(g6
g7
(lp9806
g5
(g6
g7
(lp9807
Vthe
p9808
atp9809
Rp9810
(dp9811
g17
VDT
p9812
sbag5
(g6
g7
(lp9813
Vfirst
p9814
atp9815
Rp9816
(dp9817
g17
VJJ
p9818
sbag5
(g6
g7
(lp9819
Vgoal
p9820
atp9821
Rp9822
(dp9823
g17
VNN
p9824
sbatp9825
Rp9826
(dp9827
g17
VNP
p9828
sbag5
(g6
g7
(lp9829
g5
(g6
g7
(lp9830
g5
(g6
g7
(lp9831
Vto
p9832
atp9833
Rp9834
(dp9835
g17
VTO
p9836
sbag5
(g6
g7
(lp9837
g5
(g6
g7
(lp9838
Vbe
p9839
atp9840
Rp9841
(dp9842
g17
VVB
p9843
sbag5
(g6
g7
(lp9844
g5
(g6
g7
(lp9845
Vattempted
p9846
atp9847
Rp9848
(dp9849
g17
VVBN
p9850
sbag5
(g6
g7
(lp9851
g110
atp9852
Rp9853
(dp9854
g17
g110
sbag5
(g6
g7
(lp9855
g5
(g6
g7
(lp9856
g5
(g6
g7
(lp9857
Vthe
p9858
atp9859
Rp9860
(dp9861
g17
VDT
p9862
sbag5
(g6
g7
(lp9863
Vpostponable
p9864
atp9865
Rp9866
(dp9867
g17
VJJ
p9868
sbag5
(g6
g7
(lp9869
Vvariables
p9870
atp9871
Rp9872
(dp9873
g17
VNNS
p9874
sbatp9875
Rp9876
(dp9877
g17
VNP
p9878
sbag5
(g6
g7
(lp9879
g5
(g6
g7
(lp9880
Vbeing
p9881
atp9882
Rp9883
(dp9884
g17
VVBG
p9885
sbag5
(g6
g7
(lp9886
g5
(g6
g7
(lp9887
Vrejected
p9888
atp9889
Rp9890
(dp9891
g17
VVBN
p9892
sbag5
(g6
g7
(lp9893
g5
(g6
g7
(lp9894
Vfor
p9895
atp9896
Rp9897
(dp9898
g17
VIN
p9899
sbag5
(g6
g7
(lp9900
g5
(g6
g7
(lp9901
Vselection
p9902
atp9903
Rp9904
(dp9905
g17
VNN
p9906
sbatp9907
Rp9908
(dp9909
g17
VNP
p9910
sbatp9911
Rp9912
(dp9913
g17
VPP
p9914
sbatp9915
Rp9916
(dp9917
g17
VVP
p9918
sbatp9919
Rp9920
(dp9921
g17
VVP
p9922
sbatp9923
Rp9924
(dp9925
g17
VNP
p9926
sbatp9927
Rp9928
(dp9929
g17
VVP
p9930
sbatp9931
Rp9932
(dp9933
g17
VVP
p9934
sbatp9935
Rp9936
(dp9937
g17
VVP
p9938
sbatp9939
Rp9940
(dp9941
g17
g101
sbatp9942
Rp9943
(dp9944
g17
VVP
p9945
sbatp9946
Rp9947
(dp9948
g17
g101
sbatp9949
Rp9950
(dp9951
g17
VPP
p9952
sbatp9953
Rp9954
(dp9955
g17
VNP
p9956
sbatp9957
Rp9958
(dp9959
g17
VPP
p9960
sbatp9961
Rp9962
(dp9963
g17
VVP
p9964
sbatp9965
Rp9966
(dp9967
g17
VVP
p9968
sbag5
(g6
g7
(lp9969
g352
atp9970
Rp9971
(dp9972
g17
g352
sbatp9973
Rp9974
(dp9975
g17
g101
sbatp9976
Rp9977
(dp9978
g17
VROOT
p9979
sbasg363
(icmyPackage
CorE
p9980
(dp9981
g366
(lp9982
(I0
I1
tp9983
a(I0
I7
tp9984
asg370
g9721
sbsg371
(icmyPackage
CorE
p9985
(dp9986
g366
(lp9987
(I0
I9
tp9988
a(I0
I32
tp9989
asg370
g5
(g6
g7
(lp9990
g9739
ag9966
ag9971
atp9991
Rp9992
(dp9993
g17
g381
sbsbsg382
g1463
sg403
(lp9994
(icmyPackage
Sent
p9995
(dp9996
g407
I5
sg408
I31
sg409
S'If there were only one stage of postponement, we could regard postponement as a case of selecting the first goal to be attempted, the postponable variables being rejected for selection.'
p9997
sg411
I0
sg412
I79
sg370
(lp9998
g9977
asbasba(icmyPackage
CELink
p9999
(dp10000
g3
(lp10001
g5
(g6
g7
(lp10002
g5
(g6
g7
(lp10003
g5
(g6
g7
(lp10004
g5
(g6
g7
(lp10005
VHowever
p10006
atp10007
Rp10008
(dp10009
g17
VRB
p10010
sbatp10011
Rp10012
(dp10013
g17
VADVP
p10014
sbag5
(g6
g7
(lp10015
g110
atp10016
Rp10017
(dp10018
g17
g110
sbag5
(g6
g7
(lp10019
g5
(g6
g7
(lp10020
Vthis
p10021
atp10022
Rp10023
(dp10024
g17
VDT
p10025
sbatp10026
Rp10027
(dp10028
g17
VNP
p10029
sbag5
(g6
g7
(lp10030
g5
(g6
g7
(lp10031
Vwould
p10032
atp10033
Rp10034
(dp10035
g17
VMD
p10036
sbag5
(g6
g7
(lp10037
Vn't
p10038
atp10039
Rp10040
(dp10041
g17
VRB
p10042
sbag5
(g6
g7
(lp10043
g5
(g6
g7
(lp10044
Vprevent
p10045
atp10046
Rp10047
(dp10048
g17
VVB
p10049
sbag5
(g6
g7
(lp10050
g5
(g6
g7
(lp10051
g5
(g6
g7
(lp10052
Vthe
p10053
atp10054
Rp10055
(dp10056
g17
VDT
p10057
sbag5
(g6
g7
(lp10058
Vselection
p10059
atp10060
Rp10061
(dp10062
g17
VNN
p10063
sbatp10064
Rp10065
(dp10066
g17
VNP
p10067
sbag5
(g6
g7
(lp10068
g5
(g6
g7
(lp10069
Vof
p10070
atp10071
Rp10072
(dp10073
g17
VIN
p10074
sbag5
(g6
g7
(lp10075
g5
(g6
g7
(lp10076
g5
(g6
g7
(lp10077
g214
atp10078
Rp10079
(dp10080
g17
VDT
p10081
sbag5
(g6
g7
(lp10082
Vvariable
p10083
atp10084
Rp10085
(dp10086
g17
VJJ
p10087
sbag5
(g6
g7
(lp10088
Vpostponable
p10089
atp10090
Rp10091
(dp10092
g17
VNN
p10093
sbatp10094
Rp10095
(dp10096
g17
VNP
p10097
sbag5
(g6
g7
(lp10098
g5
(g6
g7
(lp10099
Vin
p10100
atp10101
Rp10102
(dp10103
g17
VIN
p10104
sbag5
(g6
g7
(lp10105
g5
(g6
g7
(lp10106
Vthe
p10107
atp10108
Rp10109
(dp10110
g17
VDT
p10111
sbag5
(g6
g7
(lp10112
Vsecond
p10113
atp10114
Rp10115
(dp10116
g17
VJJ
p10117
sbag5
(g6
g7
(lp10118
Vstage
p10119
atp10120
Rp10121
(dp10122
g17
VNN
p10123
sbatp10124
Rp10125
(dp10126
g17
VNP
p10127
sbatp10128
Rp10129
(dp10130
g17
VPP
p10131
sbatp10132
Rp10133
(dp10134
g17
VNP
p10135
sbatp10136
Rp10137
(dp10138
g17
VPP
p10139
sbatp10140
Rp10141
(dp10142
g17
VNP
p10143
sbatp10144
Rp10145
(dp10146
g17
VVP
p10147
sbatp10148
Rp10149
(dp10150
g17
VVP
p10151
sbag5
(g6
g7
(lp10152
g352
atp10153
Rp10154
(dp10155
g17
g352
sbatp10156
Rp10157
(dp10158
g17
g101
sbatp10159
Rp10160
(dp10161
g17
VROOT
p10162
sbag5
(g6
g7
(lp10163
g5
(g6
g7
(lp10164
g5
(g6
g7
(lp10165
g5
(g6
g7
(lp10166
VTherefore
p10167
atp10168
Rp10169
(dp10170
g17
VRB
p10171
sbatp10172
Rp10173
(dp10174
g17
VADVP
p10175
sbag5
(g6
g7
(lp10176
g110
atp10177
Rp10178
(dp10179
g17
g110
sbag5
(g6
g7
(lp10180
g5
(g6
g7
(lp10181
Vthe
p10182
atp10183
Rp10184
(dp10185
g17
VDT
p10186
sbag5
(g6
g7
(lp10187
Vpostponement
p10188
atp10189
Rp10190
(dp10191
g17
VNN
p10192
sbag5
(g6
g7
(lp10193
Vprocess
p10194
atp10195
Rp10196
(dp10197
g17
VNN
p10198
sbatp10199
Rp10200
(dp10201
g17
VNP
p10202
sbag5
(g6
g7
(lp10203
g5
(g6
g7
(lp10204
Vshould
p10205
atp10206
Rp10207
(dp10208
g17
VMD
p10209
sbag5
(g6
g7
(lp10210
g5
(g6
g7
(lp10211
Vbe
p10212
atp10213
Rp10214
(dp10215
g17
VVB
p10216
sbag5
(g6
g7
(lp10217
g5
(g6
g7
(lp10218
Vcompleted
p10219
atp10220
Rp10221
(dp10222
g17
VVBN
p10223
sbag5
(g6
g7
(lp10224
g5
(g6
g7
(lp10225
Vbefore
p10226
atp10227
Rp10228
(dp10229
g17
VIN
p10230
sbag5
(g6
g7
(lp10231
g5
(g6
g7
(lp10232
g5
(g6
g7
(lp10233
Vany
p10234
atp10235
Rp10236
(dp10237
g17
VDT
p10238
sbag5
(g6
g7
(lp10239
Vgoals
p10240
atp10241
Rp10242
(dp10243
g17
VNNS
p10244
sbatp10245
Rp10246
(dp10247
g17
VNP
p10248
sbag5
(g6
g7
(lp10249
g5
(g6
g7
(lp10250
Vare
p10251
atp10252
Rp10253
(dp10254
g17
VVBP
p10255
sbag5
(g6
g7
(lp10256
g5
(g6
g7
(lp10257
Vselected
p10258
atp10259
Rp10260
(dp10261
g17
VVBN
p10262
sbag5
(g6
g7
(lp10263
g5
(g6
g7
(lp10264
Vfor
p10265
atp10266
Rp10267
(dp10268
g17
VIN
p10269
sbag5
(g6
g7
(lp10270
g5
(g6
g7
(lp10271
Vattempt
p10272
atp10273
Rp10274
(dp10275
g17
VNN
p10276
sbatp10277
Rp10278
(dp10279
g17
VNP
p10280
sbatp10281
Rp10282
(dp10283
g17
VPP
p10284
sbatp10285
Rp10286
(dp10287
g17
VVP
p10288
sbatp10289
Rp10290
(dp10291
g17
VVP
p10292
sbatp10293
Rp10294
(dp10295
g17
g101
sbatp10296
Rp10297
(dp10298
g17
VSBAR
p10299
sbatp10300
Rp10301
(dp10302
g17
VVP
p10303
sbatp10304
Rp10305
(dp10306
g17
VVP
p10307
sbatp10308
Rp10309
(dp10310
g17
VVP
p10311
sbag5
(g6
g7
(lp10312
g352
atp10313
Rp10314
(dp10315
g17
g352
sbatp10316
Rp10317
(dp10318
g17
g101
sbatp10319
Rp10320
(dp10321
g17
VROOT
p10322
sbasg363
(icmyPackage
CorE
p10323
(dp10324
g366
(lp10325
(I0
I0
tp10326
a(I0
I15
tp10327
asg370
g5
(g6
g7
(lp10328
g10012
ag10017
ag10027
ag10149
atp10329
Rp10330
(dp10331
g17
g381
sbsbsg371
(icmyPackage
CorE
p10332
(dp10333
g366
(lp10334
(I1
I2
tp10335
a(I1
I15
tp10336
asg370
g5
(g6
g7
(lp10337
g10200
ag10309
ag10314
atp10338
Rp10339
(dp10340
g17
g381
sbsbsg382
g4304
sg403
(lp10341
(icmyPackage
Sent
p10342
(dp10343
g407
I5
sg408
I31
sg409
S"However, this wouldn't prevent the selection of a variable postponable in the second stage."
p10344
sg411
I0
sg412
I80
sg370
(lp10345
g10160
asba(icmyPackage
Sent
p10346
(dp10347
g407
I5
sg408
I31
sg409
S'Therefore, the postponement process should be completed before any goals are selected for attempt.'
p10348
sg411
I0
sg412
I81
sg370
(lp10349
g10320
asbasba(icmyPackage
CELink
p10350
(dp10351
g3
(lp10352
g5
(g6
g7
(lp10353
g5
(g6
g7
(lp10354
g5
(g6
g7
(lp10355
g5
(g6
g7
(lp10356
VNotice
p10357
atp10358
Rp10359
(dp10360
g17
VVB
p10361
sbag5
(g6
g7
(lp10362
g5
(g6
g7
(lp10363
Vthat
p10364
atp10365
Rp10366
(dp10367
g17
VIN
p10368
sbag5
(g6
g7
(lp10369
g5
(g6
g7
(lp10370
g5
(g6
g7
(lp10371
g5
(g6
g7
(lp10372
Vour
p10373
atp10374
Rp10375
(dp10376
g17
VPRP$
p10377
sbag5
(g6
g7
(lp10378
Vquick
p10379
atp10380
Rp10381
(dp10382
g17
VJJ
p10383
sbag5
(g6
g7
(lp10384
Vrecognition
p10385
atp10386
Rp10387
(dp10388
g17
VNN
p10389
sbatp10390
Rp10391
(dp10392
g17
VNP
p10393
sbag5
(g6
g7
(lp10394
g5
(g6
g7
(lp10395
Vof
p10396
atp10397
Rp10398
(dp10399
g17
VIN
p10400
sbag5
(g6
g7
(lp10401
g5
(g6
g7
(lp10402
g5
(g6
g7
(lp10403
Vthe
p10404
atp10405
Rp10406
(dp10407
g17
VDT
p10408
sbag5
(g6
g7
(lp10409
Vpostponability
p10410
atp10411
Rp10412
(dp10413
g17
VNN
p10414
sbatp10415
Rp10416
(dp10417
g17
VNP
p10418
sbag5
(g6
g7
(lp10419
g5
(g6
g7
(lp10420
Vof
p10421
atp10422
Rp10423
(dp10424
g17
VIN
p10425
sbag5
(g6
g7
(lp10426
g5
(g6
g7
(lp10427
VR4
p10428
atp10429
Rp10430
(dp10431
g17
VNNP
p10432
sbatp10433
Rp10434
(dp10435
g17
VNP
p10436
sbatp10437
Rp10438
(dp10439
g17
VPP
p10440
sbatp10441
Rp10442
(dp10443
g17
VNP
p10444
sbatp10445
Rp10446
(dp10447
g17
VPP
p10448
sbatp10449
Rp10450
(dp10451
g17
VNP
p10452
sbag5
(g6
g7
(lp10453
g5
(g6
g7
(lp10454
Vis
p10455
atp10456
Rp10457
(dp10458
g17
VVBZ
p10459
sbag5
(g6
g7
(lp10460
g5
(g6
g7
(lp10461
Vbased
p10462
atp10463
Rp10464
(dp10465
g17
VVBN
p10466
sbag5
(g6
g7
(lp10467
g5
(g6
g7
(lp10468
Von
p10469
atp10470
Rp10471
(dp10472
g17
VIN
p10473
sbag5
(g6
g7
(lp10474
g5
(g6
g7
(lp10475
Vthe
p10476
atp10477
Rp10478
(dp10479
g17
VDT
p10480
sbag5
(g6
g7
(lp10481
Vsymmetry
p10482
atp10483
Rp10484
(dp10485
g17
VNN
p10486
sbatp10487
Rp10488
(dp10489
g17
VNP
p10490
sbatp10491
Rp10492
(dp10493
g17
VPP
p10494
sbatp10495
Rp10496
(dp10497
g17
VVP
p10498
sbatp10499
Rp10500
(dp10501
g17
VVP
p10502
sbatp10503
Rp10504
(dp10505
g17
g101
sbatp10506
Rp10507
(dp10508
g17
VSBAR
p10509
sbatp10510
Rp10511
(dp10512
g17
VVP
p10513
sbag5
(g6
g7
(lp10514
g352
atp10515
Rp10516
(dp10517
g17
g352
sbatp10518
Rp10519
(dp10520
g17
g101
sbatp10521
Rp10522
(dp10523
g17
VROOT
p10524
sbasg363
(icmyPackage
CorE
p10525
(dp10526
g366
(lp10527
(I0
I13
tp10528
a(I0
I14
tp10529
asg370
g10488
sbsg371
(icmyPackage
CorE
p10530
(dp10531
g366
(lp10532
(I0
I0
tp10533
a(I0
I10
tp10534
asg370
g5
(g6
g7
(lp10535
g10359
ag10366
ag10450
ag10457
atp10536
Rp10537
(dp10538
g17
g381
sbsbsg382
(icmyPackage
pattern
p10539
(dp10540
g385
I0
sg386
I0
sg387
(lp10541
(lp10542
S'based'
p10543
aS'on'
p10544
aasg391
(lp10545
I2
aI1
aI1
asg393
(lp10546
S'He said he planned to announce details of legislation on Sunday based on a Republican plan that would provide a short-term solution'
p10547
asg396
I48
sg397
(lp10548
(lp10549
S'&R'
p10550
aS'(,)'
p10551
aS'(&ADV)'
p10552
aa(lp10553
S'&V-ing/&NP@C@'
p10554
aS'(&Clause@C@)'
p10555
aasbsg403
(lp10556
(icmyPackage
Sent
p10557
(dp10558
g407
I5
sg408
I33
sg409
S'Notice that our quick recognition of the postponability of R4 is based on the symmetry.'
p10559
sg411
I0
sg412
I84
sg370
(lp10560
g10522
asbasba(icmyPackage
CELink
p10561
(dp10562
g3
(lp10563
g5
(g6
g7
(lp10564
g5
(g6
g7
(lp10565
g5
(g6
g7
(lp10566
g5
(g6
g7
(lp10567
VSince
p10568
atp10569
Rp10570
(dp10571
g17
VIN
p10572
sbag5
(g6
g7
(lp10573
g5
(g6
g7
(lp10574
g5
(g6
g7
(lp10575
g5
(g6
g7
(lp10576
Vsome
p10577
atp10578
Rp10579
(dp10580
g17
VDT
p10581
sbag5
(g6
g7
(lp10582
Vcases
p10583
atp10584
Rp10585
(dp10586
g17
VNNS
p10587
sbatp10588
Rp10589
(dp10590
g17
VNP
p10591
sbag5
(g6
g7
(lp10592
g5
(g6
g7
(lp10593
Vof
p10594
atp10595
Rp10596
(dp10597
g17
VIN
p10598
sbag5
(g6
g7
(lp10599
g5
(g6
g7
(lp10600
Vpostponability
p10601
atp10602
Rp10603
(dp10604
g17
VNN
p10605
sbatp10606
Rp10607
(dp10608
g17
VNP
p10609
sbatp10610
Rp10611
(dp10612
g17
VPP
p10613
sbatp10614
Rp10615
(dp10616
g17
VNP
p10617
sbag5
(g6
g7
(lp10618
g5
(g6
g7
(lp10619
Vmay
p10620
atp10621
Rp10622
(dp10623
g17
VMD
p10624
sbag5
(g6
g7
(lp10625
g5
(g6
g7
(lp10626
Vdepend
p10627
atp10628
Rp10629
(dp10630
g17
VVB
p10631
sbag5
(g6
g7
(lp10632
g5
(g6
g7
(lp10633
Von
p10634
atp10635
Rp10636
(dp10637
g17
VIN
p10638
sbag5
(g6
g7
(lp10639
g5
(g6
g7
(lp10640
g5
(g6
g7
(lp10641
Vsome
p10642
atp10643
Rp10644
(dp10645
g17
VDT
p10646
sbag5
(g6
g7
(lp10647
Vvariables
p10648
atp10649
Rp10650
(dp10651
g17
VNNS
p10652
sbatp10653
Rp10654
(dp10655
g17
VNP
p10656
sbag5
(g6
g7
(lp10657
g5
(g6
g7
(lp10658
g5
(g6
g7
(lp10659
Valready
p10660
atp10661
Rp10662
(dp10663
g17
VRB
p10664
sbatp10665
Rp10666
(dp10667
g17
VADVP
p10668
sbag5
(g6
g7
(lp10669
Vhaving
p10670
atp10671
Rp10672
(dp10673
g17
VVBG
p10674
sbag5
(g6
g7
(lp10675
g5
(g6
g7
(lp10676
Vvalues
p10677
atp10678
Rp10679
(dp10680
g17
VNNS
p10681
sbatp10682
Rp10683
(dp10684
g17
VNP
p10685
sbatp10686
Rp10687
(dp10688
g17
VVP
p10689
sbatp10690
Rp10691
(dp10692
g17
VNP
p10693
sbatp10694
Rp10695
(dp10696
g17
VPP
p10697
sbatp10698
Rp10699
(dp10700
g17
VVP
p10701
sbatp10702
Rp10703
(dp10704
g17
VVP
p10705
sbatp10706
Rp10707
(dp10708
g17
g101
sbatp10709
Rp10710
(dp10711
g17
VSBAR
p10712
sbag5
(g6
g7
(lp10713
g110
atp10714
Rp10715
(dp10716
g17
g110
sbag5
(g6
g7
(lp10717
g5
(g6
g7
(lp10718
Vadditional
p10719
atp10720
Rp10721
(dp10722
g17
VJJ
p10723
sbag5
(g6
g7
(lp10724
Vpostponements
p10725
atp10726
Rp10727
(dp10728
g17
VNNS
p10729
sbatp10730
Rp10731
(dp10732
g17
VNP
p10733
sbag5
(g6
g7
(lp10734
g5
(g6
g7
(lp10735
Vcan
p10736
atp10737
Rp10738
(dp10739
g17
VMD
p10740
sbag5
(g6
g7
(lp10741
g5
(g6
g7
(lp10742
Vbe
p10743
atp10744
Rp10745
(dp10746
g17
VVB
p10747
sbag5
(g6
g7
(lp10748
g5
(g6
g7
(lp10749
Vaccomplished
p10750
atp10751
Rp10752
(dp10753
g17
VVBN
p10754
sbag5
(g6
g7
(lp10755
g5
(g6
g7
(lp10756
Vby
p10757
atp10758
Rp10759
(dp10760
g17
VIN
p10761
sbag5
(g6
g7
(lp10762
g5
(g6
g7
(lp10763
g214
atp10764
Rp10765
(dp10766
g17
VDT
p10767
sbag5
(g6
g7
(lp10768
Vsuitable
p10769
atp10770
Rp10771
(dp10772
g17
VJJ
p10773
sbag5
(g6
g7
(lp10774
Vinterpreter
p10775
atp10776
Rp10777
(dp10778
g17
VNN
p10779
sbatp10780
Rp10781
(dp10782
g17
VNP
p10783
sbatp10784
Rp10785
(dp10786
g17
VPP
p10787
sbatp10788
Rp10789
(dp10790
g17
VVP
p10791
sbatp10792
Rp10793
(dp10794
g17
VVP
p10795
sbatp10796
Rp10797
(dp10798
g17
VVP
p10799
sbag5
(g6
g7
(lp10800
g352
atp10801
Rp10802
(dp10803
g17
g352
sbatp10804
Rp10805
(dp10806
g17
g101
sbatp10807
Rp10808
(dp10809
g17
VROOT
p10810
sbasg363
(icmyPackage
CorE
p10811
(dp10812
g366
(lp10813
(I0
I1
tp10814
a(I0
I12
tp10815
asg370
g10707
sbsg371
(icmyPackage
CorE
p10816
(dp10817
g366
(lp10818
(I0
I14
tp10819
a(I0
I23
tp10820
asg370
g5
(g6
g7
(lp10821
g10731
ag10797
ag10802
atp10822
Rp10823
(dp10824
g17
g381
sbsbsg382
(icmyPackage
pattern
p10825
(dp10826
g385
I15
sg386
I0
sg387
(lp10827
(lp10828
S'since'
p10829
aa(lp10830
g1471
aasg391
(lp10831
I3
aI1
aI1
asg393
(lp10832
S'But, since the herpes virus does not always show its symptoms, prevention is not fool proof.'
p10833
asg396
I78
sg397
(lp10834
(lp10835
a(lp10836
S'&C@NCTime@'
p10837
aa(lp10838
S'&R@NCTime@'
p10839
aasbsg403
(lp10840
(icmyPackage
Sent
p10841
(dp10842
g407
I5
sg408
I34
sg409
S'Since some cases of postponability may depend on some variables already having values, additional postponements can be accomplished by a suitable interpreter.'
p10843
sg411
I0
sg412
I91
sg370
(lp10844
g10808
asbasba(icmyPackage
CELink
p10845
(dp10846
g3
(lp10847
g5
(g6
g7
(lp10848
g5
(g6
g7
(lp10849
g5
(g6
g7
(lp10850
g5
(g6
g7
(lp10851
VSince
p10852
atp10853
Rp10854
(dp10855
g17
VIN
p10856
sbag5
(g6
g7
(lp10857
g5
(g6
g7
(lp10858
g5
(g6
g7
(lp10859
g5
(g6
g7
(lp10860
Vmost
p10861
atp10862
Rp10863
(dp10864
g17
VJJS
p10865
sbag5
(g6
g7
(lp10866
Vvariables
p10867
atp10868
Rp10869
(dp10870
g17
VNNS
p10871
sbatp10872
Rp10873
(dp10874
g17
VNP
p10875
sbag5
(g6
g7
(lp10876
g5
(g6
g7
(lp10877
Vin
p10878
atp10879
Rp10880
(dp10881
g17
VIN
p10882
sbag5
(g6
g7
(lp10883
g5
(g6
g7
(lp10884
Vmost
p10885
atp10886
Rp10887
(dp10888
g17
VJJS
p10889
sbag5
(g6
g7
(lp10890
Vprograms
p10891
atp10892
Rp10893
(dp10894
g17
VNNS
p10895
sbatp10896
Rp10897
(dp10898
g17
VNP
p10899
sbatp10900
Rp10901
(dp10902
g17
VPP
p10903
sbatp10904
Rp10905
(dp10906
g17
VNP
p10907
sbag5
(g6
g7
(lp10908
g5
(g6
g7
(lp10909
Vare
p10910
atp10911
Rp10912
(dp10913
g17
VVBP
p10914
sbag5
(g6
g7
(lp10915
Vnot
p10916
atp10917
Rp10918
(dp10919
g17
VRB
p10920
sbag5
(g6
g7
(lp10921
g5
(g6
g7
(lp10922
Vpostponable
p10923
atp10924
Rp10925
(dp10926
g17
VJJ
p10927
sbatp10928
Rp10929
(dp10930
g17
VADJP
p10931
sbatp10932
Rp10933
(dp10934
g17
VVP
p10935
sbatp10936
Rp10937
(dp10938
g17
g101
sbatp10939
Rp10940
(dp10941
g17
VSBAR
p10942
sbag5
(g6
g7
(lp10943
g110
atp10944
Rp10945
(dp10946
g17
g110
sbag5
(g6
g7
(lp10947
g5
(g6
g7
(lp10948
Vit
p10949
atp10950
Rp10951
(dp10952
g17
VPRP
p10953
sbatp10954
Rp10955
(dp10956
g17
VNP
p10957
sbag5
(g6
g7
(lp10958
g5
(g6
g7
(lp10959
Vseems
p10960
atp10961
Rp10962
(dp10963
g17
VVBZ
p10964
sbag5
(g6
g7
(lp10965
g5
(g6
g7
(lp10966
Vwasteful
p10967
atp10968
Rp10969
(dp10970
g17
VJJ
p10971
sbag5
(g6
g7
(lp10972
g5
(g6
g7
(lp10973
g5
(g6
g7
(lp10974
Vto
p10975
atp10976
Rp10977
(dp10978
g17
VTO
p10979
sbag5
(g6
g7
(lp10980
g5
(g6
g7
(lp10981
Vhave
p10982
atp10983
Rp10984
(dp10985
g17
VVB
p10986
sbag5
(g6
g7
(lp10987
g5
(g6
g7
(lp10988
g5
(g6
g7
(lp10989
Vthe
p10990
atp10991
Rp10992
(dp10993
g17
VDT
p10994
sbag5
(g6
g7
(lp10995
Vinterpreter
p10996
atp10997
Rp10998
(dp10999
g17
VNN
p11000
sbatp11001
Rp11002
(dp11003
g17
VNP
p11004
sbag5
(g6
g7
(lp11005
g5
(g6
g7
(lp11006
g5
(g6
g7
(lp11007
Valways
p11008
atp11009
Rp11010
(dp11011
g17
VRB
p11012
sbatp11013
Rp11014
(dp11015
g17
VADVP
p11016
sbag5
(g6
g7
(lp11017
Vtry
p11018
atp11019
Rp11020
(dp11021
g17
VVB
p11022
sbag5
(g6
g7
(lp11023
g5
(g6
g7
(lp11024
Vfor
p11025
atp11026
Rp11027
(dp11028
g17
VIN
p11029
sbag5
(g6
g7
(lp11030
g5
(g6
g7
(lp11031
Vpostponement
p11032
atp11033
Rp11034
(dp11035
g17
VNN
p11036
sbatp11037
Rp11038
(dp11039
g17
VNP
p11040
sbatp11041
Rp11042
(dp11043
g17
VPP
p11044
sbatp11045
Rp11046
(dp11047
g17
VVP
p11048
sbatp11049
Rp11050
(dp11051
g17
g101
sbatp11052
Rp11053
(dp11054
g17
VVP
p11055
sbatp11056
Rp11057
(dp11058
g17
VVP
p11059
sbatp11060
Rp11061
(dp11062
g17
g101
sbatp11063
Rp11064
(dp11065
g17
VADJP
p11066
sbatp11067
Rp11068
(dp11069
g17
VVP
p11070
sbag5
(g6
g7
(lp11071
g352
atp11072
Rp11073
(dp11074
g17
g352
sbatp11075
Rp11076
(dp11077
g17
g101
sbatp11078
Rp11079
(dp11080
g17
VROOT
p11081
sbasg363
(icmyPackage
CorE
p11082
(dp11083
g366
(lp11084
(I0
I1
tp11085
a(I0
I8
tp11086
asg370
g10937
sbsg371
(icmyPackage
CorE
p11087
(dp11088
g366
(lp11089
(I0
I10
tp11090
a(I0
I21
tp11091
asg370
g5
(g6
g7
(lp11092
g10955
ag11068
ag11073
atp11093
Rp11094
(dp11095
g17
g381
sbsbsg382
g10825
sg403
(lp11096
(icmyPackage
Sent
p11097
(dp11098
g407
I5
sg408
I34
sg409
S'Since most variables in most programs are not postponable, it seems wasteful to have the interpreter always try for postponement.'
p11099
sg411
I0
sg412
I92
sg370
(lp11100
g11079
asbasba(icmyPackage
CELink
p11101
(dp11102
g3
(lp11103
g11079
ag5
(g6
g7
(lp11104
g5
(g6
g7
(lp11105
g5
(g6
g7
(lp11106
g5
(g6
g7
(lp11107
VTherefore
p11108
atp11109
Rp11110
(dp11111
g17
VRB
p11112
sbatp11113
Rp11114
(dp11115
g17
VADVP
p11116
sbag5
(g6
g7
(lp11117
g110
atp11118
Rp11119
(dp11120
g17
g110
sbag5
(g6
g7
(lp11121
g5
(g6
g7
(lp11122
Vit
p11123
atp11124
Rp11125
(dp11126
g17
VPRP
p11127
sbatp11128
Rp11129
(dp11130
g17
VNP
p11131
sbag5
(g6
g7
(lp11132
g5
(g6
g7
(lp11133
Vis
p11134
atp11135
Rp11136
(dp11137
g17
VVBZ
p11138
sbag5
(g6
g7
(lp11139
g5
(g6
g7
(lp11140
Valso
p11141
atp11142
Rp11143
(dp11144
g17
VRB
p11145
sbatp11146
Rp11147
(dp11148
g17
VADVP
p11149
sbag5
(g6
g7
(lp11150
g5
(g6
g7
(lp11151
Vpossible
p11152
atp11153
Rp11154
(dp11155
g17
VJJ
p11156
sbag5
(g6
g7
(lp11157
g5
(g6
g7
(lp11158
Vfor
p11159
atp11160
Rp11161
(dp11162
g17
VIN
p11163
sbag5
(g6
g7
(lp11164
g5
(g6
g7
(lp11165
Vthe
p11166
atp11167
Rp11168
(dp11169
g17
VDT
p11170
sbag5
(g6
g7
(lp11171
Vuser
p11172
atp11173
Rp11174
(dp11175
g17
VNN
p11176
sbatp11177
Rp11178
(dp11179
g17
VNP
p11180
sbatp11181
Rp11182
(dp11183
g17
VPP
p11184
sbatp11185
Rp11186
(dp11187
g17
VADJP
p11188
sbag5
(g6
g7
(lp11189
g5
(g6
g7
(lp11190
g5
(g6
g7
(lp11191
Vto
p11192
atp11193
Rp11194
(dp11195
g17
VTO
p11196
sbag5
(g6
g7
(lp11197
g5
(g6
g7
(lp11198
Vspecify
p11199
atp11200
Rp11201
(dp11202
g17
VVB
p11203
sbag5
(g6
g7
(lp11204
g5
(g6
g7
(lp11205
Vthat
p11206
atp11207
Rp11208
(dp11209
g17
VIN
p11210
sbag5
(g6
g7
(lp11211
g5
(g6
g7
(lp11212
g5
(g6
g7
(lp11213
Vthe
p11214
atp11215
Rp11216
(dp11217
g17
VDT
p11218
sbag5
(g6
g7
(lp11219
Vcompiler
p11220
atp11221
Rp11222
(dp11223
g17
VNN
p11224
sbatp11225
Rp11226
(dp11227
g17
VNP
p11228
sbag5
(g6
g7
(lp11229
g5
(g6
g7
(lp11230
Vand/or
p11231
atp11232
Rp11233
(dp11234
g17
VVBD
p11235
sbag5
(g6
g7
(lp11236
g5
(g6
g7
(lp11237
g5
(g6
g7
(lp11238
Vrun-time
p11239
atp11240
Rp11241
(dp11242
g17
VJJ
p11243
sbag5
(g6
g7
(lp11244
Vsystem
p11245
atp11246
Rp11247
(dp11248
g17
VNN
p11249
sbag5
(g6
g7
(lp11250
Vlook
p11251
atp11252
Rp11253
(dp11254
g17
VNN
p11255
sbatp11256
Rp11257
(dp11258
g17
VNP
p11259
sbag5
(g6
g7
(lp11260
g5
(g6
g7
(lp11261
Vfor
p11262
atp11263
Rp11264
(dp11265
g17
VIN
p11266
sbag5
(g6
g7
(lp11267
g5
(g6
g7
(lp11268
Vpostponable
p11269
atp11270
Rp11271
(dp11272
g17
VJJ
p11273
sbag5
(g6
g7
(lp11274
Vvariables
p11275
atp11276
Rp11277
(dp11278
g17
VNNS
p11279
sbatp11280
Rp11281
(dp11282
g17
VNP
p11283
sbatp11284
Rp11285
(dp11286
g17
VPP
p11287
sbatp11288
Rp11289
(dp11290
g17
VNP
p11291
sbag5
(g6
g7
(lp11292
g110
atp11293
Rp11294
(dp11295
g17
g110
sbag5
(g6
g7
(lp11296
g5
(g6
g7
(lp11297
Vperhaps
p11298
atp11299
Rp11300
(dp11301
g17
VRB
p11302
sbag5
(g6
g7
(lp11303
Vby
p11304
atp11305
Rp11306
(dp11307
g17
VIN
p11308
sbag5
(g6
g7
(lp11309
g5
(g6
g7
(lp11310
g5
(g6
g7
(lp11311
Venclosing
p11312
atp11313
Rp11314
(dp11315
g17
VVBG
p11316
sbag5
(g6
g7
(lp11317
g5
(g6
g7
(lp11318
g5
(g6
g7
(lp11319
Vthe
p11320
atp11321
Rp11322
(dp11323
g17
VDT
p11324
sbag5
(g6
g7
(lp11325
Vclause
p11326
atp11327
Rp11328
(dp11329
g17
VNN
p11330
sbag5
(g6
g7
(lp11331
Vor
p11332
atp11333
Rp11334
(dp11335
g17
VCC
p11336
sbag5
(g6
g7
(lp11337
Vpart
p11338
atp11339
Rp11340
(dp11341
g17
VNN
p11342
sbatp11343
Rp11344
(dp11345
g17
VNP
p11346
sbag5
(g6
g7
(lp11347
g5
(g6
g7
(lp11348
Vof
p11349
atp11350
Rp11351
(dp11352
g17
VIN
p11353
sbag5
(g6
g7
(lp11354
g5
(g6
g7
(lp11355
Vit
p11356
atp11357
Rp11358
(dp11359
g17
VPRP
p11360
sbatp11361
Rp11362
(dp11363
g17
VNP
p11364
sbatp11365
Rp11366
(dp11367
g17
VPP
p11368
sbatp11369
Rp11370
(dp11371
g17
VNP
p11372
sbag5
(g6
g7
(lp11373
g5
(g6
g7
(lp11374
Vwithin
p11375
atp11376
Rp11377
(dp11378
g17
VIN
p11379
sbag5
(g6
g7
(lp11380
g5
(g6
g7
(lp11381
g5
(g6
g7
(lp11382
Vwhich
p11383
atp11384
Rp11385
(dp11386
g17
VWDT
p11387
sbatp11388
Rp11389
(dp11390
g17
VWHNP
p11391
sbag5
(g6
g7
(lp11392
g5
(g6
g7
(lp11393
g5
(g6
g7
(lp11394
Vpostponable
p11395
atp11396
Rp11397
(dp11398
g17
VJJ
p11399
sbag5
(g6
g7
(lp11400
Vvariables
p11401
atp11402
Rp11403
(dp11404
g17
VNNS
p11405
sbatp11406
Rp11407
(dp11408
g17
VNP
p11409
sbag5
(g6
g7
(lp11410
g5
(g6
g7
(lp11411
Vmay
p11412
atp11413
Rp11414
(dp11415
g17
VMD
p11416
sbag5
(g6
g7
(lp11417
g5
(g6
g7
(lp11418
Vbe
p11419
atp11420
Rp11421
(dp11422
g17
VVB
p11423
sbag5
(g6
g7
(lp11424
g5
(g6
g7
(lp11425
Vexpected
p11426
atp11427
Rp11428
(dp11429
g17
VVBN
p11430
sbag5
(g6
g7
(lp11431
g5
(g6
g7
(lp11432
Vwithin
p11433
atp11434
Rp11435
(dp11436
g17
VIN
p11437
sbag5
(g6
g7
(lp11438
g5
(g6
g7
(lp11439
g214
atp11440
Rp11441
(dp11442
g17
VDT
p11443
sbag5
(g6
g7
(lp11444
Vmacro
p11445
atp11446
Rp11447
(dp11448
g17
VNN
p11449
sbatp11450
Rp11451
(dp11452
g17
VNP
p11453
sbatp11454
Rp11455
(dp11456
g17
VPP
p11457
sbatp11458
Rp11459
(dp11460
g17
VVP
p11461
sbatp11462
Rp11463
(dp11464
g17
VVP
p11465
sbatp11466
Rp11467
(dp11468
g17
VVP
p11469
sbatp11470
Rp11471
(dp11472
g17
g101
sbatp11473
Rp11474
(dp11475
g17
VSBAR
p11476
sbatp11477
Rp11478
(dp11479
g17
VPP
p11480
sbatp11481
Rp11482
(dp11483
g17
VVP
p11484
sbatp11485
Rp11486
(dp11487
g17
g101
sbatp11488
Rp11489
(dp11490
g17
VPP
p11491
sbatp11492
Rp11493
(dp11494
g17
VVP
p11495
sbatp11496
Rp11497
(dp11498
g17
g101
sbatp11499
Rp11500
(dp11501
g17
VSBAR
p11502
sbatp11503
Rp11504
(dp11505
g17
VVP
p11506
sbatp11507
Rp11508
(dp11509
g17
VVP
p11510
sbatp11511
Rp11512
(dp11513
g17
g101
sbatp11514
Rp11515
(dp11516
g17
VVP
p11517
sbag5
(g6
g7
(lp11518
g352
atp11519
Rp11520
(dp11521
g17
g352
sbatp11522
Rp11523
(dp11524
g17
g101
sbatp11525
Rp11526
(dp11527
g17
VROOT
p11528
sbasg363
(icmyPackage
CorE
p11529
(dp11530
g366
(lp11531
(I0
I0
tp11532
a(I0
I20
tp11533
asg370
g5
(g6
g7
(lp11534
g10940
ag10945
ag10955
ag11068
atp11535
Rp11536
(dp11537
g17
g381
sbsbsg371
(icmyPackage
CorE
p11538
(dp11539
g366
(lp11540
(I1
I2
tp11541
a(I1
I41
tp11542
asg370
g5
(g6
g7
(lp11543
g11129
ag11515
ag11520
atp11544
Rp11545
(dp11546
g17
g381
sbsbsg382
g4304
sg403
(lp11547
g11097
a(icmyPackage
Sent
p11548
(dp11549
g407
I5
sg408
I34
sg409
S'Therefore, it is also possible for the user to specify that the compiler and/or run-time system look for postponable variables, perhaps by enclosing the clause or part of it within which postponable variables may be expected within a macro.'
p11550
sg411
I0
sg412
I93
sg370
(lp11551
g11526
asbasba(icmyPackage
CELink
p11552
(dp11553
g3
(lp11554
g11526
ag5
(g6
g7
(lp11555
g5
(g6
g7
(lp11556
g5
(g6
g7
(lp11557
g5
(g6
g7
(lp11558
VThus
p11559
atp11560
Rp11561
(dp11562
g17
VRB
p11563
sbatp11564
Rp11565
(dp11566
g17
VADVP
p11567
sbag5
(g6
g7
(lp11568
g5
(g6
g7
(lp11569
Vthe
p11570
atp11571
Rp11572
(dp11573
g17
VDT
p11574
sbag5
(g6
g7
(lp11575
Vabove
p11576
atp11577
Rp11578
(dp11579
g17
VJJ
p11580
sbag5
(g6
g7
(lp11581
Vprogram
p11582
atp11583
Rp11584
(dp11585
g17
VNN
p11586
sbatp11587
Rp11588
(dp11589
g17
VNP
p11590
sbag5
(g6
g7
(lp11591
g5
(g6
g7
(lp11592
Vmight
p11593
atp11594
Rp11595
(dp11596
g17
VMD
p11597
sbag5
(g6
g7
(lp11598
g5
(g6
g7
(lp11599
Vbe
p11600
atp11601
Rp11602
(dp11603
g17
VVB
p11604
sbag5
(g6
g7
(lp11605
g5
(g6
g7
(lp11606
Vwritten
p11607
atp11608
Rp11609
(dp11610
g17
VVBN
p11611
sbag5
(g6
g7
(lp11612
g5
(g6
g7
(lp11613
g5
(g6
g7
(lp11614
Vgoal
p11615
atp11616
Rp11617
(dp11618
g17
VNN
p11619
sbatp11620
Rp11621
(dp11622
g17
VNP
p11623
sbag5
(g6
g7
(lp11624
g5
(g6
g7
(lp11625
V-LRB-
p11626
atp11627
Rp11628
(dp11629
g17
V-LRB-
p11630
sbag5
(g6
g7
(lp11631
g5
(g6
g7
(lp11632
g5
(g6
g7
(lp11633
g5
(g6
g7
(lp11634
VR1
p11635
atp11636
Rp11637
(dp11638
g17
VNNP
p11639
sbag5
(g6
g7
(lp11640
g110
atp11641
Rp11642
(dp11643
g17
g110
sbag5
(g6
g7
(lp11644
VR2
p11645
atp11646
Rp11647
(dp11648
g17
VNNP
p11649
sbag5
(g6
g7
(lp11650
g110
atp11651
Rp11652
(dp11653
g17
g110
sbag5
(g6
g7
(lp11654
VR3
p11655
atp11656
Rp11657
(dp11658
g17
VNNP
p11659
sbag5
(g6
g7
(lp11660
g110
atp11661
Rp11662
(dp11663
g17
g110
sbag5
(g6
g7
(lp11664
VR4
p11665
atp11666
Rp11667
(dp11668
g17
VNNP
p11669
sbag5
(g6
g7
(lp11670
g110
atp11671
Rp11672
(dp11673
g17
g110
sbag5
(g6
g7
(lp11674
VR5
p11675
atp11676
Rp11677
(dp11678
g17
VNNP
p11679
sbag5
(g6
g7
(lp11680
g110
atp11681
Rp11682
(dp11683
g17
g110
sbag5
(g6
g7
(lp11684
VR6
p11685
atp11686
Rp11687
(dp11688
g17
VNNP
p11689
sbag5
(g6
g7
(lp11690
V-RRB-
p11691
atp11692
Rp11693
(dp11694
g17
V-RRB-
p11695
sbag5
(g6
g7
(lp11696
Vpostpone
p11697
atp11698
Rp11699
(dp11700
g17
VNNP
p11701
sbatp11702
Rp11703
(dp11704
g17
VNP
p11705
sbag5
(g6
g7
(lp11706
V-LRB-
p11707
atp11708
Rp11709
(dp11710
g17
V-LRB-
p11711
sbag5
(g6
g7
(lp11712
g5
(g6
g7
(lp11713
g5
(g6
g7
(lp11714
Vnext
p11715
atp11716
Rp11717
(dp11718
g17
VJJ
p11719
sbatp11720
Rp11721
(dp11722
g17
VNP
p11723
sbag5
(g6
g7
(lp11724
g5
(g6
g7
(lp11725
V-LRB-
p11726
atp11727
Rp11728
(dp11729
g17
V-LRB-
p11730
sbag5
(g6
g7
(lp11731
g5
(g6
g7
(lp11732
VR1
p11733
atp11734
Rp11735
(dp11736
g17
VNNP
p11737
sbatp11738
Rp11739
(dp11740
g17
VNP
p11741
sbag5
(g6
g7
(lp11742
g110
atp11743
Rp11744
(dp11745
g17
g110
sbag5
(g6
g7
(lp11746
g5
(g6
g7
(lp11747
VR2
p11748
atp11749
Rp11750
(dp11751
g17
VNNP
p11752
sbatp11753
Rp11754
(dp11755
g17
VNP
p11756
sbag5
(g6
g7
(lp11757
V-RRB-
p11758
atp11759
Rp11760
(dp11761
g17
V-RRB-
p11762
sbatp11763
Rp11764
(dp11765
g17
VPRN
p11766
sbag5
(g6
g7
(lp11767
g110
atp11768
Rp11769
(dp11770
g17
g110
sbag5
(g6
g7
(lp11771
g5
(g6
g7
(lp11772
g5
(g6
g7
(lp11773
Vnext
p11774
atp11775
Rp11776
(dp11777
g17
VJJ
p11778
sbatp11779
Rp11780
(dp11781
g17
VNP
p11782
sbag5
(g6
g7
(lp11783
g5
(g6
g7
(lp11784
V-LRB-
p11785
atp11786
Rp11787
(dp11788
g17
V-LRB-
p11789
sbag5
(g6
g7
(lp11790
g5
(g6
g7
(lp11791
VR1
p11792
atp11793
Rp11794
(dp11795
g17
VNNP
p11796
sbatp11797
Rp11798
(dp11799
g17
VNP
p11800
sbag5
(g6
g7
(lp11801
g110
atp11802
Rp11803
(dp11804
g17
g110
sbag5
(g6
g7
(lp11805
g5
(g6
g7
(lp11806
VR3
p11807
atp11808
Rp11809
(dp11810
g17
VNNP
p11811
sbatp11812
Rp11813
(dp11814
g17
VNP
p11815
sbag5
(g6
g7
(lp11816
V-RRB-
p11817
atp11818
Rp11819
(dp11820
g17
V-RRB-
p11821
sbatp11822
Rp11823
(dp11824
g17
VPRN
p11825
sbag5
(g6
g7
(lp11826
g110
atp11827
Rp11828
(dp11829
g17
g110
sbatp11830
Rp11831
(dp11832
g17
VNP
p11833
sbatp11834
Rp11835
(dp11836
g17
VNP
p11837
sbag5
(g6
g7
(lp11838
V...
p11839
atp11840
Rp11841
(dp11842
g17
g9218
sbatp11843
Rp11844
(dp11845
g17
VNP
p11846
sbag5
(g6
g7
(lp11847
g110
atp11848
Rp11849
(dp11850
g17
g110
sbag5
(g6
g7
(lp11851
g5
(g6
g7
(lp11852
Vetc.
p11853
atp11854
Rp11855
(dp11856
g17
VFW
p11857
sbatp11858
Rp11859
(dp11860
g17
VNP
p11861
sbatp11862
Rp11863
(dp11864
g17
VNP
p11865
sbag5
(g6
g7
(lp11866
V-RRB-
p11867
atp11868
Rp11869
(dp11870
g17
V-RRB-
p11871
sbatp11872
Rp11873
(dp11874
g17
VPRN
p11875
sbatp11876
Rp11877
(dp11878
g17
VNP
p11879
sbatp11880
Rp11881
(dp11882
g17
VVP
p11883
sbatp11884
Rp11885
(dp11886
g17
VVP
p11887
sbatp11888
Rp11889
(dp11890
g17
VVP
p11891
sbag5
(g6
g7
(lp11892
g352
atp11893
Rp11894
(dp11895
g17
g352
sbatp11896
Rp11897
(dp11898
g17
g101
sbatp11899
Rp11900
(dp11901
g17
VROOT
p11902
sbasg363
(icmyPackage
CorE
p11903
(dp11904
g366
(lp11905
(I0
I0
tp11906
a(I0
I40
tp11907
asg370
g5
(g6
g7
(lp11908
g11114
ag11119
ag11129
ag11515
atp11909
Rp11910
(dp11911
g17
g381
sbsbsg371
(icmyPackage
CorE
p11912
(dp11913
g366
(lp11914
(I1
I1
tp11915
a(I1
I41
tp11916
asg370
g5
(g6
g7
(lp11917
g11588
ag11889
ag11894
atp11918
Rp11919
(dp11920
g17
g381
sbsbsg382
g4627
sg403
(lp11921
g11548
a(icmyPackage
Sent
p11922
(dp11923
g407
I5
sg408
I34
sg409
S'Thus the above program might be written goal(R1,R2,R3,R4,R5,R6) postpone(next(R1,R2),next(R1,R3),...,etc.).'
p11924
sg411
I0
sg412
I94
sg370
(lp11925
g11900
asbasba(icmyPackage
CELink
p11926
(dp11927
g3
(lp11928
g5
(g6
g7
(lp11929
g5
(g6
g7
(lp11930
g5
(g6
g7
(lp11931
g5
(g6
g7
(lp11932
g5
(g6
g7
(lp11933
VAlain
p11934
atp11935
Rp11936
(dp11937
g17
VNNP
p11938
sbag5
(g6
g7
(lp11939
VColmerauer
p11940
atp11941
Rp11942
(dp11943
g17
VNNP
p11944
sbatp11945
Rp11946
(dp11947
g17
VNP
p11948
sbag5
(g6
g7
(lp11949
g5
(g6
g7
(lp11950
V-LRB-
p11951
atp11952
Rp11953
(dp11954
g17
V-LRB-
p11955
sbag5
(g6
g7
(lp11956
g5
(g6
g7
(lp11957
V1981
p11958
atp11959
Rp11960
(dp11961
g17
VCD
p11962
sbatp11963
Rp11964
(dp11965
g17
VNP
p11966
sbag5
(g6
g7
(lp11967
V-RRB-
p11968
atp11969
Rp11970
(dp11971
g17
V-RRB-
p11972
sbatp11973
Rp11974
(dp11975
g17
VPRN
p11976
sbatp11977
Rp11978
(dp11979
g17
VNP
p11980
sbag5
(g6
g7
(lp11981
g5
(g6
g7
(lp11982
Vwrote
p11983
atp11984
Rp11985
(dp11986
g17
VVBD
p11987
sbag5
(g6
g7
(lp11988
g5
(g6
g7
(lp11989
Vsuch
p11990
atp11991
Rp11992
(dp11993
g17
VPDT
p11994
sbag5
(g6
g7
(lp11995
g214
atp11996
Rp11997
(dp11998
g17
VDT
p11999
sbag5
(g6
g7
(lp12000
Vprogram
p12001
atp12002
Rp12003
(dp12004
g17
VNN
p12005
sbatp12006
Rp12007
(dp12008
g17
VNP
p12009
sbag5
(g6
g7
(lp12010
g5
(g6
g7
(lp12011
Vfor
p12012
atp12013
Rp12014
(dp12015
g17
VIN
p12016
sbag5
(g6
g7
(lp12017
g5
(g6
g7
(lp12018
g5
(g6
g7
(lp12019
Vrewriting
p12020
atp12021
Rp12022
(dp12023
g17
VVBG
p12024
sbag5
(g6
g7
(lp12025
g5
(g6
g7
(lp12026
Vthe
p12027
atp12028
Rp12029
(dp12030
g17
VDT
p12031
sbag5
(g6
g7
(lp12032
VPereira-Porto
p12033
atp12034
Rp12035
(dp12036
g17
VJJ
p12037
sbag5
(g6
g7
(lp12038
Vcoloring
p12039
atp12040
Rp12041
(dp12042
g17
VNN
p12043
sbag5
(g6
g7
(lp12044
Vprogram
p12045
atp12046
Rp12047
(dp12048
g17
VNN
p12049
sbatp12050
Rp12051
(dp12052
g17
VNP
p12053
sbatp12054
Rp12055
(dp12056
g17
VVP
p12057
sbatp12058
Rp12059
(dp12060
g17
g101
sbatp12061
Rp12062
(dp12063
g17
VPP
p12064
sbatp12065
Rp12066
(dp12067
g17
VVP
p12068
sbag5
(g6
g7
(lp12069
g352
atp12070
Rp12071
(dp12072
g17
g352
sbatp12073
Rp12074
(dp12075
g17
g101
sbatp12076
Rp12077
(dp12078
g17
VROOT
p12079
sbasg363
(icmyPackage
CorE
p12080
(dp12081
g366
(lp12082
(I0
I10
tp12083
a(I0
I14
tp12084
asg370
g12059
sbsg371
(icmyPackage
CorE
p12085
(dp12086
g366
(lp12087
(I0
I0
tp12088
a(I0
I8
tp12089
asg370
g5
(g6
g7
(lp12090
g11978
ag11985
ag12007
atp12091
Rp12092
(dp12093
g17
g381
sbsbsg382
g383
sg403
(lp12094
(icmyPackage
Sent
p12095
(dp12096
g407
I5
sg408
I34
sg409
S'Alain Colmerauer (1981) wrote such a program for rewriting the Pereira-Porto coloring program.'
p12097
sg411
I0
sg412
I96
sg370
(lp12098
g12077
asbasba(icmyPackage
CELink
p12099
(dp12100
g3
(lp12101
g5
(g6
g7
(lp12102
g5
(g6
g7
(lp12103
g5
(g6
g7
(lp12104
g5
(g6
g7
(lp12105
VIf
p12106
atp12107
Rp12108
(dp12109
g17
VIN
p12110
sbag5
(g6
g7
(lp12111
g5
(g6
g7
(lp12112
g5
(g6
g7
(lp12113
Vthe
p12114
atp12115
Rp12116
(dp12117
g17
VDT
p12118
sbag5
(g6
g7
(lp12119
Vprogrammer
p12120
atp12121
Rp12122
(dp12123
g17
VNN
p12124
sbatp12125
Rp12126
(dp12127
g17
VNP
p12128
sbag5
(g6
g7
(lp12129
g5
(g6
g7
(lp12130
Vcan
p12131
atp12132
Rp12133
(dp12134
g17
VMD
p12135
sbag5
(g6
g7
(lp12136
g5
(g6
g7
(lp12137
Varbitrarily
p12138
atp12139
Rp12140
(dp12141
g17
VRB
p12142
sbatp12143
Rp12144
(dp12145
g17
VADVP
p12146
sbag5
(g6
g7
(lp12147
g5
(g6
g7
(lp12148
Vrewrite
p12149
atp12150
Rp12151
(dp12152
g17
VVB
p12153
sbag5
(g6
g7
(lp12154
g5
(g6
g7
(lp12155
Vthe
p12156
atp12157
Rp12158
(dp12159
g17
VDT
p12160
sbag5
(g6
g7
(lp12161
Vprogram
p12162
atp12163
Rp12164
(dp12165
g17
VNN
p12166
sbatp12167
Rp12168
(dp12169
g17
VNP
p12170
sbatp12171
Rp12172
(dp12173
g17
VVP
p12174
sbatp12175
Rp12176
(dp12177
g17
VVP
p12178
sbatp12179
Rp12180
(dp12181
g17
g101
sbatp12182
Rp12183
(dp12184
g17
VSBAR
p12185
sbag5
(g6
g7
(lp12186
g110
atp12187
Rp12188
(dp12189
g17
g110
sbag5
(g6
g7
(lp12190
g5
(g6
g7
(lp12191
Vhe
p12192
atp12193
Rp12194
(dp12195
g17
VPRP
p12196
sbatp12197
Rp12198
(dp12199
g17
VNP
p12200
sbag5
(g6
g7
(lp12201
g5
(g6
g7
(lp12202
Vmay
p12203
atp12204
Rp12205
(dp12206
g17
VMD
p12207
sbag5
(g6
g7
(lp12208
g5
(g6
g7
(lp12209
Vchange
p12210
atp12211
Rp12212
(dp12213
g17
VVB
p12214
sbag5
(g6
g7
(lp12215
g5
(g6
g7
(lp12216
g5
(g6
g7
(lp12217
Vthe
p12218
atp12219
Rp12220
(dp12221
g17
VDT
p12222
sbag5
(g6
g7
(lp12223
Vlogic
p12224
atp12225
Rp12226
(dp12227
g17
VNN
p12228
sbatp12229
Rp12230
(dp12231
g17
VNP
p12232
sbag5
(g6
g7
(lp12233
g5
(g6
g7
(lp12234
Vas
p12235
atp12236
Rp12237
(dp12238
g17
VRB
p12239
sbag5
(g6
g7
(lp12240
Vwell
p12241
atp12242
Rp12243
(dp12244
g17
VRB
p12245
sbag5
(g6
g7
(lp12246
Vas
p12247
atp12248
Rp12249
(dp12250
g17
VIN
p12251
sbatp12252
Rp12253
(dp12254
g17
VCONJP
p12255
sbag5
(g6
g7
(lp12256
g5
(g6
g7
(lp12257
Vthe
p12258
atp12259
Rp12260
(dp12261
g17
VDT
p12262
sbag5
(g6
g7
(lp12263
Vcontrol
p12264
atp12265
Rp12266
(dp12267
g17
VNN
p12268
sbatp12269
Rp12270
(dp12271
g17
VNP
p12272
sbatp12273
Rp12274
(dp12275
g17
VNP
p12276
sbatp12277
Rp12278
(dp12279
g17
VVP
p12280
sbatp12281
Rp12282
(dp12283
g17
VVP
p12284
sbag5
(g6
g7
(lp12285
g352
atp12286
Rp12287
(dp12288
g17
g352
sbatp12289
Rp12290
(dp12291
g17
g101
sbatp12292
Rp12293
(dp12294
g17
VROOT
p12295
sbasg363
(icmyPackage
CorE
p12296
(dp12297
g366
(lp12298
(I0
I1
tp12299
a(I0
I7
tp12300
asg370
g12180
sbsg371
(icmyPackage
CorE
p12301
(dp12302
g366
(lp12303
(I0
I9
tp12304
a(I0
I19
tp12305
asg370
g5
(g6
g7
(lp12306
g12198
ag12282
ag12287
atp12307
Rp12308
(dp12309
g17
g381
sbsbsg382
g1463
sg403
(lp12310
(icmyPackage
Sent
p12311
(dp12312
g407
I5
sg408
I34
sg409
S'If the programmer can arbitrarily rewrite the program, he may change the logic as well as the control.'
p12313
sg411
I0
sg412
I97
sg370
(lp12314
g12293
asbasba(icmyPackage
CELink
p12315
(dp12316
g3
(lp12317
g5
(g6
g7
(lp12318
g5
(g6
g7
(lp12319
g5
(g6
g7
(lp12320
g5
(g6
g7
(lp12321
VI
p12322
atp12323
Rp12324
(dp12325
g17
VPRP
p12326
sbatp12327
Rp12328
(dp12329
g17
VNP
p12330
sbag5
(g6
g7
(lp12331
g5
(g6
g7
(lp12332
Vwas
p12333
atp12334
Rp12335
(dp12336
g17
VVBD
p12337
sbag5
(g6
g7
(lp12338
g5
(g6
g7
(lp12339
Vinformed
p12340
atp12341
Rp12342
(dp12343
g17
VVBN
p12344
sbag5
(g6
g7
(lp12345
g5
(g6
g7
(lp12346
Vby
p12347
atp12348
Rp12349
(dp12350
g17
VIN
p12351
sbag5
(g6
g7
(lp12352
g5
(g6
g7
(lp12353
VHerve
p12354
atp12355
Rp12356
(dp12357
g17
VNNP
p12358
sbag5
(g6
g7
(lp12359
VGallaire
p12360
atp12361
Rp12362
(dp12363
g17
VNNP
p12364
sbatp12365
Rp12366
(dp12367
g17
VNP
p12368
sbatp12369
Rp12370
(dp12371
g17
VPP
p12372
sbag5
(g6
g7
(lp12373
g5
(g6
g7
(lp12374
g5
(g6
g7
(lp12375
Vthat
p12376
atp12377
Rp12378
(dp12379
g17
VIN
p12380
sbag5
(g6
g7
(lp12381
g5
(g6
g7
(lp12382
g5
(g6
g7
(lp12383
g5
(g6
g7
(lp12384
Vthe
p12385
atp12386
Rp12387
(dp12388
g17
VDT
p12389
sbag5
(g6
g7
(lp12390
Vsystem
p12391
atp12392
Rp12393
(dp12394
g17
VNN
p12395
sbatp12396
Rp12397
(dp12398
g17
VNP
p12399
sbag5
(g6
g7
(lp12400
g5
(g6
g7
(lp12401
Vfor
p12402
atp12403
Rp12404
(dp12405
g17
VIN
p12406
sbag5
(g6
g7
(lp12407
g5
(g6
g7
(lp12408
g5
(g6
g7
(lp12409
Vspecifying
p12410
atp12411
Rp12412
(dp12413
g17
VVBG
p12414
sbag5
(g6
g7
(lp12415
g5
(g6
g7
(lp12416
g5
(g6
g7
(lp12417
Vcontrol
p12418
atp12419
Rp12420
(dp12421
g17
VNN
p12422
sbatp12423
Rp12424
(dp12425
g17
VNP
p12426
sbag5
(g6
g7
(lp12427
g5
(g6
g7
(lp12428
Vdescribed
p12429
atp12430
Rp12431
(dp12432
g17
VVBN
p12433
sbag5
(g6
g7
(lp12434
g5
(g6
g7
(lp12435
Vin
p12436
atp12437
Rp12438
(dp12439
g17
VIN
p12440
sbag5
(g6
g7
(lp12441
g5
(g6
g7
(lp12442
V-LRB-
p12443
atp12444
Rp12445
(dp12446
g17
V-LRB-
p12447
sbag5
(g6
g7
(lp12448
g5
(g6
g7
(lp12449
VGallaire
p12450
atp12451
Rp12452
(dp12453
g17
VNNP
p12454
sbag5
(g6
g7
(lp12455
V1981
p12456
atp12457
Rp12458
(dp12459
g17
VCD
p12460
sbatp12461
Rp12462
(dp12463
g17
VNP
p12464
sbag5
(g6
g7
(lp12465
V-RRB-
p12466
atp12467
Rp12468
(dp12469
g17
V-RRB-
p12470
sbatp12471
Rp12472
(dp12473
g17
VPRN
p12474
sbatp12475
Rp12476
(dp12477
g17
VPP
p12478
sbatp12479
Rp12480
(dp12481
g17
VVP
p12482
sbatp12483
Rp12484
(dp12485
g17
VNP
p12486
sbatp12487
Rp12488
(dp12489
g17
VVP
p12490
sbatp12491
Rp12492
(dp12493
g17
g101
sbatp12494
Rp12495
(dp12496
g17
VPP
p12497
sbatp12498
Rp12499
(dp12500
g17
VNP
p12501
sbag5
(g6
g7
(lp12502
g5
(g6
g7
(lp12503
Vcould
p12504
atp12505
Rp12506
(dp12507
g17
VMD
p12508
sbag5
(g6
g7
(lp12509
Vnot
p12510
atp12511
Rp12512
(dp12513
g17
VRB
p12514
sbag5
(g6
g7
(lp12515
g5
(g6
g7
(lp12516
Vexpress
p12517
atp12518
Rp12519
(dp12520
g17
VVB
p12521
sbag5
(g6
g7
(lp12522
g5
(g6
g7
(lp12523
g5
(g6
g7
(lp12524
Vthe
p12525
atp12526
Rp12527
(dp12528
g17
VDT
p12529
sbag5
(g6
g7
(lp12530
Vpostponement
p12531
atp12532
Rp12533
(dp12534
g17
VNN
p12535
sbag5
(g6
g7
(lp12536
Vheuristic
p12537
atp12538
Rp12539
(dp12540
g17
VNN
p12541
sbatp12542
Rp12543
(dp12544
g17
VNP
p12545
sbag5
(g6
g7
(lp12546
g5
(g6
g7
(lp12547
Vfor
p12548
atp12549
Rp12550
(dp12551
g17
VIN
p12552
sbag5
(g6
g7
(lp12553
g5
(g6
g7
(lp12554
Vthe
p12555
atp12556
Rp12557
(dp12558
g17
VDT
p12559
sbag5
(g6
g7
(lp12560
Vcoloring
p12561
atp12562
Rp12563
(dp12564
g17
VVBG
p12565
sbag5
(g6
g7
(lp12566
Vproblem
p12567
atp12568
Rp12569
(dp12570
g17
VNN
p12571
sbatp12572
Rp12573
(dp12574
g17
VNP
p12575
sbatp12576
Rp12577
(dp12578
g17
VPP
p12579
sbatp12580
Rp12581
(dp12582
g17
VNP
p12583
sbatp12584
Rp12585
(dp12586
g17
VVP
p12587
sbatp12588
Rp12589
(dp12590
g17
VVP
p12591
sbatp12592
Rp12593
(dp12594
g17
g101
sbatp12595
Rp12596
(dp12597
g17
VSBAR
p12598
sbag5
(g6
g7
(lp12599
g110
atp12600
Rp12601
(dp12602
g17
g110
sbag5
(g6
g7
(lp12603
Vbut
p12604
atp12605
Rp12606
(dp12607
g17
VCC
p12608
sbag5
(g6
g7
(lp12609
g5
(g6
g7
(lp12610
Vthat
p12611
atp12612
Rp12613
(dp12614
g17
VIN
p12615
sbag5
(g6
g7
(lp12616
g5
(g6
g7
(lp12617
g5
(g6
g7
(lp12618
g5
(g6
g7
(lp12619
g214
atp12620
Rp12621
(dp12622
g17
VDT
p12623
sbag5
(g6
g7
(lp12624
Vsmall
p12625
atp12626
Rp12627
(dp12628
g17
VJJ
p12629
sbag5
(g6
g7
(lp12630
Vmodification
p12631
atp12632
Rp12633
(dp12634
g17
VNN
p12635
sbatp12636
Rp12637
(dp12638
g17
VNP
p12639
sbag5
(g6
g7
(lp12640
g5
(g6
g7
(lp12641
Vto
p12642
atp12643
Rp12644
(dp12645
g17
VTO
p12646
sbag5
(g6
g7
(lp12647
g5
(g6
g7
(lp12648
Vthe
p12649
atp12650
Rp12651
(dp12652
g17
VDT
p12653
sbag5
(g6
g7
(lp12654
Vsystem
p12655
atp12656
Rp12657
(dp12658
g17
VNN
p12659
sbatp12660
Rp12661
(dp12662
g17
VNP
p12663
sbatp12664
Rp12665
(dp12666
g17
VPP
p12667
sbatp12668
Rp12669
(dp12670
g17
VNP
p12671
sbag5
(g6
g7
(lp12672
g5
(g6
g7
(lp12673
Vwould
p12674
atp12675
Rp12676
(dp12677
g17
VMD
p12678
sbag5
(g6
g7
(lp12679
g5
(g6
g7
(lp12680
Vmake
p12681
atp12682
Rp12683
(dp12684
g17
VVB
p12685
sbag5
(g6
g7
(lp12686
g5
(g6
g7
(lp12687
g5
(g6
g7
(lp12688
Vit
p12689
atp12690
Rp12691
(dp12692
g17
VPRP
p12693
sbatp12694
Rp12695
(dp12696
g17
VNP
p12697
sbag5
(g6
g7
(lp12698
g5
(g6
g7
(lp12699
Vpossible
p12700
atp12701
Rp12702
(dp12703
g17
VJJ
p12704
sbatp12705
Rp12706
(dp12707
g17
VADJP
p12708
sbatp12709
Rp12710
(dp12711
g17
g101
sbatp12712
Rp12713
(dp12714
g17
VVP
p12715
sbatp12716
Rp12717
(dp12718
g17
VVP
p12719
sbatp12720
Rp12721
(dp12722
g17
g101
sbatp12723
Rp12724
(dp12725
g17
VSBAR
p12726
sbatp12727
Rp12728
(dp12729
g17
VSBAR
p12730
sbatp12731
Rp12732
(dp12733
g17
VVP
p12734
sbatp12735
Rp12736
(dp12737
g17
VVP
p12738
sbag5
(g6
g7
(lp12739
g352
atp12740
Rp12741
(dp12742
g17
g352
sbatp12743
Rp12744
(dp12745
g17
g101
sbatp12746
Rp12747
(dp12748
g17
VROOT
p12749
sbasg363
(icmyPackage
CorE
p12750
(dp12751
g366
(lp12752
(I0
I10
tp12753
a(I0
I17
tp12754
asg370
g12492
sbsg371
(icmyPackage
CorE
p12755
(dp12756
g366
(lp12757
(I0
I0
tp12758
a(I0
I8
tp12759
asg370
g5
(g6
g7
(lp12760
g12328
ag12335
ag12342
ag12370
ag12378
ag12397
atp12761
Rp12762
(dp12763
g17
g381
sbsbsg382
g383
sg403
(lp12764
(icmyPackage
Sent
p12765
(dp12766
g407
I5
sg408
I35
sg409
S'I was informed by Herve Gallaire that the system for specifying control described in (Gallaire 1981) could not express the postponement heuristic for the coloring problem, but that a small modification to the system would make it possible.'
p12767
sg411
I0
sg412
I99
sg370
(lp12768
g12747
asbasba(icmyPackage
CELink
p12769
(dp12770
g3
(lp12771
g5
(g6
g7
(lp12772
g5
(g6
g7
(lp12773
g5
(g6
g7
(lp12774
g5
(g6
g7
(lp12775
VIf
p12776
atp12777
Rp12778
(dp12779
g17
VIN
p12780
sbag5
(g6
g7
(lp12781
g5
(g6
g7
(lp12782
g5
(g6
g7
(lp12783
Vthe
p12784
atp12785
Rp12786
(dp12787
g17
VDT
p12788
sbag5
(g6
g7
(lp12789
Vgraph
p12790
atp12791
Rp12792
(dp12793
g17
VNN
p12794
sbatp12795
Rp12796
(dp12797
g17
VNP
p12798
sbag5
(g6
g7
(lp12799
g5
(g6
g7
(lp12800
Vis
p12801
atp12802
Rp12803
(dp12804
g17
VVBZ
p12805
sbag5
(g6
g7
(lp12806
g5
(g6
g7
(lp12807
Vdescribed
p12808
atp12809
Rp12810
(dp12811
g17
VVBN
p12812
sbag5
(g6
g7
(lp12813
g5
(g6
g7
(lp12814
Vby
p12815
atp12816
Rp12817
(dp12818
g17
VIN
p12819
sbag5
(g6
g7
(lp12820
g5
(g6
g7
(lp12821
g5
(g6
g7
(lp12822
Vgiving
p12823
atp12824
Rp12825
(dp12826
g17
VVBG
p12827
sbag5
(g6
g7
(lp12828
g5
(g6
g7
(lp12829
Vfor
p12830
atp12831
Rp12832
(dp12833
g17
VIN
p12834
sbag5
(g6
g7
(lp12835
g5
(g6
g7
(lp12836
Veach
p12837
atp12838
Rp12839
(dp12840
g17
VDT
p12841
sbag5
(g6
g7
(lp12842
Vcountry
p12843
atp12844
Rp12845
(dp12846
g17
VNN
p12847
sbatp12848
Rp12849
(dp12850
g17
VNP
p12851
sbatp12852
Rp12853
(dp12854
g17
VPP
p12855
sbag5
(g6
g7
(lp12856
g5
(g6
g7
(lp12857
g5
(g6
g7
(lp12858
g214
atp12859
Rp12860
(dp12861
g17
VDT
p12862
sbag5
(g6
g7
(lp12863
Vlist
p12864
atp12865
Rp12866
(dp12867
g17
VNN
p12868
sbatp12869
Rp12870
(dp12871
g17
VNP
p12872
sbag5
(g6
g7
(lp12873
g5
(g6
g7
(lp12874
Vof
p12875
atp12876
Rp12877
(dp12878
g17
VIN
p12879
sbag5
(g6
g7
(lp12880
g5
(g6
g7
(lp12881
Vits
p12882
atp12883
Rp12884
(dp12885
g17
VPRP$
p12886
sbag5
(g6
g7
(lp12887
Vneighbors
p12888
atp12889
Rp12890
(dp12891
g17
VNNS
p12892
sbatp12893
Rp12894
(dp12895
g17
VNP
p12896
sbatp12897
Rp12898
(dp12899
g17
VPP
p12900
sbatp12901
Rp12902
(dp12903
g17
VNP
p12904
sbatp12905
Rp12906
(dp12907
g17
VVP
p12908
sbatp12909
Rp12910
(dp12911
g17
g101
sbatp12912
Rp12913
(dp12914
g17
VPP
p12915
sbatp12916
Rp12917
(dp12918
g17
VVP
p12919
sbatp12920
Rp12921
(dp12922
g17
VVP
p12923
sbatp12924
Rp12925
(dp12926
g17
g101
sbatp12927
Rp12928
(dp12929
g17
VSBAR
p12930
sbag5
(g6
g7
(lp12931
g110
atp12932
Rp12933
(dp12934
g17
g110
sbag5
(g6
g7
(lp12935
g5
(g6
g7
(lp12936
Vthe
p12937
atp12938
Rp12939
(dp12940
g17
VDT
p12941
sbag5
(g6
g7
(lp12942
Vimbedding
p12943
atp12944
Rp12945
(dp12946
g17
VJJ
p12947
sbag5
(g6
g7
(lp12948
Vinformation
p12949
atp12950
Rp12951
(dp12952
g17
VNN
p12953
sbatp12954
Rp12955
(dp12956
g17
VNP
p12957
sbag5
(g6
g7
(lp12958
g5
(g6
g7
(lp12959
Vcan
p12960
atp12961
Rp12962
(dp12963
g17
VMD
p12964
sbag5
(g6
g7
(lp12965
g5
(g6
g7
(lp12966
Vbe
p12967
atp12968
Rp12969
(dp12970
g17
VVB
p12971
sbag5
(g6
g7
(lp12972
g5
(g6
g7
(lp12973
Vincluding
p12974
atp12975
Rp12976
(dp12977
g17
VVBG
p12978
sbag5
(g6
g7
(lp12979
g5
(g6
g7
(lp12980
Vby
p12981
atp12982
Rp12983
(dp12984
g17
VIN
p12985
sbag5
(g6
g7
(lp12986
g5
(g6
g7
(lp12987
g5
(g6
g7
(lp12988
Vlisting
p12989
atp12990
Rp12991
(dp12992
g17
VVBG
p12993
sbag5
(g6
g7
(lp12994
g5
(g6
g7
(lp12995
Vthe
p12996
atp12997
Rp12998
(dp12999
g17
VDT
p13000
sbag5
(g6
g7
(lp13001
Vneighbors
p13002
atp13003
Rp13004
(dp13005
g17
VNNS
p13006
sbatp13007
Rp13008
(dp13009
g17
VNP
p13010
sbag5
(g6
g7
(lp13011
g5
(g6
g7
(lp13012
Vin
p13013
atp13014
Rp13015
(dp13016
g17
VIN
p13017
sbag5
(g6
g7
(lp13018
g5
(g6
g7
(lp13019
g5
(g6
g7
(lp13020
Vcyclic
p13021
atp13022
Rp13023
(dp13024
g17
VJJ
p13025
sbag5
(g6
g7
(lp13026
Vorder
p13027
atp13028
Rp13029
(dp13030
g17
VNN
p13031
sbatp13032
Rp13033
(dp13034
g17
VNP
p13035
sbag5
(g6
g7
(lp13036
V--
p13037
atp13038
Rp13039
(dp13040
g17
g9218
sbag5
(g6
g7
(lp13041
g5
(g6
g7
(lp13042
Vclockwise
p13043
atp13044
Rp13045
(dp13046
g17
VJJ
p13047
sbag5
(g6
g7
(lp13048
Vor
p13049
atp13050
Rp13051
(dp13052
g17
VCC
p13053
sbag5
(g6
g7
(lp13054
Vcounterclockwise
p13055
atp13056
Rp13057
(dp13058
g17
VJJ
p13059
sbatp13060
Rp13061
(dp13062
g17
VADJP
p13063
sbatp13064
Rp13065
(dp13066
g17
VNP
p13067
sbatp13068
Rp13069
(dp13070
g17
VPP
p13071
sbatp13072
Rp13073
(dp13074
g17
VVP
p13075
sbatp13076
Rp13077
(dp13078
g17
g101
sbatp13079
Rp13080
(dp13081
g17
VPP
p13082
sbatp13083
Rp13084
(dp13085
g17
VPP
p13086
sbatp13087
Rp13088
(dp13089
g17
VVP
p13090
sbatp13091
Rp13092
(dp13093
g17
VVP
p13094
sbag5
(g6
g7
(lp13095
g352
atp13096
Rp13097
(dp13098
g17
g352
sbatp13099
Rp13100
(dp13101
g17
g101
sbatp13102
Rp13103
(dp13104
g17
VROOT
p13105
sbasg363
(icmyPackage
CorE
p13106
(dp13107
g366
(lp13108
(I0
I1
tp13109
a(I0
I14
tp13110
asg370
g12925
sbsg371
(icmyPackage
CorE
p13111
(dp13112
g366
(lp13113
(I0
I16
tp13114
a(I0
I33
tp13115
asg370
g5
(g6
g7
(lp13116
g12955
ag13092
ag13097
atp13117
Rp13118
(dp13119
g17
g381
sbsbsg382
g1463
sg403
(lp13120
(icmyPackage
Sent
p13121
(dp13122
g407
I6
sg408
I37
sg409
S'If the graph is described by giving for each country a list of its neighbors, the imbedding information can be including by listing the neighbors in cyclic order -- clockwise or counterclockwise.'
p13123
sg411
I0
sg412
I106
sg370
(lp13124
g13103
asbasba(icmyPackage
CELink
p13125
(dp13126
g3
(lp13127
g12925
asg363
(icmyPackage
CorE
p13128
(dp13129
g366
(lp13130
(I0
I5
tp13131
a(I0
I13
tp13132
asg370
g12910
sbsg371
(icmyPackage
CorE
p13133
(dp13134
g366
(lp13135
(I0
I0
tp13136
a(I0
I3
tp13137
asg370
g5
(g6
g7
(lp13138
g12796
ag12803
ag12810
atp13139
Rp13140
(dp13141
g17
g381
sbsbsg382
g2038
sg403
(lp13142
g13121
asba(icmyPackage
CELink
p13143
(dp13144
g3
(lp13145
g13118
asg363
(icmyPackage
CorE
p13146
(dp13147
g366
(lp13148
(I0
I7
tp13149
a(I0
I16
tp13150
asg370
g13077
sbsg371
(icmyPackage
CorE
p13151
(dp13152
g366
(lp13153
(I0
I0
tp13154
a(I0
I5
tp13155
asg370
g5
(g6
g7
(lp13156
g12955
ag12962
ag12969
ag12976
atp13157
Rp13158
(dp13159
g17
g381
sbsbsg382
g2038
sg403
(lp13160
g13121
asba(icmyPackage
CELink
p13161
(dp13162
g3
(lp13163
g5
(g6
g7
(lp13164
g5
(g6
g7
(lp13165
g5
(g6
g7
(lp13166
g5
(g6
g7
(lp13167
VOf
p13168
atp13169
Rp13170
(dp13171
g17
VIN
p13172
sbag5
(g6
g7
(lp13173
g5
(g6
g7
(lp13174
Vcourse
p13175
atp13176
Rp13177
(dp13178
g17
VNN
p13179
sbatp13180
Rp13181
(dp13182
g17
VNP
p13183
sbatp13184
Rp13185
(dp13186
g17
VPP
p13187
sbag5
(g6
g7
(lp13188
g110
atp13189
Rp13190
(dp13191
g17
g110
sbag5
(g6
g7
(lp13192
g5
(g6
g7
(lp13193
Vwe
p13194
atp13195
Rp13196
(dp13197
g17
VPRP
p13198
sbatp13199
Rp13200
(dp13201
g17
VNP
p13202
sbag5
(g6
g7
(lp13203
g5
(g6
g7
(lp13204
Vcan
p13205
atp13206
Rp13207
(dp13208
g17
VMD
p13209
sbag5
(g6
g7
(lp13210
g5
(g6
g7
(lp13211
Vmodify
p13212
atp13213
Rp13214
(dp13215
g17
VVB
p13216
sbag5
(g6
g7
(lp13217
g5
(g6
g7
(lp13218
Vthe
p13219
atp13220
Rp13221
(dp13222
g17
VDT
p13223
sbag5
(g6
g7
(lp13224
Valgorithm
p13225
atp13226
Rp13227
(dp13228
g17
VNN
p13229
sbag5
(g6
g7
(lp13230
g5
(g6
g7
(lp13231
g5
(g6
g7
(lp13232
Vto
p13233
atp13234
Rp13235
(dp13236
g17
VTO
p13237
sbag5
(g6
g7
(lp13238
g5
(g6
g7
(lp13239
Vtry
p13240
atp13241
Rp13242
(dp13243
g17
VVB
p13244
sbag5
(g6
g7
(lp13245
g5
(g6
g7
(lp13246
g5
(g6
g7
(lp13247
Vevery
p13248
atp13249
Rp13250
(dp13251
g17
VDT
p13252
sbag5
(g6
g7
(lp13253
Vpair
p13254
atp13255
Rp13256
(dp13257
g17
VNN
p13258
sbatp13259
Rp13260
(dp13261
g17
VNP
p13262
sbag5
(g6
g7
(lp13263
g5
(g6
g7
(lp13264
Vof
p13265
atp13266
Rp13267
(dp13268
g17
VIN
p13269
sbag5
(g6
g7
(lp13270
g5
(g6
g7
(lp13271
Vvertices
p13272
atp13273
Rp13274
(dp13275
g17
VNNS
p13276
sbatp13277
Rp13278
(dp13279
g17
VNP
p13280
sbatp13281
Rp13282
(dp13283
g17
VPP
p13284
sbatp13285
Rp13286
(dp13287
g17
VNP
p13288
sbag5
(g6
g7
(lp13289
g5
(g6
g7
(lp13290
g5
(g6
g7
(lp13291
Vto
p13292
atp13293
Rp13294
(dp13295
g17
VTO
p13296
sbag5
(g6
g7
(lp13297
g5
(g6
g7
(lp13298
Vsee
p13299
atp13300
Rp13301
(dp13302
g17
VVB
p13303
sbag5
(g6
g7
(lp13304
g5
(g6
g7
(lp13305
Vif
p13306
atp13307
Rp13308
(dp13309
g17
VIN
p13310
sbag5
(g6
g7
(lp13311
g5
(g6
g7
(lp13312
g5
(g6
g7
(lp13313
Vthey
p13314
atp13315
Rp13316
(dp13317
g17
VPRP
p13318
sbatp13319
Rp13320
(dp13321
g17
VNP
p13322
sbag5
(g6
g7
(lp13323
g5
(g6
g7
(lp13324
Vare
p13325
atp13326
Rp13327
(dp13328
g17
VVBP
p13329
sbag5
(g6
g7
(lp13330
g5
(g6
g7
(lp13331
Vunconnected
p13332
atp13333
Rp13334
(dp13335
g17
VJJ
p13336
sbag5
(g6
g7
(lp13337
g5
(g6
g7
(lp13338
Vby
p13339
atp13340
Rp13341
(dp13342
g17
VIN
p13343
sbag5
(g6
g7
(lp13344
g5
(g6
g7
(lp13345
g5
(g6
g7
(lp13346
g214
atp13347
Rp13348
(dp13349
g17
VDT
p13350
sbag5
(g6
g7
(lp13351
Vpath
p13352
atp13353
Rp13354
(dp13355
g17
VNN
p13356
sbatp13357
Rp13358
(dp13359
g17
VNP
p13360
sbag5
(g6
g7
(lp13361
g5
(g6
g7
(lp13362
Vof
p13363
atp13364
Rp13365
(dp13366
g17
VIN
p13367
sbag5
(g6
g7
(lp13368
g5
(g6
g7
(lp13369
Vtheir
p13370
atp13371
Rp13372
(dp13373
g17
VPRP$
p13374
sbag5
(g6
g7
(lp13375
Vtwo
p13376
atp13377
Rp13378
(dp13379
g17
VCD
p13380
sbag5
(g6
g7
(lp13381
Vcolors
p13382
atp13383
Rp13384
(dp13385
g17
VNNS
p13386
sbatp13387
Rp13388
(dp13389
g17
VNP
p13390
sbatp13391
Rp13392
(dp13393
g17
VPP
p13394
sbatp13395
Rp13396
(dp13397
g17
VNP
p13398
sbatp13399
Rp13400
(dp13401
g17
VPP
p13402
sbatp13403
Rp13404
(dp13405
g17
VADJP
p13406
sbatp13407
Rp13408
(dp13409
g17
VVP
p13410
sbatp13411
Rp13412
(dp13413
g17
g101
sbatp13414
Rp13415
(dp13416
g17
VSBAR
p13417
sbatp13418
Rp13419
(dp13420
g17
VVP
p13421
sbatp13422
Rp13423
(dp13424
g17
VVP
p13425
sbatp13426
Rp13427
(dp13428
g17
g101
sbatp13429
Rp13430
(dp13431
g17
VVP
p13432
sbatp13433
Rp13434
(dp13435
g17
VVP
p13436
sbatp13437
Rp13438
(dp13439
g17
g101
sbatp13440
Rp13441
(dp13442
g17
VNP
p13443
sbatp13444
Rp13445
(dp13446
g17
VVP
p13447
sbatp13448
Rp13449
(dp13450
g17
VVP
p13451
sbag5
(g6
g7
(lp13452
g352
atp13453
Rp13454
(dp13455
g17
g352
sbatp13456
Rp13457
(dp13458
g17
g101
sbatp13459
Rp13460
(dp13461
g17
VROOT
p13462
sbasg363
(icmyPackage
CorE
p13463
(dp13464
g366
(lp13465
(I0
I17
tp13466
a(I0
I27
tp13467
asg370
g5
(g6
g7
(lp13468
g13412
ag13454
atp13469
Rp13470
(dp13471
g17
g381
sbsbsg371
(icmyPackage
CorE
p13472
(dp13473
g366
(lp13474
(I0
I0
tp13475
a(I0
I15
tp13476
asg370
g5
(g6
g7
(lp13477
g13185
ag13190
ag13200
ag13207
ag13214
ag13221
ag13227
ag13235
ag13242
ag13286
ag13294
ag13301
atp13478
Rp13479
(dp13480
g17
g381
sbsbsg382
g2856
sg403
(lp13481
(icmyPackage
Sent
p13482
(dp13483
g407
I6
sg408
I37
sg409
S'Of course, we can modify the algorithm to try every pair of vertices to see if they are unconnected by a path of their two colors.'
p13484
sg411
I0
sg412
I109
sg370
(lp13485
g13460
asbasba(icmyPackage
CELink
p13486
(dp13487
g3
(lp13488
g5
(g6
g7
(lp13489
g5
(g6
g7
(lp13490
g5
(g6
g7
(lp13491
g5
(g6
g7
(lp13492
VThe
p13493
atp13494
Rp13495
(dp13496
g17
VDT
p13497
sbag5
(g6
g7
(lp13498
Vabove
p13499
atp13500
Rp13501
(dp13502
g17
VJJ
p13503
sbag5
(g6
g7
(lp13504
Vargument
p13505
atp13506
Rp13507
(dp13508
g17
VNN
p13509
sbatp13510
Rp13511
(dp13512
g17
VNP
p13513
sbag5
(g6
g7
(lp13514
g5
(g6
g7
(lp13515
Vshows
p13516
atp13517
Rp13518
(dp13519
g17
VVBZ
p13520
sbag5
(g6
g7
(lp13521
g5
(g6
g7
(lp13522
Vthat
p13523
atp13524
Rp13525
(dp13526
g17
VIN
p13527
sbag5
(g6
g7
(lp13528
g5
(g6
g7
(lp13529
g5
(g6
g7
(lp13530
Vthis
p13531
atp13532
Rp13533
(dp13534
g17
VDT
p13535
sbatp13536
Rp13537
(dp13538
g17
VNP
p13539
sbag5
(g6
g7
(lp13540
g5
(g6
g7
(lp13541
Vis
p13542
atp13543
Rp13544
(dp13545
g17
VVBZ
p13546
sbag5
(g6
g7
(lp13547
g5
(g6
g7
(lp13548
Vguaranteed
p13549
atp13550
Rp13551
(dp13552
g17
VVBN
p13553
sbag5
(g6
g7
(lp13554
g5
(g6
g7
(lp13555
g5
(g6
g7
(lp13556
Vto
p13557
atp13558
Rp13559
(dp13560
g17
VTO
p13561
sbag5
(g6
g7
(lp13562
g5
(g6
g7
(lp13563
Vsucceeed
p13564
atp13565
Rp13566
(dp13567
g17
VNN
p13568
sbatp13569
Rp13570
(dp13571
g17
VNP
p13572
sbatp13573
Rp13574
(dp13575
g17
VPP
p13576
sbag5
(g6
g7
(lp13577
Vbut
p13578
atp13579
Rp13580
(dp13581
g17
VCC
p13582
sbag5
(g6
g7
(lp13583
g5
(g6
g7
(lp13584
Vpresumably
p13585
atp13586
Rp13587
(dp13588
g17
VRB
p13589
sbatp13590
Rp13591
(dp13592
g17
VADVP
p13593
sbag5
(g6
g7
(lp13594
g5
(g6
g7
(lp13595
Vat
p13596
atp13597
Rp13598
(dp13599
g17
VIN
p13600
sbag5
(g6
g7
(lp13601
g5
(g6
g7
(lp13602
g5
(g6
g7
(lp13603
Vsomewhat
p13604
atp13605
Rp13606
(dp13607
g17
VRB
p13608
sbag5
(g6
g7
(lp13609
Vgreater
p13610
atp13611
Rp13612
(dp13613
g17
VJJR
p13614
sbatp13615
Rp13616
(dp13617
g17
VADJP
p13618
sbag5
(g6
g7
(lp13619
Vcost
p13620
atp13621
Rp13622
(dp13623
g17
VNN
p13624
sbatp13625
Rp13626
(dp13627
g17
VNP
p13628
sbatp13629
Rp13630
(dp13631
g17
VPP
p13632
sbatp13633
Rp13634
(dp13635
g17
VPP
p13636
sbag5
(g6
g7
(lp13637
g5
(g6
g7
(lp13638
Vthan
p13639
atp13640
Rp13641
(dp13642
g17
VIN
p13643
sbag5
(g6
g7
(lp13644
Vif
p13645
atp13646
Rp13647
(dp13648
g17
VIN
p13649
sbag5
(g6
g7
(lp13650
g5
(g6
g7
(lp13651
g5
(g6
g7
(lp13652
Vthe
p13653
atp13654
Rp13655
(dp13656
g17
VDT
p13657
sbag5
(g6
g7
(lp13658
Vcyclic
p13659
atp13660
Rp13661
(dp13662
g17
VJJ
p13663
sbag5
(g6
g7
(lp13664
Vorder
p13665
atp13666
Rp13667
(dp13668
g17
VNN
p13669
sbatp13670
Rp13671
(dp13672
g17
VNP
p13673
sbag5
(g6
g7
(lp13674
g5
(g6
g7
(lp13675
Vis
p13676
atp13677
Rp13678
(dp13679
g17
VVBZ
p13680
sbag5
(g6
g7
(lp13681
g5
(g6
g7
(lp13682
Vknown
p13683
atp13684
Rp13685
(dp13686
g17
VVBN
p13687
sbatp13688
Rp13689
(dp13690
g17
VVP
p13691
sbatp13692
Rp13693
(dp13694
g17
VVP
p13695
sbatp13696
Rp13697
(dp13698
g17
g101
sbatp13699
Rp13700
(dp13701
g17
VSBAR
p13702
sbatp13703
Rp13704
(dp13705
g17
VVP
p13706
sbatp13707
Rp13708
(dp13709
g17
VVP
p13710
sbatp13711
Rp13712
(dp13713
g17
g101
sbatp13714
Rp13715
(dp13716
g17
VSBAR
p13717
sbatp13718
Rp13719
(dp13720
g17
VVP
p13721
sbag5
(g6
g7
(lp13722
g352
atp13723
Rp13724
(dp13725
g17
g352
sbatp13726
Rp13727
(dp13728
g17
g101
sbatp13729
Rp13730
(dp13731
g17
VROOT
p13732
sbasg363
(icmyPackage
CorE
p13733
(dp13734
g366
(lp13735
(I0
I18
tp13736
a(I0
I23
tp13737
asg370
g5
(g6
g7
(lp13738
g13697
ag13724
atp13739
Rp13740
(dp13741
g17
g381
sbsbsg371
(icmyPackage
CorE
p13742
(dp13743
g366
(lp13744
(I0
I0
tp13745
a(I0
I16
tp13746
asg370
g5
(g6
g7
(lp13747
g13511
ag13518
ag13525
ag13537
ag13544
ag13551
ag13634
ag13641
atp13748
Rp13749
(dp13750
g17
g381
sbsbsg382
g2856
sg403
(lp13751
(icmyPackage
Sent
p13752
(dp13753
g407
I6
sg408
I37
sg409
S'The above argument shows that this is guaranteed to succeeed but presumably at somewhat greater cost than if the cyclic order is known.'
p13754
sg411
I0
sg412
I110
sg370
(lp13755
g13730
asbasba(icmyPackage
CELink
p13756
(dp13757
g3
(lp13758
g5
(g6
g7
(lp13759
g5
(g6
g7
(lp13760
g5
(g6
g7
(lp13761
g5
(g6
g7
(lp13762
g5
(g6
g7
(lp13763
VLooking
p13764
atp13765
Rp13766
(dp13767
g17
VVBG
p13768
sbag5
(g6
g7
(lp13769
g5
(g6
g7
(lp13770
Vfor
p13771
atp13772
Rp13773
(dp13774
g17
VIN
p13775
sbag5
(g6
g7
(lp13776
g5
(g6
g7
(lp13777
g214
atp13778
Rp13779
(dp13780
g17
VDT
p13781
sbag5
(g6
g7
(lp13782
Vchangeable
p13783
atp13784
Rp13785
(dp13786
g17
VJJ
p13787
sbag5
(g6
g7
(lp13788
Vcountry
p13789
atp13790
Rp13791
(dp13792
g17
VNN
p13793
sbatp13794
Rp13795
(dp13796
g17
VNP
p13797
sbatp13798
Rp13799
(dp13800
g17
VPP
p13801
sbatp13802
Rp13803
(dp13804
g17
VVP
p13805
sbatp13806
Rp13807
(dp13808
g17
g101
sbag5
(g6
g7
(lp13809
g5
(g6
g7
(lp13810
Vis
p13811
atp13812
Rp13813
(dp13814
g17
VVBZ
p13815
sbag5
(g6
g7
(lp13816
g5
(g6
g7
(lp13817
g5
(g6
g7
(lp13818
g214
atp13819
Rp13820
(dp13821
g17
VDT
p13822
sbag5
(g6
g7
(lp13823
Vprocess
p13824
atp13825
Rp13826
(dp13827
g17
VNN
p13828
sbatp13829
Rp13830
(dp13831
g17
VNP
p13832
sbag5
(g6
g7
(lp13833
g5
(g6
g7
(lp13834
Vof
p13835
atp13836
Rp13837
(dp13838
g17
VIN
p13839
sbag5
(g6
g7
(lp13840
g5
(g6
g7
(lp13841
Vsearch
p13842
atp13843
Rp13844
(dp13845
g17
VNN
p13846
sbatp13847
Rp13848
(dp13849
g17
VNP
p13850
sbatp13851
Rp13852
(dp13853
g17
VPP
p13854
sbag5
(g6
g7
(lp13855
g5
(g6
g7
(lp13856
g5
(g6
g7
(lp13857
Vwhereby
p13858
atp13859
Rp13860
(dp13861
g17
VWRB
p13862
sbatp13863
Rp13864
(dp13865
g17
VWHADVP
p13866
sbag5
(g6
g7
(lp13867
g5
(g6
g7
(lp13868
g5
(g6
g7
(lp13869
Vonly
p13870
atp13871
Rp13872
(dp13873
g17
VRB
p13874
sbag5
(g6
g7
(lp13875
Vcertain
p13876
atp13877
Rp13878
(dp13879
g17
VJJ
p13880
sbag5
(g6
g7
(lp13881
Vvalues
p13882
atp13883
Rp13884
(dp13885
g17
VNNS
p13886
sbatp13887
Rp13888
(dp13889
g17
VNP
p13890
sbag5
(g6
g7
(lp13891
g5
(g6
g7
(lp13892
Vare
p13893
atp13894
Rp13895
(dp13896
g17
VVBP
p13897
sbag5
(g6
g7
(lp13898
g5
(g6
g7
(lp13899
Vallowed
p13900
atp13901
Rp13902
(dp13903
g17
VVBN
p13904
sbag5
(g6
g7
(lp13905
g5
(g6
g7
(lp13906
Vfor
p13907
atp13908
Rp13909
(dp13910
g17
VIN
p13911
sbag5
(g6
g7
(lp13912
g5
(g6
g7
(lp13913
Vcertain
p13914
atp13915
Rp13916
(dp13917
g17
VJJ
p13918
sbag5
(g6
g7
(lp13919
Vvariables
p13920
atp13921
Rp13922
(dp13923
g17
VNNS
p13924
sbag5
(g6
g7
(lp13925
Vand
p13926
atp13927
Rp13928
(dp13929
g17
VCC
p13930
sbag5
(g6
g7
(lp13931
Vgoals
p13932
atp13933
Rp13934
(dp13935
g17
VNNS
p13936
sbatp13937
Rp13938
(dp13939
g17
VNP
p13940
sbatp13941
Rp13942
(dp13943
g17
VPP
p13944
sbag5
(g6
g7
(lp13945
g5
(g6
g7
(lp13946
Vthat
p13947
atp13948
Rp13949
(dp13950
g17
VIN
p13951
sbag5
(g6
g7
(lp13952
g5
(g6
g7
(lp13953
g5
(g6
g7
(lp13954
g5
(g6
g7
(lp13955
Vbecome
p13956
atp13957
Rp13958
(dp13959
g17
VVB
p13960
sbag5
(g6
g7
(lp13961
g5
(g6
g7
(lp13962
Vunsatisfied
p13963
atp13964
Rp13965
(dp13966
g17
VJJ
p13967
sbatp13968
Rp13969
(dp13970
g17
VADJP
p13971
sbatp13972
Rp13973
(dp13974
g17
VVP
p13975
sbatp13976
Rp13977
(dp13978
g17
g101
sbag5
(g6
g7
(lp13979
g5
(g6
g7
(lp13980
Vare
p13981
atp13982
Rp13983
(dp13984
g17
VVBP
p13985
sbag5
(g6
g7
(lp13986
g5
(g6
g7
(lp13987
Vre-satisfied
p13988
atp13989
Rp13990
(dp13991
g17
VJJ
p13992
sbag5
(g6
g7
(lp13993
g5
(g6
g7
(lp13994
Vby
p13995
atp13996
Rp13997
(dp13998
g17
VIN
p13999
sbag5
(g6
g7
(lp14000
g5
(g6
g7
(lp14001
g5
(g6
g7
(lp14002
Vchanging
p14003
atp14004
Rp14005
(dp14006
g17
VVBG
p14007
sbag5
(g6
g7
(lp14008
g5
(g6
g7
(lp14009
Vonly
p14010
atp14011
Rp14012
(dp14013
g17
VRB
p14014
sbag5
(g6
g7
(lp14015
Vcertain
p14016
atp14017
Rp14018
(dp14019
g17
VJJ
p14020
sbag5
(g6
g7
(lp14021
Vvariables
p14022
atp14023
Rp14024
(dp14025
g17
VNNS
p14026
sbatp14027
Rp14028
(dp14029
g17
VNP
p14030
sbag5
(g6
g7
(lp14031
g5
(g6
g7
(lp14032
Vin
p14033
atp14034
Rp14035
(dp14036
g17
VIN
p14037
sbag5
(g6
g7
(lp14038
g5
(g6
g7
(lp14039
Vcertain
p14040
atp14041
Rp14042
(dp14043
g17
VJJ
p14044
sbag5
(g6
g7
(lp14045
Vways
p14046
atp14047
Rp14048
(dp14049
g17
VNNS
p14050
sbatp14051
Rp14052
(dp14053
g17
VNP
p14054
sbatp14055
Rp14056
(dp14057
g17
VPP
p14058
sbatp14059
Rp14060
(dp14061
g17
VVP
p14062
sbatp14063
Rp14064
(dp14065
g17
g101
sbatp14066
Rp14067
(dp14068
g17
VPP
p14069
sbatp14070
Rp14071
(dp14072
g17
VADJP
p14073
sbatp14074
Rp14075
(dp14076
g17
VVP
p14077
sbatp14078
Rp14079
(dp14080
g17
g101
sbatp14081
Rp14082
(dp14083
g17
VSBAR
p14084
sbatp14085
Rp14086
(dp14087
g17
VVP
p14088
sbatp14089
Rp14090
(dp14091
g17
VVP
p14092
sbatp14093
Rp14094
(dp14095
g17
g101
sbatp14096
Rp14097
(dp14098
g17
VSBAR
p14099
sbatp14100
Rp14101
(dp14102
g17
VNP
p14103
sbatp14104
Rp14105
(dp14106
g17
VVP
p14107
sbag5
(g6
g7
(lp14108
g352
atp14109
Rp14110
(dp14111
g17
g352
sbatp14112
Rp14113
(dp14114
g17
g101
sbatp14115
Rp14116
(dp14117
g17
VROOT
p14118
sbasg363
(icmyPackage
CorE
p14119
(dp14120
g366
(lp14121
(I0
I27
tp14122
a(I0
I33
tp14123
asg370
g14064
sbsg371
(icmyPackage
CorE
p14124
(dp14125
g366
(lp14126
(I0
I2
tp14127
a(I0
I25
tp14128
asg370
g5
(g6
g7
(lp14129
g13795
ag13813
ag13830
ag13852
ag13864
ag13888
ag13895
ag13902
ag13942
ag13949
ag13977
ag13983
ag13990
atp14130
Rp14131
(dp14132
g17
g381
sbsbsg382
g2038
sg403
(lp14133
(icmyPackage
Sent
p14134
(dp14135
g407
I6
sg408
I38
sg409
S'Looking for a changeable country is a process of search whereby only certain values are allowed for certain variables and goals that become unsatisfied are re-satisfied by changing only certain variables in certain ways.'
p14136
sg411
I0
sg412
I111
sg370
(lp14137
g14116
asbasba.