(lp0
(icmyPackage
CELink
p1
(dp2
S'PTreelst'
p3
(lp4
ccopy_reg
_reconstructor
p5
(cnltk.tree
Tree
p6
c__builtin__
list
p7
(lp8
g5
(g6
g7
(lp9
g5
(g6
g7
(lp10
g5
(g6
g7
(lp11
VAt
p12
atp13
Rp14
(dp15
S'_label'
p16
VIN
p17
sbag5
(g6
g7
(lp18
g5
(g6
g7
(lp19
Vthe
p20
atp21
Rp22
(dp23
g16
VDT
p24
sbag5
(g6
g7
(lp25
Vtime
p26
atp27
Rp28
(dp29
g16
VNN
p30
sbatp31
Rp32
(dp33
g16
VNP
p34
sbatp35
Rp36
(dp37
g16
VPP
p38
sbag5
(g6
g7
(lp39
V,
p40
atp41
Rp42
(dp43
g16
g40
sbag5
(g6
g7
(lp44
g5
(g6
g7
(lp45
Vthis
p46
atp47
Rp48
(dp49
g16
VDT
p50
sbatp51
Rp52
(dp53
g16
VNP
p54
sbag5
(g6
g7
(lp55
g5
(g6
g7
(lp56
Vwas
p57
atp58
Rp59
(dp60
g16
VVBD
p61
sbag5
(g6
g7
(lp62
g5
(g6
g7
(lp63
Vconsidered
p64
atp65
Rp66
(dp67
g16
VVBN
p68
sbag5
(g6
g7
(lp69
g5
(g6
g7
(lp70
Va
p71
atp72
Rp73
(dp74
g16
VDT
p75
sbag5
(g6
g7
(lp76
Vbreakthrough
p77
atp78
Rp79
(dp80
g16
VNN
p81
sbatp82
Rp83
(dp84
g16
VNP
p85
sbag5
(g6
g7
(lp86
g5
(g6
g7
(lp87
Vbecause
p88
atp89
Rp90
(dp91
g16
VIN
p92
sbag5
(g6
g7
(lp93
g5
(g6
g7
(lp94
g5
(g6
g7
(lp95
Vrelational
p96
atp97
Rp98
(dp99
g16
VJJ
p100
sbag5
(g6
g7
(lp101
Vsystems
p102
atp103
Rp104
(dp105
g16
VNNS
p106
sbatp107
Rp108
(dp109
g16
VNP
p110
sbag5
(g6
g7
(lp111
g5
(g6
g7
(lp112
Vhad
p113
atp114
Rp115
(dp116
g16
VVBD
p117
sbag5
(g6
g7
(lp118
g5
(g6
g7
(lp119
g5
(g6
g7
(lp120
g71
atp121
Rp122
(dp123
g16
VDT
p124
sbag5
(g6
g7
(lp125
Vreputation
p126
atp127
Rp128
(dp129
g16
VNN
p130
sbatp131
Rp132
(dp133
g16
VNP
p134
sbag5
(g6
g7
(lp135
g5
(g6
g7
(lp136
Vfor
p137
atp138
Rp139
(dp140
g16
VIN
p141
sbag5
(g6
g7
(lp142
g5
(g6
g7
(lp143
Vpoor
p144
atp145
Rp146
(dp147
g16
VJJ
p148
sbag5
(g6
g7
(lp149
Vperformance
p150
atp151
Rp152
(dp153
g16
VNN
p154
sbag5
(g6
g7
(lp155
V-LSB-
p156
atp157
Rp158
(dp159
g16
VNNP
p160
sbag5
(g6
g7
(lp161
VTandem
p162
atp163
Rp164
(dp165
g16
VNNP
p166
sbag5
(g6
g7
(lp167
V-RSB-
p168
atp169
Rp170
(dp171
g16
VNNP
p172
sbatp173
Rp174
(dp175
g16
VNP
p176
sbatp177
Rp178
(dp179
g16
VPP
p180
sbatp181
Rp182
(dp183
g16
VNP
p184
sbatp185
Rp186
(dp187
g16
VVP
p188
sbatp189
Rp190
(dp191
g16
VS
p192
sbatp193
Rp194
(dp195
g16
VSBAR
p196
sbatp197
Rp198
(dp199
g16
VVP
p200
sbatp201
Rp202
(dp203
g16
VVP
p204
sbag5
(g6
g7
(lp205
V.
p206
atp207
Rp208
(dp209
g16
g206
sbatp210
Rp211
(dp212
g16
g192
sbatp213
Rp214
(dp215
g16
VROOT
p216
sbasS'cause'
p217
(icmyPackage
CorE
p218
(dp219
S'span'
p220
(lp221
(I0
I10
tp222
a(I0
I21
tp223
asS'PTree'
p224
g5
(g6
g7
(lp225
g190
ag208
atp226
Rp227
(dp228
g16
S'ROOT'
p229
sbsbsS'effect'
p230
(icmyPackage
CorE
p231
(dp232
g220
(lp233
(I0
I0
tp234
a(I0
I8
tp235
asg224
g5
(g6
g7
(lp236
g36
ag42
ag52
ag59
ag66
ag83
atp237
Rp238
(dp239
g16
g229
sbsbsS'pt'
p240
(icmyPackage
pattern
p241
(dp242
S'pfreq'
p243
I407
sS'moresent'
p244
I1
sS'main_token'
p245
(lp246
(lp247
S'because'
p248
aasS'ptype'
p249
(lp250
I3
aI1
aI1
asS'cases'
p251
(lp252
S'It ends up in burnout and less production, because we inevitably run out of energy.'
p253
asS'id'
p254
I76
sS'constraints'
p255
(lp256
(lp257
S'&R'
p258
aS'(,)'
p259
aS'(&ADV)'
p260
aa(lp261
S'&C'
p262
aasbsS'sInfo'
p263
(lp264
(icmyPackage
Sent
p265
(dp266
S'Ctag'
p267
I1
sS'Ptag'
p268
I3
sS'text'
p269
S'At the time, this was considered a breakthrough because relational systems had a reputation for poor performance [Tandem].'
p270
sS'SCtag'
p271
I0
sS'Stag'
p272
I10
sg224
(lp273
g214
asbasba(icmyPackage
CELink
p274
(dp275
g3
(lp276
g5
(g6
g7
(lp277
g5
(g6
g7
(lp278
g5
(g6
g7
(lp279
g5
(g6
g7
(lp280
VInformal
p281
atp282
Rp283
(dp284
g16
VJJ
p285
sbag5
(g6
g7
(lp286
Vdefinitions
p287
atp288
Rp289
(dp290
g16
VNNS
p291
sbatp292
Rp293
(dp294
g16
VNP
p295
sbag5
(g6
g7
(lp296
g5
(g6
g7
(lp297
V-LSB-
p298
atp299
Rp300
(dp301
g16
VVBZ
p302
sbag5
(g6
g7
(lp303
g5
(g6
g7
(lp304
g5
(g6
g7
(lp305
g5
(g6
g7
(lp306
g5
(g6
g7
(lp307
VDatamation
p308
atp309
Rp310
(dp311
g16
VNNP
p312
sbag5
(g6
g7
(lp313
V-RSB-
p314
atp315
Rp316
(dp317
g16
VNNP
p318
sbatp319
Rp320
(dp321
g16
VNP
p322
sbag5
(g6
g7
(lp323
g40
atp324
Rp325
(dp326
g16
g40
sbag5
(g6
g7
(lp327
g5
(g6
g7
(lp328
V-LSB-
p329
atp330
Rp331
(dp332
g16
VJJ
p333
sbag5
(g6
g7
(lp334
V1Ktps
p335
atp336
Rp337
(dp338
g16
VJJ
p339
sbag5
(g6
g7
(lp340
V-RSB-
p341
atp342
Rp343
(dp344
g16
VNNS
p345
sbatp346
Rp347
(dp348
g16
VNP
p349
sbag5
(g6
g7
(lp350
Vand
p351
atp352
Rp353
(dp354
g16
VCC
p355
sbag5
(g6
g7
(lp356
g5
(g6
g7
(lp357
Vbench-marketing
p358
atp359
Rp360
(dp361
g16
VNN
p362
sbatp363
Rp364
(dp365
g16
VNP
p366
sbatp367
Rp368
(dp369
g16
VNP
p370
sbag5
(g6
g7
(lp371
g5
(g6
g7
(lp372
Veventually
p373
atp374
Rp375
(dp376
g16
VRB
p377
sbatp378
Rp379
(dp380
g16
VADVP
p381
sbatp382
Rp383
(dp384
g16
VNP
p385
sbag5
(g6
g7
(lp386
g5
(g6
g7
(lp387
Vled
p388
atp389
Rp390
(dp391
g16
VVBN
p392
sbag5
(g6
g7
(lp393
g5
(g6
g7
(lp394
Vto
p395
atp396
Rp397
(dp398
g16
VTO
p399
sbag5
(g6
g7
(lp400
g5
(g6
g7
(lp401
g5
(g6
g7
(lp402
Vthe
p403
atp404
Rp405
(dp406
g16
VDT
p407
sbag5
(g6
g7
(lp408
Vformation
p409
atp410
Rp411
(dp412
g16
VNN
p413
sbatp414
Rp415
(dp416
g16
VNP
p417
sbag5
(g6
g7
(lp418
g5
(g6
g7
(lp419
Vof
p420
atp421
Rp422
(dp423
g16
VIN
p424
sbag5
(g6
g7
(lp425
g5
(g6
g7
(lp426
Vthe
p427
atp428
Rp429
(dp430
g16
VDT
p431
sbag5
(g6
g7
(lp432
VTransaction
p433
atp434
Rp435
(dp436
g16
VNNP
p437
sbag5
(g6
g7
(lp438
VProcessing
p439
atp440
Rp441
(dp442
g16
VNNP
p443
sbag5
(g6
g7
(lp444
VPerformance
p445
atp446
Rp447
(dp448
g16
VNNP
p449
sbag5
(g6
g7
(lp450
VCouncil
p451
atp452
Rp453
(dp454
g16
VNNP
p455
sbatp456
Rp457
(dp458
g16
VNP
p459
sbatp460
Rp461
(dp462
g16
VPP
p463
sbatp464
Rp465
(dp466
g16
VNP
p467
sbatp468
Rp469
(dp470
g16
VPP
p471
sbatp472
Rp473
(dp474
g16
VVP
p475
sbag5
(g6
g7
(lp476
g5
(g6
g7
(lp477
V-LRB-
p478
atp479
Rp480
(dp481
g16
V-LRB-
p482
sbag5
(g6
g7
(lp483
g5
(g6
g7
(lp484
Vwww.tpc.org
p485
atp486
Rp487
(dp488
g16
VVBG
p489
sbatp490
Rp491
(dp492
g16
VVP
p493
sbag5
(g6
g7
(lp494
V-RRB-
p495
atp496
Rp497
(dp498
g16
V-RRB-
p499
sbatp500
Rp501
(dp502
g16
VPRN
p503
sbag5
(g6
g7
(lp504
g5
(g6
g7
(lp505
g5
(g6
g7
(lp506
Vwhich
p507
atp508
Rp509
(dp510
g16
VWDT
p511
sbatp512
Rp513
(dp514
g16
VWHNP
p515
sbag5
(g6
g7
(lp516
g5
(g6
g7
(lp517
g5
(g6
g7
(lp518
Vdefined
p519
atp520
Rp521
(dp522
g16
VVBD
p523
sbag5
(g6
g7
(lp524
g5
(g6
g7
(lp525
Vthe
p526
atp527
Rp528
(dp529
g16
VDT
p530
sbag5
(g6
g7
(lp531
VTPC-A
p532
atp533
Rp534
(dp535
g16
VJJ
p536
sbag5
(g6
g7
(lp537
Vtransaction
p538
atp539
Rp540
(dp541
g16
VNN
p542
sbag5
(g6
g7
(lp543
Vprofile
p544
atp545
Rp546
(dp547
g16
VNN
p548
sbatp549
Rp550
(dp551
g16
VNP
p552
sbag5
(g6
g7
(lp553
g5
(g6
g7
(lp554
g5
(g6
g7
(lp555
Vlargely
p556
atp557
Rp558
(dp559
g16
VRB
p560
sbatp561
Rp562
(dp563
g16
VADVP
p564
sbag5
(g6
g7
(lp565
Vin
p566
atp567
Rp568
(dp569
g16
VIN
p570
sbag5
(g6
g7
(lp571
g5
(g6
g7
(lp572
Vline
p573
atp574
Rp575
(dp576
g16
VNN
p577
sbatp578
Rp579
(dp580
g16
VNP
p581
sbatp582
Rp583
(dp584
g16
VPP
p585
sbag5
(g6
g7
(lp586
g5
(g6
g7
(lp587
Vwith
p588
atp589
Rp590
(dp591
g16
VIN
p592
sbag5
(g6
g7
(lp593
g5
(g6
g7
(lp594
VDebitCredit
p595
atp596
Rp597
(dp598
g16
VNNP
p599
sbag5
(g6
g7
(lp600
V-LSB-
p601
atp602
Rp603
(dp604
g16
VNNP
p605
sbag5
(g6
g7
(lp606
VSerlin
p607
atp608
Rp609
(dp610
g16
VNNP
p611
sbag5
(g6
g7
(lp612
V-RSB-
p613
atp614
Rp615
(dp616
g16
VNNP
p617
sbatp618
Rp619
(dp620
g16
VNP
p621
sbatp622
Rp623
(dp624
g16
VPP
p625
sbatp626
Rp627
(dp628
g16
VVP
p629
sbatp630
Rp631
(dp632
g16
g192
sbatp633
Rp634
(dp635
g16
VSBAR
p636
sbatp637
Rp638
(dp639
g16
VNP
p640
sbatp641
Rp642
(dp643
g16
VVP
p644
sbag5
(g6
g7
(lp645
g206
atp646
Rp647
(dp648
g16
g206
sbatp649
Rp650
(dp651
g16
g192
sbatp652
Rp653
(dp654
g16
VROOT
p655
sbasg217
(icmyPackage
CorE
p656
(dp657
g220
(lp658
(I0
I3
tp659
a(I0
I11
tp660
asg224
g383
sbsg230
(icmyPackage
CorE
p661
(dp662
g220
(lp663
(I0
I14
tp664
a(I0
I37
tp665
asg224
g5
(g6
g7
(lp666
g465
ag501
ag513
ag521
ag550
ag583
ag590
ag597
ag603
ag609
atp667
Rp668
(dp669
g16
g229
sbsbsg240
(icmyPackage
pattern
p670
(dp671
g243
I0
sg244
I0
sg245
(lp672
(lp673
(lp674
S'lead'
p675
aS'leads'
p676
aS'led'
p677
aaS'to'
p678
aasg249
(lp679
I4
aI1
aI1
asg251
(lp680
S'Multi-disciplinary study will lead to breakthrough in sciences, technologies, engineering and philosophy.'
p681
asg254
I86
sg255
(lp682
(lp683
S'&V-ing/&NP@C@'
p684
aS'(&CAN/have/has/had)'
p685
aa(lp686
S'&NP@R@'
p687
aS'(&Clause@R@)'
p688
aasbsg263
(lp689
(icmyPackage
Sent
p690
(dp691
g267
I1
sg268
I4
sg269
S'Informal definitions [Datamation], [1Ktps] and bench-marketing eventually led to the formation of the Transaction Processing Performance Council (www.tpc.org) which defined the TPC-A transaction profile largely in line with DebitCredit [Serlin].'
p692
sg271
I0
sg272
I13
sg224
(lp693
g653
asbasba(icmyPackage
CELink
p694
(dp695
g3
(lp696
g5
(g6
g7
(lp697
g5
(g6
g7
(lp698
g5
(g6
g7
(lp699
g5
(g6
g7
(lp700
Vbanking
p701
atp702
Rp703
(dp704
g16
VNN
p705
sbatp706
Rp707
(dp708
g16
VNP
p709
sbag5
(g6
g7
(lp710
g5
(g6
g7
(lp711
Vtransitions
p712
atp713
Rp714
(dp715
g16
VVBZ
p716
sbag5
(g6
g7
(lp717
g5
(g6
g7
(lp718
Vso
p719
atp720
Rp721
(dp722
g16
VIN
p723
sbag5
(g6
g7
(lp724
g5
(g6
g7
(lp725
g5
(g6
g7
(lp726
Vthe
p727
atp728
Rp729
(dp730
g16
VDT
p731
sbag5
(g6
g7
(lp732
Vtotal
p733
atp734
Rp735
(dp736
g16
VNN
p737
sbatp738
Rp739
(dp740
g16
VNP
p741
sbag5
(g6
g7
(lp742
g5
(g6
g7
(lp743
Vwould
p744
atp745
Rp746
(dp747
g16
VMD
p748
sbag5
(g6
g7
(lp749
g5
(g6
g7
(lp750
Vbe
p751
atp752
Rp753
(dp754
g16
VVB
p755
sbag5
(g6
g7
(lp756
g5
(g6
g7
(lp757
g5
(g6
g7
(lp758
V1,000
p759
atp760
Rp761
(dp762
g16
VCD
p763
sbag5
(g6
g7
(lp764
Vtransactions
p765
atp766
Rp767
(dp768
g16
VNNS
p769
sbatp770
Rp771
(dp772
g16
VNP
p773
sbag5
(g6
g7
(lp774
g5
(g6
g7
(lp775
Vper
p776
atp777
Rp778
(dp779
g16
VIN
p780
sbag5
(g6
g7
(lp781
g5
(g6
g7
(lp782
g5
(g6
g7
(lp783
Vsecond
p784
atp785
Rp786
(dp787
g16
VJJ
p788
sbatp789
Rp790
(dp791
g16
VNP
p792
sbag5
(g6
g7
(lp793
Vand
p794
atp795
Rp796
(dp797
g16
VCC
p798
sbag5
(g6
g7
(lp799
g5
(g6
g7
(lp800
V100M
p801
atp802
Rp803
(dp804
g16
VCD
p805
sbag5
(g6
g7
(lp806
Vaccounts
p807
atp808
Rp809
(dp810
g16
VNNS
p811
sbatp812
Rp813
(dp814
g16
VNP
p815
sbatp816
Rp817
(dp818
g16
VNP
p819
sbatp820
Rp821
(dp822
g16
VPP
p823
sbatp824
Rp825
(dp826
g16
VNP
p827
sbatp828
Rp829
(dp830
g16
VVP
p831
sbatp832
Rp833
(dp834
g16
VVP
p835
sbatp836
Rp837
(dp838
g16
g192
sbatp839
Rp840
(dp841
g16
VSBAR
p842
sbatp843
Rp844
(dp845
g16
VVP
p846
sbag5
(g6
g7
(lp847
g206
atp848
Rp849
(dp850
g16
g206
sbatp851
Rp852
(dp853
g16
g192
sbatp854
Rp855
(dp856
g16
VROOT
p857
sbasg217
(icmyPackage
CorE
p858
(dp859
g220
(lp860
(I0
I0
tp861
a(I0
I1
tp862
asg224
g5
(g6
g7
(lp863
g707
ag714
atp864
Rp865
(dp866
g16
g229
sbsbsg230
(icmyPackage
CorE
p867
(dp868
g220
(lp869
(I0
I3
tp870
a(I0
I14
tp871
asg224
g5
(g6
g7
(lp872
g837
ag849
atp873
Rp874
(dp875
g16
g229
sbsbsg240
(icmyPackage
pattern
p876
(dp877
g243
I265
sg244
I1
sg245
(lp878
(lp879
S'so'
p880
aasg249
(lp881
I1
aI1
aI1
asg251
(lp882
S'It was not long before he saw me looking at him, and so he began to move.'
p883
asg254
I0
sg255
(lp884
(lp885
S'&C'
p886
aS'(,/;/./--)'
p887
aS'(&AND)'
p888
aa(lp889
S'(-far)'
p890
aS'(,)'
p891
aS'&R'
p892
aasbsg263
(lp893
(icmyPackage
Sent
p894
(dp895
g267
I2
sg268
I6
sg269
S'banking transitions so the total would be 1,000 transactions per second and 100M accounts.'
p896
sg271
I0
sg272
I23
sg224
(lp897
g855
asbasba(icmyPackage
CELink
p898
(dp899
g3
(lp900
g5
(g6
g7
(lp901
g5
(g6
g7
(lp902
g5
(g6
g7
(lp903
g5
(g6
g7
(lp904
VIt
p905
atp906
Rp907
(dp908
g16
VPRP
p909
sbatp910
Rp911
(dp912
g16
VNP
p913
sbag5
(g6
g7
(lp914
g5
(g6
g7
(lp915
Vtakes
p916
atp917
Rp918
(dp919
g16
VVBZ
p920
sbag5
(g6
g7
(lp921
g5
(g6
g7
(lp922
g5
(g6
g7
(lp923
V365
p924
atp925
Rp926
(dp927
g16
VJJ
p928
sbag5
(g6
g7
(lp929
Vseconds
p930
atp931
Rp932
(dp933
g16
VNNS
p934
sbatp935
Rp936
(dp937
g16
VNP
p938
sbag5
(g6
g7
(lp939
g5
(g6
g7
(lp940
Vto
p941
atp942
Rp943
(dp944
g16
VTO
p945
sbag5
(g6
g7
(lp946
g5
(g6
g7
(lp947
g5
(g6
g7
(lp948
Vcreate
p949
atp950
Rp951
(dp952
g16
VVB
p953
sbag5
(g6
g7
(lp954
g5
(g6
g7
(lp955
Vthe
p956
atp957
Rp958
(dp959
g16
VDT
p960
sbag5
(g6
g7
(lp961
Vdatabase
p962
atp963
Rp964
(dp965
g16
VNN
p966
sbatp967
Rp968
(dp969
g16
VNP
p970
sbatp971
Rp972
(dp973
g16
VVP
p974
sbag5
(g6
g7
(lp975
Vand
p976
atp977
Rp978
(dp979
g16
VCC
p980
sbag5
(g6
g7
(lp981
g5
(g6
g7
(lp982
Vlog
p983
atp984
Rp985
(dp986
g16
VVB
p987
sbag5
(g6
g7
(lp988
g5
(g6
g7
(lp989
g5
(g6
g7
(lp990
g5
(g6
g7
(lp991
Vfiles
p992
atp993
Rp994
(dp995
g16
VNNS
p996
sbatp997
Rp998
(dp999
g16
VNP
p1000
sbag5
(g6
g7
(lp1001
Vand
p1002
atp1003
Rp1004
(dp1005
g16
VCC
p1006
sbag5
(g6
g7
(lp1007
g5
(g6
g7
(lp1008
V173
p1009
atp1010
Rp1011
(dp1012
g16
VCD
p1013
sbag5
(g6
g7
(lp1014
Vseconds
p1015
atp1016
Rp1017
(dp1018
g16
VNNS
p1019
sbatp1020
Rp1021
(dp1022
g16
VNP
p1023
sbatp1024
Rp1025
(dp1026
g16
VNP
p1027
sbag5
(g6
g7
(lp1028
g5
(g6
g7
(lp1029
Vto
p1030
atp1031
Rp1032
(dp1033
g16
VTO
p1034
sbag5
(g6
g7
(lp1035
g5
(g6
g7
(lp1036
Vpopulate
p1037
atp1038
Rp1039
(dp1040
g16
VVB
p1041
sbag5
(g6
g7
(lp1042
g5
(g6
g7
(lp1043
g5
(g6
g7
(lp1044
Vthe
p1045
atp1046
Rp1047
(dp1048
g16
VDT
p1049
sbag5
(g6
g7
(lp1050
V10M
p1051
atp1052
Rp1053
(dp1054
g16
VCD
p1055
sbag5
(g6
g7
(lp1056
Vaccounts
p1057
atp1058
Rp1059
(dp1060
g16
VNNS
p1061
sbatp1062
Rp1063
(dp1064
g16
VNP
p1065
sbag5
(g6
g7
(lp1066
Vand
p1067
atp1068
Rp1069
(dp1070
g16
VCC
p1071
sbag5
(g6
g7
(lp1072
g5
(g6
g7
(lp1073
V10,000
p1074
atp1075
Rp1076
(dp1077
g16
VCD
p1078
sbag5
(g6
g7
(lp1079
Vtellers
p1080
atp1081
Rp1082
(dp1083
g16
VNNS
p1084
sbatp1085
Rp1086
(dp1087
g16
VNP
p1088
sbatp1089
Rp1090
(dp1091
g16
VNP
p1092
sbatp1093
Rp1094
(dp1095
g16
VVP
p1096
sbatp1097
Rp1098
(dp1099
g16
VVP
p1100
sbatp1101
Rp1102
(dp1103
g16
g192
sbatp1104
Rp1105
(dp1106
g16
VVP
p1107
sbatp1108
Rp1109
(dp1110
g16
VVP
p1111
sbatp1112
Rp1113
(dp1114
g16
VVP
p1115
sbatp1116
Rp1117
(dp1118
g16
g192
sbatp1119
Rp1120
(dp1121
g16
VVP
p1122
sbag5
(g6
g7
(lp1123
g206
atp1124
Rp1125
(dp1126
g16
g206
sbatp1127
Rp1128
(dp1129
g16
g192
sbatp1130
Rp1131
(dp1132
g16
VROOT
p1133
sbag5
(g6
g7
(lp1134
g5
(g6
g7
(lp1135
g5
(g6
g7
(lp1136
g5
(g6
g7
(lp1137
VSo
p1138
atp1139
Rp1140
(dp1141
g16
VRB
p1142
sbatp1143
Rp1144
(dp1145
g16
VADVP
p1146
sbag5
(g6
g7
(lp1147
g40
atp1148
Rp1149
(dp1150
g16
g40
sbag5
(g6
g7
(lp1151
g5
(g6
g7
(lp1152
Vthe
p1153
atp1154
Rp1155
(dp1156
g16
VDT
p1157
sbag5
(g6
g7
(lp1158
Vbenchmark
p1159
atp1160
Rp1161
(dp1162
g16
VNN
p1163
sbatp1164
Rp1165
(dp1166
g16
VNP
p1167
sbag5
(g6
g7
(lp1168
g5
(g6
g7
(lp1169
Vtakes
p1170
atp1171
Rp1172
(dp1173
g16
VVBZ
p1174
sbag5
(g6
g7
(lp1175
g5
(g6
g7
(lp1176
Vten
p1177
atp1178
Rp1179
(dp1180
g16
VCD
p1181
sbag5
(g6
g7
(lp1182
Vminutes
p1183
atp1184
Rp1185
(dp1186
g16
VNNS
p1187
sbatp1188
Rp1189
(dp1190
g16
VNP
p1191
sbag5
(g6
g7
(lp1192
g5
(g6
g7
(lp1193
g5
(g6
g7
(lp1194
Vto
p1195
atp1196
Rp1197
(dp1198
g16
VTO
p1199
sbag5
(g6
g7
(lp1200
g5
(g6
g7
(lp1201
Vset
p1202
atp1203
Rp1204
(dp1205
g16
VVB
p1206
sbag5
(g6
g7
(lp1207
g5
(g6
g7
(lp1208
Vup
p1209
atp1210
Rp1211
(dp1212
g16
VRP
p1213
sbatp1214
Rp1215
(dp1216
g16
VPRT
p1217
sbatp1218
Rp1219
(dp1220
g16
VVP
p1221
sbatp1222
Rp1223
(dp1224
g16
VVP
p1225
sbatp1226
Rp1227
(dp1228
g16
g192
sbatp1229
Rp1230
(dp1231
g16
VVP
p1232
sbag5
(g6
g7
(lp1233
g206
atp1234
Rp1235
(dp1236
g16
g206
sbatp1237
Rp1238
(dp1239
g16
g192
sbatp1240
Rp1241
(dp1242
g16
VROOT
p1243
sbasg217
(icmyPackage
CorE
p1244
(dp1245
g220
(lp1246
(I0
I0
tp1247
a(I0
I21
tp1248
asg224
g5
(g6
g7
(lp1249
g911
ag1120
atp1250
Rp1251
(dp1252
g16
g229
sbsbsg230
(icmyPackage
CorE
p1253
(dp1254
g220
(lp1255
(I1
I2
tp1256
a(I1
I10
tp1257
asg224
g5
(g6
g7
(lp1258
g1165
ag1230
ag1235
atp1259
Rp1260
(dp1261
g16
g229
sbsbsg240
g876
sg263
(lp1262
(icmyPackage
Sent
p1263
(dp1264
g267
I2
sg268
I12
sg269
S'It takes 365 seconds to create the database and log files and 173 seconds to populate the 10M accounts and 10,000 tellers.'
p1265
sg271
I0
sg272
I35
sg224
(lp1266
g1131
asba(icmyPackage
Sent
p1267
(dp1268
g267
I2
sg268
I12
sg269
S'So, the benchmark takes ten minutes to set up.'
p1269
sg271
I0
sg272
I36
sg224
(lp1270
g1241
asbasba(icmyPackage
CELink
p1271
(dp1272
g3
(lp1273
g5
(g6
g7
(lp1274
g5
(g6
g7
(lp1275
g5
(g6
g7
(lp1276
g5
(g6
g7
(lp1277
g5
(g6
g7
(lp1278
VFigure
p1279
atp1280
Rp1281
(dp1282
g16
VNN
p1283
sbatp1284
Rp1285
(dp1286
g16
VNP
p1287
sbag5
(g6
g7
(lp1288
g5
(g6
g7
(lp1289
g5
(g6
g7
(lp1290
g5
(g6
g7
(lp1291
g5
(g6
g7
(lp1292
V2
p1293
atp1294
Rp1295
(dp1296
g16
VLS
p1297
sbag5
(g6
g7
(lp1298
g206
atp1299
Rp1300
(dp1301
g16
g206
sbatp1302
Rp1303
(dp1304
g16
VLST
p1305
sbag5
(g6
g7
(lp1306
g5
(g6
g7
(lp1307
VA
p1308
atp1309
Rp1310
(dp1311
g16
VNNP
p1312
sbatp1313
Rp1314
(dp1315
g16
VNP
p1316
sbag5
(g6
g7
(lp1317
g5
(g6
g7
(lp1318
Vshows
p1319
atp1320
Rp1321
(dp1322
g16
VVBZ
p1323
sbag5
(g6
g7
(lp1324
g5
(g6
g7
(lp1325
g5
(g6
g7
(lp1326
Vthe
p1327
atp1328
Rp1329
(dp1330
g16
VDT
p1331
sbag5
(g6
g7
(lp1332
Vdynamics
p1333
atp1334
Rp1335
(dp1336
g16
VNNS
p1337
sbatp1338
Rp1339
(dp1340
g16
VNP
p1341
sbag5
(g6
g7
(lp1342
g5
(g6
g7
(lp1343
Vof
p1344
atp1345
Rp1346
(dp1347
g16
VIN
p1348
sbag5
(g6
g7
(lp1349
g5
(g6
g7
(lp1350
Vramp
p1351
atp1352
Rp1353
(dp1354
g16
VNN
p1355
sbatp1356
Rp1357
(dp1358
g16
VNP
p1359
sbatp1360
Rp1361
(dp1362
g16
VPP
p1363
sbatp1364
Rp1365
(dp1366
g16
VNP
p1367
sbatp1368
Rp1369
(dp1370
g16
VVP
p1371
sbatp1372
Rp1373
(dp1374
g16
g192
sbag5
(g6
g7
(lp1375
g5
(g6
g7
(lp1376
g5
(g6
g7
(lp1377
Vup
p1378
atp1379
Rp1380
(dp1381
g16
VRB
p1382
sbag5
(g6
g7
(lp1383
Vand
p1384
atp1385
Rp1386
(dp1387
g16
VCC
p1388
sbag5
(g6
g7
(lp1389
Vof
p1390
atp1391
Rp1392
(dp1393
g16
VRB
p1394
sbatp1395
Rp1396
(dp1397
g16
VADVP
p1398
sbag5
(g6
g7
(lp1399
g5
(g6
g7
(lp1400
Vadding
p1401
atp1402
Rp1403
(dp1404
g16
VVBG
p1405
sbag5
(g6
g7
(lp1406
g5
(g6
g7
(lp1407
Vmore
p1408
atp1409
Rp1410
(dp1411
g16
VJJR
p1412
sbag5
(g6
g7
(lp1413
Vrequest
p1414
atp1415
Rp1416
(dp1417
g16
VNN
p1418
sbatp1419
Rp1420
(dp1421
g16
VNP
p1422
sbatp1423
Rp1424
(dp1425
g16
VVP
p1426
sbatp1427
Rp1428
(dp1429
g16
g192
sbatp1430
Rp1431
(dp1432
g16
g192
sbatp1433
Rp1434
(dp1435
g16
VSBAR
p1436
sbatp1437
Rp1438
(dp1439
g16
VNP
p1440
sbag5
(g6
g7
(lp1441
g5
(g6
g7
(lp1442
Vstreams
p1443
atp1444
Rp1445
(dp1446
g16
VVBZ
p1447
sbag5
(g6
g7
(lp1448
g5
(g6
g7
(lp1449
V-LRB-
p1450
atp1451
Rp1452
(dp1453
g16
V-LRB-
p1454
sbag5
(g6
g7
(lp1455
Vthreads
p1456
atp1457
Rp1458
(dp1459
g16
VNNS
p1460
sbag5
(g6
g7
(lp1461
V-RRB-
p1462
atp1463
Rp1464
(dp1465
g16
V-RRB-
p1466
sbatp1467
Rp1468
(dp1469
g16
VNP
p1470
sbatp1471
Rp1472
(dp1473
g16
VVP
p1474
sbag5
(g6
g7
(lp1475
g206
atp1476
Rp1477
(dp1478
g16
g206
sbatp1479
Rp1480
(dp1481
g16
g192
sbatp1482
Rp1483
(dp1484
g16
VROOT
p1485
sbag5
(g6
g7
(lp1486
g5
(g6
g7
(lp1487
g5
(g6
g7
(lp1488
g5
(g6
g7
(lp1489
VAs
p1490
atp1491
Rp1492
(dp1493
g16
VIN
p1494
sbag5
(g6
g7
(lp1495
g5
(g6
g7
(lp1496
g5
(g6
g7
(lp1497
Vthreads
p1498
atp1499
Rp1500
(dp1501
g16
VNNS
p1502
sbatp1503
Rp1504
(dp1505
g16
VNP
p1506
sbag5
(g6
g7
(lp1507
g5
(g6
g7
(lp1508
Vare
p1509
atp1510
Rp1511
(dp1512
g16
VVBP
p1513
sbag5
(g6
g7
(lp1514
g5
(g6
g7
(lp1515
Vadded
p1516
atp1517
Rp1518
(dp1519
g16
VVBN
p1520
sbatp1521
Rp1522
(dp1523
g16
VVP
p1524
sbatp1525
Rp1526
(dp1527
g16
VVP
p1528
sbatp1529
Rp1530
(dp1531
g16
g192
sbatp1532
Rp1533
(dp1534
g16
VSBAR
p1535
sbag5
(g6
g7
(lp1536
g5
(g6
g7
(lp1537
Vone
p1538
atp1539
Rp1540
(dp1541
g16
VPRP
p1542
sbatp1543
Rp1544
(dp1545
g16
VNP
p1546
sbag5
(g6
g7
(lp1547
g5
(g6
g7
(lp1548
Vbegins
p1549
atp1550
Rp1551
(dp1552
g16
VVBZ
p1553
sbag5
(g6
g7
(lp1554
g5
(g6
g7
(lp1555
g5
(g6
g7
(lp1556
Vto
p1557
atp1558
Rp1559
(dp1560
g16
VTO
p1561
sbag5
(g6
g7
(lp1562
g5
(g6
g7
(lp1563
Vsee
p1564
atp1565
Rp1566
(dp1567
g16
VVB
p1568
sbag5
(g6
g7
(lp1569
g5
(g6
g7
(lp1570
Vgroup-commit
p1571
atp1572
Rp1573
(dp1574
g16
VNN
p1575
sbag5
(g6
g7
(lp1576
Vand
p1577
atp1578
Rp1579
(dp1580
g16
VCC
p1581
sbag5
(g6
g7
(lp1582
VCPU
p1583
atp1584
Rp1585
(dp1586
g16
VNN
p1587
sbag5
(g6
g7
(lp1588
Vsavings
p1589
atp1590
Rp1591
(dp1592
g16
VNNS
p1593
sbatp1594
Rp1595
(dp1596
g16
VNP
p1597
sbag5
(g6
g7
(lp1598
g5
(g6
g7
(lp1599
Vfrom
p1600
atp1601
Rp1602
(dp1603
g16
VIN
p1604
sbag5
(g6
g7
(lp1605
g5
(g6
g7
(lp1606
Vshared
p1607
atp1608
Rp1609
(dp1610
g16
VVBN
p1611
sbag5
(g6
g7
(lp1612
Vcommit
p1613
atp1614
Rp1615
(dp1616
g16
VJJ
p1617
sbag5
(g6
g7
(lp1618
Vprocessing
p1619
atp1620
Rp1621
(dp1622
g16
VNN
p1623
sbatp1624
Rp1625
(dp1626
g16
VNP
p1627
sbatp1628
Rp1629
(dp1630
g16
VPP
p1631
sbatp1632
Rp1633
(dp1634
g16
VVP
p1635
sbatp1636
Rp1637
(dp1638
g16
VVP
p1639
sbatp1640
Rp1641
(dp1642
g16
g192
sbatp1643
Rp1644
(dp1645
g16
VVP
p1646
sbag5
(g6
g7
(lp1647
g206
atp1648
Rp1649
(dp1650
g16
g206
sbatp1651
Rp1652
(dp1653
g16
g192
sbatp1654
Rp1655
(dp1656
g16
VROOT
p1657
sbasg217
(icmyPackage
CorE
p1658
(dp1659
g220
(lp1660
(I1
I1
tp1661
a(I1
I16
tp1662
asg224
g5
(g6
g7
(lp1663
g1530
ag1544
ag1644
ag1649
atp1664
Rp1665
(dp1666
g16
g229
sbsbsg230
(icmyPackage
CorE
p1667
(dp1668
g220
(lp1669
(I0
I0
tp1670
a(I0
I19
tp1671
asg224
g1483
sbsg240
(icmyPackage
pattern
p1672
(dp1673
g243
I26
sg244
I1
sg245
(lp1674
(lp1675
S'as'
p1676
aasg249
(lp1677
I3
aI1
aI1
asg251
(lp1678
S'You do not need to worry about the operation, as the software is very easy to use.'
p1679
asg254
I80
sg255
(lp1680
(lp1681
S'&R@Complete@'
p1682
aS'(,)'
p1683
aS'(-such/-same/-seem/-regard/-regards/-regarded/-view/-views/-viewed/-denote/-denoted/-denotes)'
p1684
aa(lp1685
S'(-if/-follow/-follows/-&adv)'
p1686
aS'&C@Complete@'
p1687
aasbsg263
(lp1688
(icmyPackage
Sent
p1689
(dp1690
g267
I2
sg268
I12
sg269
S'Figure 2.A shows the dynamics of ramp up and of adding more request streams (threads).'
p1691
sg271
I0
sg272
I42
sg224
(lp1692
g1483
asba(icmyPackage
Sent
p1693
(dp1694
g267
I2
sg268
I12
sg269
S'As threads are added one begins to see group-commit and CPU savings from shared commit processing.'
p1695
sg271
I0
sg272
I43
sg224
(lp1696
g1655
asbasba(icmyPackage
CELink
p1697
(dp1698
g3
(lp1699
g5
(g6
g7
(lp1700
g5
(g6
g7
(lp1701
g5
(g6
g7
(lp1702
g5
(g6
g7
(lp1703
g5
(g6
g7
(lp1704
VCpuMon
p1705
atp1706
Rp1707
(dp1708
g16
VNNP
p1709
sbatp1710
Rp1711
(dp1712
g16
VNP
p1713
sbag5
(g6
g7
(lp1714
g5
(g6
g7
(lp1715
Vindicates
p1716
atp1717
Rp1718
(dp1719
g16
VVBZ
p1720
sbag5
(g6
g7
(lp1721
g5
(g6
g7
(lp1722
g5
(g6
g7
(lp1723
g5
(g6
g7
(lp1724
V1.9
p1725
atp1726
Rp1727
(dp1728
g16
VCD
p1729
sbag5
(g6
g7
(lp1730
VCPI
p1731
atp1732
Rp1733
(dp1734
g16
VCD
p1735
sbatp1736
Rp1737
(dp1738
g16
VQP
p1739
sbatp1740
Rp1741
(dp1742
g16
VNP
p1743
sbag5
(g6
g7
(lp1744
Vand
p1745
atp1746
Rp1747
(dp1748
g16
VCC
p1749
sbag5
(g6
g7
(lp1750
g5
(g6
g7
(lp1751
g5
(g6
g7
(lp1752
g5
(g6
g7
(lp1753
Vso
p1754
atp1755
Rp1756
(dp1757
g16
VRB
p1758
sbag5
(g6
g7
(lp1759
V~
p1760
atp1761
Rp1762
(dp1763
g16
VCD
p1764
sbag5
(g6
g7
(lp1765
V100
p1766
atp1767
Rp1768
(dp1769
g16
VCD
p1770
sbatp1771
Rp1772
(dp1773
g16
VQP
p1774
sbag5
(g6
g7
(lp1775
Vk
p1776
atp1777
Rp1778
(dp1779
g16
VNN
p1780
sbag5
(g6
g7
(lp1781
Vinstructions
p1782
atp1783
Rp1784
(dp1785
g16
VNNS
p1786
sbatp1787
Rp1788
(dp1789
g16
VNP
p1790
sbag5
(g6
g7
(lp1791
g5
(g6
g7
(lp1792
Vper
p1793
atp1794
Rp1795
(dp1796
g16
VIN
p1797
sbag5
(g6
g7
(lp1798
g5
(g6
g7
(lp1799
Vtransaction
p1800
atp1801
Rp1802
(dp1803
g16
VNN
p1804
sbatp1805
Rp1806
(dp1807
g16
VNP
p1808
sbatp1809
Rp1810
(dp1811
g16
VPP
p1812
sbatp1813
Rp1814
(dp1815
g16
VNP
p1816
sbatp1817
Rp1818
(dp1819
g16
VNP
p1820
sbatp1821
Rp1822
(dp1823
g16
VVP
p1824
sbatp1825
Rp1826
(dp1827
g16
g192
sbag5
(g6
g7
(lp1828
g5
(g6
g7
(lp1829
VThe
p1830
atp1831
Rp1832
(dp1833
g16
VDT
p1834
sbag5
(g6
g7
(lp1835
Vgraph
p1836
atp1837
Rp1838
(dp1839
g16
VNN
p1840
sbatp1841
Rp1842
(dp1843
g16
VNP
p1844
sbag5
(g6
g7
(lp1845
g5
(g6
g7
(lp1846
Vshows
p1847
atp1848
Rp1849
(dp1850
g16
VVBZ
p1851
sbag5
(g6
g7
(lp1852
g5
(g6
g7
(lp1853
g5
(g6
g7
(lp1854
g5
(g6
g7
(lp1855
g5
(g6
g7
(lp1856
Vapproximately
p1857
atp1858
Rp1859
(dp1860
g16
VRB
p1861
sbag5
(g6
g7
(lp1862
V3
p1863
atp1864
Rp1865
(dp1866
g16
VCD
p1867
sbatp1868
Rp1869
(dp1870
g16
VQP
p1871
sbag5
(g6
g7
(lp1872
Vtransactions
p1873
atp1874
Rp1875
(dp1876
g16
VNNS
p1877
sbatp1878
Rp1879
(dp1880
g16
VNP
p1881
sbag5
(g6
g7
(lp1882
g5
(g6
g7
(lp1883
Vper
p1884
atp1885
Rp1886
(dp1887
g16
VIN
p1888
sbag5
(g6
g7
(lp1889
g5
(g6
g7
(lp1890
Vlog
p1891
atp1892
Rp1893
(dp1894
g16
VNN
p1895
sbag5
(g6
g7
(lp1896
Vforce
p1897
atp1898
Rp1899
(dp1900
g16
VNN
p1901
sbatp1902
Rp1903
(dp1904
g16
VNP
p1905
sbatp1906
Rp1907
(dp1908
g16
VPP
p1909
sbatp1910
Rp1911
(dp1912
g16
VNP
p1913
sbag5
(g6
g7
(lp1914
g40
atp1915
Rp1916
(dp1917
g16
g40
sbag5
(g6
g7
(lp1918
g5
(g6
g7
(lp1919
g5
(g6
g7
(lp1920
g5
(g6
g7
(lp1921
Vabout
p1922
atp1923
Rp1924
(dp1925
g16
VRB
p1926
sbag5
(g6
g7
(lp1927
V500
p1928
atp1929
Rp1930
(dp1931
g16
VCD
p1932
sbatp1933
Rp1934
(dp1935
g16
VQP
p1936
sbag5
(g6
g7
(lp1937
Vlog
p1938
atp1939
Rp1940
(dp1941
g16
VNN
p1942
sbag5
(g6
g7
(lp1943
Vbytes
p1944
atp1945
Rp1946
(dp1947
g16
VNNS
p1948
sbatp1949
Rp1950
(dp1951
g16
VNP
p1952
sbag5
(g6
g7
(lp1953
g5
(g6
g7
(lp1954
Vper
p1955
atp1956
Rp1957
(dp1958
g16
VIN
p1959
sbag5
(g6
g7
(lp1960
g5
(g6
g7
(lp1961
Vtransaction
p1962
atp1963
Rp1964
(dp1965
g16
VNN
p1966
sbatp1967
Rp1968
(dp1969
g16
VNP
p1970
sbatp1971
Rp1972
(dp1973
g16
VPP
p1974
sbatp1975
Rp1976
(dp1977
g16
VNP
p1978
sbag5
(g6
g7
(lp1979
g40
atp1980
Rp1981
(dp1982
g16
g40
sbag5
(g6
g7
(lp1983
Vand
p1984
atp1985
Rp1986
(dp1987
g16
VCC
p1988
sbag5
(g6
g7
(lp1989
g5
(g6
g7
(lp1990
g5
(g6
g7
(lp1991
Vthe
p1992
atp1993
Rp1994
(dp1995
g16
VDT
p1996
sbag5
(g6
g7
(lp1997
Vdisk
p1998
atp1999
Rp2000
(dp2001
g16
VNN
p2002
sbag5
(g6
g7
(lp2003
Vcontroller
p2004
atp2005
Rp2006
(dp2007
g16
VNN
p2008
sbatp2009
Rp2010
(dp2011
g16
VNP
p2012
sbag5
(g6
g7
(lp2013
g5
(g6
g7
(lp2014
Vsaturating
p2015
atp2016
Rp2017
(dp2018
g16
VVBG
p2019
sbag5
(g6
g7
(lp2020
g5
(g6
g7
(lp2021
Vat
p2022
atp2023
Rp2024
(dp2025
g16
VIN
p2026
sbag5
(g6
g7
(lp2027
g5
(g6
g7
(lp2028
g5
(g6
g7
(lp2029
V3,500
p2030
atp2031
Rp2032
(dp2033
g16
VCD
p2034
sbag5
(g6
g7
(lp2035
Vrequests
p2036
atp2037
Rp2038
(dp2039
g16
VNNS
p2040
sbatp2041
Rp2042
(dp2043
g16
VNP
p2044
sbag5
(g6
g7
(lp2045
g5
(g6
g7
(lp2046
Vper
p2047
atp2048
Rp2049
(dp2050
g16
VIN
p2051
sbag5
(g6
g7
(lp2052
g5
(g6
g7
(lp2053
Vsecond
p2054
atp2055
Rp2056
(dp2057
g16
VNN
p2058
sbatp2059
Rp2060
(dp2061
g16
VNP
p2062
sbatp2063
Rp2064
(dp2065
g16
VPP
p2066
sbatp2067
Rp2068
(dp2069
g16
VNP
p2070
sbatp2071
Rp2072
(dp2073
g16
VPP
p2074
sbatp2075
Rp2076
(dp2077
g16
VVP
p2078
sbatp2079
Rp2080
(dp2081
g16
VNP
p2082
sbatp2083
Rp2084
(dp2085
g16
VNP
p2086
sbatp2087
Rp2088
(dp2089
g16
VVP
p2090
sbag5
(g6
g7
(lp2091
g206
atp2092
Rp2093
(dp2094
g16
g206
sbatp2095
Rp2096
(dp2097
g16
g192
sbatp2098
Rp2099
(dp2100
g16
VROOT
p2101
sbasg217
(icmyPackage
CorE
p2102
(dp2103
g220
(lp2104
(I0
I0
tp2105
a(I0
I3
tp2106
asg224
g5
(g6
g7
(lp2107
g1711
ag1718
ag1741
atp2108
Rp2109
(dp2110
g16
g229
sbsbsg230
(icmyPackage
CorE
p2111
(dp2112
g220
(lp2113
(I0
I6
tp2114
a(I0
I39
tp2115
asg224
g5
(g6
g7
(lp2116
g1762
ag1768
ag1778
ag1784
ag1810
ag1842
ag2088
ag2093
atp2117
Rp2118
(dp2119
g16
g229
sbsbsg240
g876
sg263
(lp2120
(icmyPackage
Sent
p2121
(dp2122
g267
I2
sg268
I14
sg269
S'CpuMon indicates 1.9 CPI and so ~100 k instructions per transaction The graph shows approximately 3 transactions per log force, about 500 log bytes per transaction, and the disk controller saturating at 3,500 requests per second.'
p2123
sg271
I0
sg272
I51
sg224
(lp2124
g2099
asbasba(icmyPackage
CELink
p2125
(dp2126
g3
(lp2127
g2109
asg217
(icmyPackage
CorE
p2128
(dp2129
g220
(lp2130
(I0
I0
tp2131
ag2131
asg224
g1711
sbsg230
(icmyPackage
CorE
p2132
(dp2133
g220
(lp2134
(I0
I2
tp2135
a(I0
I3
tp2136
asg224
g1741
sbsg240
(icmyPackage
pattern
p2137
(dp2138
g243
I0
sg244
I0
sg245
(lp2139
(lp2140
(lp2141
S'indicate'
p2142
aS'indicates'
p2143
aS'indicated'
p2144
aS'realize'
p2145
aS'realizes'
p2146
aS'realized'
p2147
aS'ensure'
p2148
aS'ensures'
p2149
aS'ensured'
p2150
aS'imply'
p2151
aS'implies'
p2152
aS'implied'
p2153
aaasg249
(lp2154
I4
aI1
aI1
asg251
(lp2155
S'The basic characteristics and principles of language use and understanding indicate the following dimensions for evaluating a summarization'
p2156
asg254
I88
sg255
(lp2157
(lp2158
S'&NP@C@'
p2159
aS'(&Clause@C@)'
p2160
aa(lp2161
S'&NP@R@'
p2162
aS'(&Clause@R@)'
p2163
aasbsg263
(lp2164
g2121
asba(icmyPackage
CELink
p2165
(dp2166
g3
(lp2167
g2099
ag5
(g6
g7
(lp2168
g5
(g6
g7
(lp2169
g5
(g6
g7
(lp2170
g5
(g6
g7
(lp2171
VAs
p2172
atp2173
Rp2174
(dp2175
g16
VIN
p2176
sbag5
(g6
g7
(lp2177
g5
(g6
g7
(lp2178
g5
(g6
g7
(lp2179
Vthreads
p2180
atp2181
Rp2182
(dp2183
g16
VNNS
p2184
sbatp2185
Rp2186
(dp2187
g16
VNP
p2188
sbag5
(g6
g7
(lp2189
g5
(g6
g7
(lp2190
Vare
p2191
atp2192
Rp2193
(dp2194
g16
VVBP
p2195
sbag5
(g6
g7
(lp2196
g5
(g6
g7
(lp2197
Vadded
p2198
atp2199
Rp2200
(dp2201
g16
VVBN
p2202
sbatp2203
Rp2204
(dp2205
g16
VVP
p2206
sbatp2207
Rp2208
(dp2209
g16
VVP
p2210
sbatp2211
Rp2212
(dp2213
g16
g192
sbatp2214
Rp2215
(dp2216
g16
VSBAR
p2217
sbag5
(g6
g7
(lp2218
g5
(g6
g7
(lp2219
Vone
p2220
atp2221
Rp2222
(dp2223
g16
VPRP
p2224
sbatp2225
Rp2226
(dp2227
g16
VNP
p2228
sbag5
(g6
g7
(lp2229
g5
(g6
g7
(lp2230
Vbegins
p2231
atp2232
Rp2233
(dp2234
g16
VVBZ
p2235
sbag5
(g6
g7
(lp2236
g5
(g6
g7
(lp2237
g5
(g6
g7
(lp2238
Vto
p2239
atp2240
Rp2241
(dp2242
g16
VTO
p2243
sbag5
(g6
g7
(lp2244
g5
(g6
g7
(lp2245
Vsee
p2246
atp2247
Rp2248
(dp2249
g16
VVB
p2250
sbag5
(g6
g7
(lp2251
g5
(g6
g7
(lp2252
Vgroup-commit
p2253
atp2254
Rp2255
(dp2256
g16
VNN
p2257
sbag5
(g6
g7
(lp2258
Vand
p2259
atp2260
Rp2261
(dp2262
g16
VCC
p2263
sbag5
(g6
g7
(lp2264
VCPU
p2265
atp2266
Rp2267
(dp2268
g16
VNN
p2269
sbag5
(g6
g7
(lp2270
Vsavings
p2271
atp2272
Rp2273
(dp2274
g16
VNNS
p2275
sbatp2276
Rp2277
(dp2278
g16
VNP
p2279
sbag5
(g6
g7
(lp2280
g5
(g6
g7
(lp2281
Vfrom
p2282
atp2283
Rp2284
(dp2285
g16
VIN
p2286
sbag5
(g6
g7
(lp2287
g5
(g6
g7
(lp2288
Vshared
p2289
atp2290
Rp2291
(dp2292
g16
VVBN
p2293
sbag5
(g6
g7
(lp2294
Vcommit
p2295
atp2296
Rp2297
(dp2298
g16
VJJ
p2299
sbag5
(g6
g7
(lp2300
Vprocessing
p2301
atp2302
Rp2303
(dp2304
g16
VNN
p2305
sbatp2306
Rp2307
(dp2308
g16
VNP
p2309
sbatp2310
Rp2311
(dp2312
g16
VPP
p2313
sbatp2314
Rp2315
(dp2316
g16
VVP
p2317
sbatp2318
Rp2319
(dp2320
g16
VVP
p2321
sbatp2322
Rp2323
(dp2324
g16
g192
sbatp2325
Rp2326
(dp2327
g16
VVP
p2328
sbag5
(g6
g7
(lp2329
g206
atp2330
Rp2331
(dp2332
g16
g206
sbatp2333
Rp2334
(dp2335
g16
g192
sbatp2336
Rp2337
(dp2338
g16
VROOT
p2339
sbasg217
(icmyPackage
CorE
p2340
(dp2341
g220
(lp2342
(I1
I1
tp2343
a(I1
I16
tp2344
asg224
g5
(g6
g7
(lp2345
g2212
ag2226
ag2326
ag2331
atp2346
Rp2347
(dp2348
g16
g229
sbsbsg230
(icmyPackage
CorE
p2349
(dp2350
g220
(lp2351
(I0
I0
tp2352
a(I0
I39
tp2353
asg224
g2099
sbsg240
g1672
sg263
(lp2354
g2121
a(icmyPackage
Sent
p2355
(dp2356
g267
I2
sg268
I14
sg269
S'As threads are added one begins to see group-commit and CPU savings from shared commit processing.'
p2357
sg271
I0
sg272
I52
sg224
(lp2358
g2337
asbasba(icmyPackage
CELink
p2359
(dp2360
g3
(lp2361
g5
(g6
g7
(lp2362
g5
(g6
g7
(lp2363
g5
(g6
g7
(lp2364
g5
(g6
g7
(lp2365
VAccording
p2366
atp2367
Rp2368
(dp2369
g16
VVBG
p2370
sbag5
(g6
g7
(lp2371
g5
(g6
g7
(lp2372
Vto
p2373
atp2374
Rp2375
(dp2376
g16
VTO
p2377
sbag5
(g6
g7
(lp2378
g5
(g6
g7
(lp2379
g5
(g6
g7
(lp2380
Vthe
p2381
atp2382
Rp2383
(dp2384
g16
VDT
p2385
sbag5
(g6
g7
(lp2386
VDebitCredit
p2387
atp2388
Rp2389
(dp2390
g16
VJJ
p2391
sbag5
(g6
g7
(lp2392
g5
(g6
g7
(lp2393
V-LRB-
p2394
atp2395
Rp2396
(dp2397
g16
V-LRB-
p2398
sbag5
(g6
g7
(lp2399
Vand
p2400
atp2401
Rp2402
(dp2403
g16
VCC
p2404
sbag5
(g6
g7
(lp2405
g5
(g6
g7
(lp2406
g5
(g6
g7
(lp2407
VTPC-A
p2408
atp2409
Rp2410
(dp2411
g16
VNNP
p2412
sbatp2413
Rp2414
(dp2415
g16
VNP
p2416
sbag5
(g6
g7
(lp2417
g40
atp2418
Rp2419
(dp2420
g16
g40
sbag5
(g6
g7
(lp2421
g5
(g6
g7
(lp2422
VTPC-B
p2423
atp2424
Rp2425
(dp2426
g16
VNNP
p2427
sbatp2428
Rp2429
(dp2430
g16
VNP
p2431
sbatp2432
Rp2433
(dp2434
g16
VNP
p2435
sbag5
(g6
g7
(lp2436
V-RRB-
p2437
atp2438
Rp2439
(dp2440
g16
V-RRB-
p2441
sbatp2442
Rp2443
(dp2444
g16
VPRN
p2445
sbag5
(g6
g7
(lp2446
Vscaling
p2447
atp2448
Rp2449
(dp2450
g16
VNN
p2451
sbag5
(g6
g7
(lp2452
Vrules
p2453
atp2454
Rp2455
(dp2456
g16
VNNS
p2457
sbatp2458
Rp2459
(dp2460
g16
VNP
p2461
sbag5
(g6
g7
(lp2462
g5
(g6
g7
(lp2463
V-LSB-
p2464
atp2465
Rp2466
(dp2467
g16
VNNP
p2468
sbag5
(g6
g7
(lp2469
VSerlin
p2470
atp2471
Rp2472
(dp2473
g16
VNNP
p2474
sbag5
(g6
g7
(lp2475
V-RSB-
p2476
atp2477
Rp2478
(dp2479
g16
VNNP
p2480
sbatp2481
Rp2482
(dp2483
g16
VNP
p2484
sbatp2485
Rp2486
(dp2487
g16
VNP
p2488
sbatp2489
Rp2490
(dp2491
g16
VPP
p2492
sbatp2493
Rp2494
(dp2495
g16
VPP
p2496
sbag5
(g6
g7
(lp2497
g40
atp2498
Rp2499
(dp2500
g16
g40
sbag5
(g6
g7
(lp2501
g5
(g6
g7
(lp2502
V8,300
p2503
atp2504
Rp2505
(dp2506
g16
VCD
p2507
sbag5
(g6
g7
(lp2508
Vtps
p2509
atp2510
Rp2511
(dp2512
g16
VNN
p2513
sbatp2514
Rp2515
(dp2516
g16
VNP
p2517
sbag5
(g6
g7
(lp2518
g5
(g6
g7
(lp2519
Vimplies
p2520
atp2521
Rp2522
(dp2523
g16
VVBZ
p2524
sbag5
(g6
g7
(lp2525
g5
(g6
g7
(lp2526
g5
(g6
g7
(lp2527
g71
atp2528
Rp2529
(dp2530
g16
VDT
p2531
sbag5
(g6
g7
(lp2532
Vbank
p2533
atp2534
Rp2535
(dp2536
g16
VNN
p2537
sbatp2538
Rp2539
(dp2540
g16
VNP
p2541
sbag5
(g6
g7
(lp2542
g5
(g6
g7
(lp2543
Vof
p2544
atp2545
Rp2546
(dp2547
g16
VIN
p2548
sbag5
(g6
g7
(lp2549
g5
(g6
g7
(lp2550
g5
(g6
g7
(lp2551
V830
p2552
atp2553
Rp2554
(dp2555
g16
VCD
p2556
sbag5
(g6
g7
(lp2557
Vmillion
p2558
atp2559
Rp2560
(dp2561
g16
VCD
p2562
sbatp2563
Rp2564
(dp2565
g16
VQP
p2566
sbag5
(g6
g7
(lp2567
Vcustomers
p2568
atp2569
Rp2570
(dp2571
g16
VNNS
p2572
sbatp2573
Rp2574
(dp2575
g16
VNP
p2576
sbatp2577
Rp2578
(dp2579
g16
VPP
p2580
sbatp2581
Rp2582
(dp2583
g16
VNP
p2584
sbatp2585
Rp2586
(dp2587
g16
VVP
p2588
sbag5
(g6
g7
(lp2589
g206
atp2590
Rp2591
(dp2592
g16
g206
sbatp2593
Rp2594
(dp2595
g16
g192
sbatp2596
Rp2597
(dp2598
g16
VROOT
p2599
sbasg217
(icmyPackage
CorE
p2600
(dp2601
g220
(lp2602
(I0
I16
tp2603
a(I0
I17
tp2604
asg224
g2515
sbsg230
(icmyPackage
CorE
p2605
(dp2606
g220
(lp2607
(I0
I19
tp2608
a(I0
I24
tp2609
asg224
g2582
sbsg240
g2137
sg263
(lp2610
(icmyPackage
Sent
p2611
(dp2612
g267
I3
sg268
I15
sg269
S'According to the DebitCredit (and TPC-A, TPC-B) scaling rules [Serlin], 8,300 tps implies a bank of 830 million customers.'
p2613
sg271
I0
sg272
I54
sg224
(lp2614
g2597
asbasba(icmyPackage
CELink
p2615
(dp2616
g3
(lp2617
g5
(g6
g7
(lp2618
g5
(g6
g7
(lp2619
g5
(g6
g7
(lp2620
g5
(g6
g7
(lp2621
VThat
p2622
atp2623
Rp2624
(dp2625
g16
VDT
p2626
sbatp2627
Rp2628
(dp2629
g16
VNP
p2630
sbag5
(g6
g7
(lp2631
g5
(g6
g7
(lp2632
Vis
p2633
atp2634
Rp2635
(dp2636
g16
VVBZ
p2637
sbag5
(g6
g7
(lp2638
g5
(g6
g7
(lp2639
g5
(g6
g7
(lp2640
g5
(g6
g7
(lp2641
V420GB
p2642
atp2643
Rp2644
(dp2645
g16
VCD
p2646
sbatp2647
Rp2648
(dp2649
g16
VNP
p2650
sbag5
(g6
g7
(lp2651
g5
(g6
g7
(lp2652
Vof
p2653
atp2654
Rp2655
(dp2656
g16
VIN
p2657
sbag5
(g6
g7
(lp2658
g5
(g6
g7
(lp2659
Vdisk
p2660
atp2661
Rp2662
(dp2663
g16
VNN
p2664
sbag5
(g6
g7
(lp2665
Vspace
p2666
atp2667
Rp2668
(dp2669
g16
VNN
p2670
sbatp2671
Rp2672
(dp2673
g16
VNP
p2674
sbatp2675
Rp2676
(dp2677
g16
VPP
p2678
sbatp2679
Rp2680
(dp2681
g16
VNP
p2682
sbag5
(g6
g7
(lp2683
Vand
p2684
atp2685
Rp2686
(dp2687
g16
VCC
p2688
sbag5
(g6
g7
(lp2689
g5
(g6
g7
(lp2690
g5
(g6
g7
(lp2691
g5
(g6
g7
(lp2692
Vat
p2693
atp2694
Rp2695
(dp2696
g16
VIN
p2697
sbag5
(g6
g7
(lp2698
Vleast
p2699
atp2700
Rp2701
(dp2702
g16
VJJS
p2703
sbag5
(g6
g7
(lp2704
V80GB
p2705
atp2706
Rp2707
(dp2708
g16
VCD
p2709
sbatp2710
Rp2711
(dp2712
g16
VQP
p2713
sbatp2714
Rp2715
(dp2716
g16
VNP
p2717
sbag5
(g6
g7
(lp2718
g5
(g6
g7
(lp2719
Vof
p2720
atp2721
Rp2722
(dp2723
g16
VIN
p2724
sbag5
(g6
g7
(lp2725
g5
(g6
g7
(lp2726
VRAM
p2727
atp2728
Rp2729
(dp2730
g16
VNNP
p2731
sbatp2732
Rp2733
(dp2734
g16
VNP
p2735
sbatp2736
Rp2737
(dp2738
g16
VPP
p2739
sbatp2740
Rp2741
(dp2742
g16
VNP
p2743
sbatp2744
Rp2745
(dp2746
g16
VNP
p2747
sbatp2748
Rp2749
(dp2750
g16
VVP
p2751
sbag5
(g6
g7
(lp2752
g206
atp2753
Rp2754
(dp2755
g16
g206
sbatp2756
Rp2757
(dp2758
g16
g192
sbatp2759
Rp2760
(dp2761
g16
VROOT
p2762
sbag5
(g6
g7
(lp2763
g5
(g6
g7
(lp2764
g5
(g6
g7
(lp2765
g5
(g6
g7
(lp2766
VSo
p2767
atp2768
Rp2769
(dp2770
g16
VRB
p2771
sbatp2772
Rp2773
(dp2774
g16
VADVP
p2775
sbag5
(g6
g7
(lp2776
g40
atp2777
Rp2778
(dp2779
g16
g40
sbag5
(g6
g7
(lp2780
g5
(g6
g7
(lp2781
Vthis
p2782
atp2783
Rp2784
(dp2785
g16
VDT
p2786
sbatp2787
Rp2788
(dp2789
g16
VNP
p2790
sbag5
(g6
g7
(lp2791
g5
(g6
g7
(lp2792
Vis
p2793
atp2794
Rp2795
(dp2796
g16
VVBZ
p2797
sbag5
(g6
g7
(lp2798
Vnot
p2799
atp2800
Rp2801
(dp2802
g16
VRB
p2803
sbag5
(g6
g7
(lp2804
g5
(g6
g7
(lp2805
g71
atp2806
Rp2807
(dp2808
g16
VDT
p2809
sbag5
(g6
g7
(lp2810
Vscaled
p2811
atp2812
Rp2813
(dp2814
g16
VJJ
p2815
sbag5
(g6
g7
(lp2816
Vimplementation
p2817
atp2818
Rp2819
(dp2820
g16
VNN
p2821
sbatp2822
Rp2823
(dp2824
g16
VNP
p2825
sbatp2826
Rp2827
(dp2828
g16
VVP
p2829
sbag5
(g6
g7
(lp2830
g206
atp2831
Rp2832
(dp2833
g16
g206
sbatp2834
Rp2835
(dp2836
g16
g192
sbatp2837
Rp2838
(dp2839
g16
VROOT
p2840
sbasg217
(icmyPackage
CorE
p2841
(dp2842
g220
(lp2843
(I0
I0
tp2844
a(I0
I11
tp2845
asg224
g5
(g6
g7
(lp2846
g2628
ag2749
atp2847
Rp2848
(dp2849
g16
g229
sbsbsg230
(icmyPackage
CorE
p2850
(dp2851
g220
(lp2852
(I1
I2
tp2853
a(I1
I8
tp2854
asg224
g5
(g6
g7
(lp2855
g2788
ag2827
ag2832
atp2856
Rp2857
(dp2858
g16
g229
sbsbsg240
g876
sg263
(lp2859
(icmyPackage
Sent
p2860
(dp2861
g267
I3
sg268
I15
sg269
S'That is 420GB of disk space and at least 80GB of RAM.'
p2862
sg271
I0
sg272
I55
sg224
(lp2863
g2760
asba(icmyPackage
Sent
p2864
(dp2865
g267
I3
sg268
I15
sg269
S'So, this is not a scaled implementation.'
p2866
sg271
I0
sg272
I56
sg224
(lp2867
g2838
asbasba(icmyPackage
CELink
p2868
(dp2869
g3
(lp2870
g5
(g6
g7
(lp2871
g5
(g6
g7
(lp2872
g5
(g6
g7
(lp2873
VBut
p2874
atp2875
Rp2876
(dp2877
g16
VCC
p2878
sbag5
(g6
g7
(lp2879
g40
atp2880
Rp2881
(dp2882
g16
g40
sbag5
(g6
g7
(lp2883
g5
(g6
g7
(lp2884
Van
p2885
atp2886
Rp2887
(dp2888
g16
VDT
p2889
sbag5
(g6
g7
(lp2890
V80
p2891
atp2892
Rp2893
(dp2894
g16
VCD
p2895
sbag5
(g6
g7
(lp2896
VGB
p2897
atp2898
Rp2899
(dp2900
g16
VNN
p2901
sbag5
(g6
g7
(lp2902
Vserver
p2903
atp2904
Rp2905
(dp2906
g16
VNN
p2907
sbatp2908
Rp2909
(dp2910
g16
VNP
p2911
sbag5
(g6
g7
(lp2912
g5
(g6
g7
(lp2913
Vis
p2914
atp2915
Rp2916
(dp2917
g16
VVBZ
p2918
sbag5
(g6
g7
(lp2919
g5
(g6
g7
(lp2920
Vlikely
p2921
atp2922
Rp2923
(dp2924
g16
VRB
p2925
sbatp2926
Rp2927
(dp2928
g16
VADVP
p2929
sbag5
(g6
g7
(lp2930
g5
(g6
g7
(lp2931
g5
(g6
g7
(lp2932
g71
atp2933
Rp2934
(dp2935
g16
VDT
p2936
sbag5
(g6
g7
(lp2937
Vquad
p2938
atp2939
Rp2940
(dp2941
g16
VJJ
p2942
sbag5
(g6
g7
(lp2943
VOpteron
p2944
atp2945
Rp2946
(dp2947
g16
VNN
p2948
sbatp2949
Rp2950
(dp2951
g16
VNP
p2952
sbag5
(g6
g7
(lp2953
g5
(g6
g7
(lp2954
g5
(g6
g7
(lp2955
Vthat
p2956
atp2957
Rp2958
(dp2959
g16
VWDT
p2960
sbatp2961
Rp2962
(dp2963
g16
VWHNP
p2964
sbag5
(g6
g7
(lp2965
g5
(g6
g7
(lp2966
g5
(g6
g7
(lp2967
Vcan
p2968
atp2969
Rp2970
(dp2971
g16
VMD
p2972
sbag5
(g6
g7
(lp2973
g5
(g6
g7
(lp2974
Vdo
p2975
atp2976
Rp2977
(dp2978
g16
VVB
p2979
sbag5
(g6
g7
(lp2980
g5
(g6
g7
(lp2981
Vmany
p2982
atp2983
Rp2984
(dp2985
g16
VJJ
p2986
sbag5
(g6
g7
(lp2987
Vmore
p2988
atp2989
Rp2990
(dp2991
g16
VJJR
p2992
sbatp2993
Rp2994
(dp2995
g16
VNP
p2996
sbag5
(g6
g7
(lp2997
g5
(g6
g7
(lp2998
Vthan
p2999
atp3000
Rp3001
(dp3002
g16
VIN
p3003
sbag5
(g6
g7
(lp3004
g5
(g6
g7
(lp3005
V8k
p3006
atp3007
Rp3008
(dp3009
g16
VJJ
p3010
sbag5
(g6
g7
(lp3011
Vtps
p3012
atp3013
Rp3014
(dp3015
g16
VNN
p3016
sbatp3017
Rp3018
(dp3019
g16
VNP
p3020
sbatp3021
Rp3022
(dp3023
g16
VPP
p3024
sbatp3025
Rp3026
(dp3027
g16
VVP
p3028
sbatp3029
Rp3030
(dp3031
g16
VVP
p3032
sbatp3033
Rp3034
(dp3035
g16
g192
sbatp3036
Rp3037
(dp3038
g16
VSBAR
p3039
sbatp3040
Rp3041
(dp3042
g16
VNP
p3043
sbatp3044
Rp3045
(dp3046
g16
VVP
p3047
sbag5
(g6
g7
(lp3048
g206
atp3049
Rp3050
(dp3051
g16
g206
sbatp3052
Rp3053
(dp3054
g16
g192
sbatp3055
Rp3056
(dp3057
g16
VROOT
p3058
sbag5
(g6
g7
(lp3059
g5
(g6
g7
(lp3060
g5
(g6
g7
(lp3061
g5
(g6
g7
(lp3062
VSo
p3063
atp3064
Rp3065
(dp3066
g16
VRB
p3067
sbatp3068
Rp3069
(dp3070
g16
VADVP
p3071
sbag5
(g6
g7
(lp3072
g40
atp3073
Rp3074
(dp3075
g16
g40
sbag5
(g6
g7
(lp3076
g5
(g6
g7
(lp3077
g5
(g6
g7
(lp3078
g5
(g6
g7
(lp3079
Vto
p3080
atp3081
Rp3082
(dp3083
g16
VTO
p3084
sbag5
(g6
g7
(lp3085
g5
(g6
g7
(lp3086
Vrepeat
p3087
atp3088
Rp3089
(dp3090
g16
VVB
p3091
sbag5
(g6
g7
(lp3092
g5
(g6
g7
(lp3093
Vthe
p3094
atp3095
Rp3096
(dp3097
g16
VDT
p3098
sbag5
(g6
g7
(lp3099
Vearlier
p3100
atp3101
Rp3102
(dp3103
g16
VJJR
p3104
sbag5
(g6
g7
(lp3105
Vcomments
p3106
atp3107
Rp3108
(dp3109
g16
VNNS
p3110
sbatp3111
Rp3112
(dp3113
g16
VNP
p3114
sbatp3115
Rp3116
(dp3117
g16
VVP
p3118
sbatp3119
Rp3120
(dp3121
g16
VVP
p3122
sbatp3123
Rp3124
(dp3125
g16
g192
sbag5
(g6
g7
(lp3126
g40
atp3127
Rp3128
(dp3129
g16
g40
sbag5
(g6
g7
(lp3130
g5
(g6
g7
(lp3131
Vthe
p3132
atp3133
Rp3134
(dp3135
g16
VDT
p3136
sbag5
(g6
g7
(lp3137
Vsystem
p3138
atp3139
Rp3140
(dp3141
g16
VNN
p3142
sbatp3143
Rp3144
(dp3145
g16
VNP
p3146
sbag5
(g6
g7
(lp3147
g5
(g6
g7
(lp3148
Vwill
p3149
atp3150
Rp3151
(dp3152
g16
VMD
p3153
sbag5
(g6
g7
(lp3154
g5
(g6
g7
(lp3155
Vbe
p3156
atp3157
Rp3158
(dp3159
g16
VVB
p3160
sbag5
(g6
g7
(lp3161
g5
(g6
g7
(lp3162
g5
(g6
g7
(lp3163
Vdisk
p3164
atp3165
Rp3166
(dp3167
g16
VNN
p3168
sbag5
(g6
g7
(lp3169
Vand
p3170
atp3171
Rp3172
(dp3173
g16
VCC
p3174
sbag5
(g6
g7
(lp3175
Vmemory
p3176
atp3177
Rp3178
(dp3179
g16
VNN
p3180
sbatp3181
Rp3182
(dp3183
g16
VNP
p3184
sbag5
(g6
g7
(lp3185
g5
(g6
g7
(lp3186
Vbound
p3187
atp3188
Rp3189
(dp3190
g16
VVBN
p3191
sbatp3192
Rp3193
(dp3194
g16
VVP
p3195
sbatp3196
Rp3197
(dp3198
g16
VNP
p3199
sbatp3200
Rp3201
(dp3202
g16
VVP
p3203
sbatp3204
Rp3205
(dp3206
g16
VVP
p3207
sbatp3208
Rp3209
(dp3210
g16
g192
sbag5
(g6
g7
(lp3211
g40
atp3212
Rp3213
(dp3214
g16
g40
sbag5
(g6
g7
(lp3215
Vnot
p3216
atp3217
Rp3218
(dp3219
g16
VRB
p3220
sbag5
(g6
g7
(lp3221
g5
(g6
g7
(lp3222
g5
(g6
g7
(lp3223
VCPU
p3224
atp3225
Rp3226
(dp3227
g16
VNNP
p3228
sbatp3229
Rp3230
(dp3231
g16
VNP
p3232
sbag5
(g6
g7
(lp3233
g5
(g6
g7
(lp3234
Vbound
p3235
atp3236
Rp3237
(dp3238
g16
VVBN
p3239
sbatp3240
Rp3241
(dp3242
g16
VVP
p3243
sbatp3244
Rp3245
(dp3246
g16
g192
sbag5
(g6
g7
(lp3247
g206
atp3248
Rp3249
(dp3250
g16
g206
sbatp3251
Rp3252
(dp3253
g16
g192
sbatp3254
Rp3255
(dp3256
g16
VROOT
p3257
sbasg217
(icmyPackage
CorE
p3258
(dp3259
g220
(lp3260
(I0
I0
tp3261
a(I0
I18
tp3262
asg224
g5
(g6
g7
(lp3263
g2876
ag2881
ag2909
ag3045
atp3264
Rp3265
(dp3266
g16
g229
sbsbsg230
(icmyPackage
CorE
p3267
(dp3268
g220
(lp3269
(I1
I2
tp3270
a(I1
I16
tp3271
asg224
g5
(g6
g7
(lp3272
g3209
ag3213
atp3273
Rp3274
(dp3275
g16
g229
sbsbsg240
g876
sg263
(lp3276
(icmyPackage
Sent
p3277
(dp3278
g267
I3
sg268
I15
sg269
S'But, an 80 GB server is likely a quad Opteron that can do many more than 8k tps.'
p3279
sg271
I0
sg272
I59
sg224
(lp3280
g3056
asba(icmyPackage
Sent
p3281
(dp3282
g267
I3
sg268
I15
sg269
S'So, to repeat the earlier comments, the system will be disk and memory bound, not CPU bound.'
p3283
sg271
I0
sg272
I60
sg224
(lp3284
g3255
asbasba(icmyPackage
CELink
p3285
(dp3286
g3
(lp3287
g5
(g6
g7
(lp3288
g5
(g6
g7
(lp3289
g5
(g6
g7
(lp3290
VBut
p3291
atp3292
Rp3293
(dp3294
g16
VCC
p3295
sbag5
(g6
g7
(lp3296
g5
(g6
g7
(lp3297
Vthe
p3298
atp3299
Rp3300
(dp3301
g16
VDT
p3302
sbag5
(g6
g7
(lp3303
Vauditor
p3304
atp3305
Rp3306
(dp3307
g16
VNN
p3308
sbatp3309
Rp3310
(dp3311
g16
VNP
p3312
sbag5
(g6
g7
(lp3313
g5
(g6
g7
(lp3314
Vcertainly
p3315
atp3316
Rp3317
(dp3318
g16
VRB
p3319
sbatp3320
Rp3321
(dp3322
g16
VADVP
p3323
sbag5
(g6
g7
(lp3324
g5
(g6
g7
(lp3325
Vwould
p3326
atp3327
Rp3328
(dp3329
g16
VMD
p3330
sbag5
(g6
g7
(lp3331
g5
(g6
g7
(lp3332
Vwant
p3333
atp3334
Rp3335
(dp3336
g16
VVB
p3337
sbag5
(g6
g7
(lp3338
g5
(g6
g7
(lp3339
Vthe
p3340
atp3341
Rp3342
(dp3343
g16
VDT
p3344
sbag5
(g6
g7
(lp3345
Vlog
p3346
atp3347
Rp3348
(dp3349
g16
VNN
p3350
sbag5
(g6
g7
(lp3351
g5
(g6
g7
(lp3352
g5
(g6
g7
(lp3353
Vto
p3354
atp3355
Rp3356
(dp3357
g16
VTO
p3358
sbag5
(g6
g7
(lp3359
g5
(g6
g7
(lp3360
Vbe
p3361
atp3362
Rp3363
(dp3364
g16
VVB
p3365
sbag5
(g6
g7
(lp3366
g5
(g6
g7
(lp3367
Von
p3368
atp3369
Rp3370
(dp3371
g16
VIN
p3372
sbag5
(g6
g7
(lp3373
g5
(g6
g7
(lp3374
g71
atp3375
Rp3376
(dp3377
g16
VDT
p3378
sbag5
(g6
g7
(lp3379
Vseparate
p3380
atp3381
Rp3382
(dp3383
g16
VJJ
p3384
sbag5
(g6
g7
(lp3385
Vand
p3386
atp3387
Rp3388
(dp3389
g16
VCC
p3390
sbag5
(g6
g7
(lp3391
Vduplexed
p3392
atp3393
Rp3394
(dp3395
g16
VJJ
p3396
sbag5
(g6
g7
(lp3397
Vdevice
p3398
atp3399
Rp3400
(dp3401
g16
VNN
p3402
sbatp3403
Rp3404
(dp3405
g16
VNP
p3406
sbatp3407
Rp3408
(dp3409
g16
VPP
p3410
sbag5
(g6
g7
(lp3411
g5
(g6
g7
(lp3412
Vso
p3413
atp3414
Rp3415
(dp3416
g16
VRB
p3417
sbag5
(g6
g7
(lp3418
Vthat
p3419
atp3420
Rp3421
(dp3422
g16
VIN
p3423
sbag5
(g6
g7
(lp3424
g5
(g6
g7
(lp3425
g5
(g6
g7
(lp3426
Vit
p3427
atp3428
Rp3429
(dp3430
g16
VPRP
p3431
sbatp3432
Rp3433
(dp3434
g16
VNP
p3435
sbag5
(g6
g7
(lp3436
g5
(g6
g7
(lp3437
Vwould
p3438
atp3439
Rp3440
(dp3441
g16
VMD
p3442
sbag5
(g6
g7
(lp3443
g5
(g6
g7
(lp3444
Vmask
p3445
atp3446
Rp3447
(dp3448
g16
VVB
p3449
sbag5
(g6
g7
(lp3450
g5
(g6
g7
(lp3451
Vsingle
p3452
atp3453
Rp3454
(dp3455
g16
VJJ
p3456
sbag5
(g6
g7
(lp3457
Vmedia
p3458
atp3459
Rp3460
(dp3461
g16
VNN
p3462
sbag5
(g6
g7
(lp3463
Vfailures
p3464
atp3465
Rp3466
(dp3467
g16
VNNS
p3468
sbatp3469
Rp3470
(dp3471
g16
VNP
p3472
sbatp3473
Rp3474
(dp3475
g16
VVP
p3476
sbatp3477
Rp3478
(dp3479
g16
VVP
p3480
sbatp3481
Rp3482
(dp3483
g16
g192
sbatp3484
Rp3485
(dp3486
g16
VSBAR
p3487
sbatp3488
Rp3489
(dp3490
g16
VVP
p3491
sbatp3492
Rp3493
(dp3494
g16
VVP
p3495
sbatp3496
Rp3497
(dp3498
g16
g192
sbatp3499
Rp3500
(dp3501
g16
VNP
p3502
sbatp3503
Rp3504
(dp3505
g16
VVP
p3506
sbatp3507
Rp3508
(dp3509
g16
VVP
p3510
sbag5
(g6
g7
(lp3511
V;
p3512
atp3513
Rp3514
(dp3515
g16
V:
p3516
sbatp3517
Rp3518
(dp3519
g16
g192
sbatp3520
Rp3521
(dp3522
g16
VROOT
p3523
sbasg217
(icmyPackage
CorE
p3524
(dp3525
g220
(lp3526
(I0
I0
tp3527
a(I0
I15
tp3528
asg224
g5
(g6
g7
(lp3529
g3293
ag3310
ag3321
ag3328
ag3335
ag3342
ag3348
ag3356
ag3363
ag3408
atp3530
Rp3531
(dp3532
g16
g229
sbsbsg230
(icmyPackage
CorE
p3533
(dp3534
g220
(lp3535
(I0
I18
tp3536
a(I0
I24
tp3537
asg224
g5
(g6
g7
(lp3538
g3482
ag3514
atp3539
Rp3540
(dp3541
g16
g229
sbsbsg240
(icmyPackage
pattern
p3542
(dp3543
g243
I45
sg244
I0
sg245
(lp3544
(lp3545
S'so'
p3546
aS'that'
p3547
aasg249
(lp3548
I3
aI1
aI1
asg251
(lp3549
S'The teacher then decided to ask him some very easy questions so that he could get a few right.'
p3550
asg254
I77
sg255
(lp3551
(lp3552
S'&C'
p3553
aa(lp3554
S'&R'
p3555
aasbsg263
(lp3556
(icmyPackage
Sent
p3557
(dp3558
g267
I3
sg268
I17
sg269
S'But the auditor certainly would want the log to be on a separate and duplexed device so that it would mask single media failures;'
p3559
sg271
I0
sg272
I65
sg224
(lp3560
g3521
asbasba(icmyPackage
CELink
p3561
(dp3562
g3
(lp3563
g3521
ag5
(g6
g7
(lp3564
g5
(g6
g7
(lp3565
g5
(g6
g7
(lp3566
Vso
p3567
atp3568
Rp3569
(dp3570
g16
VIN
p3571
sbag5
(g6
g7
(lp3572
g5
(g6
g7
(lp3573
g5
(g6
g7
(lp3574
Vthat
p3575
atp3576
Rp3577
(dp3578
g16
VIN
p3579
sbag5
(g6
g7
(lp3580
Vif
p3581
atp3582
Rp3583
(dp3584
g16
VIN
p3585
sbag5
(g6
g7
(lp3586
g5
(g6
g7
(lp3587
g5
(g6
g7
(lp3588
Vthe
p3589
atp3590
Rp3591
(dp3592
g16
VDT
p3593
sbag5
(g6
g7
(lp3594
Vdatabase
p3595
atp3596
Rp3597
(dp3598
g16
VNN
p3599
sbag5
(g6
g7
(lp3600
Vdisk
p3601
atp3602
Rp3603
(dp3604
g16
VNN
p3605
sbatp3606
Rp3607
(dp3608
g16
VNP
p3609
sbag5
(g6
g7
(lp3610
g5
(g6
g7
(lp3611
Vfailed
p3612
atp3613
Rp3614
(dp3615
g16
VVBD
p3616
sbatp3617
Rp3618
(dp3619
g16
VVP
p3620
sbatp3621
Rp3622
(dp3623
g16
g192
sbatp3624
Rp3625
(dp3626
g16
VSBAR
p3627
sbag5
(g6
g7
(lp3628
g40
atp3629
Rp3630
(dp3631
g16
g40
sbag5
(g6
g7
(lp3632
Vor
p3633
atp3634
Rp3635
(dp3636
g16
VCC
p3637
sbag5
(g6
g7
(lp3638
g5
(g6
g7
(lp3639
Vif
p3640
atp3641
Rp3642
(dp3643
g16
VIN
p3644
sbag5
(g6
g7
(lp3645
g5
(g6
g7
(lp3646
g5
(g6
g7
(lp3647
g5
(g6
g7
(lp3648
Vone
p3649
atp3650
Rp3651
(dp3652
g16
VCD
p3653
sbatp3654
Rp3655
(dp3656
g16
VNP
p3657
sbag5
(g6
g7
(lp3658
g5
(g6
g7
(lp3659
Vof
p3660
atp3661
Rp3662
(dp3663
g16
VIN
p3664
sbag5
(g6
g7
(lp3665
g5
(g6
g7
(lp3666
Vthe
p3667
atp3668
Rp3669
(dp3670
g16
VDT
p3671
sbag5
(g6
g7
(lp3672
Vlog
p3673
atp3674
Rp3675
(dp3676
g16
VNN
p3677
sbag5
(g6
g7
(lp3678
Vdisks
p3679
atp3680
Rp3681
(dp3682
g16
VNNS
p3683
sbatp3684
Rp3685
(dp3686
g16
VNP
p3687
sbatp3688
Rp3689
(dp3690
g16
VPP
p3691
sbatp3692
Rp3693
(dp3694
g16
VNP
p3695
sbag5
(g6
g7
(lp3696
g5
(g6
g7
(lp3697
Vfailed
p3698
atp3699
Rp3700
(dp3701
g16
VVBD
p3702
sbatp3703
Rp3704
(dp3705
g16
VVP
p3706
sbatp3707
Rp3708
(dp3709
g16
g192
sbatp3710
Rp3711
(dp3712
g16
VSBAR
p3713
sbatp3714
Rp3715
(dp3716
g16
VSBAR
p3717
sbag5
(g6
g7
(lp3718
g40
atp3719
Rp3720
(dp3721
g16
g40
sbag5
(g6
g7
(lp3722
g5
(g6
g7
(lp3723
Vthe
p3724
atp3725
Rp3726
(dp3727
g16
VDT
p3728
sbag5
(g6
g7
(lp3729
Vcustomer
p3730
atp3731
Rp3732
(dp3733
g16
VNN
p3734
sbatp3735
Rp3736
(dp3737
g16
VNP
p3738
sbag5
(g6
g7
(lp3739
g5
(g6
g7
(lp3740
Vcould
p3741
atp3742
Rp3743
(dp3744
g16
VMD
p3745
sbag5
(g6
g7
(lp3746
g5
(g6
g7
(lp3747
Vrecover
p3748
atp3749
Rp3750
(dp3751
g16
VVB
p3752
sbag5
(g6
g7
(lp3753
g5
(g6
g7
(lp3754
Vall
p3755
atp3756
Rp3757
(dp3758
g16
VDT
p3759
sbag5
(g6
g7
(lp3760
Vcommitted
p3761
atp3762
Rp3763
(dp3764
g16
VJJ
p3765
sbag5
(g6
g7
(lp3766
Vtransactions
p3767
atp3768
Rp3769
(dp3770
g16
VNNS
p3771
sbatp3772
Rp3773
(dp3774
g16
VNP
p3775
sbag5
(g6
g7
(lp3776
g5
(g6
g7
(lp3777
g5
(g6
g7
(lp3778
Vfrom
p3779
atp3780
Rp3781
(dp3782
g16
VIN
p3783
sbag5
(g6
g7
(lp3784
g5
(g6
g7
(lp3785
Vthe
p3786
atp3787
Rp3788
(dp3789
g16
VDT
p3790
sbag5
(g6
g7
(lp3791
Vsurviving
p3792
atp3793
Rp3794
(dp3795
g16
VVBG
p3796
sbag5
(g6
g7
(lp3797
Vdisks
p3798
atp3799
Rp3800
(dp3801
g16
VNNS
p3802
sbatp3803
Rp3804
(dp3805
g16
VNP
p3806
sbatp3807
Rp3808
(dp3809
g16
VPP
p3810
sbag5
(g6
g7
(lp3811
Vand
p3812
atp3813
Rp3814
(dp3815
g16
VCC
p3816
sbag5
(g6
g7
(lp3817
g5
(g6
g7
(lp3818
Vfrom
p3819
atp3820
Rp3821
(dp3822
g16
VIN
p3823
sbag5
(g6
g7
(lp3824
g5
(g6
g7
(lp3825
g5
(g6
g7
(lp3826
Vthe
p3827
atp3828
Rp3829
(dp3830
g16
VDT
p3831
sbag5
(g6
g7
(lp3832
Voffline
p3833
atp3834
Rp3835
(dp3836
g16
VJJ
p3837
sbag5
(g6
g7
(lp3838
Vdatabase
p3839
atp3840
Rp3841
(dp3842
g16
VNN
p3843
sbag5
(g6
g7
(lp3844
Vbackup
p3845
atp3846
Rp3847
(dp3848
g16
VNN
p3849
sbatp3850
Rp3851
(dp3852
g16
VNP
p3853
sbag5
(g6
g7
(lp3854
g5
(g6
g7
(lp3855
Vfiles
p3856
atp3857
Rp3858
(dp3859
g16
VVBZ
p3860
sbatp3861
Rp3862
(dp3863
g16
VVP
p3864
sbatp3865
Rp3866
(dp3867
g16
VNP
p3868
sbatp3869
Rp3870
(dp3871
g16
VPP
p3872
sbatp3873
Rp3874
(dp3875
g16
VPP
p3876
sbatp3877
Rp3878
(dp3879
g16
VVP
p3880
sbatp3881
Rp3882
(dp3883
g16
VVP
p3884
sbag5
(g6
g7
(lp3885
g206
atp3886
Rp3887
(dp3888
g16
g206
sbatp3889
Rp3890
(dp3891
g16
g192
sbatp3892
Rp3893
(dp3894
g16
VROOT
p3895
sbasg217
(icmyPackage
CorE
p3896
(dp3897
g220
(lp3898
(I0
I0
tp3899
a(I0
I23
tp3900
asg224
g5
(g6
g7
(lp3901
g3293
ag3310
ag3321
ag3508
atp3902
Rp3903
(dp3904
g16
g229
sbsbsg230
(icmyPackage
CorE
p3905
(dp3906
g220
(lp3907
(I1
I1
tp3908
a(I1
I35
tp3909
asg224
g5
(g6
g7
(lp3910
g3715
ag3720
ag3736
ag3882
ag3887
atp3911
Rp3912
(dp3913
g16
g229
sbsbsg240
g876
sg263
(lp3914
g3557
a(icmyPackage
Sent
p3915
(dp3916
g267
I3
sg268
I17
sg269
S'so that if the database disk failed, or if one of the log disks failed, the customer could recover all committed transactions from the surviving disks and from the offline database backup files.'
p3917
sg271
I0
sg272
I66
sg224
(lp3918
g3893
asbasba(icmyPackage
CELink
p3919
(dp3920
g3
(lp3921
g5
(g6
g7
(lp3922
g5
(g6
g7
(lp3923
g5
(g6
g7
(lp3924
g5
(g6
g7
(lp3925
VBut
p3926
atp3927
Rp3928
(dp3929
g16
VCC
p3930
sbag5
(g6
g7
(lp3931
g5
(g6
g7
(lp3932
V250k
p3933
atp3934
Rp3935
(dp3936
g16
VJJ
p3937
sbag5
(g6
g7
(lp3938
Vtransactions
p3939
atp3940
Rp3941
(dp3942
g16
VNNS
p3943
sbatp3944
Rp3945
(dp3946
g16
VNP
p3947
sbag5
(g6
g7
(lp3948
g5
(g6
g7
(lp3949
Vis
p3950
atp3951
Rp3952
(dp3953
g16
VVBZ
p3954
sbag5
(g6
g7
(lp3955
g5
(g6
g7
(lp3956
g5
(g6
g7
(lp3957
g5
(g6
g7
(lp3958
Vless
p3959
atp3960
Rp3961
(dp3962
g16
VJJR
p3963
sbag5
(g6
g7
(lp3964
Vthan
p3965
atp3966
Rp3967
(dp3968
g16
VIN
p3969
sbag5
(g6
g7
(lp3970
V4
p3971
atp3972
Rp3973
(dp3974
g16
VCD
p3975
sbatp3976
Rp3977
(dp3978
g16
VQP
p3979
sbag5
(g6
g7
(lp3980
V%
p3981
atp3982
Rp3983
(dp3984
g16
VNN
p3985
sbatp3986
Rp3987
(dp3988
g16
VNP
p3989
sbag5
(g6
g7
(lp3990
g5
(g6
g7
(lp3991
Vof
p3992
atp3993
Rp3994
(dp3995
g16
VIN
p3996
sbag5
(g6
g7
(lp3997
g5
(g6
g7
(lp3998
g5
(g6
g7
(lp3999
Vthe
p4000
atp4001
Rp4002
(dp4003
g16
VDT
p4004
sbag5
(g6
g7
(lp4005
V7M
p4006
atp4007
Rp4008
(dp4009
g16
VCD
p4010
sbag5
(g6
g7
(lp4011
Vtransactions
p4012
atp4013
Rp4014
(dp4015
g16
VNNS
p4016
sbatp4017
Rp4018
(dp4019
g16
VNP
p4020
sbag5
(g6
g7
(lp4021
g5
(g6
g7
(lp4022
Vrun
p4023
atp4024
Rp4025
(dp4026
g16
VVBN
p4027
sbag5
(g6
g7
(lp4028
g5
(g6
g7
(lp4029
Vin
p4030
atp4031
Rp4032
(dp4033
g16
VIN
p4034
sbag5
(g6
g7
(lp4035
g5
(g6
g7
(lp4036
Vthe
p4037
atp4038
Rp4039
(dp4040
g16
VDT
p4041
sbag5
(g6
g7
(lp4042
g5
(g6
g7
(lp4043
V15
p4044
atp4045
Rp4046
(dp4047
g16
VCD
p4048
sbag5
(g6
g7
(lp4049
Vminute
p4050
atp4051
Rp4052
(dp4053
g16
VNN
p4054
sbatp4055
Rp4056
(dp4057
g16
VADJP
p4058
sbag5
(g6
g7
(lp4059
Vtest
p4060
atp4061
Rp4062
(dp4063
g16
VNN
p4064
sbag5
(g6
g7
(lp4065
Vwindow
p4066
atp4067
Rp4068
(dp4069
g16
VNN
p4070
sbatp4071
Rp4072
(dp4073
g16
VNP
p4074
sbatp4075
Rp4076
(dp4077
g16
VPP
p4078
sbatp4079
Rp4080
(dp4081
g16
VVP
p4082
sbatp4083
Rp4084
(dp4085
g16
VNP
p4086
sbatp4087
Rp4088
(dp4089
g16
VPP
p4090
sbatp4091
Rp4092
(dp4093
g16
VNP
p4094
sbatp4095
Rp4096
(dp4097
g16
VVP
p4098
sbatp4099
Rp4100
(dp4101
g16
g192
sbag5
(g6
g7
(lp4102
V--
p4103
atp4104
Rp4105
(dp4106
g16
g3516
sbag5
(g6
g7
(lp4107
g5
(g6
g7
(lp4108
g5
(g6
g7
(lp4109
Vso
p4110
atp4111
Rp4112
(dp4113
g16
VRB
p4114
sbag5
(g6
g7
(lp4115
Vif
p4116
atp4117
Rp4118
(dp4119
g16
VIN
p4120
sbag5
(g6
g7
(lp4121
g5
(g6
g7
(lp4122
g5
(g6
g7
(lp4123
Vthe
p4124
atp4125
Rp4126
(dp4127
g16
VDT
p4128
sbag5
(g6
g7
(lp4129
Vripple
p4130
atp4131
Rp4132
(dp4133
g16
VJJ
p4134
sbag5
(g6
g7
(lp4135
Veffects
p4136
atp4137
Rp4138
(dp4139
g16
VNNS
p4140
sbatp4141
Rp4142
(dp4143
g16
VNP
p4144
sbag5
(g6
g7
(lp4145
g5
(g6
g7
(lp4146
Vwere
p4147
atp4148
Rp4149
(dp4150
g16
VVBD
p4151
sbag5
(g6
g7
(lp4152
g5
(g6
g7
(lp4153
Vminor
p4154
atp4155
Rp4156
(dp4157
g16
VJJ
p4158
sbatp4159
Rp4160
(dp4161
g16
VADJP
p4162
sbatp4163
Rp4164
(dp4165
g16
VVP
p4166
sbatp4167
Rp4168
(dp4169
g16
g192
sbatp4170
Rp4171
(dp4172
g16
VSBAR
p4173
sbag5
(g6
g7
(lp4174
g40
atp4175
Rp4176
(dp4177
g16
g40
sbag5
(g6
g7
(lp4178
g5
(g6
g7
(lp4179
Vthe
p4180
atp4181
Rp4182
(dp4183
g16
VDT
p4184
sbag5
(g6
g7
(lp4185
Vblackout
p4186
atp4187
Rp4188
(dp4189
g16
VNN
p4190
sbatp4191
Rp4192
(dp4193
g16
VNP
p4194
sbag5
(g6
g7
(lp4195
g5
(g6
g7
(lp4196
Vwould
p4197
atp4198
Rp4199
(dp4200
g16
VMD
p4201
sbag5
(g6
g7
(lp4202
g5
(g6
g7
(lp4203
Vjust
p4204
atp4205
Rp4206
(dp4207
g16
VRB
p4208
sbatp4209
Rp4210
(dp4211
g16
VADVP
p4212
sbag5
(g6
g7
(lp4213
g5
(g6
g7
(lp4214
Vbe
p4215
atp4216
Rp4217
(dp4218
g16
VVB
p4219
sbag5
(g6
g7
(lp4220
g5
(g6
g7
(lp4221
Vembarrassing
p4222
atp4223
Rp4224
(dp4225
g16
VJJ
p4226
sbag5
(g6
g7
(lp4227
g40
atp4228
Rp4229
(dp4230
g16
g40
sbag5
(g6
g7
(lp4231
Vnot
p4232
atp4233
Rp4234
(dp4235
g16
VRB
p4236
sbag5
(g6
g7
(lp4237
Vdisqualifying
p4238
atp4239
Rp4240
(dp4241
g16
VJJ
p4242
sbatp4243
Rp4244
(dp4245
g16
VADJP
p4246
sbatp4247
Rp4248
(dp4249
g16
VVP
p4250
sbatp4251
Rp4252
(dp4253
g16
VVP
p4254
sbatp4255
Rp4256
(dp4257
g16
g192
sbag5
(g6
g7
(lp4258
g206
atp4259
Rp4260
(dp4261
g16
g206
sbatp4262
Rp4263
(dp4264
g16
g192
sbatp4265
Rp4266
(dp4267
g16
VROOT
p4268
sbasg217
(icmyPackage
CorE
p4269
(dp4270
g220
(lp4271
(I0
I0
tp4272
a(I0
I18
tp4273
asg224
g4100
sbsg230
(icmyPackage
CorE
p4274
(dp4275
g220
(lp4276
(I0
I21
tp4277
a(I0
I37
tp4278
asg224
g5
(g6
g7
(lp4279
g4118
ag4168
ag4176
ag4192
ag4252
ag4260
atp4280
Rp4281
(dp4282
g16
g229
sbsbsg240
g876
sg263
(lp4283
(icmyPackage
Sent
p4284
(dp4285
g267
I3
sg268
I18
sg269
S'But 250k transactions is less than 4% of the 7M transactions run in the 15 minute test window -- so if the ripple effects were minor, the blackout would just be embarrassing, not disqualifying.'
p4286
sg271
I0
sg272
I73
sg224
(lp4287
g4266
asbasba(icmyPackage
CELink
p4288
(dp4289
g3
(lp4290
g4281
asg217
(icmyPackage
CorE
p4291
(dp4292
g220
(lp4293
(I0
I1
tp4294
a(I0
I5
tp4295
asg224
g4168
sbsg230
(icmyPackage
CorE
p4296
(dp4297
g220
(lp4298
(I0
I7
tp4299
a(I0
I16
tp4300
asg224
g5
(g6
g7
(lp4301
g4192
ag4252
ag4260
atp4302
Rp4303
(dp4304
g16
g229
sbsbsg240
(icmyPackage
pattern
p4305
(dp4306
g243
I0
sg244
I0
sg245
(lp4307
(lp4308
(lp4309
S'if'
p4310
aS'once'
p4311
aaa(lp4312
S','
p4313
aasg249
(lp4314
I1
aI1
aI1
asg251
(lp4315
S'If some light and mobile detection devices can be invented in the future, many new applications can be imagined, for example, people can get some services while thinking.'
p4316
asg254
I15
sg255
(lp4317
(lp4318
a(lp4319
S'&C@Complete@'
p4320
aa(lp4321
S'&R@Complete@'
p4322
aasbsg263
(lp4323
g4284
asba(icmyPackage
CELink
p4324
(dp4325
g3
(lp4326
g5
(g6
g7
(lp4327
g5
(g6
g7
(lp4328
g5
(g6
g7
(lp4329
g5
(g6
g7
(lp4330
g5
(g6
g7
(lp4331
VOne
p4332
atp4333
Rp4334
(dp4335
g16
VCD
p4336
sbatp4337
Rp4338
(dp4339
g16
VNP
p4340
sbag5
(g6
g7
(lp4341
g5
(g6
g7
(lp4342
g5
(g6
g7
(lp4343
Vof
p4344
atp4345
Rp4346
(dp4347
g16
VIN
p4348
sbag5
(g6
g7
(lp4349
g5
(g6
g7
(lp4350
g5
(g6
g7
(lp4351
Vthe
p4352
atp4353
Rp4354
(dp4355
g16
VDT
p4356
sbag5
(g6
g7
(lp4357
Vdeficiencies
p4358
atp4359
Rp4360
(dp4361
g16
VNNS
p4362
sbatp4363
Rp4364
(dp4365
g16
VNP
p4366
sbag5
(g6
g7
(lp4367
g5
(g6
g7
(lp4368
Vof
p4369
atp4370
Rp4371
(dp4372
g16
VIN
p4373
sbag5
(g6
g7
(lp4374
g5
(g6
g7
(lp4375
VTPC-B
p4376
atp4377
Rp4378
(dp4379
g16
VNNP
p4380
sbatp4381
Rp4382
(dp4383
g16
VNP
p4384
sbatp4385
Rp4386
(dp4387
g16
VPP
p4388
sbatp4389
Rp4390
(dp4391
g16
VNP
p4392
sbatp4393
Rp4394
(dp4395
g16
VPP
p4396
sbag5
(g6
g7
(lp4397
Vand
p4398
atp4399
Rp4400
(dp4401
g16
VCC
p4402
sbag5
(g6
g7
(lp4403
g5
(g6
g7
(lp4404
Vof
p4405
atp4406
Rp4407
(dp4408
g16
VIN
p4409
sbag5
(g6
g7
(lp4410
g5
(g6
g7
(lp4411
Vthis
p4412
atp4413
Rp4414
(dp4415
g16
VDT
p4416
sbag5
(g6
g7
(lp4417
Vwork
p4418
atp4419
Rp4420
(dp4421
g16
VNN
p4422
sbatp4423
Rp4424
(dp4425
g16
VNP
p4426
sbatp4427
Rp4428
(dp4429
g16
VPP
p4430
sbatp4431
Rp4432
(dp4433
g16
VPP
p4434
sbatp4435
Rp4436
(dp4437
g16
VNP
p4438
sbag5
(g6
g7
(lp4439
g5
(g6
g7
(lp4440
Vis
p4441
atp4442
Rp4443
(dp4444
g16
VVBZ
p4445
sbag5
(g6
g7
(lp4446
g5
(g6
g7
(lp4447
g5
(g6
g7
(lp4448
Vthat
p4449
atp4450
Rp4451
(dp4452
g16
VIN
p4453
sbag5
(g6
g7
(lp4454
g5
(g6
g7
(lp4455
g5
(g6
g7
(lp4456
Vit
p4457
atp4458
Rp4459
(dp4460
g16
VPRP
p4461
sbatp4462
Rp4463
(dp4464
g16
VNP
p4465
sbag5
(g6
g7
(lp4466
g5
(g6
g7
(lp4467
Vdoes
p4468
atp4469
Rp4470
(dp4471
g16
VVBZ
p4472
sbag5
(g6
g7
(lp4473
Vn't
p4474
atp4475
Rp4476
(dp4477
g16
VRB
p4478
sbag5
(g6
g7
(lp4479
g5
(g6
g7
(lp4480
Vhave
p4481
atp4482
Rp4483
(dp4484
g16
VVB
p4485
sbag5
(g6
g7
(lp4486
g5
(g6
g7
(lp4487
Vterminals
p4488
atp4489
Rp4490
(dp4491
g16
VNNS
p4492
sbatp4493
Rp4494
(dp4495
g16
VNP
p4496
sbatp4497
Rp4498
(dp4499
g16
VVP
p4500
sbatp4501
Rp4502
(dp4503
g16
VVP
p4504
sbatp4505
Rp4506
(dp4507
g16
g192
sbatp4508
Rp4509
(dp4510
g16
VSBAR
p4511
sbag5
(g6
g7
(lp4512
Vand
p4513
atp4514
Rp4515
(dp4516
g16
VCC
p4517
sbag5
(g6
g7
(lp4518
g5
(g6
g7
(lp4519
Vso
p4520
atp4521
Rp4522
(dp4523
g16
VIN
p4524
sbag5
(g6
g7
(lp4525
g5
(g6
g7
(lp4526
g5
(g6
g7
(lp4527
Vit
p4528
atp4529
Rp4530
(dp4531
g16
VPRP
p4532
sbatp4533
Rp4534
(dp4535
g16
VNP
p4536
sbag5
(g6
g7
(lp4537
g5
(g6
g7
(lp4538
Vfails
p4539
atp4540
Rp4541
(dp4542
g16
VVBZ
p4543
sbag5
(g6
g7
(lp4544
g5
(g6
g7
(lp4545
g5
(g6
g7
(lp4546
Vto
p4547
atp4548
Rp4549
(dp4550
g16
VTO
p4551
sbag5
(g6
g7
(lp4552
g5
(g6
g7
(lp4553
g5
(g6
g7
(lp4554
Vproperly
p4555
atp4556
Rp4557
(dp4558
g16
VRB
p4559
sbatp4560
Rp4561
(dp4562
g16
VADVP
p4563
sbag5
(g6
g7
(lp4564
Vmodel
p4565
atp4566
Rp4567
(dp4568
g16
VVB
p4569
sbag5
(g6
g7
(lp4570
g5
(g6
g7
(lp4571
Vthese
p4572
atp4573
Rp4574
(dp4575
g16
VDT
p4576
sbag5
(g6
g7
(lp4577
Veffects
p4578
atp4579
Rp4580
(dp4581
g16
VNNS
p4582
sbatp4583
Rp4584
(dp4585
g16
VNP
p4586
sbatp4587
Rp4588
(dp4589
g16
VVP
p4590
sbatp4591
Rp4592
(dp4593
g16
VVP
p4594
sbatp4595
Rp4596
(dp4597
g16
g192
sbatp4598
Rp4599
(dp4600
g16
VVP
p4601
sbatp4602
Rp4603
(dp4604
g16
g192
sbatp4605
Rp4606
(dp4607
g16
VSBAR
p4608
sbatp4609
Rp4610
(dp4611
g16
VSBAR
p4612
sbatp4613
Rp4614
(dp4615
g16
VVP
p4616
sbag5
(g6
g7
(lp4617
g206
atp4618
Rp4619
(dp4620
g16
g206
sbatp4621
Rp4622
(dp4623
g16
g192
sbatp4624
Rp4625
(dp4626
g16
VROOT
p4627
sbasg217
(icmyPackage
CorE
p4628
(dp4629
g220
(lp4630
(I0
I0
tp4631
a(I0
I16
tp4632
asg224
g5
(g6
g7
(lp4633
g4436
ag4443
ag4509
atp4634
Rp4635
(dp4636
g16
g229
sbsbsg230
(icmyPackage
CorE
p4637
(dp4638
g220
(lp4639
(I0
I19
tp4640
a(I0
I26
tp4641
asg224
g5
(g6
g7
(lp4642
g4603
ag4619
atp4643
Rp4644
(dp4645
g16
g229
sbsbsg240
g876
sg263
(lp4646
(icmyPackage
Sent
p4647
(dp4648
g267
I3
sg268
I18
sg269
S"One of the deficiencies of TPC-B and of this work is that it doesn't have terminals and so it fails to properly model these effects."
p4649
sg271
I0
sg272
I74
sg224
(lp4650
g4625
asbasba(icmyPackage
CELink
p4651
(dp4652
g3
(lp4653
g5
(g6
g7
(lp4654
g5
(g6
g7
(lp4655
g5
(g6
g7
(lp4656
g5
(g6
g7
(lp4657
g5
(g6
g7
(lp4658
VSince
p4659
atp4660
Rp4661
(dp4662
g16
VIN
p4663
sbag5
(g6
g7
(lp4664
g5
(g6
g7
(lp4665
g5
(g6
g7
(lp4666
Vcell-phones
p4667
atp4668
Rp4669
(dp4670
g16
VNNS
p4671
sbatp4672
Rp4673
(dp4674
g16
VNP
p4675
sbag5
(g6
g7
(lp4676
g5
(g6
g7
(lp4677
g5
(g6
g7
(lp4678
Vare
p4679
atp4680
Rp4681
(dp4682
g16
VVBP
p4683
sbag5
(g6
g7
(lp4684
g5
(g6
g7
(lp4685
Valready
p4686
atp4687
Rp4688
(dp4689
g16
VRB
p4690
sbatp4691
Rp4692
(dp4693
g16
VADVP
p4694
sbag5
(g6
g7
(lp4695
g5
(g6
g7
(lp4696
Vat
p4697
atp4698
Rp4699
(dp4700
g16
VIN
p4701
sbag5
(g6
g7
(lp4702
g5
(g6
g7
(lp4703
g5
(g6
g7
(lp4704
g71
atp4705
Rp4706
(dp4707
g16
VDT
p4708
sbag5
(g6
g7
(lp4709
Vgigabyte
p4710
atp4711
Rp4712
(dp4713
g16
VNN
p4714
sbatp4715
Rp4716
(dp4717
g16
VNP
p4718
sbag5
(g6
g7
(lp4719
g5
(g6
g7
(lp4720
Vof
p4721
atp4722
Rp4723
(dp4724
g16
VIN
p4725
sbag5
(g6
g7
(lp4726
g5
(g6
g7
(lp4727
Vstorage
p4728
atp4729
Rp4730
(dp4731
g16
VNN
p4732
sbatp4733
Rp4734
(dp4735
g16
VNP
p4736
sbatp4737
Rp4738
(dp4739
g16
VPP
p4740
sbatp4741
Rp4742
(dp4743
g16
VNP
p4744
sbatp4745
Rp4746
(dp4747
g16
VPP
p4748
sbatp4749
Rp4750
(dp4751
g16
VVP
p4752
sbag5
(g6
g7
(lp4753
Vand
p4754
atp4755
Rp4756
(dp4757
g16
VCC
p4758
sbag5
(g6
g7
(lp4759
g5
(g6
g7
(lp4760
Vapproach
p4761
atp4762
Rp4763
(dp4764
g16
VVBP
p4765
sbag5
(g6
g7
(lp4766
g5
(g6
g7
(lp4767
g71
atp4768
Rp4769
(dp4770
g16
VDT
p4771
sbag5
(g6
g7
(lp4772
VGHz
p4773
atp4774
Rp4775
(dp4776
g16
VNNP
p4777
sbag5
(g6
g7
(lp4778
Vprocessor
p4779
atp4780
Rp4781
(dp4782
g16
VNN
p4783
sbatp4784
Rp4785
(dp4786
g16
VNP
p4787
sbatp4788
Rp4789
(dp4790
g16
VVP
p4791
sbatp4792
Rp4793
(dp4794
g16
VVP
p4795
sbatp4796
Rp4797
(dp4798
g16
g192
sbatp4799
Rp4800
(dp4801
g16
VSBAR
p4802
sbag5
(g6
g7
(lp4803
g40
atp4804
Rp4805
(dp4806
g16
g40
sbag5
(g6
g7
(lp4807
g5
(g6
g7
(lp4808
Vsuch
p4809
atp4810
Rp4811
(dp4812
g16
VPDT
p4813
sbag5
(g6
g7
(lp4814
Van
p4815
atp4816
Rp4817
(dp4818
g16
VDT
p4819
sbag5
(g6
g7
(lp4820
Varticle
p4821
atp4822
Rp4823
(dp4824
g16
VNN
p4825
sbatp4826
Rp4827
(dp4828
g16
VNP
p4829
sbag5
(g6
g7
(lp4830
g5
(g6
g7
(lp4831
Vmay
p4832
atp4833
Rp4834
(dp4835
g16
VMD
p4836
sbag5
(g6
g7
(lp4837
g5
(g6
g7
(lp4838
Vbe
p4839
atp4840
Rp4841
(dp4842
g16
VVB
p4843
sbag5
(g6
g7
(lp4844
g5
(g6
g7
(lp4845
Vpossible
p4846
atp4847
Rp4848
(dp4849
g16
VJJ
p4850
sbatp4851
Rp4852
(dp4853
g16
VADJP
p4854
sbatp4855
Rp4856
(dp4857
g16
VVP
p4858
sbatp4859
Rp4860
(dp4861
g16
VVP
p4862
sbatp4863
Rp4864
(dp4865
g16
g192
sbag5
(g6
g7
(lp4866
V--
p4867
atp4868
Rp4869
(dp4870
g16
g3516
sbag5
(g6
g7
(lp4871
g5
(g6
g7
(lp4872
g5
(g6
g7
(lp4873
Vwe
p4874
atp4875
Rp4876
(dp4877
g16
VPRP
p4878
sbatp4879
Rp4880
(dp4881
g16
VNP
p4882
sbag5
(g6
g7
(lp4883
g5
(g6
g7
(lp4884
Vhope
p4885
atp4886
Rp4887
(dp4888
g16
VVBP
p4889
sbag5
(g6
g7
(lp4890
g5
(g6
g7
(lp4891
g5
(g6
g7
(lp4892
g5
(g6
g7
(lp4893
Vwe
p4894
atp4895
Rp4896
(dp4897
g16
VPRP
p4898
sbatp4899
Rp4900
(dp4901
g16
VNP
p4902
sbag5
(g6
g7
(lp4903
g5
(g6
g7
(lp4904
Vare
p4905
atp4906
Rp4907
(dp4908
g16
VVBP
p4909
sbag5
(g6
g7
(lp4910
g5
(g6
g7
(lp4911
Varound
p4912
atp4913
Rp4914
(dp4915
g16
VIN
p4916
sbag5
(g6
g7
(lp4917
g5
(g6
g7
(lp4918
g5
(g6
g7
(lp4919
Vto
p4920
atp4921
Rp4922
(dp4923
g16
VTO
p4924
sbag5
(g6
g7
(lp4925
g5
(g6
g7
(lp4926
Vwrite
p4927
atp4928
Rp4929
(dp4930
g16
VVB
p4931
sbag5
(g6
g7
(lp4932
g5
(g6
g7
(lp4933
Vit
p4934
atp4935
Rp4936
(dp4937
g16
VPRP
p4938
sbatp4939
Rp4940
(dp4941
g16
VNP
p4942
sbatp4943
Rp4944
(dp4945
g16
VVP
p4946
sbatp4947
Rp4948
(dp4949
g16
VVP
p4950
sbatp4951
Rp4952
(dp4953
g16
g192
sbatp4954
Rp4955
(dp4956
g16
VVP
p4957
sbatp4958
Rp4959
(dp4960
g16
VVP
p4961
sbatp4962
Rp4963
(dp4964
g16
g192
sbatp4965
Rp4966
(dp4967
g16
VSBAR
p4968
sbatp4969
Rp4970
(dp4971
g16
VVP
p4972
sbatp4973
Rp4974
(dp4975
g16
g192
sbag5
(g6
g7
(lp4976
g206
atp4977
Rp4978
(dp4979
g16
g206
sbatp4980
Rp4981
(dp4982
g16
g192
sbatp4983
Rp4984
(dp4985
g16
VROOT
p4986
sbasg217
(icmyPackage
CorE
p4987
(dp4988
g220
(lp4989
(I0
I1
tp4990
a(I0
I13
tp4991
asg224
g4797
sbsg230
(icmyPackage
CorE
p4992
(dp4993
g220
(lp4994
(I0
I15
tp4995
a(I0
I30
tp4996
asg224
g5
(g6
g7
(lp4997
g4827
ag4860
ag4869
ag4974
ag4978
atp4998
Rp4999
(dp5000
g16
g229
sbsbsg240
(icmyPackage
pattern
p5001
(dp5002
g243
I15
sg244
I0
sg245
(lp5003
(lp5004
S'since'
p5005
aa(lp5006
g4313
aasg249
(lp5007
I3
aI1
aI1
asg251
(lp5008
S'But, since the herpes virus does not always show its symptoms, prevention is not fool proof.'
p5009
asg254
I78
sg255
(lp5010
(lp5011
a(lp5012
S'&C@NCTime@'
p5013
aa(lp5014
S'&R@NCTime@'
p5015
aasbsg263
(lp5016
(icmyPackage
Sent
p5017
(dp5018
g267
I4
sg268
I19
sg269
S'Since cell-phones are already at a gigabyte of storage and approach a GHz processor, such an article may be possible -- we hope we are around to write it.'
p5019
sg271
I0
sg272
I76
sg224
(lp5020
g4984
asbasba(icmyPackage
CELink
p5021
(dp5022
g3
(lp5023
g5
(g6
g7
(lp5024
g5
(g6
g7
(lp5025
g5
(g6
g7
(lp5026
g5
(g6
g7
(lp5027
VThe
p5028
atp5029
Rp5030
(dp5031
g16
VDT
p5032
sbag5
(g6
g7
(lp5033
Vmeasurements
p5034
atp5035
Rp5036
(dp5037
g16
VNNS
p5038
sbatp5039
Rp5040
(dp5041
g16
VNP
p5042
sbag5
(g6
g7
(lp5043
g5
(g6
g7
(lp5044
Vhere
p5045
atp5046
Rp5047
(dp5048
g16
VRB
p5049
sbatp5050
Rp5051
(dp5052
g16
VADVP
p5053
sbag5
(g6
g7
(lp5054
g5
(g6
g7
(lp5055
Vseem
p5056
atp5057
Rp5058
(dp5059
g16
VVBP
p5060
sbag5
(g6
g7
(lp5061
g5
(g6
g7
(lp5062
g5
(g6
g7
(lp5063
Vto
p5064
atp5065
Rp5066
(dp5067
g16
VTO
p5068
sbag5
(g6
g7
(lp5069
g5
(g6
g7
(lp5070
Vbe
p5071
atp5072
Rp5073
(dp5074
g16
VVB
p5075
sbag5
(g6
g7
(lp5076
g5
(g6
g7
(lp5077
Vbelow
p5078
atp5079
Rp5080
(dp5081
g16
VIN
p5082
sbag5
(g6
g7
(lp5083
g5
(g6
g7
(lp5084
V1
p5085
atp5086
Rp5087
(dp5088
g16
VCD
p5089
sbag5
(g6
g7
(lp5090
g5
(g6
g7
(lp5091
V$
p5092
atp5093
Rp5094
(dp5095
g16
g5092
sbag5
(g6
g7
(lp5096
V/
p5097
atp5098
Rp5099
(dp5100
g16
VCD
p5101
sbatp5102
Rp5103
(dp5104
g16
VADJP
p5105
sbag5
(g6
g7
(lp5106
VtpsA
p5107
atp5108
Rp5109
(dp5110
g16
VNNS
p5111
sbatp5112
Rp5113
(dp5114
g16
VNP
p5115
sbatp5116
Rp5117
(dp5118
g16
VPP
p5119
sbag5
(g6
g7
(lp5120
g40
atp5121
Rp5122
(dp5123
g16
g40
sbag5
(g6
g7
(lp5124
g5
(g6
g7
(lp5125
Veven
p5126
atp5127
Rp5128
(dp5129
g16
VRB
p5130
sbag5
(g6
g7
(lp5131
Vafter
p5132
atp5133
Rp5134
(dp5135
g16
VIN
p5136
sbag5
(g6
g7
(lp5137
g5
(g6
g7
(lp5138
g5
(g6
g7
(lp5139
Vyou
p5140
atp5141
Rp5142
(dp5143
g16
VPRP
p5144
sbatp5145
Rp5146
(dp5147
g16
VNP
p5148
sbag5
(g6
g7
(lp5149
g5
(g6
g7
(lp5150
Vfactor
p5151
atp5152
Rp5153
(dp5154
g16
VVB
p5155
sbag5
(g6
g7
(lp5156
g5
(g6
g7
(lp5157
Vin
p5158
atp5159
Rp5160
(dp5161
g16
VIN
p5162
sbag5
(g6
g7
(lp5163
g5
(g6
g7
(lp5164
g5
(g6
g7
(lp5165
Vthe
p5166
atp5167
Rp5168
(dp5169
g16
VDT
p5170
sbag5
(g6
g7
(lp5171
Vcorrect
p5172
atp5173
Rp5174
(dp5175
g16
VJJ
p5176
sbag5
(g6
g7
(lp5177
Vscaling
p5178
atp5179
Rp5180
(dp5181
g16
VVBG
p5182
sbag5
(g6
g7
(lp5183
Vrules
p5184
atp5185
Rp5186
(dp5187
g16
VNNS
p5188
sbatp5189
Rp5190
(dp5191
g16
VNP
p5192
sbag5
(g6
g7
(lp5193
Vand
p5194
atp5195
Rp5196
(dp5197
g16
VCC
p5198
sbag5
(g6
g7
(lp5199
g5
(g6
g7
(lp5200
g5
(g6
g7
(lp5201
g5
(g6
g7
(lp5202
Vthe
p5203
atp5204
Rp5205
(dp5206
g16
VDT
p5207
sbag5
(g6
g7
(lp5208
Vcosts
p5209
atp5210
Rp5211
(dp5212
g16
VNNS
p5213
sbatp5214
Rp5215
(dp5216
g16
VNP
p5217
sbag5
(g6
g7
(lp5218
g5
(g6
g7
(lp5219
Vof
p5220
atp5221
Rp5222
(dp5223
g16
VIN
p5224
sbag5
(g6
g7
(lp5225
g5
(g6
g7
(lp5226
g5
(g6
g7
(lp5227
Vdelivering
p5228
atp5229
Rp5230
(dp5231
g16
VVBG
p5232
sbag5
(g6
g7
(lp5233
g5
(g6
g7
(lp5234
Vmessages
p5235
atp5236
Rp5237
(dp5238
g16
VNNS
p5239
sbatp5240
Rp5241
(dp5242
g16
VNP
p5243
sbatp5244
Rp5245
(dp5246
g16
VVP
p5247
sbatp5248
Rp5249
(dp5250
g16
g192
sbatp5251
Rp5252
(dp5253
g16
VPP
p5254
sbatp5255
Rp5256
(dp5257
g16
VNP
p5258
sbag5
(g6
g7
(lp5259
g5
(g6
g7
(lp5260
V-LRB-
p5261
atp5262
Rp5263
(dp5264
g16
V-LRB-
p5265
sbag5
(g6
g7
(lp5266
g5
(g6
g7
(lp5267
Vexcluding
p5268
atp5269
Rp5270
(dp5271
g16
VVBG
p5272
sbag5
(g6
g7
(lp5273
g5
(g6
g7
(lp5274
g5
(g6
g7
(lp5275
Vthe
p5276
atp5277
Rp5278
(dp5279
g16
VDT
p5280
sbag5
(g6
g7
(lp5281
Vcost
p5282
atp5283
Rp5284
(dp5285
g16
VNN
p5286
sbatp5287
Rp5288
(dp5289
g16
VNP
p5290
sbag5
(g6
g7
(lp5291
g5
(g6
g7
(lp5292
Vof
p5293
atp5294
Rp5295
(dp5296
g16
VIN
p5297
sbag5
(g6
g7
(lp5298
g5
(g6
g7
(lp5299
g5
(g6
g7
(lp5300
Vthe
p5301
atp5302
Rp5303
(dp5304
g16
VDT
p5305
sbag5
(g6
g7
(lp5306
Vterminals
p5307
atp5308
Rp5309
(dp5310
g16
VNNS
p5311
sbatp5312
Rp5313
(dp5314
g16
VNP
p5315
sbag5
(g6
g7
(lp5316
g5
(g6
g7
(lp5317
Vmandated
p5318
atp5319
Rp5320
(dp5321
g16
VVBN
p5322
sbag5
(g6
g7
(lp5323
g5
(g6
g7
(lp5324
Vby
p5325
atp5326
Rp5327
(dp5328
g16
VIN
p5329
sbag5
(g6
g7
(lp5330
g5
(g6
g7
(lp5331
Vthe
p5332
atp5333
Rp5334
(dp5335
g16
VDT
p5336
sbag5
(g6
g7
(lp5337
VTPC-A
p5338
atp5339
Rp5340
(dp5341
g16
VJJ
p5342
sbag5
(g6
g7
(lp5343
Vrules
p5344
atp5345
Rp5346
(dp5347
g16
VNNS
p5348
sbatp5349
Rp5350
(dp5351
g16
VNP
p5352
sbatp5353
Rp5354
(dp5355
g16
VPP
p5356
sbatp5357
Rp5358
(dp5359
g16
VVP
p5360
sbatp5361
Rp5362
(dp5363
g16
VNP
p5364
sbatp5365
Rp5366
(dp5367
g16
VPP
p5368
sbatp5369
Rp5370
(dp5371
g16
VNP
p5372
sbatp5373
Rp5374
(dp5375
g16
VPP
p5376
sbag5
(g6
g7
(lp5377
V-RRB-
p5378
atp5379
Rp5380
(dp5381
g16
V-RRB-
p5382
sbatp5383
Rp5384
(dp5385
g16
VPRN
p5386
sbatp5387
Rp5388
(dp5389
g16
VNP
p5390
sbatp5391
Rp5392
(dp5393
g16
VNP
p5394
sbatp5395
Rp5396
(dp5397
g16
VPP
p5398
sbatp5399
Rp5400
(dp5401
g16
VVP
p5402
sbatp5403
Rp5404
(dp5405
g16
g192
sbatp5406
Rp5407
(dp5408
g16
VSBAR
p5409
sbatp5410
Rp5411
(dp5412
g16
VVP
p5413
sbatp5414
Rp5415
(dp5416
g16
VVP
p5417
sbatp5418
Rp5419
(dp5420
g16
g192
sbatp5421
Rp5422
(dp5423
g16
VVP
p5424
sbag5
(g6
g7
(lp5425
g206
atp5426
Rp5427
(dp5428
g16
g206
sbatp5429
Rp5430
(dp5431
g16
g192
sbatp5432
Rp5433
(dp5434
g16
VROOT
p5435
sbag5
(g6
g7
(lp5436
g5
(g6
g7
(lp5437
g5
(g6
g7
(lp5438
g5
(g6
g7
(lp5439
VAs
p5440
atp5441
Rp5442
(dp5443
g16
VIN
p5444
sbag5
(g6
g7
(lp5445
g5
(g6
g7
(lp5446
g5
(g6
g7
(lp5447
g71
atp5448
Rp5449
(dp5450
g16
VDT
p5451
sbag5
(g6
g7
(lp5452
Vresult
p5453
atp5454
Rp5455
(dp5456
g16
VNN
p5457
sbatp5458
Rp5459
(dp5460
g16
VNP
p5461
sbag5
(g6
g7
(lp5462
g5
(g6
g7
(lp5463
Vof
p5464
atp5465
Rp5466
(dp5467
g16
VIN
p5468
sbag5
(g6
g7
(lp5469
g5
(g6
g7
(lp5470
Vthis
p5471
atp5472
Rp5473
(dp5474
g16
VDT
p5475
sbag5
(g6
g7
(lp5476
Vtrend
p5477
atp5478
Rp5479
(dp5480
g16
VNN
p5481
sbatp5482
Rp5483
(dp5484
g16
VNP
p5485
sbatp5486
Rp5487
(dp5488
g16
VPP
p5489
sbatp5490
Rp5491
(dp5492
g16
VNP
p5493
sbatp5494
Rp5495
(dp5496
g16
VPP
p5497
sbag5
(g6
g7
(lp5498
g40
atp5499
Rp5500
(dp5501
g16
g40
sbag5
(g6
g7
(lp5502
g5
(g6
g7
(lp5503
Vthe
p5504
atp5505
Rp5506
(dp5507
g16
VDT
p5508
sbag5
(g6
g7
(lp5509
g5
(g6
g7
(lp5510
Vimpossible
p5511
atp5512
Rp5513
(dp5514
g16
VJJ
p5515
sbag5
(g6
g7
(lp5516
g5
(g6
g7
(lp5517
V1970
p5518
atp5519
Rp5520
(dp5521
g16
VCD
p5522
sbatp5523
Rp5524
(dp5525
g16
VNP
p5526
sbatp5527
Rp5528
(dp5529
g16
VADJP
p5530
sbag5
(g6
g7
(lp5531
Vtask
p5532
atp5533
Rp5534
(dp5535
g16
VNN
p5536
sbatp5537
Rp5538
(dp5539
g16
VNP
p5540
sbag5
(g6
g7
(lp5541
g5
(g6
g7
(lp5542
Vbecame
p5543
atp5544
Rp5545
(dp5546
g16
VVBD
p5547
sbag5
(g6
g7
(lp5548
g5
(g6
g7
(lp5549
g5
(g6
g7
(lp5550
g5
(g6
g7
(lp5551
g71
atp5552
Rp5553
(dp5554
g16
VDT
p5555
sbag5
(g6
g7
(lp5556
g5092
atp5557
Rp5558
(dp5559
g16
g5092
sbag5
(g6
g7
(lp5560
V10M
p5561
atp5562
Rp5563
(dp5564
g16
VCD
p5565
sbatp5566
Rp5567
(dp5568
g16
VNP
p5569
sbag5
(g6
g7
(lp5570
g5
(g6
g7
(lp5571
V1990
p5572
atp5573
Rp5574
(dp5575
g16
VCD
p5576
sbag5
(g6
g7
(lp5577
Vtask
p5578
atp5579
Rp5580
(dp5581
g16
VNN
p5582
sbatp5583
Rp5584
(dp5585
g16
VNP
p5586
sbatp5587
Rp5588
(dp5589
g16
VNP
p5590
sbag5
(g6
g7
(lp5591
Vand
p5592
atp5593
Rp5594
(dp5595
g16
VCC
p5596
sbag5
(g6
g7
(lp5597
g5
(g6
g7
(lp5598
g5
(g6
g7
(lp5599
Vthe
p5600
atp5601
Rp5602
(dp5603
g16
VDT
p5604
sbag5
(g6
g7
(lp5605
g5
(g6
g7
(lp5606
g5
(g6
g7
(lp5607
g5092
atp5608
Rp5609
(dp5610
g16
g5092
sbag5
(g6
g7
(lp5611
V10K
p5612
atp5613
Rp5614
(dp5615
g16
VCD
p5616
sbatp5617
Rp5618
(dp5619
g16
VQP
p5620
sbatp5621
Rp5622
(dp5623
g16
VADJP
p5624
sbag5
(g6
g7
(lp5625
Vtask
p5626
atp5627
Rp5628
(dp5629
g16
VNN
p5630
sbatp5631
Rp5632
(dp5633
g16
VNP
p5634
sbag5
(g6
g7
(lp5635
g5
(g6
g7
(lp5636
Vof
p5637
atp5638
Rp5639
(dp5640
g16
VIN
p5641
sbag5
(g6
g7
(lp5642
g5
(g6
g7
(lp5643
V2005
p5644
atp5645
Rp5646
(dp5647
g16
VCD
p5648
sbatp5649
Rp5650
(dp5651
g16
VNP
p5652
sbatp5653
Rp5654
(dp5655
g16
VPP
p5656
sbatp5657
Rp5658
(dp5659
g16
VNP
p5660
sbatp5661
Rp5662
(dp5663
g16
VNP
p5664
sbatp5665
Rp5666
(dp5667
g16
VVP
p5668
sbag5
(g6
g7
(lp5669
g206
atp5670
Rp5671
(dp5672
g16
g206
sbatp5673
Rp5674
(dp5675
g16
g192
sbatp5676
Rp5677
(dp5678
g16
VROOT
p5679
sbasg217
(icmyPackage
CorE
p5680
(dp5681
g220
(lp5682
(I0
I1
tp5683
a(I1
I0
tp5684
asg224
g5
(g6
g7
(lp5685
g5036
ag5051
ag5422
ag5427
ag5442
atp5686
Rp5687
(dp5688
g16
g229
sbsbsg230
(icmyPackage
CorE
p5689
(dp5690
g220
(lp5691
(I1
I5
tp5692
a(I1
I24
tp5693
asg224
g5
(g6
g7
(lp5694
g5479
ag5500
ag5538
ag5666
ag5671
atp5695
Rp5696
(dp5697
g16
g229
sbsbsg240
(icmyPackage
pattern
p5698
(dp5699
g243
I4
sg244
I1
sg245
(lp5700
(lp5701
S'result'
p5702
aa(lp5703
S'is'
p5704
aasg249
(lp5705
I4
aI2
aI1
asg251
(lp5706
S'Amazing things will happen. The result of this trading is a market that has done what markets do: allocate resources to more productive use.'
p5707
asg254
I135
sg255
(lp5708
(lp5709
S'&C'
p5710
aS'(,/./;/--)'
p5711
aS'&ONE'
p5712
aS'(&adj)'
p5713
aa(lp5714
S'(of &THIS (&NP))'
p5715
aa(lp5716
S'&NP@R@'
p5717
aS'(&Clause@R@)'
p5718
aasbsg263
(lp5719
(icmyPackage
Sent
p5720
(dp5721
g267
I4
sg268
I21
sg269
S'The measurements here seem to be below 1$/tpsA, even after you factor in the correct scaling rules and the costs of delivering messages (excluding the cost of the terminals mandated by the TPC-A rules).'
p5722
sg271
I0
sg272
I84
sg224
(lp5723
g5433
asba(icmyPackage
Sent
p5724
(dp5725
g267
I4
sg268
I22
sg269
S'As a result of this trend, the impossible 1970 task became a $10M 1990 task and the $10K task of 2005.'
p5726
sg271
I0
sg272
I85
sg224
(lp5727
g5677
asbasba(icmyPackage
CELink
p5728
(dp5729
g3
(lp5730
g5
(g6
g7
(lp5731
g5
(g6
g7
(lp5732
g5
(g6
g7
(lp5733
g5
(g6
g7
(lp5734
VThe
p5735
atp5736
Rp5737
(dp5738
g16
VDT
p5739
sbag5
(g6
g7
(lp5740
Vability
p5741
atp5742
Rp5743
(dp5744
g16
VNN
p5745
sbag5
(g6
g7
(lp5746
g5
(g6
g7
(lp5747
g5
(g6
g7
(lp5748
Vto
p5749
atp5750
Rp5751
(dp5752
g16
VTO
p5753
sbag5
(g6
g7
(lp5754
g5
(g6
g7
(lp5755
Vdo
p5756
atp5757
Rp5758
(dp5759
g16
VVB
p5760
sbag5
(g6
g7
(lp5761
g5
(g6
g7
(lp5762
V8ktps
p5763
atp5764
Rp5765
(dp5766
g16
VNNS
p5767
sbatp5768
Rp5769
(dp5770
g16
VNP
p5771
sbag5
(g6
g7
(lp5772
g5
(g6
g7
(lp5773
Von
p5774
atp5775
Rp5776
(dp5777
g16
VIN
p5778
sbag5
(g6
g7
(lp5779
g5
(g6
g7
(lp5780
g71
atp5781
Rp5782
(dp5783
g16
VDT
p5784
sbag5
(g6
g7
(lp5785
Vlaptop
p5786
atp5787
Rp5788
(dp5789
g16
VNN
p5790
sbatp5791
Rp5792
(dp5793
g16
VNP
p5794
sbatp5795
Rp5796
(dp5797
g16
VPP
p5798
sbatp5799
Rp5800
(dp5801
g16
VVP
p5802
sbatp5803
Rp5804
(dp5805
g16
VVP
p5806
sbatp5807
Rp5808
(dp5809
g16
g192
sbatp5810
Rp5811
(dp5812
g16
VNP
p5813
sbag5
(g6
g7
(lp5814
g5
(g6
g7
(lp5815
Vdemonstrates
p5816
atp5817
Rp5818
(dp5819
g16
VVBZ
p5820
sbag5
(g6
g7
(lp5821
g5
(g6
g7
(lp5822
Vthat
p5823
atp5824
Rp5825
(dp5826
g16
VIN
p5827
sbag5
(g6
g7
(lp5828
g5
(g6
g7
(lp5829
g5
(g6
g7
(lp5830
Vyou
p5831
atp5832
Rp5833
(dp5834
g16
VPRP
p5835
sbatp5836
Rp5837
(dp5838
g16
VNP
p5839
sbag5
(g6
g7
(lp5840
g5
(g6
g7
(lp5841
Vcan
p5842
atp5843
Rp5844
(dp5845
g16
VMD
p5846
sbag5
(g6
g7
(lp5847
g5
(g6
g7
(lp5848
Vuse
p5849
atp5850
Rp5851
(dp5852
g16
VVB
p5853
sbag5
(g6
g7
(lp5854
g5
(g6
g7
(lp5855
g5
(g6
g7
(lp5856
Vrelational
p5857
atp5858
Rp5859
(dp5860
g16
VJJ
p5861
sbag5
(g6
g7
(lp5862
Vsystems
p5863
atp5864
Rp5865
(dp5866
g16
VNNS
p5867
sbatp5868
Rp5869
(dp5870
g16
VNP
p5871
sbag5
(g6
g7
(lp5872
Vand
p5873
atp5874
Rp5875
(dp5876
g16
VCC
p5877
sbag5
(g6
g7
(lp5878
g5
(g6
g7
(lp5879
Vsimple
p5880
atp5881
Rp5882
(dp5883
g16
VJJ
p5884
sbag5
(g6
g7
(lp5885
Valgorithms
p5886
atp5887
Rp5888
(dp5889
g16
VNNS
p5890
sbatp5891
Rp5892
(dp5893
g16
VNP
p5894
sbatp5895
Rp5896
(dp5897
g16
VNP
p5898
sbag5
(g6
g7
(lp5899
g5
(g6
g7
(lp5900
g5
(g6
g7
(lp5901
Vif
p5902
atp5903
Rp5904
(dp5905
g16
VIN
p5906
sbag5
(g6
g7
(lp5907
g5
(g6
g7
(lp5908
g5
(g6
g7
(lp5909
Vyour
p5910
atp5911
Rp5912
(dp5913
g16
VPRP$
p5914
sbag5
(g6
g7
(lp5915
Vproblem
p5916
atp5917
Rp5918
(dp5919
g16
VNN
p5920
sbatp5921
Rp5922
(dp5923
g16
VNP
p5924
sbag5
(g6
g7
(lp5925
g5
(g6
g7
(lp5926
Vinvolves
p5927
atp5928
Rp5929
(dp5930
g16
VVBZ
p5931
sbag5
(g6
g7
(lp5932
g5
(g6
g7
(lp5933
g5
(g6
g7
(lp5934
g71
atp5935
Rp5936
(dp5937
g16
VDT
p5938
sbag5
(g6
g7
(lp5939
Vfew
p5940
atp5941
Rp5942
(dp5943
g16
VJJ
p5944
sbag5
(g6
g7
(lp5945
Vthousand
p5946
atp5947
Rp5948
(dp5949
g16
VCD
p5950
sbag5
(g6
g7
(lp5951
Vtransactions
p5952
atp5953
Rp5954
(dp5955
g16
VNNS
p5956
sbatp5957
Rp5958
(dp5959
g16
VNP
p5960
sbag5
(g6
g7
(lp5961
g5
(g6
g7
(lp5962
Vper
p5963
atp5964
Rp5965
(dp5966
g16
VIN
p5967
sbag5
(g6
g7
(lp5968
g5
(g6
g7
(lp5969
g5
(g6
g7
(lp5970
Vsecond
p5971
atp5972
Rp5973
(dp5974
g16
VJJ
p5975
sbatp5976
Rp5977
(dp5978
g16
VNP
p5979
sbag5
(g6
g7
(lp5980
g5
(g6
g7
(lp5981
Vper
p5982
atp5983
Rp5984
(dp5985
g16
VIN
p5986
sbag5
(g6
g7
(lp5987
g5
(g6
g7
(lp5988
VCPU
p5989
atp5990
Rp5991
(dp5992
g16
VNNP
p5993
sbatp5994
Rp5995
(dp5996
g16
VNP
p5997
sbatp5998
Rp5999
(dp6000
g16
VPP
p6001
sbatp6002
Rp6003
(dp6004
g16
VNP
p6005
sbatp6006
Rp6007
(dp6008
g16
VPP
p6009
sbatp6010
Rp6011
(dp6012
g16
VNP
p6013
sbatp6014
Rp6015
(dp6016
g16
VVP
p6017
sbatp6018
Rp6019
(dp6020
g16
g192
sbatp6021
Rp6022
(dp6023
g16
VSBAR
p6024
sbag5
(g6
g7
(lp6025
Vand
p6026
atp6027
Rp6028
(dp6029
g16
VCC
p6030
sbag5
(g6
g7
(lp6031
g5
(g6
g7
(lp6032
Vif
p6033
atp6034
Rp6035
(dp6036
g16
VIN
p6037
sbag5
(g6
g7
(lp6038
g5
(g6
g7
(lp6039
g5
(g6
g7
(lp6040
Vyour
p6041
atp6042
Rp6043
(dp6044
g16
VPRP$
p6045
sbag5
(g6
g7
(lp6046
Vdata
p6047
atp6048
Rp6049
(dp6050
g16
VNNS
p6051
sbatp6052
Rp6053
(dp6054
g16
VNP
p6055
sbag5
(g6
g7
(lp6056
g5
(g6
g7
(lp6057
Vfits
p6058
atp6059
Rp6060
(dp6061
g16
VVBZ
p6062
sbag5
(g6
g7
(lp6063
g5
(g6
g7
(lp6064
Vin
p6065
atp6066
Rp6067
(dp6068
g16
VIN
p6069
sbag5
(g6
g7
(lp6070
g5
(g6
g7
(lp6071
VRAM
p6072
atp6073
Rp6074
(dp6075
g16
VNNP
p6076
sbatp6077
Rp6078
(dp6079
g16
VNP
p6080
sbatp6081
Rp6082
(dp6083
g16
VPP
p6084
sbatp6085
Rp6086
(dp6087
g16
VVP
p6088
sbatp6089
Rp6090
(dp6091
g16
g192
sbatp6092
Rp6093
(dp6094
g16
VSBAR
p6095
sbatp6096
Rp6097
(dp6098
g16
VSBAR
p6099
sbatp6100
Rp6101
(dp6102
g16
VVP
p6103
sbatp6104
Rp6105
(dp6106
g16
VVP
p6107
sbatp6108
Rp6109
(dp6110
g16
g192
sbatp6111
Rp6112
(dp6113
g16
VSBAR
p6114
sbatp6115
Rp6116
(dp6117
g16
VVP
p6118
sbag5
(g6
g7
(lp6119
g206
atp6120
Rp6121
(dp6122
g16
g206
sbatp6123
Rp6124
(dp6125
g16
g192
sbatp6126
Rp6127
(dp6128
g16
VROOT
p6129
sbasg217
(icmyPackage
CorE
p6130
(dp6131
g220
(lp6132
(I0
I19
tp6133
a(I0
I37
tp6134
asg224
g5
(g6
g7
(lp6135
g6019
ag6028
ag6093
ag6121
atp6136
Rp6137
(dp6138
g16
g229
sbsbsg230
(icmyPackage
CorE
p6139
(dp6140
g220
(lp6141
(I0
I0
tp6142
a(I0
I17
tp6143
asg224
g5
(g6
g7
(lp6144
g5811
ag5818
ag5825
ag5837
ag5844
ag5851
ag5896
atp6145
Rp6146
(dp6147
g16
g229
sbsbsg240
(icmyPackage
pattern
p6148
(dp6149
g243
I0
sg244
I0
sg245
(lp6150
(lp6151
S'if'
p6152
aasg249
(lp6153
I1
aI1
aI1
asg251
(lp6154
S'An effective knowledge flow network enables a research team to be very powerful in generating new knowledge if every node can innovate and output new knowledge to appropriate members.'
p6155
asg254
I14
sg255
(lp6156
(lp6157
S'&R@Complete@'
p6158
aa(lp6159
S'&C@Complete@'
p6160
aasbsg263
(lp6161
(icmyPackage
Sent
p6162
(dp6163
g267
I4
sg268
I23
sg269
S'The ability to do 8ktps on a laptop demonstrates that you can use relational systems and simple algorithms if your problem involves a few thousand transactions per second per CPU and if your data fits in RAM.'
p6164
sg271
I0
sg272
I87
sg224
(lp6165
g6127
asbasba(icmyPackage
CELink
p6166
(dp6167
g3
(lp6168
g6137
asg217
(icmyPackage
CorE
p6169
(dp6170
g220
(lp6171
(I0
I13
tp6172
a(I0
I18
tp6173
asg224
g5
(g6
g7
(lp6174
g6090
ag6121
atp6175
Rp6176
(dp6177
g16
g229
sbsbsg230
(icmyPackage
CorE
p6178
(dp6179
g220
(lp6180
(I0
I0
tp6181
a(I0
I11
tp6182
asg224
g5
(g6
g7
(lp6183
g6019
ag6028
atp6184
Rp6185
(dp6186
g16
g229
sbsbsg240
g6148
sg263
(lp6187
g6162
asba(icmyPackage
CELink
p6188
(dp6189
g3
(lp6190
g5
(g6
g7
(lp6191
g5
(g6
g7
(lp6192
g5
(g6
g7
(lp6193
g5
(g6
g7
(lp6194
g5
(g6
g7
(lp6195
VThe
p6196
atp6197
Rp6198
(dp6199
g16
VDT
p6200
sbag5
(g6
g7
(lp6201
Vresults
p6202
atp6203
Rp6204
(dp6205
g16
VNNS
p6206
sbatp6207
Rp6208
(dp6209
g16
VNP
p6210
sbag5
(g6
g7
(lp6211
g5
(g6
g7
(lp6212
Valso
p6213
atp6214
Rp6215
(dp6216
g16
VRB
p6217
sbatp6218
Rp6219
(dp6220
g16
VADVP
p6221
sbag5
(g6
g7
(lp6222
g5
(g6
g7
(lp6223
Vindicate
p6224
atp6225
Rp6226
(dp6227
g16
VVBP
p6228
sbag5
(g6
g7
(lp6229
g5
(g6
g7
(lp6230
Vthat
p6231
atp6232
Rp6233
(dp6234
g16
VIN
p6235
sbag5
(g6
g7
(lp6236
g5
(g6
g7
(lp6237
g5
(g6
g7
(lp6238
VCPU
p6239
atp6240
Rp6241
(dp6242
g16
VNNP
p6243
sbatp6244
Rp6245
(dp6246
g16
VNP
p6247
sbag5
(g6
g7
(lp6248
g5
(g6
g7
(lp6249
Vis
p6250
atp6251
Rp6252
(dp6253
g16
VVBZ
p6254
sbag5
(g6
g7
(lp6255
Vnot
p6256
atp6257
Rp6258
(dp6259
g16
VRB
p6260
sbag5
(g6
g7
(lp6261
g5
(g6
g7
(lp6262
Vthe
p6263
atp6264
Rp6265
(dp6266
g16
VDT
p6267
sbag5
(g6
g7
(lp6268
Vproblem
p6269
atp6270
Rp6271
(dp6272
g16
VNN
p6273
sbatp6274
Rp6275
(dp6276
g16
VNP
p6277
sbatp6278
Rp6279
(dp6280
g16
VVP
p6281
sbatp6282
Rp6283
(dp6284
g16
g192
sbatp6285
Rp6286
(dp6287
g16
VSBAR
p6288
sbatp6289
Rp6290
(dp6291
g16
VVP
p6292
sbatp6293
Rp6294
(dp6295
g16
g192
sbag5
(g6
g7
(lp6296
V--
p6297
atp6298
Rp6299
(dp6300
g16
g3516
sbag5
(g6
g7
(lp6301
g5
(g6
g7
(lp6302
g5
(g6
g7
(lp6303
Vif
p6304
atp6305
Rp6306
(dp6307
g16
VIN
p6308
sbag5
(g6
g7
(lp6309
g5
(g6
g7
(lp6310
g5
(g6
g7
(lp6311
Vyou
p6312
atp6313
Rp6314
(dp6315
g16
VPRP
p6316
sbatp6317
Rp6318
(dp6319
g16
VNP
p6320
sbag5
(g6
g7
(lp6321
g5
(g6
g7
(lp6322
Vcan
p6323
atp6324
Rp6325
(dp6326
g16
VMD
p6327
sbag5
(g6
g7
(lp6328
g5
(g6
g7
(lp6329
Vfeed
p6330
atp6331
Rp6332
(dp6333
g16
VVB
p6334
sbag5
(g6
g7
(lp6335
g5
(g6
g7
(lp6336
Vmemory
p6337
atp6338
Rp6339
(dp6340
g16
VNN
p6341
sbatp6342
Rp6343
(dp6344
g16
VNP
p6345
sbag5
(g6
g7
(lp6346
g5
(g6
g7
(lp6347
Vto
p6348
atp6349
Rp6350
(dp6351
g16
VTO
p6352
sbag5
(g6
g7
(lp6353
g5
(g6
g7
(lp6354
Vthe
p6355
atp6356
Rp6357
(dp6358
g16
VDT
p6359
sbag5
(g6
g7
(lp6360
VCPU
p6361
atp6362
Rp6363
(dp6364
g16
VNNP
p6365
sbatp6366
Rp6367
(dp6368
g16
VNP
p6369
sbatp6370
Rp6371
(dp6372
g16
VPP
p6373
sbatp6374
Rp6375
(dp6376
g16
VVP
p6377
sbatp6378
Rp6379
(dp6380
g16
VVP
p6381
sbatp6382
Rp6383
(dp6384
g16
g192
sbatp6385
Rp6386
(dp6387
g16
VSBAR
p6388
sbag5
(g6
g7
(lp6389
g40
atp6390
Rp6391
(dp6392
g16
g40
sbag5
(g6
g7
(lp6393
g5
(g6
g7
(lp6394
Vit
p6395
atp6396
Rp6397
(dp6398
g16
VPRP
p6399
sbatp6400
Rp6401
(dp6402
g16
VNP
p6403
sbag5
(g6
g7
(lp6404
g5
(g6
g7
(lp6405
Vdelivers
p6406
atp6407
Rp6408
(dp6409
g16
VVBZ
p6410
sbag5
(g6
g7
(lp6411
g5
(g6
g7
(lp6412
Vimpressive
p6413
atp6414
Rp6415
(dp6416
g16
VJJ
p6417
sbag5
(g6
g7
(lp6418
Vtransaction
p6419
atp6420
Rp6421
(dp6422
g16
VNN
p6423
sbag5
(g6
g7
(lp6424
Vrates
p6425
atp6426
Rp6427
(dp6428
g16
VNNS
p6429
sbatp6430
Rp6431
(dp6432
g16
VNP
p6433
sbatp6434
Rp6435
(dp6436
g16
VVP
p6437
sbatp6438
Rp6439
(dp6440
g16
g192
sbag5
(g6
g7
(lp6441
g206
atp6442
Rp6443
(dp6444
g16
g206
sbatp6445
Rp6446
(dp6447
g16
g192
sbatp6448
Rp6449
(dp6450
g16
VROOT
p6451
sbasg217
(icmyPackage
CorE
p6452
(dp6453
g220
(lp6454
(I0
I12
tp6455
a(I0
I18
tp6456
asg224
g6383
sbsg230
(icmyPackage
CorE
p6457
(dp6458
g220
(lp6459
(I0
I20
tp6460
a(I0
I25
tp6461
asg224
g5
(g6
g7
(lp6462
g6401
ag6435
ag6443
atp6463
Rp6464
(dp6465
g16
g229
sbsbsg240
g4305
sg263
(lp6466
(icmyPackage
Sent
p6467
(dp6468
g267
I4
sg268
I24
sg269
S'The results also indicate that CPU is not the problem -- if you can feed memory to the CPU, it delivers impressive transaction rates.'
p6469
sg271
I0
sg272
I88
sg224
(lp6470
g6449
asbasba(icmyPackage
CELink
p6471
(dp6472
g3
(lp6473
g5
(g6
g7
(lp6474
g5
(g6
g7
(lp6475
g5
(g6
g7
(lp6476
g5
(g6
g7
(lp6477
VAs
p6478
atp6479
Rp6480
(dp6481
g16
VIN
p6482
sbag5
(g6
g7
(lp6483
g5
(g6
g7
(lp6484
VFigure
p6485
atp6486
Rp6487
(dp6488
g16
VNNP
p6489
sbag5
(g6
g7
(lp6490
g1293
atp6491
Rp6492
(dp6493
g16
VCD
p6494
sbag5
(g6
g7
(lp6495
Vshows
p6496
atp6497
Rp6498
(dp6499
g16
VNNS
p6500
sbatp6501
Rp6502
(dp6503
g16
VNP
p6504
sbatp6505
Rp6506
(dp6507
g16
VPP
p6508
sbag5
(g6
g7
(lp6509
g40
atp6510
Rp6511
(dp6512
g16
g40
sbag5
(g6
g7
(lp6513
g5
(g6
g7
(lp6514
VSQLServer
p6515
atp6516
Rp6517
(dp6518
g16
VNNP
p6519
sbag5
(g6
g7
(lp6520
V2000
p6521
atp6522
Rp6523
(dp6524
g16
VCD
p6525
sbatp6526
Rp6527
(dp6528
g16
VNP
p6529
sbag5
(g6
g7
(lp6530
g5
(g6
g7
(lp6531
Vkeeps
p6532
atp6533
Rp6534
(dp6535
g16
VVBZ
p6536
sbag5
(g6
g7
(lp6537
g5
(g6
g7
(lp6538
g5
(g6
g7
(lp6539
Vthe
p6540
atp6541
Rp6542
(dp6543
g16
VDT
p6544
sbag5
(g6
g7
(lp6545
VIO
p6546
atp6547
Rp6548
(dp6549
g16
VNNP
p6550
sbag5
(g6
g7
(lp6551
Vqueue
p6552
atp6553
Rp6554
(dp6555
g16
VNN
p6556
sbatp6557
Rp6558
(dp6559
g16
VNP
p6560
sbag5
(g6
g7
(lp6561
g5
(g6
g7
(lp6562
g5
(g6
g7
(lp6563
V100
p6564
atp6565
Rp6566
(dp6567
g16
VCD
p6568
sbag5
(g6
g7
(lp6569
Vrequests
p6570
atp6571
Rp6572
(dp6573
g16
VNNS
p6574
sbatp6575
Rp6576
(dp6577
g16
VNP
p6578
sbag5
(g6
g7
(lp6579
Vdeep
p6580
atp6581
Rp6582
(dp6583
g16
VJJ
p6584
sbatp6585
Rp6586
(dp6587
g16
VADJP
p6588
sbatp6589
Rp6590
(dp6591
g16
g192
sbag5
(g6
g7
(lp6592
g5
(g6
g7
(lp6593
Vuntil
p6594
atp6595
Rp6596
(dp6597
g16
VIN
p6598
sbag5
(g6
g7
(lp6599
g5
(g6
g7
(lp6600
g5
(g6
g7
(lp6601
Vthe
p6602
atp6603
Rp6604
(dp6605
g16
VDT
p6606
sbag5
(g6
g7
(lp6607
Vcheckpoint
p6608
atp6609
Rp6610
(dp6611
g16
VNN
p6612
sbatp6613
Rp6614
(dp6615
g16
VNP
p6616
sbag5
(g6
g7
(lp6617
g5
(g6
g7
(lp6618
Vcompletes
p6619
atp6620
Rp6621
(dp6622
g16
VVBZ
p6623
sbag5
(g6
g7
(lp6624
V--
p6625
atp6626
Rp6627
(dp6628
g16
g3516
sbag5
(g6
g7
(lp6629
g5
(g6
g7
(lp6630
g5
(g6
g7
(lp6631
g5
(g6
g7
(lp6632
Vthis
p6633
atp6634
Rp6635
(dp6636
g16
VDT
p6637
sbatp6638
Rp6639
(dp6640
g16
VNP
p6641
sbag5
(g6
g7
(lp6642
g5
(g6
g7
(lp6643
Vstarves
p6644
atp6645
Rp6646
(dp6647
g16
VVBZ
p6648
sbag5
(g6
g7
(lp6649
g5
(g6
g7
(lp6650
Vthe
p6651
atp6652
Rp6653
(dp6654
g16
VDT
p6655
sbag5
(g6
g7
(lp6656
Vother
p6657
atp6658
Rp6659
(dp6660
g16
VJJ
p6661
sbag5
(g6
g7
(lp6662
Vtasks
p6663
atp6664
Rp6665
(dp6666
g16
VNNS
p6667
sbatp6668
Rp6669
(dp6670
g16
VNP
p6671
sbatp6672
Rp6673
(dp6674
g16
VVP
p6675
sbatp6676
Rp6677
(dp6678
g16
g192
sbag5
(g6
g7
(lp6679
V--
p6680
atp6681
Rp6682
(dp6683
g16
g3516
sbag5
(g6
g7
(lp6684
g5
(g6
g7
(lp6685
g5
(g6
g7
(lp6686
Vmost
p6687
atp6688
Rp6689
(dp6690
g16
VJJS
p6691
sbag5
(g6
g7
(lp6692
Vsystems
p6693
atp6694
Rp6695
(dp6696
g16
VNNS
p6697
sbatp6698
Rp6699
(dp6700
g16
VNP
p6701
sbag5
(g6
g7
(lp6702
g5
(g6
g7
(lp6703
g5
(g6
g7
(lp6704
Vhave
p6705
atp6706
Rp6707
(dp6708
g16
VVBP
p6709
sbag5
(g6
g7
(lp6710
g5
(g6
g7
(lp6711
g71
atp6712
Rp6713
(dp6714
g16
VDT
p6715
sbag5
(g6
g7
(lp6716
g5
(g6
g7
(lp6717
Vdedicated
p6718
atp6719
Rp6720
(dp6721
g16
VJJ
p6722
sbatp6723
Rp6724
(dp6725
g16
VADJP
p6726
sbag5
(g6
g7
(lp6727
Vlog
p6728
atp6729
Rp6730
(dp6731
g16
VNN
p6732
sbag5
(g6
g7
(lp6733
Vdisk
p6734
atp6735
Rp6736
(dp6737
g16
VNN
p6738
sbatp6739
Rp6740
(dp6741
g16
VNP
p6742
sbatp6743
Rp6744
(dp6745
g16
VVP
p6746
sbag5
(g6
g7
(lp6747
Vand
p6748
atp6749
Rp6750
(dp6751
g16
VCC
p6752
sbag5
(g6
g7
(lp6753
g5
(g6
g7
(lp6754
Vcan
p6755
atp6756
Rp6757
(dp6758
g16
VMD
p6759
sbag5
(g6
g7
(lp6760
g5
(g6
g7
(lp6761
Vservice
p6762
atp6763
Rp6764
(dp6765
g16
VVB
p6766
sbag5
(g6
g7
(lp6767
g5
(g6
g7
(lp6768
g71
atp6769
Rp6770
(dp6771
g16
VDT
p6772
sbag5
(g6
g7
(lp6773
V100-deep
p6774
atp6775
Rp6776
(dp6777
g16
VJJ
p6778
sbag5
(g6
g7
(lp6779
VIO
p6780
atp6781
Rp6782
(dp6783
g16
VNNP
p6784
sbag5
(g6
g7
(lp6785
Vqueue
p6786
atp6787
Rp6788
(dp6789
g16
VNN
p6790
sbatp6791
Rp6792
(dp6793
g16
VNP
p6794
sbatp6795
Rp6796
(dp6797
g16
VVP
p6798
sbatp6799
Rp6800
(dp6801
g16
VVP
p6802
sbatp6803
Rp6804
(dp6805
g16
VVP
p6806
sbatp6807
Rp6808
(dp6809
g16
g192
sbag5
(g6
g7
(lp6810
g40
atp6811
Rp6812
(dp6813
g16
g40
sbag5
(g6
g7
(lp6814
Vso
p6815
atp6816
Rp6817
(dp6818
g16
VRB
p6819
sbag5
(g6
g7
(lp6820
g5
(g6
g7
(lp6821
g5
(g6
g7
(lp6822
Vthis
p6823
atp6824
Rp6825
(dp6826
g16
VDT
p6827
sbatp6828
Rp6829
(dp6830
g16
VNP
p6831
sbag5
(g6
g7
(lp6832
g5
(g6
g7
(lp6833
Vis
p6834
atp6835
Rp6836
(dp6837
g16
VVBZ
p6838
sbag5
(g6
g7
(lp6839
Vnot
p6840
atp6841
Rp6842
(dp6843
g16
VRB
p6844
sbag5
(g6
g7
(lp6845
g5
(g6
g7
(lp6846
g71
atp6847
Rp6848
(dp6849
g16
VDT
p6850
sbag5
(g6
g7
(lp6851
Vproblem
p6852
atp6853
Rp6854
(dp6855
g16
VNN
p6856
sbatp6857
Rp6858
(dp6859
g16
VNP
p6860
sbatp6861
Rp6862
(dp6863
g16
VVP
p6864
sbatp6865
Rp6866
(dp6867
g16
g192
sbatp6868
Rp6869
(dp6870
g16
g192
sbatp6871
Rp6872
(dp6873
g16
VVP
p6874
sbatp6875
Rp6876
(dp6877
g16
g192
sbatp6878
Rp6879
(dp6880
g16
VSBAR
p6881
sbatp6882
Rp6883
(dp6884
g16
VVP
p6885
sbag5
(g6
g7
(lp6886
g206
atp6887
Rp6888
(dp6889
g16
g206
sbatp6890
Rp6891
(dp6892
g16
g192
sbatp6893
Rp6894
(dp6895
g16
VROOT
p6896
sbasg217
(icmyPackage
CorE
p6897
(dp6898
g220
(lp6899
(I0
I0
tp6900
a(I0
I38
tp6901
asg224
g5
(g6
g7
(lp6902
g6506
ag6511
ag6527
ag6534
ag6590
ag6596
ag6614
ag6621
ag6627
ag6677
ag6682
ag6808
atp6903
Rp6904
(dp6905
g16
g229
sbsbsg230
(icmyPackage
CorE
p6906
(dp6907
g220
(lp6908
(I0
I41
tp6909
a(I0
I46
tp6910
asg224
g5
(g6
g7
(lp6911
g6866
ag6888
atp6912
Rp6913
(dp6914
g16
g229
sbsbsg240
g876
sg263
(lp6915
(icmyPackage
Sent
p6916
(dp6917
g267
I4
sg268
I25
sg269
S'As Figure 2 shows, SQLServer 2000 keeps the IO queue 100 requests deep until the checkpoint completes -- this starves the other tasks -- most systems have a dedicated log disk and can service a 100-deep IO queue, so this is not a problem.'
p6918
sg271
I0
sg272
I92
sg224
(lp6919
g6894
asbasba(icmyPackage
CELink
p6920
(dp6921
g3
(lp6922
g5
(g6
g7
(lp6923
g5
(g6
g7
(lp6924
g5
(g6
g7
(lp6925
g5
(g6
g7
(lp6926
g5
(g6
g7
(lp6927
VThe
p6928
atp6929
Rp6930
(dp6931
g16
VDT
p6932
sbag5
(g6
g7
(lp6933
Vnext
p6934
atp6935
Rp6936
(dp6937
g16
VJJ
p6938
sbag5
(g6
g7
(lp6939
Vversion
p6940
atp6941
Rp6942
(dp6943
g16
VNN
p6944
sbatp6945
Rp6946
(dp6947
g16
VNP
p6948
sbag5
(g6
g7
(lp6949
g5
(g6
g7
(lp6950
Vof
p6951
atp6952
Rp6953
(dp6954
g16
VIN
p6955
sbag5
(g6
g7
(lp6956
g5
(g6
g7
(lp6957
VSQLServer
p6958
atp6959
Rp6960
(dp6961
g16
VNNP
p6962
sbatp6963
Rp6964
(dp6965
g16
VNP
p6966
sbatp6967
Rp6968
(dp6969
g16
VPP
p6970
sbatp6971
Rp6972
(dp6973
g16
VNP
p6974
sbag5
(g6
g7
(lp6975
g5
(g6
g7
(lp6976
Vfixes
p6977
atp6978
Rp6979
(dp6980
g16
VVBZ
p6981
sbag5
(g6
g7
(lp6982
g5
(g6
g7
(lp6983
Vthis
p6984
atp6985
Rp6986
(dp6987
g16
VDT
p6988
sbag5
(g6
g7
(lp6989
Vproblem
p6990
atp6991
Rp6992
(dp6993
g16
VNN
p6994
sbatp6995
Rp6996
(dp6997
g16
VNP
p6998
sbag5
(g6
g7
(lp6999
g5
(g6
g7
(lp7000
Vby
p7001
atp7002
Rp7003
(dp7004
g16
VIN
p7005
sbag5
(g6
g7
(lp7006
g5
(g6
g7
(lp7007
g5
(g6
g7
(lp7008
Vreducing
p7009
atp7010
Rp7011
(dp7012
g16
VVBG
p7013
sbag5
(g6
g7
(lp7014
g5
(g6
g7
(lp7015
Vthe
p7016
atp7017
Rp7018
(dp7019
g16
VDT
p7020
sbag5
(g6
g7
(lp7021
g5
(g6
g7
(lp7022
Voutstanding
p7023
atp7024
Rp7025
(dp7026
g16
VJJ
p7027
sbag5
(g6
g7
(lp7028
Vcheckpoint
p7029
atp7030
Rp7031
(dp7032
g16
VJJ
p7033
sbatp7034
Rp7035
(dp7036
g16
VADJP
p7037
sbag5
(g6
g7
(lp7038
VIO
p7039
atp7040
Rp7041
(dp7042
g16
VNN
p7043
sbatp7044
Rp7045
(dp7046
g16
VNP
p7047
sbag5
(g6
g7
(lp7048
g5
(g6
g7
(lp7049
Vif
p7050
atp7051
Rp7052
(dp7053
g16
VIN
p7054
sbag5
(g6
g7
(lp7055
g5
(g6
g7
(lp7056
g5
(g6
g7
(lp7057
Vthe
p7058
atp7059
Rp7060
(dp7061
g16
VDT
p7062
sbag5
(g6
g7
(lp7063
VIO
p7064
atp7065
Rp7066
(dp7067
g16
VNNP
p7068
sbag5
(g6
g7
(lp7069
Vresponse
p7070
atp7071
Rp7072
(dp7073
g16
VNN
p7074
sbag5
(g6
g7
(lp7075
Vtime
p7076
atp7077
Rp7078
(dp7079
g16
VNN
p7080
sbatp7081
Rp7082
(dp7083
g16
VNP
p7084
sbag5
(g6
g7
(lp7085
g5
(g6
g7
(lp7086
Vincreases
p7087
atp7088
Rp7089
(dp7090
g16
VVBZ
p7091
sbag5
(g6
g7
(lp7092
g5
(g6
g7
(lp7093
Vdramatically
p7094
atp7095
Rp7096
(dp7097
g16
VRB
p7098
sbatp7099
Rp7100
(dp7101
g16
VADVP
p7102
sbatp7103
Rp7104
(dp7105
g16
VVP
p7106
sbatp7107
Rp7108
(dp7109
g16
g192
sbatp7110
Rp7111
(dp7112
g16
VSBAR
p7113
sbatp7114
Rp7115
(dp7116
g16
VVP
p7117
sbatp7118
Rp7119
(dp7120
g16
g192
sbatp7121
Rp7122
(dp7123
g16
VPP
p7124
sbatp7125
Rp7126
(dp7127
g16
VVP
p7128
sbag5
(g6
g7
(lp7129
g206
atp7130
Rp7131
(dp7132
g16
g206
sbatp7133
Rp7134
(dp7135
g16
g192
sbatp7136
Rp7137
(dp7138
g16
VROOT
p7139
sbasg217
(icmyPackage
CorE
p7140
(dp7141
g220
(lp7142
(I0
I15
tp7143
a(I0
I21
tp7144
asg224
g5
(g6
g7
(lp7145
g7108
ag7131
atp7146
Rp7147
(dp7148
g16
g229
sbsbsg230
(icmyPackage
CorE
p7149
(dp7150
g220
(lp7151
(I0
I0
tp7152
a(I0
I13
tp7153
asg224
g5
(g6
g7
(lp7154
g6972
ag6979
ag6996
ag7003
ag7011
ag7045
atp7155
Rp7156
(dp7157
g16
g229
sbsbsg240
g6148
sg263
(lp7158
(icmyPackage
Sent
p7159
(dp7160
g267
I4
sg268
I25
sg269
S'The next version of SQLServer fixes this problem by reducing the outstanding checkpoint IO if the IO response time increases dramatically.'
p7161
sg271
I0
sg272
I93
sg224
(lp7162
g7137
asbasba(icmyPackage
CELink
p7163
(dp7164
g3
(lp7165
g5
(g6
g7
(lp7166
g5
(g6
g7
(lp7167
g5
(g6
g7
(lp7168
g5
(g6
g7
(lp7169
VIf
p7170
atp7171
Rp7172
(dp7173
g16
VIN
p7174
sbag5
(g6
g7
(lp7175
g5
(g6
g7
(lp7176
g5
(g6
g7
(lp7177
Vwe
p7178
atp7179
Rp7180
(dp7181
g16
VPRP
p7182
sbatp7183
Rp7184
(dp7185
g16
VNP
p7186
sbag5
(g6
g7
(lp7187
g5
(g6
g7
(lp7188
VIT
p7189
atp7190
Rp7191
(dp7192
g16
VVBD
p7193
sbag5
(g6
g7
(lp7194
g5
(g6
g7
(lp7195
g5
(g6
g7
(lp7196
g5
(g6
g7
(lp7197
Vfolks
p7198
atp7199
Rp7200
(dp7201
g16
VNNS
p7202
sbatp7203
Rp7204
(dp7205
g16
VNP
p7206
sbag5
(g6
g7
(lp7207
g5
(g6
g7
(lp7208
Vhad
p7209
atp7210
Rp7211
(dp7212
g16
VVBD
p7213
sbag5
(g6
g7
(lp7214
g5
(g6
g7
(lp7215
g5
(g6
g7
(lp7216
Vthe
p7217
atp7218
Rp7219
(dp7220
g16
VDT
p7221
sbag5
(g6
g7
(lp7222
Vluxury
p7223
atp7224
Rp7225
(dp7226
g16
VNN
p7227
sbatp7228
Rp7229
(dp7230
g16
VNP
p7231
sbag5
(g6
g7
(lp7232
g5
(g6
g7
(lp7233
Vof
p7234
atp7235
Rp7236
(dp7237
g16
VIN
p7238
sbag5
(g6
g7
(lp7239
g5
(g6
g7
(lp7240
g5
(g6
g7
(lp7241
Vgenerals
p7242
atp7243
Rp7244
(dp7245
g16
VNNS
p7246
sbatp7247
Rp7248
(dp7249
g16
VNP
p7250
sbag5
(g6
g7
(lp7251
g5
(g6
g7
(lp7252
g5
(g6
g7
(lp7253
Vwho
p7254
atp7255
Rp7256
(dp7257
g16
VWP
p7258
sbatp7259
Rp7260
(dp7261
g16
VWHNP
p7262
sbag5
(g6
g7
(lp7263
g5
(g6
g7
(lp7264
g5
(g6
g7
(lp7265
Vfight
p7266
atp7267
Rp7268
(dp7269
g16
VVB
p7270
sbag5
(g6
g7
(lp7271
g5
(g6
g7
(lp7272
Vthe
p7273
atp7274
Rp7275
(dp7276
g16
VDT
p7277
sbag5
(g6
g7
(lp7278
Vprevious
p7279
atp7280
Rp7281
(dp7282
g16
VJJ
p7283
sbag5
(g6
g7
(lp7284
Vwar
p7285
atp7286
Rp7287
(dp7288
g16
VNN
p7289
sbatp7290
Rp7291
(dp7292
g16
VNP
p7293
sbatp7294
Rp7295
(dp7296
g16
VVP
p7297
sbatp7298
Rp7299
(dp7300
g16
g192
sbatp7301
Rp7302
(dp7303
g16
VSBAR
p7304
sbatp7305
Rp7306
(dp7307
g16
VNP
p7308
sbatp7309
Rp7310
(dp7311
g16
VPP
p7312
sbatp7313
Rp7314
(dp7315
g16
VNP
p7316
sbatp7317
Rp7318
(dp7319
g16
VVP
p7320
sbatp7321
Rp7322
(dp7323
g16
g192
sbatp7324
Rp7325
(dp7326
g16
VSBAR
p7327
sbatp7328
Rp7329
(dp7330
g16
VVP
p7331
sbatp7332
Rp7333
(dp7334
g16
g192
sbatp7335
Rp7336
(dp7337
g16
VSBAR
p7338
sbag5
(g6
g7
(lp7339
g40
atp7340
Rp7341
(dp7342
g16
g40
sbag5
(g6
g7
(lp7343
g5
(g6
g7
(lp7344
Vlife
p7345
atp7346
Rp7347
(dp7348
g16
VNN
p7349
sbatp7350
Rp7351
(dp7352
g16
VNP
p7353
sbag5
(g6
g7
(lp7354
g5
(g6
g7
(lp7355
Vwould
p7356
atp7357
Rp7358
(dp7359
g16
VMD
p7360
sbag5
(g6
g7
(lp7361
g5
(g6
g7
(lp7362
Vbe
p7363
atp7364
Rp7365
(dp7366
g16
VVB
p7367
sbag5
(g6
g7
(lp7368
g5
(g6
g7
(lp7369
Vboring
p7370
atp7371
Rp7372
(dp7373
g16
VVBG
p7374
sbatp7375
Rp7376
(dp7377
g16
VADJP
p7378
sbatp7379
Rp7380
(dp7381
g16
VVP
p7382
sbatp7383
Rp7384
(dp7385
g16
VVP
p7386
sbag5
(g6
g7
(lp7387
g206
atp7388
Rp7389
(dp7390
g16
g206
sbatp7391
Rp7392
(dp7393
g16
g192
sbatp7394
Rp7395
(dp7396
g16
VROOT
p7397
sbasg217
(icmyPackage
CorE
p7398
(dp7399
g220
(lp7400
(I0
I1
tp7401
a(I0
I13
tp7402
asg224
g7333
sbsg230
(icmyPackage
CorE
p7403
(dp7404
g220
(lp7405
(I0
I15
tp7406
a(I0
I19
tp7407
asg224
g5
(g6
g7
(lp7408
g7351
ag7384
ag7389
atp7409
Rp7410
(dp7411
g16
g229
sbsbsg240
g4305
sg263
(lp7412
(icmyPackage
Sent
p7413
(dp7414
g267
I4
sg268
I26
sg269
S'If we IT folks had the luxury of generals who fight the previous war, life would be boring.'
p7415
sg271
I0
sg272
I96
sg224
(lp7416
g7395
asbasba.