(lp0
(icmyPackage
CELink
p1
(dp2
S'PTreelst'
p3
(lp4
ccopy_reg
_reconstructor
p5
(cnltk.tree
Tree
p6
c__builtin__
list
p7
(lp8
g5
(g6
g7
(lp9
g5
(g6
g7
(lp10
g5
(g6
g7
(lp11
g5
(g6
g7
(lp12
VThere
p13
atp14
Rp15
(dp16
S'_label'
p17
VEX
p18
sbatp19
Rp20
(dp21
g17
VNP
p22
sbag5
(g6
g7
(lp23
g5
(g6
g7
(lp24
Vis
p25
atp26
Rp27
(dp28
g17
VVBZ
p29
sbag5
(g6
g7
(lp30
g5
(g6
g7
(lp31
Valso
p32
atp33
Rp34
(dp35
g17
VRB
p36
sbatp37
Rp38
(dp39
g17
VADVP
p40
sbag5
(g6
g7
(lp41
g5
(g6
g7
(lp42
Vthe
p43
atp44
Rp45
(dp46
g17
VDT
p47
sbag5
(g6
g7
(lp48
Vold
p49
atp50
Rp51
(dp52
g17
VJJ
p53
sbag5
(g6
g7
(lp54
Vargument
p55
atp56
Rp57
(dp58
g17
VNN
p59
sbatp60
Rp61
(dp62
g17
VNP
p63
sbag5
(g6
g7
(lp64
g5
(g6
g7
(lp65
Vthat
p66
atp67
Rp68
(dp69
g17
VIN
p70
sbag5
(g6
g7
(lp71
V``
p72
atp73
Rp74
(dp75
g17
V``
p76
sbag5
(g6
g7
(lp77
g5
(g6
g7
(lp78
g5
(g6
g7
(lp79
VI
p80
atp81
Rp82
(dp83
g17
VPRP
p84
sbatp85
Rp86
(dp87
g17
VNP
p88
sbag5
(g6
g7
(lp89
g5
(g6
g7
(lp90
Vcan
p91
atp92
Rp93
(dp94
g17
VMD
p95
sbag5
(g6
g7
(lp96
g5
(g6
g7
(lp97
Vmake
p98
atp99
Rp100
(dp101
g17
VVB
p102
sbag5
(g6
g7
(lp103
g5
(g6
g7
(lp104
Vthe
p105
atp106
Rp107
(dp108
g17
VDT
p109
sbag5
(g6
g7
(lp110
Vsystem
p111
atp112
Rp113
(dp114
g17
VNN
p115
sbatp116
Rp117
(dp118
g17
VNP
p119
sbag5
(g6
g7
(lp120
g5
(g6
g7
(lp121
Varbitrarily
p122
atp123
Rp124
(dp125
g17
VRB
p126
sbatp127
Rp128
(dp129
g17
VADVP
p130
sbag5
(g6
g7
(lp131
g5
(g6
g7
(lp132
Vfast
p133
atp134
Rp135
(dp136
g17
VRB
p137
sbatp138
Rp139
(dp140
g17
VADVP
p141
sbag5
(g6
g7
(lp142
g5
(g6
g7
(lp143
Vif
p144
atp145
Rp146
(dp147
g17
VIN
p148
sbag5
(g6
g7
(lp149
g5
(g6
g7
(lp150
g5
(g6
g7
(lp151
Vit
p152
atp153
Rp154
(dp155
g17
VPRP
p156
sbatp157
Rp158
(dp159
g17
VNP
p160
sbag5
(g6
g7
(lp161
g5
(g6
g7
(lp162
Vdoes
p163
atp164
Rp165
(dp166
g17
VVBZ
p167
sbag5
(g6
g7
(lp168
Vn't
p169
atp170
Rp171
(dp172
g17
VRB
p173
sbag5
(g6
g7
(lp174
g5
(g6
g7
(lp175
Vhave
p176
atp177
Rp178
(dp179
g17
VVB
p180
sbag5
(g6
g7
(lp181
g5
(g6
g7
(lp182
g5
(g6
g7
(lp183
Vto
p184
atp185
Rp186
(dp187
g17
VTO
p188
sbag5
(g6
g7
(lp189
g5
(g6
g7
(lp190
Vproduce
p191
atp192
Rp193
(dp194
g17
VVB
p195
sbag5
(g6
g7
(lp196
g5
(g6
g7
(lp197
g5
(g6
g7
(lp198
Vuseful
p199
atp200
Rp201
(dp202
g17
VJJ
p203
sbag5
(g6
g7
(lp204
Vand
p205
atp206
Rp207
(dp208
g17
VCC
p209
sbag5
(g6
g7
(lp210
Vcorrect
p211
atp212
Rp213
(dp214
g17
VJJ
p215
sbatp216
Rp217
(dp218
g17
VADJP
p219
sbag5
(g6
g7
(lp220
Vresults
p221
atp222
Rp223
(dp224
g17
VNNS
p225
sbatp226
Rp227
(dp228
g17
VNP
p229
sbatp230
Rp231
(dp232
g17
VVP
p233
sbatp234
Rp235
(dp236
g17
VVP
p237
sbatp238
Rp239
(dp240
g17
VS
p241
sbatp242
Rp243
(dp244
g17
VVP
p245
sbatp246
Rp247
(dp248
g17
VVP
p249
sbatp250
Rp251
(dp252
g17
g241
sbatp253
Rp254
(dp255
g17
VSBAR
p256
sbatp257
Rp258
(dp259
g17
VVP
p260
sbatp261
Rp262
(dp263
g17
VVP
p264
sbatp265
Rp266
(dp267
g17
g241
sbag5
(g6
g7
(lp268
V''
p269
atp270
Rp271
(dp272
g17
V''
p273
sbatp274
Rp275
(dp276
g17
VSBAR
p277
sbatp278
Rp279
(dp280
g17
VVP
p281
sbatp282
Rp283
(dp284
g17
g241
sbag5
(g6
g7
(lp285
V--
p286
atp287
Rp288
(dp289
g17
V:
p290
sbag5
(g6
g7
(lp291
g5
(g6
g7
(lp292
g5
(g6
g7
(lp293
Vthis
p294
atp295
Rp296
(dp297
g17
VDT
p298
sbatp299
Rp300
(dp301
g17
VNP
p302
sbag5
(g6
g7
(lp303
g5
(g6
g7
(lp304
Valso
p305
atp306
Rp307
(dp308
g17
VRB
p309
sbatp310
Rp311
(dp312
g17
VADVP
p313
sbag5
(g6
g7
(lp314
g5
(g6
g7
(lp315
Vscalability
p316
atp317
Rp318
(dp319
g17
VVBP
p320
sbag5
(g6
g7
(lp321
g5
(g6
g7
(lp322
g5
(g6
g7
(lp323
Vwhich
p324
atp325
Rp326
(dp327
g17
VWDT
p328
sbatp329
Rp330
(dp331
g17
VWHNP
p332
sbag5
(g6
g7
(lp333
g5
(g6
g7
(lp334
g5
(g6
g7
(lp335
Vis
p336
atp337
Rp338
(dp339
g17
VVBZ
p340
sbag5
(g6
g7
(lp341
g5
(g6
g7
(lp342
g5
(g6
g7
(lp343
Vjust
p344
atp345
Rp346
(dp347
g17
VRB
p348
sbag5
(g6
g7
(lp349
Vone
p350
atp351
Rp352
(dp353
g17
VCD
p354
sbag5
(g6
g7
(lp355
Vaspect
p356
atp357
Rp358
(dp359
g17
VNN
p360
sbatp361
Rp362
(dp363
g17
VNP
p364
sbag5
(g6
g7
(lp365
g5
(g6
g7
(lp366
Vof
p367
atp368
Rp369
(dp370
g17
VIN
p371
sbag5
(g6
g7
(lp372
g5
(g6
g7
(lp373
Vperformance
p374
atp375
Rp376
(dp377
g17
VNN
p378
sbatp379
Rp380
(dp381
g17
VNP
p382
sbatp383
Rp384
(dp385
g17
VPP
p386
sbatp387
Rp388
(dp389
g17
VNP
p390
sbatp391
Rp392
(dp393
g17
VVP
p394
sbatp395
Rp396
(dp397
g17
g241
sbatp398
Rp399
(dp400
g17
VSBAR
p401
sbatp402
Rp403
(dp404
g17
VVP
p405
sbatp406
Rp407
(dp408
g17
g241
sbag5
(g6
g7
(lp409
V.
p410
atp411
Rp412
(dp413
g17
g410
sbatp414
Rp415
(dp416
g17
g241
sbatp417
Rp418
(dp419
g17
VROOT
p420
sbasS'cause'
p421
(icmyPackage
CorE
p422
(dp423
S'span'
p424
(lp425
(I0
I16
tp426
a(I0
I36
tp427
asS'PTree'
p428
g5
(g6
g7
(lp429
g251
ag271
ag288
ag300
ag311
ag318
ag330
ag338
ag362
ag369
atp430
Rp431
(dp432
g17
S'ROOT'
p433
sbsbsS'effect'
p434
(icmyPackage
CorE
p435
(dp436
g424
(lp437
(I0
I0
tp438
a(I0
I14
tp439
asg428
g5
(g6
g7
(lp440
g20
ag27
ag38
ag61
ag68
ag74
ag86
ag93
ag100
ag117
ag128
ag139
atp441
Rp442
(dp443
g17
g433
sbsbsS'pt'
p444
(icmyPackage
pattern
p445
(dp446
S'pfreq'
p447
I0
sS'moresent'
p448
I0
sS'main_token'
p449
(lp450
(lp451
S'if'
p452
aasS'ptype'
p453
(lp454
I1
aI1
aI1
asS'cases'
p455
(lp456
S'An effective knowledge flow network enables a research team to be very powerful in generating new knowledge if every node can innovate and output new knowledge to appropriate members.'
p457
asS'id'
p458
I14
sS'constraints'
p459
(lp460
(lp461
S'&R@Complete@'
p462
aa(lp463
S'&C@Complete@'
p464
aasbsS'sInfo'
p465
(lp466
(icmyPackage
Sent
p467
(dp468
S'Ctag'
p469
I1
sS'Ptag'
p470
I6
sS'text'
p471
S'There is also the old argument that "I can make the system arbitrarily fast if it doesn\'t have to produce useful and correct results" -- this also scalability which is just one aspect of performance.'
p472
sS'SCtag'
p473
I0
sS'Stag'
p474
I17
sg428
(lp475
g418
asbasba(icmyPackage
CELink
p476
(dp477
g3
(lp478
g5
(g6
g7
(lp479
g5
(g6
g7
(lp480
g5
(g6
g7
(lp481
g5
(g6
g7
(lp482
VIf
p483
atp484
Rp485
(dp486
g17
VIN
p487
sbag5
(g6
g7
(lp488
g5
(g6
g7
(lp489
g5
(g6
g7
(lp490
Vyou
p491
atp492
Rp493
(dp494
g17
VPRP
p495
sbatp496
Rp497
(dp498
g17
VNP
p499
sbag5
(g6
g7
(lp500
g5
(g6
g7
(lp501
Vhave
p502
atp503
Rp504
(dp505
g17
VVBP
p506
sbag5
(g6
g7
(lp507
g5
(g6
g7
(lp508
Vno
p509
atp510
Rp511
(dp512
g17
VDT
p513
sbag5
(g6
g7
(lp514
Vusers
p515
atp516
Rp517
(dp518
g17
VNNS
p519
sbatp520
Rp521
(dp522
g17
VNP
p523
sbatp524
Rp525
(dp526
g17
VVP
p527
sbatp528
Rp529
(dp530
g17
g241
sbatp531
Rp532
(dp533
g17
VSBAR
p534
sbag5
(g6
g7
(lp535
V,
p536
atp537
Rp538
(dp539
g17
g536
sbag5
(g6
g7
(lp540
g5
(g6
g7
(lp541
g5
(g6
g7
(lp542
Vthen
p543
atp544
Rp545
(dp546
g17
VRB
p547
sbag5
(g6
g7
(lp548
Vnone
p549
atp550
Rp551
(dp552
g17
VNN
p553
sbatp554
Rp555
(dp556
g17
VNP
p557
sbag5
(g6
g7
(lp558
g5
(g6
g7
(lp559
Vof
p560
atp561
Rp562
(dp563
g17
VIN
p564
sbag5
(g6
g7
(lp565
g5
(g6
g7
(lp566
Vthe
p567
atp568
Rp569
(dp570
g17
VDT
p571
sbag5
(g6
g7
(lp572
Vother
p573
atp574
Rp575
(dp576
g17
VJJ
p577
sbag5
(g6
g7
(lp578
Vissues
p579
atp580
Rp581
(dp582
g17
VNNS
p583
sbatp584
Rp585
(dp586
g17
VNP
p587
sbatp588
Rp589
(dp590
g17
VPP
p591
sbatp592
Rp593
(dp594
g17
VNP
p595
sbag5
(g6
g7
(lp596
g5
(g6
g7
(lp597
Vmatter
p598
atp599
Rp600
(dp601
g17
VVBP
p602
sbatp603
Rp604
(dp605
g17
VVP
p606
sbag5
(g6
g7
(lp607
g410
atp608
Rp609
(dp610
g17
g410
sbatp611
Rp612
(dp613
g17
g241
sbatp614
Rp615
(dp616
g17
VROOT
p617
sbasg421
(icmyPackage
CorE
p618
(dp619
g424
(lp620
(I0
I1
tp621
a(I0
I4
tp622
asg428
g529
sbsg434
(icmyPackage
CorE
p623
(dp624
g424
(lp625
(I0
I6
tp626
a(I0
I13
tp627
asg428
g5
(g6
g7
(lp628
g593
ag604
ag609
atp629
Rp630
(dp631
g17
g433
sbsbsg444
(icmyPackage
pattern
p632
(dp633
g447
I0
sg448
I0
sg449
(lp634
(lp635
(lp636
S'if'
p637
aS'once'
p638
aaa(lp639
S','
p640
aasg453
(lp641
I1
aI1
aI1
asg455
(lp642
S'If some light and mobile detection devices can be invented in the future, many new applications can be imagined, for example, people can get some services while thinking.'
p643
asg458
I15
sg459
(lp644
(lp645
a(lp646
S'&C@Complete@'
p647
aa(lp648
S'&R@Complete@'
p649
aasbsg465
(lp650
(icmyPackage
Sent
p651
(dp652
g469
I2
sg470
I7
sg471
S'If you have no users, then none of the other issues matter.'
p653
sg473
I0
sg474
I20
sg428
(lp654
g615
asbasba(icmyPackage
CELink
p655
(dp656
g3
(lp657
g615
ag5
(g6
g7
(lp658
g5
(g6
g7
(lp659
g5
(g6
g7
(lp660
VSo
p661
atp662
Rp663
(dp664
g17
VIN
p665
sbag5
(g6
g7
(lp666
g5
(g6
g7
(lp667
g5
(g6
g7
(lp668
Vthe
p669
atp670
Rp671
(dp672
g17
VDT
p673
sbag5
(g6
g7
(lp674
Vfirst
p675
atp676
Rp677
(dp678
g17
VJJ
p679
sbag5
(g6
g7
(lp680
Vrequirement
p681
atp682
Rp683
(dp684
g17
VNN
p685
sbatp686
Rp687
(dp688
g17
VNP
p689
sbag5
(g6
g7
(lp690
g5
(g6
g7
(lp691
Vfor
p692
atp693
Rp694
(dp695
g17
VIN
p696
sbag5
(g6
g7
(lp697
g5
(g6
g7
(lp698
Vany
p699
atp700
Rp701
(dp702
g17
VDT
p703
sbag5
(g6
g7
(lp704
Vsystem
p705
atp706
Rp707
(dp708
g17
VNN
p709
sbatp710
Rp711
(dp712
g17
VNP
p713
sbatp714
Rp715
(dp716
g17
VPP
p717
sbatp718
Rp719
(dp720
g17
VNP
p721
sbag5
(g6
g7
(lp722
g5
(g6
g7
(lp723
Vis
p724
atp725
Rp726
(dp727
g17
VVBZ
p728
sbag5
(g6
g7
(lp729
g5
(g6
g7
(lp730
Vthat
p731
atp732
Rp733
(dp734
g17
VIN
p735
sbag5
(g6
g7
(lp736
g5
(g6
g7
(lp737
g5
(g6
g7
(lp738
Vit
p739
atp740
Rp741
(dp742
g17
VPRP
p743
sbatp744
Rp745
(dp746
g17
VNP
p747
sbag5
(g6
g7
(lp748
g5
(g6
g7
(lp749
Vhas
p750
atp751
Rp752
(dp753
g17
VVBZ
p754
sbag5
(g6
g7
(lp755
g5
(g6
g7
(lp756
Vuseful
p757
atp758
Rp759
(dp760
g17
VJJ
p761
sbag5
(g6
g7
(lp762
Vapplications
p763
atp764
Rp765
(dp766
g17
VNNS
p767
sbatp768
Rp769
(dp770
g17
VNP
p771
sbatp772
Rp773
(dp774
g17
VVP
p775
sbatp776
Rp777
(dp778
g17
g241
sbatp779
Rp780
(dp781
g17
VSBAR
p782
sbatp783
Rp784
(dp785
g17
VVP
p786
sbag5
(g6
g7
(lp787
g410
atp788
Rp789
(dp790
g17
g410
sbatp791
Rp792
(dp793
g17
g241
sbatp794
Rp795
(dp796
g17
VROOT
p797
sbasg421
(icmyPackage
CorE
p798
(dp799
g424
(lp800
(I0
I0
tp801
a(I0
I12
tp802
asg428
g5
(g6
g7
(lp803
g532
ag538
ag593
ag604
atp804
Rp805
(dp806
g17
g433
sbsbsg434
(icmyPackage
CorE
p807
(dp808
g424
(lp809
(I1
I1
tp810
a(I1
I13
tp811
asg428
g5
(g6
g7
(lp812
g719
ag784
ag789
atp813
Rp814
(dp815
g17
g433
sbsbsg444
(icmyPackage
pattern
p816
(dp817
g447
I265
sg448
I1
sg449
(lp818
(lp819
S'so'
p820
aasg453
(lp821
I1
aI1
aI1
asg455
(lp822
S'It was not long before he saw me looking at him, and so he began to move.'
p823
asg458
I0
sg459
(lp824
(lp825
S'&C'
p826
aS'(,/;/./--)'
p827
aS'(&AND)'
p828
aa(lp829
S'(-far)'
p830
aS'(,)'
p831
aS'&R'
p832
aasbsg465
(lp833
g651
a(icmyPackage
Sent
p834
(dp835
g469
I2
sg470
I7
sg471
S'So the first requirement for any system is that it has useful applications.'
p836
sg473
I0
sg474
I21
sg428
(lp837
g795
asbasba(icmyPackage
CELink
p838
(dp839
g3
(lp840
g795
ag5
(g6
g7
(lp841
g5
(g6
g7
(lp842
g5
(g6
g7
(lp843
g5
(g6
g7
(lp844
VAs
p845
atp846
Rp847
(dp848
g17
VIN
p849
sbag5
(g6
g7
(lp850
g5
(g6
g7
(lp851
Va
p852
atp853
Rp854
(dp855
g17
VDT
p856
sbag5
(g6
g7
(lp857
Vlow-level
p858
atp859
Rp860
(dp861
g17
VJJ
p862
sbag5
(g6
g7
(lp863
Vsystems
p864
atp865
Rp866
(dp867
g17
VNNS
p868
sbag5
(g6
g7
(lp869
Vguy
p870
atp871
Rp872
(dp873
g17
VNN
p874
sbatp875
Rp876
(dp877
g17
VNP
p878
sbatp879
Rp880
(dp881
g17
VPP
p882
sbag5
(g6
g7
(lp883
g5
(g6
g7
(lp884
g80
atp885
Rp886
(dp887
g17
VPRP
p888
sbatp889
Rp890
(dp891
g17
VNP
p892
sbag5
(g6
g7
(lp893
g5
(g6
g7
(lp894
Vdo
p895
atp896
Rp897
(dp898
g17
VVBP
p899
sbag5
(g6
g7
(lp900
Vnot
p901
atp902
Rp903
(dp904
g17
VRB
p905
sbag5
(g6
g7
(lp906
g5
(g6
g7
(lp907
Vhave
p908
atp909
Rp910
(dp911
g17
VVB
p912
sbag5
(g6
g7
(lp913
g5
(g6
g7
(lp914
Vmuch
p915
atp916
Rp917
(dp918
g17
VJJ
p919
sbag5
(g6
g7
(lp920
g5
(g6
g7
(lp921
g5
(g6
g7
(lp922
Vto
p923
atp924
Rp925
(dp926
g17
VTO
p927
sbag5
(g6
g7
(lp928
g5
(g6
g7
(lp929
Vsay
p930
atp931
Rp932
(dp933
g17
VVB
p934
sbag5
(g6
g7
(lp935
g5
(g6
g7
(lp936
Vabout
p937
atp938
Rp939
(dp940
g17
VIN
p941
sbag5
(g6
g7
(lp942
g5
(g6
g7
(lp943
Vthese
p944
atp945
Rp946
(dp947
g17
VDT
p948
sbag5
(g6
g7
(lp949
Vhigh-level
p950
atp951
Rp952
(dp953
g17
VJJ
p954
sbag5
(g6
g7
(lp955
Vapps
p956
atp957
Rp958
(dp959
g17
VNNS
p960
sbatp961
Rp962
(dp963
g17
VNP
p964
sbatp965
Rp966
(dp967
g17
VPP
p968
sbatp969
Rp970
(dp971
g17
VVP
p972
sbatp973
Rp974
(dp975
g17
VVP
p976
sbatp977
Rp978
(dp979
g17
g241
sbatp980
Rp981
(dp982
g17
VADJP
p983
sbatp984
Rp985
(dp986
g17
VVP
p987
sbatp988
Rp989
(dp990
g17
VVP
p991
sbag5
(g6
g7
(lp992
g410
atp993
Rp994
(dp995
g17
g410
sbatp996
Rp997
(dp998
g17
g241
sbatp999
Rp1000
(dp1001
g17
VROOT
p1002
sbasg421
(icmyPackage
CorE
p1003
(dp1004
g424
(lp1005
(I1
I1
tp1006
a(I1
I16
tp1007
asg428
g5
(g6
g7
(lp1008
g876
ag890
ag989
ag994
atp1009
Rp1010
(dp1011
g17
g433
sbsbsg434
(icmyPackage
CorE
p1012
(dp1013
g424
(lp1014
(I0
I0
tp1015
a(I0
I13
tp1016
asg428
g795
sbsg444
(icmyPackage
pattern
p1017
(dp1018
g447
I26
sg448
I1
sg449
(lp1019
(lp1020
S'as'
p1021
aasg453
(lp1022
I3
aI1
aI1
asg455
(lp1023
S'You do not need to worry about the operation, as the software is very easy to use.'
p1024
asg458
I80
sg459
(lp1025
(lp1026
S'&R@Complete@'
p1027
aS'(,)'
p1028
aS'(-such/-same/-seem/-regard/-regards/-regarded/-view/-views/-viewed/-denote/-denoted/-denotes)'
p1029
aa(lp1030
S'(-if/-follow/-follows/-&adv)'
p1031
aS'&C@Complete@'
p1032
aasbsg465
(lp1033
g834
a(icmyPackage
Sent
p1034
(dp1035
g469
I2
sg470
I7
sg471
S'As a low-level systems guy I do not have much to say about these high-level apps.'
p1036
sg473
I0
sg474
I22
sg428
(lp1037
g1000
asbasba(icmyPackage
CELink
p1038
(dp1039
g3
(lp1040
g5
(g6
g7
(lp1041
g5
(g6
g7
(lp1042
g5
(g6
g7
(lp1043
g5
(g6
g7
(lp1044
g5
(g6
g7
(lp1045
VClass
p1046
atp1047
Rp1048
(dp1049
g17
VNNP
p1050
sbag5
(g6
g7
(lp1051
V2
p1052
atp1053
Rp1054
(dp1055
g17
VCD
p1056
sbatp1057
Rp1058
(dp1059
g17
VNP
p1060
sbag5
(g6
g7
(lp1061
g5
(g6
g7
(lp1062
Vis
p1063
atp1064
Rp1065
(dp1066
g17
VVBZ
p1067
sbag5
(g6
g7
(lp1068
g5
(g6
g7
(lp1069
V99
p1070
atp1071
Rp1072
(dp1073
g17
VCD
p1074
sbag5
(g6
g7
(lp1075
V%
p1076
atp1077
Rp1078
(dp1079
g17
VNN
p1080
sbatp1081
Rp1082
(dp1083
g17
VNP
p1084
sbatp1085
Rp1086
(dp1087
g17
VVP
p1088
sbatp1089
Rp1090
(dp1091
g17
g241
sbag5
(g6
g7
(lp1092
g536
atp1093
Rp1094
(dp1095
g17
g536
sbag5
(g6
g7
(lp1096
g5
(g6
g7
(lp1097
Vclass
p1098
atp1099
Rp1100
(dp1101
g17
VNN
p1102
sbag5
(g6
g7
(lp1103
V5
p1104
atp1105
Rp1106
(dp1107
g17
VCD
p1108
sbatp1109
Rp1110
(dp1111
g17
VNP
p1112
sbag5
(g6
g7
(lp1113
g5
(g6
g7
(lp1114
Vis
p1115
atp1116
Rp1117
(dp1118
g17
VVBZ
p1119
sbag5
(g6
g7
(lp1120
g5
(g6
g7
(lp1121
g5
(g6
g7
(lp1122
V99.999
p1123
atp1124
Rp1125
(dp1126
g17
VCD
p1127
sbag5
(g6
g7
(lp1128
g1076
atp1129
Rp1130
(dp1131
g17
VNN
p1132
sbatp1133
Rp1134
(dp1135
g17
VNP
p1136
sbag5
(g6
g7
(lp1137
Vand
p1138
atp1139
Rp1140
(dp1141
g17
VCC
p1142
sbag5
(g6
g7
(lp1143
g5
(g6
g7
(lp1144
Vso
p1145
atp1146
Rp1147
(dp1148
g17
VRB
p1149
sbag5
(g6
g7
(lp1150
Von
p1151
atp1152
Rp1153
(dp1154
g17
VRB
p1155
sbatp1156
Rp1157
(dp1158
g17
VADVP
p1159
sbatp1160
Rp1161
(dp1162
g17
VADVP
p1163
sbatp1164
Rp1165
(dp1166
g17
VVP
p1167
sbag5
(g6
g7
(lp1168
g410
atp1169
Rp1170
(dp1171
g17
g410
sbatp1172
Rp1173
(dp1174
g17
g241
sbatp1175
Rp1176
(dp1177
g17
VROOT
p1178
sbag5
(g6
g7
(lp1179
g5
(g6
g7
(lp1180
g5
(g6
g7
(lp1181
g5
(g6
g7
(lp1182
g5
(g6
g7
(lp1183
VSomething
p1184
atp1185
Rp1186
(dp1187
g17
VNN
p1188
sbag5
(g6
g7
(lp1189
Vparadoxical
p1190
atp1191
Rp1192
(dp1193
g17
VNN
p1194
sbatp1195
Rp1196
(dp1197
g17
VNP
p1198
sbag5
(g6
g7
(lp1199
g5
(g6
g7
(lp1200
Vhappened
p1201
atp1202
Rp1203
(dp1204
g17
VVBD
p1205
sbag5
(g6
g7
(lp1206
g5
(g6
g7
(lp1207
Vin
p1208
atp1209
Rp1210
(dp1211
g17
VIN
p1212
sbag5
(g6
g7
(lp1213
g5
(g6
g7
(lp1214
Vthe
p1215
atp1216
Rp1217
(dp1218
g17
VDT
p1219
sbag5
(g6
g7
(lp1220
Vlast
p1221
atp1222
Rp1223
(dp1224
g17
VJJ
p1225
sbag5
(g6
g7
(lp1226
Vfew
p1227
atp1228
Rp1229
(dp1230
g17
VJJ
p1231
sbag5
(g6
g7
(lp1232
Vyears
p1233
atp1234
Rp1235
(dp1236
g17
VNNS
p1237
sbatp1238
Rp1239
(dp1240
g17
VNP
p1241
sbatp1242
Rp1243
(dp1244
g17
VPP
p1245
sbatp1246
Rp1247
(dp1248
g17
VVP
p1249
sbatp1250
Rp1251
(dp1252
g17
g241
sbag5
(g6
g7
(lp1253
V--
p1254
atp1255
Rp1256
(dp1257
g17
g290
sbag5
(g6
g7
(lp1258
g5
(g6
g7
(lp1259
g5
(g6
g7
(lp1260
Vavailability
p1261
atp1262
Rp1263
(dp1264
g17
VNN
p1265
sbag5
(g6
g7
(lp1266
Vand
p1267
atp1268
Rp1269
(dp1270
g17
VCC
p1271
sbag5
(g6
g7
(lp1272
Vavailability
p1273
atp1274
Rp1275
(dp1276
g17
VNN
p1277
sbag5
(g6
g7
(lp1278
Vexpectations
p1279
atp1280
Rp1281
(dp1282
g17
VNNS
p1283
sbatp1284
Rp1285
(dp1286
g17
VNP
p1287
sbag5
(g6
g7
(lp1288
g5
(g6
g7
(lp1289
Vhave
p1290
atp1291
Rp1292
(dp1293
g17
VVBP
p1294
sbag5
(g6
g7
(lp1295
g5
(g6
g7
(lp1296
Vdeclined
p1297
atp1298
Rp1299
(dp1300
g17
VVBN
p1301
sbatp1302
Rp1303
(dp1304
g17
VVP
p1305
sbatp1306
Rp1307
(dp1308
g17
VVP
p1309
sbatp1310
Rp1311
(dp1312
g17
g241
sbag5
(g6
g7
(lp1313
g410
atp1314
Rp1315
(dp1316
g17
g410
sbatp1317
Rp1318
(dp1319
g17
g241
sbatp1320
Rp1321
(dp1322
g17
VROOT
p1323
sbasg421
(icmyPackage
CorE
p1324
(dp1325
g424
(lp1326
(I0
I0
tp1327
a(I0
I10
tp1328
asg428
g5
(g6
g7
(lp1329
g1090
ag1094
ag1110
ag1117
ag1134
atp1330
Rp1331
(dp1332
g17
g433
sbsbsg434
(icmyPackage
CorE
p1333
(dp1334
g424
(lp1335
(I0
I13
tp1336
a(I1
I13
tp1337
asg428
g5
(g6
g7
(lp1338
g1153
ag1170
ag1251
ag1256
ag1285
ag1292
atp1339
Rp1340
(dp1341
g17
g433
sbsbsg444
g816
sg465
(lp1342
(icmyPackage
Sent
p1343
(dp1344
g469
I3
sg470
I8
sg471
S'Class 2 is 99%, class 5 is 99.999% and so on.'
p1345
sg473
I0
sg474
I27
sg428
(lp1346
g1176
asba(icmyPackage
Sent
p1347
(dp1348
g469
I3
sg470
I9
sg471
S'Something paradoxical happened in the last few years -- availability and availability expectations have declined.'
p1349
sg473
I0
sg474
I28
sg428
(lp1350
g1321
asbasba(icmyPackage
CELink
p1351
(dp1352
g3
(lp1353
g5
(g6
g7
(lp1354
g5
(g6
g7
(lp1355
g5
(g6
g7
(lp1356
g5
(g6
g7
(lp1357
VSystems
p1358
atp1359
Rp1360
(dp1361
g17
VNNP
p1362
sbatp1363
Rp1364
(dp1365
g17
VNP
p1366
sbag5
(g6
g7
(lp1367
g5
(g6
g7
(lp1368
Vfail
p1369
atp1370
Rp1371
(dp1372
g17
VVBP
p1373
sbag5
(g6
g7
(lp1374
g5
(g6
g7
(lp1375
Vfor
p1376
atp1377
Rp1378
(dp1379
g17
VIN
p1380
sbag5
(g6
g7
(lp1381
g5
(g6
g7
(lp1382
Vprosaic
p1383
atp1384
Rp1385
(dp1386
g17
VJJ
p1387
sbag5
(g6
g7
(lp1388
Vreasons
p1389
atp1390
Rp1391
(dp1392
g17
VNNS
p1393
sbatp1394
Rp1395
(dp1396
g17
VNP
p1397
sbatp1398
Rp1399
(dp1400
g17
VPP
p1401
sbatp1402
Rp1403
(dp1404
g17
VVP
p1405
sbag5
(g6
g7
(lp1406
g290
atp1407
Rp1408
(dp1409
g17
g290
sbatp1410
Rp1411
(dp1412
g17
g241
sbatp1413
Rp1414
(dp1415
g17
VROOT
p1416
sbag5
(g6
g7
(lp1417
g5
(g6
g7
(lp1418
g5
(g6
g7
(lp1419
g5
(g6
g7
(lp1420
g5
(g6
g7
(lp1421
g5
(g6
g7
(lp1422
Vhardware
p1423
atp1424
Rp1425
(dp1426
g17
VNN
p1427
sbatp1428
Rp1429
(dp1430
g17
VNP
p1431
sbag5
(g6
g7
(lp1432
g536
atp1433
Rp1434
(dp1435
g17
g536
sbag5
(g6
g7
(lp1436
g5
(g6
g7
(lp1437
g5
(g6
g7
(lp1438
Vsoftware
p1439
atp1440
Rp1441
(dp1442
g17
VNN
p1443
sbatp1444
Rp1445
(dp1446
g17
VNP
p1447
sbag5
(g6
g7
(lp1448
g536
atp1449
Rp1450
(dp1451
g17
g536
sbag5
(g6
g7
(lp1452
g5
(g6
g7
(lp1453
Voperations
p1454
atp1455
Rp1456
(dp1457
g17
VNNS
p1458
sbatp1459
Rp1460
(dp1461
g17
VNP
p1462
sbatp1463
Rp1464
(dp1465
g17
VNP
p1466
sbatp1467
Rp1468
(dp1469
g17
VNP
p1470
sbag5
(g6
g7
(lp1471
g5
(g6
g7
(lp1472
Vmistakes
p1473
atp1474
Rp1475
(dp1476
g17
VVBZ
p1477
sbatp1478
Rp1479
(dp1480
g17
VVP
p1481
sbatp1482
Rp1483
(dp1484
g17
g241
sbag5
(g6
g7
(lp1485
g536
atp1486
Rp1487
(dp1488
g17
g536
sbag5
(g6
g7
(lp1489
Vand
p1490
atp1491
Rp1492
(dp1493
g17
VCC
p1494
sbag5
(g6
g7
(lp1495
g5
(g6
g7
(lp1496
g5
(g6
g7
(lp1497
g5
(g6
g7
(lp1498
Venvironmental
p1499
atp1500
Rp1501
(dp1502
g17
VJJ
p1503
sbatp1504
Rp1505
(dp1506
g17
VNP
p1507
sbag5
(g6
g7
(lp1508
g5
(g6
g7
(lp1509
g5
(g6
g7
(lp1510
Vproblems
p1511
atp1512
Rp1513
(dp1514
g17
VNNS
p1515
sbatp1516
Rp1517
(dp1518
g17
VNP
p1519
sbag5
(g6
g7
(lp1520
V-LRB-
p1521
atp1522
Rp1523
(dp1524
g17
V-LRB-
p1525
sbag5
(g6
g7
(lp1526
g5
(g6
g7
(lp1527
Vpower
p1528
atp1529
Rp1530
(dp1531
g17
VNN
p1532
sbag5
(g6
g7
(lp1533
Vfailures
p1534
atp1535
Rp1536
(dp1537
g17
VNNS
p1538
sbatp1539
Rp1540
(dp1541
g17
VNP
p1542
sbag5
(g6
g7
(lp1543
g536
atp1544
Rp1545
(dp1546
g17
g536
sbag5
(g6
g7
(lp1547
g5
(g6
g7
(lp1548
Vstorms
p1549
atp1550
Rp1551
(dp1552
g17
VNNS
p1553
sbatp1554
Rp1555
(dp1556
g17
VNP
p1557
sbag5
(g6
g7
(lp1558
g536
atp1559
Rp1560
(dp1561
g17
g536
sbatp1562
Rp1563
(dp1564
g17
VNP
p1565
sbatp1566
Rp1567
(dp1568
g17
VNP
p1569
sbag5
(g6
g7
(lp1570
g410
atp1571
Rp1572
(dp1573
g17
g410
sbatp1574
Rp1575
(dp1576
g17
VFRAG
p1577
sbag5
(g6
g7
(lp1578
g410
atp1579
Rp1580
(dp1581
g17
g410
sbatp1582
Rp1583
(dp1584
g17
g241
sbatp1585
Rp1586
(dp1587
g17
VROOT
p1588
sbasg421
(icmyPackage
CorE
p1589
(dp1590
g424
(lp1591
(I0
I0
tp1592
a(I0
I1
tp1593
asg428
g5
(g6
g7
(lp1594
g1364
ag1371
atp1595
Rp1596
(dp1597
g17
g433
sbsbsg434
(icmyPackage
CorE
p1598
(dp1599
g424
(lp1600
(I0
I5
tp1601
a(I1
I7
tp1602
asg428
g5
(g6
g7
(lp1603
g1408
ag1483
ag1487
ag1492
atp1604
Rp1605
(dp1606
g17
g433
sbsbsg444
(icmyPackage
pattern
p1607
(dp1608
g447
I7
sg448
I1
sg449
(lp1609
(lp1610
S'for'
p1611
aa(lp1612
(lp1613
S'reason'
p1614
aS'reasons'
p1615
aaasg453
(lp1616
I1
aI1
aI2
asg455
(lp1617
S"Its sweet notes have restored many to health, and for this reason it is often called 'the sick one's comforter'."
p1618
asg458
I17
sg459
(lp1619
(lp1620
S'&C'
p1621
aS'(,/;/./--)'
p1622
aS'(&AND)'
p1623
aa(lp1624
S'(&this)'
p1625
aa(lp1626
S'(,/that)'
p1627
aS'&R'
p1628
aasbsg465
(lp1629
(icmyPackage
Sent
p1630
(dp1631
g469
I3
sg470
I10
sg471
S'Systems fail for prosaic reasons:'
p1632
sg473
I0
sg474
I34
sg428
(lp1633
g1414
asba(icmyPackage
Sent
p1634
(dp1635
g469
I3
sg470
I10
sg471
S'hardware, software, operations mistakes, and environmental problems (power failures, storms,..'
p1636
sg473
I0
sg474
I35
sg428
(lp1637
g1586
asbasba(icmyPackage
CELink
p1638
(dp1639
g3
(lp1640
g5
(g6
g7
(lp1641
g5
(g6
g7
(lp1642
g5
(g6
g7
(lp1643
g5
(g6
g7
(lp1644
VThe
p1645
atp1646
Rp1647
(dp1648
g17
VDT
p1649
sbag5
(g6
g7
(lp1650
Vfirst
p1651
atp1652
Rp1653
(dp1654
g17
VJJ
p1655
sbag5
(g6
g7
(lp1656
Vstep
p1657
atp1658
Rp1659
(dp1660
g17
VNN
p1661
sbatp1662
Rp1663
(dp1664
g17
VNP
p1665
sbag5
(g6
g7
(lp1666
g5
(g6
g7
(lp1667
Vis
p1668
atp1669
Rp1670
(dp1671
g17
VVBZ
p1672
sbag5
(g6
g7
(lp1673
g5
(g6
g7
(lp1674
g5
(g6
g7
(lp1675
Vto
p1676
atp1677
Rp1678
(dp1679
g17
VTO
p1680
sbag5
(g6
g7
(lp1681
g5
(g6
g7
(lp1682
Vmake
p1683
atp1684
Rp1685
(dp1686
g17
VVB
p1687
sbag5
(g6
g7
(lp1688
g5
(g6
g7
(lp1689
g5
(g6
g7
(lp1690
Vthe
p1691
atp1692
Rp1693
(dp1694
g17
VDT
p1695
sbag5
(g6
g7
(lp1696
Vstorage
p1697
atp1698
Rp1699
(dp1700
g17
VNN
p1701
sbatp1702
Rp1703
(dp1704
g17
VNP
p1705
sbag5
(g6
g7
(lp1706
g5
(g6
g7
(lp1707
Vreliable
p1708
atp1709
Rp1710
(dp1711
g17
VJJ
p1712
sbag5
(g6
g7
(lp1713
g5
(g6
g7
(lp1714
Vby
p1715
atp1716
Rp1717
(dp1718
g17
VIN
p1719
sbag5
(g6
g7
(lp1720
g5
(g6
g7
(lp1721
g5
(g6
g7
(lp1722
Vusing
p1723
atp1724
Rp1725
(dp1726
g17
VVBG
p1727
sbag5
(g6
g7
(lp1728
g5
(g6
g7
(lp1729
Vmirroring
p1730
atp1731
Rp1732
(dp1733
g17
VNN
p1734
sbag5
(g6
g7
(lp1735
Vor
p1736
atp1737
Rp1738
(dp1739
g17
VCC
p1740
sbag5
(g6
g7
(lp1741
VRAID5
p1742
atp1743
Rp1744
(dp1745
g17
VNN
p1746
sbatp1747
Rp1748
(dp1749
g17
VNP
p1750
sbag5
(g6
g7
(lp1751
g5
(g6
g7
(lp1752
g5
(g6
g7
(lp1753
Vto
p1754
atp1755
Rp1756
(dp1757
g17
VTO
p1758
sbag5
(g6
g7
(lp1759
g5
(g6
g7
(lp1760
Vstore
p1761
atp1762
Rp1763
(dp1764
g17
VVB
p1765
sbag5
(g6
g7
(lp1766
g5
(g6
g7
(lp1767
Vthe
p1768
atp1769
Rp1770
(dp1771
g17
VDT
p1772
sbag5
(g6
g7
(lp1773
Vdata
p1774
atp1775
Rp1776
(dp1777
g17
VNNS
p1778
sbatp1779
Rp1780
(dp1781
g17
VNP
p1782
sbag5
(g6
g7
(lp1783
g5
(g6
g7
(lp1784
Von
p1785
atp1786
Rp1787
(dp1788
g17
VIN
p1789
sbag5
(g6
g7
(lp1790
g5
(g6
g7
(lp1791
g5
(g6
g7
(lp1792
Vat
p1793
atp1794
Rp1795
(dp1796
g17
VIN
p1797
sbag5
(g6
g7
(lp1798
Vleast
p1799
atp1800
Rp1801
(dp1802
g17
VJJS
p1803
sbag5
(g6
g7
(lp1804
Vtwo
p1805
atp1806
Rp1807
(dp1808
g17
VCD
p1809
sbatp1810
Rp1811
(dp1812
g17
VQP
p1813
sbag5
(g6
g7
(lp1814
Vdisks
p1815
atp1816
Rp1817
(dp1818
g17
VNNS
p1819
sbatp1820
Rp1821
(dp1822
g17
VNP
p1823
sbatp1824
Rp1825
(dp1826
g17
VPP
p1827
sbatp1828
Rp1829
(dp1830
g17
VVP
p1831
sbatp1832
Rp1833
(dp1834
g17
VVP
p1835
sbatp1836
Rp1837
(dp1838
g17
g241
sbatp1839
Rp1840
(dp1841
g17
VVP
p1842
sbatp1843
Rp1844
(dp1845
g17
g241
sbatp1846
Rp1847
(dp1848
g17
VPP
p1849
sbatp1850
Rp1851
(dp1852
g17
VADJP
p1853
sbatp1854
Rp1855
(dp1856
g17
g241
sbatp1857
Rp1858
(dp1859
g17
VVP
p1860
sbatp1861
Rp1862
(dp1863
g17
VVP
p1864
sbatp1865
Rp1866
(dp1867
g17
g241
sbatp1868
Rp1869
(dp1870
g17
VVP
p1871
sbag5
(g6
g7
(lp1872
g410
atp1873
Rp1874
(dp1875
g17
g410
sbatp1876
Rp1877
(dp1878
g17
g241
sbatp1879
Rp1880
(dp1881
g17
VROOT
p1882
sbasg421
(icmyPackage
CorE
p1883
(dp1884
g424
(lp1885
(I0
I10
tp1886
a(I0
I22
tp1887
asg428
g1844
sbsg434
(icmyPackage
CorE
p1888
(dp1889
g424
(lp1890
(I0
I0
tp1891
a(I0
I8
tp1892
asg428
g5
(g6
g7
(lp1893
g1663
ag1670
ag1678
ag1685
ag1703
ag1710
atp1894
Rp1895
(dp1896
g17
g433
sbsbsg444
(icmyPackage
pattern
p1897
(dp1898
g447
I0
sg448
I0
sg449
(lp1899
(lp1900
(lp1901
S'by'
p1902
aS'through'
p1903
aaasg453
(lp1904
I2
aI1
aI1
asg455
(lp1905
S'The similar relation can be detected by analyzing the contents of nodes based on such approaches as the Latent Semantic Analysis (LSA) and the Vector Space Model (VSM)'
p1906
asg458
I68
sg459
(lp1907
(lp1908
S'&R@Complete@'
p1909
aa(lp1910
S'&V-ing@C@'
p1911
aasbsg465
(lp1912
(icmyPackage
Sent
p1913
(dp1914
g469
I3
sg470
I11
sg471
S'The first step is to make the storage reliable by using mirroring or RAID5 to store the data on at least two disks.'
p1915
sg473
I0
sg474
I39
sg428
(lp1916
g1880
asbasba(icmyPackage
CELink
p1917
(dp1918
g3
(lp1919
g5
(g6
g7
(lp1920
g5
(g6
g7
(lp1921
g5
(g6
g7
(lp1922
g5
(g6
g7
(lp1923
VThe
p1924
atp1925
Rp1926
(dp1927
g17
VDT
p1928
sbag5
(g6
g7
(lp1929
Vnext
p1930
atp1931
Rp1932
(dp1933
g17
VJJ
p1934
sbag5
(g6
g7
(lp1935
Vstep
p1936
atp1937
Rp1938
(dp1939
g17
VNN
p1940
sbatp1941
Rp1942
(dp1943
g17
VNP
p1944
sbag5
(g6
g7
(lp1945
g5
(g6
g7
(lp1946
Vis
p1947
atp1948
Rp1949
(dp1950
g17
VVBZ
p1951
sbag5
(g6
g7
(lp1952
g5
(g6
g7
(lp1953
g5
(g6
g7
(lp1954
Vto
p1955
atp1956
Rp1957
(dp1958
g17
VTO
p1959
sbag5
(g6
g7
(lp1960
g5
(g6
g7
(lp1961
Vhave
p1962
atp1963
Rp1964
(dp1965
g17
VVB
p1966
sbag5
(g6
g7
(lp1967
g5
(g6
g7
(lp1968
g5
(g6
g7
(lp1969
Vredundant
p1970
atp1971
Rp1972
(dp1973
g17
VJJ
p1974
sbag5
(g6
g7
(lp1975
Vservers
p1976
atp1977
Rp1978
(dp1979
g17
VNNS
p1980
sbatp1981
Rp1982
(dp1983
g17
VNP
p1984
sbag5
(g6
g7
(lp1985
Vand
p1986
atp1987
Rp1988
(dp1989
g17
VCC
p1990
sbag5
(g6
g7
(lp1991
g5
(g6
g7
(lp1992
g5
(g6
g7
(lp1993
g852
atp1994
Rp1995
(dp1996
g17
VDT
p1997
sbag5
(g6
g7
(lp1998
Vload
p1999
atp2000
Rp2001
(dp2002
g17
VNN
p2003
sbag5
(g6
g7
(lp2004
Vbalancing
p2005
atp2006
Rp2007
(dp2008
g17
VVBG
p2009
sbag5
(g6
g7
(lp2010
Vsystem
p2011
atp2012
Rp2013
(dp2014
g17
VNN
p2015
sbatp2016
Rp2017
(dp2018
g17
VNP
p2019
sbag5
(g6
g7
(lp2020
g5
(g6
g7
(lp2021
g5
(g6
g7
(lp2022
Vthat
p2023
atp2024
Rp2025
(dp2026
g17
VWDT
p2027
sbatp2028
Rp2029
(dp2030
g17
VWHNP
p2031
sbag5
(g6
g7
(lp2032
g5
(g6
g7
(lp2033
g5
(g6
g7
(lp2034
Vcan
p2035
atp2036
Rp2037
(dp2038
g17
VMD
p2039
sbag5
(g6
g7
(lp2040
g5
(g6
g7
(lp2041
Vredistribute
p2042
atp2043
Rp2044
(dp2045
g17
VVB
p2046
sbag5
(g6
g7
(lp2047
g5
(g6
g7
(lp2048
Vthe
p2049
atp2050
Rp2051
(dp2052
g17
VDT
p2053
sbag5
(g6
g7
(lp2054
Vload
p2055
atp2056
Rp2057
(dp2058
g17
VNN
p2059
sbatp2060
Rp2061
(dp2062
g17
VNP
p2063
sbag5
(g6
g7
(lp2064
g5
(g6
g7
(lp2065
Vas
p2066
atp2067
Rp2068
(dp2069
g17
VIN
p2070
sbag5
(g6
g7
(lp2071
g5
(g6
g7
(lp2072
g5
(g6
g7
(lp2073
Vservers
p2074
atp2075
Rp2076
(dp2077
g17
VNNS
p2078
sbatp2079
Rp2080
(dp2081
g17
VNP
p2082
sbag5
(g6
g7
(lp2083
g5
(g6
g7
(lp2084
Vfail
p2085
atp2086
Rp2087
(dp2088
g17
VVBP
p2089
sbatp2090
Rp2091
(dp2092
g17
VVP
p2093
sbatp2094
Rp2095
(dp2096
g17
g241
sbatp2097
Rp2098
(dp2099
g17
VSBAR
p2100
sbatp2101
Rp2102
(dp2103
g17
VVP
p2104
sbatp2105
Rp2106
(dp2107
g17
VVP
p2108
sbatp2109
Rp2110
(dp2111
g17
g241
sbatp2112
Rp2113
(dp2114
g17
VSBAR
p2115
sbatp2116
Rp2117
(dp2118
g17
VNP
p2119
sbatp2120
Rp2121
(dp2122
g17
VNP
p2123
sbatp2124
Rp2125
(dp2126
g17
VVP
p2127
sbatp2128
Rp2129
(dp2130
g17
VVP
p2131
sbatp2132
Rp2133
(dp2134
g17
g241
sbatp2135
Rp2136
(dp2137
g17
VVP
p2138
sbag5
(g6
g7
(lp2139
g410
atp2140
Rp2141
(dp2142
g17
g410
sbatp2143
Rp2144
(dp2145
g17
g241
sbatp2146
Rp2147
(dp2148
g17
VROOT
p2149
sbasg421
(icmyPackage
CorE
p2150
(dp2151
g424
(lp2152
(I0
I19
tp2153
a(I0
I21
tp2154
asg428
g5
(g6
g7
(lp2155
g2095
ag2141
atp2156
Rp2157
(dp2158
g17
g433
sbsbsg434
(icmyPackage
CorE
p2159
(dp2160
g424
(lp2161
(I0
I0
tp2162
a(I0
I17
tp2163
asg428
g5
(g6
g7
(lp2164
g1942
ag1949
ag1957
ag1964
ag1982
ag1988
ag2017
ag2029
ag2037
ag2044
ag2061
atp2165
Rp2166
(dp2167
g17
g433
sbsbsg444
g1017
sg465
(lp2168
(icmyPackage
Sent
p2169
(dp2170
g469
I3
sg470
I11
sg471
S'The next step is to have redundant servers and a load balancing system that can redistribute the load as servers fail.'
p2171
sg473
I0
sg474
I41
sg428
(lp2172
g2147
asbasba(icmyPackage
CELink
p2173
(dp2174
g3
(lp2175
g5
(g6
g7
(lp2176
g5
(g6
g7
(lp2177
g5
(g6
g7
(lp2178
g5
(g6
g7
(lp2179
g5
(g6
g7
(lp2180
VPersistent
p2181
atp2182
Rp2183
(dp2184
g17
VJJ
p2185
sbag5
(g6
g7
(lp2186
Vdata
p2187
atp2188
Rp2189
(dp2190
g17
VNNS
p2191
sbatp2192
Rp2193
(dp2194
g17
VNP
p2195
sbag5
(g6
g7
(lp2196
g5
(g6
g7
(lp2197
Vis
p2198
atp2199
Rp2200
(dp2201
g17
VVBZ
p2202
sbag5
(g6
g7
(lp2203
g5
(g6
g7
(lp2204
Vstored
p2205
atp2206
Rp2207
(dp2208
g17
VVBN
p2209
sbag5
(g6
g7
(lp2210
g5
(g6
g7
(lp2211
Vin
p2212
atp2213
Rp2214
(dp2215
g17
VIN
p2216
sbag5
(g6
g7
(lp2217
g5
(g6
g7
(lp2218
g5
(g6
g7
(lp2219
g852
atp2220
Rp2221
(dp2222
g17
VDT
p2223
sbag5
(g6
g7
(lp2224
Vdatabase
p2225
atp2226
Rp2227
(dp2228
g17
VNN
p2229
sbatp2230
Rp2231
(dp2232
g17
VNP
p2233
sbag5
(g6
g7
(lp2234
g5
(g6
g7
(lp2235
Vpartitioned
p2236
atp2237
Rp2238
(dp2239
g17
VVBN
p2240
sbag5
(g6
g7
(lp2241
g5
(g6
g7
(lp2242
Vamong
p2243
atp2244
Rp2245
(dp2246
g17
VIN
p2247
sbag5
(g6
g7
(lp2248
g5
(g6
g7
(lp2249
Vseveral
p2250
atp2251
Rp2252
(dp2253
g17
VJJ
p2254
sbag5
(g6
g7
(lp2255
Vservers
p2256
atp2257
Rp2258
(dp2259
g17
VNNS
p2260
sbatp2261
Rp2262
(dp2263
g17
VNP
p2264
sbatp2265
Rp2266
(dp2267
g17
VPP
p2268
sbatp2269
Rp2270
(dp2271
g17
VVP
p2272
sbatp2273
Rp2274
(dp2275
g17
VNP
p2276
sbatp2277
Rp2278
(dp2279
g17
VPP
p2280
sbatp2281
Rp2282
(dp2283
g17
VVP
p2284
sbatp2285
Rp2286
(dp2287
g17
VVP
p2288
sbatp2289
Rp2290
(dp2291
g17
g241
sbag5
(g6
g7
(lp2292
g536
atp2293
Rp2294
(dp2295
g17
g536
sbag5
(g6
g7
(lp2296
Vand
p2297
atp2298
Rp2299
(dp2300
g17
VCC
p2301
sbag5
(g6
g7
(lp2302
g5
(g6
g7
(lp2303
g5
(g6
g7
(lp2304
Vthese
p2305
atp2306
Rp2307
(dp2308
g17
VDT
p2309
sbag5
(g6
g7
(lp2310
Vservers
p2311
atp2312
Rp2313
(dp2314
g17
VNNS
p2315
sbatp2316
Rp2317
(dp2318
g17
VNP
p2319
sbag5
(g6
g7
(lp2320
g5
(g6
g7
(lp2321
Vare
p2322
atp2323
Rp2324
(dp2325
g17
VVBP
p2326
sbag5
(g6
g7
(lp2327
g5
(g6
g7
(lp2328
Vpacked
p2329
atp2330
Rp2331
(dp2332
g17
VVBN
p2333
sbag5
(g6
g7
(lp2334
g536
atp2335
Rp2336
(dp2337
g17
g536
sbag5
(g6
g7
(lp2338
g5
(g6
g7
(lp2339
Vso
p2340
atp2341
Rp2342
(dp2343
g17
VRB
p2344
sbag5
(g6
g7
(lp2345
Vthat
p2346
atp2347
Rp2348
(dp2349
g17
VIN
p2350
sbag5
(g6
g7
(lp2351
g5
(g6
g7
(lp2352
g5
(g6
g7
(lp2353
Vif
p2354
atp2355
Rp2356
(dp2357
g17
VIN
p2358
sbag5
(g6
g7
(lp2359
g5
(g6
g7
(lp2360
g5
(g6
g7
(lp2361
Vone
p2362
atp2363
Rp2364
(dp2365
g17
VCD
p2366
sbag5
(g6
g7
(lp2367
Vserver
p2368
atp2369
Rp2370
(dp2371
g17
VNN
p2372
sbatp2373
Rp2374
(dp2375
g17
VNP
p2376
sbag5
(g6
g7
(lp2377
g5
(g6
g7
(lp2378
Vfails
p2379
atp2380
Rp2381
(dp2382
g17
VVBZ
p2383
sbatp2384
Rp2385
(dp2386
g17
VVP
p2387
sbatp2388
Rp2389
(dp2390
g17
g241
sbatp2391
Rp2392
(dp2393
g17
VSBAR
p2394
sbag5
(g6
g7
(lp2395
g536
atp2396
Rp2397
(dp2398
g17
g536
sbag5
(g6
g7
(lp2399
g5
(g6
g7
(lp2400
g5
(g6
g7
(lp2401
Vanother
p2402
atp2403
Rp2404
(dp2405
g17
VDT
p2406
sbag5
(g6
g7
(lp2407
Vmember
p2408
atp2409
Rp2410
(dp2411
g17
VNN
p2412
sbatp2413
Rp2414
(dp2415
g17
VNP
p2416
sbag5
(g6
g7
(lp2417
g5
(g6
g7
(lp2418
Vof
p2419
atp2420
Rp2421
(dp2422
g17
VIN
p2423
sbag5
(g6
g7
(lp2424
g5
(g6
g7
(lp2425
Vthe
p2426
atp2427
Rp2428
(dp2429
g17
VDT
p2430
sbag5
(g6
g7
(lp2431
Vpack
p2432
atp2433
Rp2434
(dp2435
g17
VNN
p2436
sbatp2437
Rp2438
(dp2439
g17
VNP
p2440
sbatp2441
Rp2442
(dp2443
g17
VPP
p2444
sbatp2445
Rp2446
(dp2447
g17
VNP
p2448
sbag5
(g6
g7
(lp2449
g5
(g6
g7
(lp2450
Vcan
p2451
atp2452
Rp2453
(dp2454
g17
VMD
p2455
sbag5
(g6
g7
(lp2456
g5
(g6
g7
(lp2457
Vprovide
p2458
atp2459
Rp2460
(dp2461
g17
VVB
p2462
sbag5
(g6
g7
(lp2463
g5
(g6
g7
(lp2464
Vaccess
p2465
atp2466
Rp2467
(dp2468
g17
VNN
p2469
sbatp2470
Rp2471
(dp2472
g17
VNP
p2473
sbag5
(g6
g7
(lp2474
g5
(g6
g7
(lp2475
Vto
p2476
atp2477
Rp2478
(dp2479
g17
VTO
p2480
sbag5
(g6
g7
(lp2481
g5
(g6
g7
(lp2482
g5
(g6
g7
(lp2483
Vthe
p2484
atp2485
Rp2486
(dp2487
g17
VDT
p2488
sbag5
(g6
g7
(lp2489
Vfailed
p2490
atp2491
Rp2492
(dp2493
g17
VVBN
p2494
sbag5
(g6
g7
(lp2495
Vserver
p2496
atp2497
Rp2498
(dp2499
g17
VNN
p2500
sbag5
(g6
g7
(lp2501
V's
p2502
atp2503
Rp2504
(dp2505
g17
VPOS
p2506
sbatp2507
Rp2508
(dp2509
g17
VNP
p2510
sbag5
(g6
g7
(lp2511
Vdatabase
p2512
atp2513
Rp2514
(dp2515
g17
VNN
p2516
sbatp2517
Rp2518
(dp2519
g17
VNP
p2520
sbatp2521
Rp2522
(dp2523
g17
VPP
p2524
sbatp2525
Rp2526
(dp2527
g17
VVP
p2528
sbatp2529
Rp2530
(dp2531
g17
VVP
p2532
sbatp2533
Rp2534
(dp2535
g17
g241
sbatp2536
Rp2537
(dp2538
g17
VSBAR
p2539
sbatp2540
Rp2541
(dp2542
g17
VVP
p2543
sbatp2544
Rp2545
(dp2546
g17
VVP
p2547
sbatp2548
Rp2549
(dp2550
g17
g241
sbag5
(g6
g7
(lp2551
g410
atp2552
Rp2553
(dp2554
g17
g410
sbatp2555
Rp2556
(dp2557
g17
g241
sbatp2558
Rp2559
(dp2560
g17
VROOT
p2561
sbasg421
(icmyPackage
CorE
p2562
(dp2563
g424
(lp2564
(I0
I0
tp2565
a(I0
I17
tp2566
asg428
g5
(g6
g7
(lp2567
g2290
ag2294
ag2299
ag2317
ag2324
ag2331
ag2336
atp2568
Rp2569
(dp2570
g17
g433
sbsbsg434
(icmyPackage
CorE
p2571
(dp2572
g424
(lp2573
(I0
I20
tp2574
a(I0
I39
tp2575
asg428
g5
(g6
g7
(lp2576
g2534
ag2553
atp2577
Rp2578
(dp2579
g17
g433
sbsbsg444
(icmyPackage
pattern
p2580
(dp2581
g447
I45
sg448
I0
sg449
(lp2582
(lp2583
S'so'
p2584
aS'that'
p2585
aasg453
(lp2586
I3
aI1
aI1
asg455
(lp2587
S'The teacher then decided to ask him some very easy questions so that he could get a few right.'
p2588
asg458
I77
sg459
(lp2589
(lp2590
S'&C'
p2591
aa(lp2592
S'&R'
p2593
aasbsg465
(lp2594
(icmyPackage
Sent
p2595
(dp2596
g469
I3
sg470
I11
sg471
S"Persistent data is stored in a database partitioned among several servers, and these servers are packed, so that if one server fails, another member of the pack can provide access to the failed server's database."
p2597
sg473
I0
sg474
I42
sg428
(lp2598
g2559
asbasba(icmyPackage
CELink
p2599
(dp2600
g3
(lp2601
g2578
asg421
(icmyPackage
CorE
p2602
(dp2603
g424
(lp2604
(I0
I1
tp2605
a(I0
I3
tp2606
asg428
g2389
sbsg434
(icmyPackage
CorE
p2607
(dp2608
g424
(lp2609
(I0
I5
tp2610
a(I0
I19
tp2611
asg428
g5
(g6
g7
(lp2612
g2446
ag2530
ag2553
atp2613
Rp2614
(dp2615
g17
g433
sbsbsg444
g632
sg465
(lp2616
g2595
asba(icmyPackage
CELink
p2617
(dp2618
g3
(lp2619
g5
(g6
g7
(lp2620
g5
(g6
g7
(lp2621
g5
(g6
g7
(lp2622
g5
(g6
g7
(lp2623
g5
(g6
g7
(lp2624
VSites
p2625
atp2626
Rp2627
(dp2628
g17
VNNS
p2629
sbatp2630
Rp2631
(dp2632
g17
VNP
p2633
sbag5
(g6
g7
(lp2634
g5
(g6
g7
(lp2635
Vmust
p2636
atp2637
Rp2638
(dp2639
g17
VMD
p2640
sbag5
(g6
g7
(lp2641
g5
(g6
g7
(lp2642
Vbe
p2643
atp2644
Rp2645
(dp2646
g17
VVB
p2647
sbag5
(g6
g7
(lp2648
g5
(g6
g7
(lp2649
Vgeo-plexed
p2650
atp2651
Rp2652
(dp2653
g17
VJJ
p2654
sbag5
(g6
g7
(lp2655
g5
(g6
g7
(lp2656
g5
(g6
g7
(lp2657
Vto
p2658
atp2659
Rp2660
(dp2661
g17
VTO
p2662
sbag5
(g6
g7
(lp2663
g5
(g6
g7
(lp2664
Vachieve
p2665
atp2666
Rp2667
(dp2668
g17
VVB
p2669
sbag5
(g6
g7
(lp2670
g5
(g6
g7
(lp2671
g5
(g6
g7
(lp2672
g5
(g6
g7
(lp2673
Vmore
p2674
atp2675
Rp2676
(dp2677
g17
VJJR
p2678
sbag5
(g6
g7
(lp2679
Vthan
p2680
atp2681
Rp2682
(dp2683
g17
VIN
p2684
sbag5
(g6
g7
(lp2685
Vfour
p2686
atp2687
Rp2688
(dp2689
g17
VCD
p2690
sbatp2691
Rp2692
(dp2693
g17
VQP
p2694
sbag5
(g6
g7
(lp2695
V9s
p2696
atp2697
Rp2698
(dp2699
g17
VNNS
p2700
sbatp2701
Rp2702
(dp2703
g17
VNP
p2704
sbag5
(g6
g7
(lp2705
g5
(g6
g7
(lp2706
Vof
p2707
atp2708
Rp2709
(dp2710
g17
VIN
p2711
sbag5
(g6
g7
(lp2712
g5
(g6
g7
(lp2713
Vavailability
p2714
atp2715
Rp2716
(dp2717
g17
VNN
p2718
sbatp2719
Rp2720
(dp2721
g17
VNP
p2722
sbatp2723
Rp2724
(dp2725
g17
VPP
p2726
sbatp2727
Rp2728
(dp2729
g17
VNP
p2730
sbatp2731
Rp2732
(dp2733
g17
VVP
p2734
sbatp2735
Rp2736
(dp2737
g17
VVP
p2738
sbatp2739
Rp2740
(dp2741
g17
g241
sbatp2742
Rp2743
(dp2744
g17
VADJP
p2745
sbatp2746
Rp2747
(dp2748
g17
VVP
p2749
sbatp2750
Rp2751
(dp2752
g17
VVP
p2753
sbatp2754
Rp2755
(dp2756
g17
g241
sbag5
(g6
g7
(lp2757
V--
p2758
atp2759
Rp2760
(dp2761
g17
g290
sbag5
(g6
g7
(lp2762
g5
(g6
g7
(lp2763
g5
(g6
g7
(lp2764
g5
(g6
g7
(lp2765
Vthat
p2766
atp2767
Rp2768
(dp2769
g17
VDT
p2770
sbag5
(g6
g7
(lp2771
Vis
p2772
atp2773
Rp2774
(dp2775
g17
VVBZ
p2776
sbatp2777
Rp2778
(dp2779
g17
VINTJ
p2780
sbag5
(g6
g7
(lp2781
g5
(g6
g7
(lp2782
Vthe
p2783
atp2784
Rp2785
(dp2786
g17
VDT
p2787
sbag5
(g6
g7
(lp2788
Vdata
p2789
atp2790
Rp2791
(dp2792
g17
VNNS
p2793
sbatp2794
Rp2795
(dp2796
g17
VNP
p2797
sbag5
(g6
g7
(lp2798
g5
(g6
g7
(lp2799
Vis
p2800
atp2801
Rp2802
(dp2803
g17
VVBZ
p2804
sbag5
(g6
g7
(lp2805
g5
(g6
g7
(lp2806
Vstored
p2807
atp2808
Rp2809
(dp2810
g17
VVBN
p2811
sbag5
(g6
g7
(lp2812
g5
(g6
g7
(lp2813
Vin
p2814
atp2815
Rp2816
(dp2817
g17
VIN
p2818
sbag5
(g6
g7
(lp2819
g5
(g6
g7
(lp2820
Vtwo
p2821
atp2822
Rp2823
(dp2824
g17
VCD
p2825
sbag5
(g6
g7
(lp2826
Vdifferent
p2827
atp2828
Rp2829
(dp2830
g17
VJJ
p2831
sbag5
(g6
g7
(lp2832
Vgeographic
p2833
atp2834
Rp2835
(dp2836
g17
VJJ
p2837
sbag5
(g6
g7
(lp2838
Vlocations
p2839
atp2840
Rp2841
(dp2842
g17
VNNS
p2843
sbatp2844
Rp2845
(dp2846
g17
VNP
p2847
sbatp2848
Rp2849
(dp2850
g17
VPP
p2851
sbatp2852
Rp2853
(dp2854
g17
VVP
p2855
sbatp2856
Rp2857
(dp2858
g17
VVP
p2859
sbatp2860
Rp2861
(dp2862
g17
g241
sbag5
(g6
g7
(lp2863
g536
atp2864
Rp2865
(dp2866
g17
g536
sbag5
(g6
g7
(lp2867
Vand
p2868
atp2869
Rp2870
(dp2871
g17
VCC
p2872
sbag5
(g6
g7
(lp2873
g5
(g6
g7
(lp2874
g5
(g6
g7
(lp2875
Vclients
p2876
atp2877
Rp2878
(dp2879
g17
VNNS
p2880
sbatp2881
Rp2882
(dp2883
g17
VNP
p2884
sbag5
(g6
g7
(lp2885
g5
(g6
g7
(lp2886
Vare
p2887
atp2888
Rp2889
(dp2890
g17
VVBP
p2891
sbag5
(g6
g7
(lp2892
g5
(g6
g7
(lp2893
Vrouted
p2894
atp2895
Rp2896
(dp2897
g17
VVBN
p2898
sbag5
(g6
g7
(lp2899
g5
(g6
g7
(lp2900
g5
(g6
g7
(lp2901
Vto
p2902
atp2903
Rp2904
(dp2905
g17
VTO
p2906
sbag5
(g6
g7
(lp2907
g5
(g6
g7
(lp2908
Vbe
p2909
atp2910
Rp2911
(dp2912
g17
VVB
p2913
sbag5
(g6
g7
(lp2914
g5
(g6
g7
(lp2915
Vfallback
p2916
atp2917
Rp2918
(dp2919
g17
VJJ
p2920
sbag5
(g6
g7
(lp2921
Vsite
p2922
atp2923
Rp2924
(dp2925
g17
VNN
p2926
sbatp2927
Rp2928
(dp2929
g17
VNP
p2930
sbag5
(g6
g7
(lp2931
g5
(g6
g7
(lp2932
Vif
p2933
atp2934
Rp2935
(dp2936
g17
VIN
p2937
sbag5
(g6
g7
(lp2938
g5
(g6
g7
(lp2939
g5
(g6
g7
(lp2940
Vthe
p2941
atp2942
Rp2943
(dp2944
g17
VDT
p2945
sbag5
(g6
g7
(lp2946
Vprimary
p2947
atp2948
Rp2949
(dp2950
g17
VJJ
p2951
sbag5
(g6
g7
(lp2952
Vsite
p2953
atp2954
Rp2955
(dp2956
g17
VNN
p2957
sbatp2958
Rp2959
(dp2960
g17
VNP
p2961
sbag5
(g6
g7
(lp2962
g5
(g6
g7
(lp2963
Vis
p2964
atp2965
Rp2966
(dp2967
g17
VVBZ
p2968
sbag5
(g6
g7
(lp2969
g5
(g6
g7
(lp2970
Vdown
p2971
atp2972
Rp2973
(dp2974
g17
VRP
p2975
sbatp2976
Rp2977
(dp2978
g17
VADJP
p2979
sbatp2980
Rp2981
(dp2982
g17
VVP
p2983
sbatp2984
Rp2985
(dp2986
g17
g241
sbatp2987
Rp2988
(dp2989
g17
VSBAR
p2990
sbatp2991
Rp2992
(dp2993
g17
VVP
p2994
sbatp2995
Rp2996
(dp2997
g17
VVP
p2998
sbatp2999
Rp3000
(dp3001
g17
g241
sbatp3002
Rp3003
(dp3004
g17
VVP
p3005
sbatp3006
Rp3007
(dp3008
g17
VVP
p3009
sbatp3010
Rp3011
(dp3012
g17
g241
sbatp3013
Rp3014
(dp3015
g17
g241
sbag5
(g6
g7
(lp3016
g410
atp3017
Rp3018
(dp3019
g17
g410
sbatp3020
Rp3021
(dp3022
g17
g241
sbatp3023
Rp3024
(dp3025
g17
VROOT
p3026
sbasg421
(icmyPackage
CorE
p3027
(dp3028
g424
(lp3029
(I0
I34
tp3030
a(I0
I39
tp3031
asg428
g5
(g6
g7
(lp3032
g2985
ag3018
atp3033
Rp3034
(dp3035
g17
g433
sbsbsg434
(icmyPackage
CorE
p3036
(dp3037
g424
(lp3038
(I0
I20
tp3039
a(I0
I32
tp3040
asg428
g5
(g6
g7
(lp3041
g2845
ag2865
ag2870
ag2882
ag2889
ag2896
ag2904
ag2911
ag2928
atp3042
Rp3043
(dp3044
g17
g433
sbsbsg444
g445
sg465
(lp3045
(icmyPackage
Sent
p3046
(dp3047
g469
I3
sg470
I13
sg471
S'Sites must be geo-plexed to achieve more than four 9s of availability -- that is the data is stored in two different geographic locations, and clients are routed to be fallback site if the primary site is down.'
p3048
sg473
I0
sg474
I53
sg428
(lp3049
g3024
asbasba(icmyPackage
CELink
p3050
(dp3051
g3
(lp3052
g5
(g6
g7
(lp3053
g5
(g6
g7
(lp3054
g5
(g6
g7
(lp3055
VBut
p3056
atp3057
Rp3058
(dp3059
g17
VCC
p3060
sbag5
(g6
g7
(lp3061
g536
atp3062
Rp3063
(dp3064
g17
g536
sbag5
(g6
g7
(lp3065
g5
(g6
g7
(lp3066
Vthey
p3067
atp3068
Rp3069
(dp3070
g17
VPRP
p3071
sbatp3072
Rp3073
(dp3074
g17
VNP
p3075
sbag5
(g6
g7
(lp3076
g5
(g6
g7
(lp3077
Vhave
p3078
atp3079
Rp3080
(dp3081
g17
VVBP
p3082
sbag5
(g6
g7
(lp3083
g5
(g6
g7
(lp3084
g5
(g6
g7
(lp3085
Vto
p3086
atp3087
Rp3088
(dp3089
g17
VTO
p3090
sbag5
(g6
g7
(lp3091
g5
(g6
g7
(lp3092
Vhave
p3093
atp3094
Rp3095
(dp3096
g17
VVB
p3097
sbag5
(g6
g7
(lp3098
g5
(g6
g7
(lp3099
g5
(g6
g7
(lp3100
Vexactly
p3101
atp3102
Rp3103
(dp3104
g17
VRB
p3105
sbag5
(g6
g7
(lp3106
Vthe
p3107
atp3108
Rp3109
(dp3110
g17
VDT
p3111
sbag5
(g6
g7
(lp3112
Vsame
p3113
atp3114
Rp3115
(dp3116
g17
VJJ
p3117
sbag5
(g6
g7
(lp3118
Vdata
p3119
atp3120
Rp3121
(dp3122
g17
VNNS
p3123
sbatp3124
Rp3125
(dp3126
g17
VNP
p3127
sbag5
(g6
g7
(lp3128
g5
(g6
g7
(lp3129
V-LRB-
p3130
atp3131
Rp3132
(dp3133
g17
V-LRB-
p3134
sbag5
(g6
g7
(lp3135
Vor
p3136
atp3137
Rp3138
(dp3139
g17
VCC
p3140
sbag5
(g6
g7
(lp3141
g5
(g6
g7
(lp3142
Vnearly
p3143
atp3144
Rp3145
(dp3146
g17
VRB
p3147
sbag5
(g6
g7
(lp3148
Vso
p3149
atp3150
Rp3151
(dp3152
g17
VRB
p3153
sbatp3154
Rp3155
(dp3156
g17
VADJP
p3157
sbag5
(g6
g7
(lp3158
V-RRB-
p3159
atp3160
Rp3161
(dp3162
g17
V-RRB-
p3163
sbatp3164
Rp3165
(dp3166
g17
VPRN
p3167
sbatp3168
Rp3169
(dp3170
g17
VNP
p3171
sbatp3172
Rp3173
(dp3174
g17
VVP
p3175
sbatp3176
Rp3177
(dp3178
g17
VVP
p3179
sbatp3180
Rp3181
(dp3182
g17
g241
sbatp3183
Rp3184
(dp3185
g17
VVP
p3186
sbag5
(g6
g7
(lp3187
g410
atp3188
Rp3189
(dp3190
g17
g410
sbatp3191
Rp3192
(dp3193
g17
g241
sbatp3194
Rp3195
(dp3196
g17
VROOT
p3197
sbag5
(g6
g7
(lp3198
g5
(g6
g7
(lp3199
g5
(g6
g7
(lp3200
g5
(g6
g7
(lp3201
g5
(g6
g7
(lp3202
g5
(g6
g7
(lp3203
VTen
p3204
atp3205
Rp3206
(dp3207
g17
VCD
p3208
sbatp3209
Rp3210
(dp3211
g17
VNP
p3212
sbag5
(g6
g7
(lp3213
Vor
p3214
atp3215
Rp3216
(dp3217
g17
VCC
p3218
sbag5
(g6
g7
(lp3219
g5
(g6
g7
(lp3220
Vtwenty
p3221
atp3222
Rp3223
(dp3224
g17
VCD
p3225
sbag5
(g6
g7
(lp3226
Vyears
p3227
atp3228
Rp3229
(dp3230
g17
VNNS
p3231
sbatp3232
Rp3233
(dp3234
g17
VNP
p3235
sbatp3236
Rp3237
(dp3238
g17
VNP
p3239
sbag5
(g6
g7
(lp3240
Vago
p3241
atp3242
Rp3243
(dp3244
g17
VIN
p3245
sbatp3246
Rp3247
(dp3248
g17
VADVP
p3249
sbag5
(g6
g7
(lp3250
g536
atp3251
Rp3252
(dp3253
g17
g536
sbag5
(g6
g7
(lp3254
g5
(g6
g7
(lp3255
Vthis
p3256
atp3257
Rp3258
(dp3259
g17
VDT
p3260
sbatp3261
Rp3262
(dp3263
g17
VNP
p3264
sbag5
(g6
g7
(lp3265
g5
(g6
g7
(lp3266
Vwas
p3267
atp3268
Rp3269
(dp3270
g17
VVBD
p3271
sbag5
(g6
g7
(lp3272
g5
(g6
g7
(lp3273
g852
atp3274
Rp3275
(dp3276
g17
VDT
p3277
sbag5
(g6
g7
(lp3278
g5
(g6
g7
(lp3279
Vvery
p3280
atp3281
Rp3282
(dp3283
g17
VRB
p3284
sbag5
(g6
g7
(lp3285
Vsophisticated
p3286
atp3287
Rp3288
(dp3289
g17
VJJ
p3290
sbatp3291
Rp3292
(dp3293
g17
VADJP
p3294
sbag5
(g6
g7
(lp3295
Vfeature
p3296
atp3297
Rp3298
(dp3299
g17
VNN
p3300
sbatp3301
Rp3302
(dp3303
g17
VNP
p3304
sbatp3305
Rp3306
(dp3307
g17
VVP
p3308
sbag5
(g6
g7
(lp3309
g410
atp3310
Rp3311
(dp3312
g17
g410
sbatp3313
Rp3314
(dp3315
g17
g241
sbatp3316
Rp3317
(dp3318
g17
VROOT
p3319
sbasg421
(icmyPackage
CorE
p3320
(dp3321
g424
(lp3322
(I0
I0
tp3323
a(I0
I12
tp3324
asg428
g5
(g6
g7
(lp3325
g3058
ag3063
ag3073
ag3080
ag3088
ag3095
ag3125
ag3132
ag3138
ag3145
atp3326
Rp3327
(dp3328
g17
g433
sbsbsg434
(icmyPackage
CorE
p3329
(dp3330
g424
(lp3331
(I0
I14
tp3332
a(I1
I11
tp3333
asg428
g5
(g6
g7
(lp3334
g3161
ag3189
ag3247
ag3252
ag3262
ag3306
atp3335
Rp3336
(dp3337
g17
g433
sbsbsg444
g816
sg465
(lp3338
(icmyPackage
Sent
p3339
(dp3340
g469
I3
sg470
I13
sg471
S'But, they have to have exactly the same data (or nearly so).'
p3341
sg473
I0
sg474
I55
sg428
(lp3342
g3195
asba(icmyPackage
Sent
p3343
(dp3344
g469
I3
sg470
I13
sg471
S'Ten or twenty years ago, this was a very sophisticated feature.'
p3345
sg473
I0
sg474
I56
sg428
(lp3346
g3317
asbasba(icmyPackage
CELink
p3347
(dp3348
g3
(lp3349
g5
(g6
g7
(lp3350
g5
(g6
g7
(lp3351
g5
(g6
g7
(lp3352
g5
(g6
g7
(lp3353
VThe
p3354
atp3355
Rp3356
(dp3357
g17
VDT
p3358
sbag5
(g6
g7
(lp3359
Voperations
p3360
atp3361
Rp3362
(dp3363
g17
VNNS
p3364
sbag5
(g6
g7
(lp3365
Vstaff
p3366
atp3367
Rp3368
(dp3369
g17
VNN
p3370
sbatp3371
Rp3372
(dp3373
g17
VNP
p3374
sbag5
(g6
g7
(lp3375
g5
(g6
g7
(lp3376
Vcan
p3377
atp3378
Rp3379
(dp3380
g17
VMD
p3381
sbag5
(g6
g7
(lp3382
g5
(g6
g7
(lp3383
Vdo
p3384
atp3385
Rp3386
(dp3387
g17
VVB
p3388
sbag5
(g6
g7
(lp3389
g5
(g6
g7
(lp3390
g5
(g6
g7
(lp3391
Vrolling
p3392
atp3393
Rp3394
(dp3395
g17
VJJ
p3396
sbag5
(g6
g7
(lp3397
Vupgrades
p3398
atp3399
Rp3400
(dp3401
g17
VNNS
p3402
sbatp3403
Rp3404
(dp3405
g17
VNP
p3406
sbag5
(g6
g7
(lp3407
g5
(g6
g7
(lp3408
Vof
p3409
atp3410
Rp3411
(dp3412
g17
VIN
p3413
sbag5
(g6
g7
(lp3414
g5
(g6
g7
(lp3415
Vmost
p3416
atp3417
Rp3418
(dp3419
g17
VJJS
p3420
sbag5
(g6
g7
(lp3421
Vapplication
p3422
atp3423
Rp3424
(dp3425
g17
VNN
p3426
sbag5
(g6
g7
(lp3427
Vchanges
p3428
atp3429
Rp3430
(dp3431
g17
VNNS
p3432
sbatp3433
Rp3434
(dp3435
g17
VNP
p3436
sbatp3437
Rp3438
(dp3439
g17
VPP
p3440
sbatp3441
Rp3442
(dp3443
g17
VNP
p3444
sbag5
(g6
g7
(lp3445
g5
(g6
g7
(lp3446
Vby
p3447
atp3448
Rp3449
(dp3450
g17
VIN
p3451
sbag5
(g6
g7
(lp3452
g5
(g6
g7
(lp3453
g5
(g6
g7
(lp3454
g5
(g6
g7
(lp3455
g5
(g6
g7
(lp3456
Vfirst
p3457
atp3458
Rp3459
(dp3460
g17
VRB
p3461
sbatp3462
Rp3463
(dp3464
g17
VADVP
p3465
sbag5
(g6
g7
(lp3466
Vinstalling
p3467
atp3468
Rp3469
(dp3470
g17
VVBG
p3471
sbag5
(g6
g7
(lp3472
g5
(g6
g7
(lp3473
Vthem
p3474
atp3475
Rp3476
(dp3477
g17
VPRP
p3478
sbatp3479
Rp3480
(dp3481
g17
VNP
p3482
sbag5
(g6
g7
(lp3483
g5
(g6
g7
(lp3484
Von
p3485
atp3486
Rp3487
(dp3488
g17
VIN
p3489
sbag5
(g6
g7
(lp3490
g5
(g6
g7
(lp3491
g852
atp3492
Rp3493
(dp3494
g17
VDT
p3495
sbag5
(g6
g7
(lp3496
Vfew
p3497
atp3498
Rp3499
(dp3500
g17
VJJ
p3501
sbag5
(g6
g7
(lp3502
Vnodes
p3503
atp3504
Rp3505
(dp3506
g17
VNNS
p3507
sbatp3508
Rp3509
(dp3510
g17
VNP
p3511
sbatp3512
Rp3513
(dp3514
g17
VPP
p3515
sbatp3516
Rp3517
(dp3518
g17
VVP
p3519
sbag5
(g6
g7
(lp3520
Vand
p3521
atp3522
Rp3523
(dp3524
g17
VCC
p3525
sbag5
(g6
g7
(lp3526
g5
(g6
g7
(lp3527
g5
(g6
g7
(lp3528
Vclosely
p3529
atp3530
Rp3531
(dp3532
g17
VRB
p3533
sbatp3534
Rp3535
(dp3536
g17
VADVP
p3537
sbag5
(g6
g7
(lp3538
Vmonitoring
p3539
atp3540
Rp3541
(dp3542
g17
VVBG
p3543
sbag5
(g6
g7
(lp3544
g5
(g6
g7
(lp3545
Vthe
p3546
atp3547
Rp3548
(dp3549
g17
VDT
p3550
sbag5
(g6
g7
(lp3551
Vbehavior
p3552
atp3553
Rp3554
(dp3555
g17
VNN
p3556
sbatp3557
Rp3558
(dp3559
g17
VNP
p3560
sbatp3561
Rp3562
(dp3563
g17
VVP
p3564
sbatp3565
Rp3566
(dp3567
g17
VVP
p3568
sbatp3569
Rp3570
(dp3571
g17
g241
sbatp3572
Rp3573
(dp3574
g17
VPP
p3575
sbatp3576
Rp3577
(dp3578
g17
VVP
p3579
sbatp3580
Rp3581
(dp3582
g17
VVP
p3583
sbag5
(g6
g7
(lp3584
g410
atp3585
Rp3586
(dp3587
g17
g410
sbatp3588
Rp3589
(dp3590
g17
g241
sbatp3591
Rp3592
(dp3593
g17
VROOT
p3594
sbasg421
(icmyPackage
CorE
p3595
(dp3596
g424
(lp3597
(I0
I12
tp3598
a(I0
I23
tp3599
asg428
g3570
sbsg434
(icmyPackage
CorE
p3600
(dp3601
g424
(lp3602
(I0
I0
tp3603
a(I0
I10
tp3604
asg428
g5
(g6
g7
(lp3605
g3372
ag3379
ag3386
ag3442
atp3606
Rp3607
(dp3608
g17
g433
sbsbsg444
g1897
sg465
(lp3609
(icmyPackage
Sent
p3610
(dp3611
g469
I3
sg470
I14
sg471
S'The operations staff can do rolling upgrades of most application changes by first installing them on a few nodes and closely monitoring the behavior.'
p3612
sg473
I0
sg474
I62
sg428
(lp3613
g3592
asbasba(icmyPackage
CELink
p3614
(dp3615
g3
(lp3616
g5
(g6
g7
(lp3617
g5
(g6
g7
(lp3618
g5
(g6
g7
(lp3619
g5
(g6
g7
(lp3620
g5
(g6
g7
(lp3621
g5
(g6
g7
(lp3622
VClones
p3623
atp3624
Rp3625
(dp3626
g17
VNNS
p3627
sbatp3628
Rp3629
(dp3630
g17
VNP
p3631
sbag5
(g6
g7
(lp3632
g536
atp3633
Rp3634
(dp3635
g17
g536
sbag5
(g6
g7
(lp3636
g5
(g6
g7
(lp3637
Vpacks
p3638
atp3639
Rp3640
(dp3641
g17
VVBZ
p3642
sbatp3643
Rp3644
(dp3645
g17
VVP
p3646
sbag5
(g6
g7
(lp3647
g536
atp3648
Rp3649
(dp3650
g17
g536
sbatp3651
Rp3652
(dp3653
g17
VNP
p3654
sbag5
(g6
g7
(lp3655
g5
(g6
g7
(lp3656
Vload
p3657
atp3658
Rp3659
(dp3660
g17
VVB
p3661
sbag5
(g6
g7
(lp3662
g5
(g6
g7
(lp3663
Vbalancing
p3664
atp3665
Rp3666
(dp3667
g17
VNN
p3668
sbag5
(g6
g7
(lp3669
g536
atp3670
Rp3671
(dp3672
g17
g536
sbag5
(g6
g7
(lp3673
Vfailover
p3674
atp3675
Rp3676
(dp3677
g17
VNN
p3678
sbag5
(g6
g7
(lp3679
g536
atp3680
Rp3681
(dp3682
g17
g536
sbag5
(g6
g7
(lp3683
Vand
p3684
atp3685
Rp3686
(dp3687
g17
VCC
p3688
sbag5
(g6
g7
(lp3689
Vfallback
p3690
atp3691
Rp3692
(dp3693
g17
VNN
p3694
sbatp3695
Rp3696
(dp3697
g17
VNP
p3698
sbag5
(g6
g7
(lp3699
Vall
p3700
atp3701
Rp3702
(dp3703
g17
VRB
p3704
sbag5
(g6
g7
(lp3705
g5
(g6
g7
(lp3706
Vimprove
p3707
atp3708
Rp3709
(dp3710
g17
VVB
p3711
sbag5
(g6
g7
(lp3712
g5
(g6
g7
(lp3713
Vavailability
p3714
atp3715
Rp3716
(dp3717
g17
VNN
p3718
sbatp3719
Rp3720
(dp3721
g17
VNP
p3722
sbatp3723
Rp3724
(dp3725
g17
VVP
p3726
sbatp3727
Rp3728
(dp3729
g17
VVP
p3730
sbatp3731
Rp3732
(dp3733
g17
g241
sbag5
(g6
g7
(lp3734
V--
p3735
atp3736
Rp3737
(dp3738
g17
g290
sbag5
(g6
g7
(lp3739
Vand
p3740
atp3741
Rp3742
(dp3743
g17
VCC
p3744
sbag5
(g6
g7
(lp3745
g5
(g6
g7
(lp3746
g5
(g6
g7
(lp3747
Vthey
p3748
atp3749
Rp3750
(dp3751
g17
VPRP
p3752
sbatp3753
Rp3754
(dp3755
g17
VNP
p3756
sbag5
(g6
g7
(lp3757
g5
(g6
g7
(lp3758
Vare
p3759
atp3760
Rp3761
(dp3762
g17
VVBP
p3763
sbag5
(g6
g7
(lp3764
Vall
p3765
atp3766
Rp3767
(dp3768
g17
VRB
p3769
sbag5
(g6
g7
(lp3770
g5
(g6
g7
(lp3771
Vautomatic
p3772
atp3773
Rp3774
(dp3775
g17
VJJ
p3776
sbatp3777
Rp3778
(dp3779
g17
VADJP
p3780
sbatp3781
Rp3782
(dp3783
g17
VVP
p3784
sbatp3785
Rp3786
(dp3787
g17
g241
sbag5
(g6
g7
(lp3788
g410
atp3789
Rp3790
(dp3791
g17
g410
sbatp3792
Rp3793
(dp3794
g17
g241
sbatp3795
Rp3796
(dp3797
g17
VROOT
p3798
sbag5
(g6
g7
(lp3799
g5
(g6
g7
(lp3800
g5
(g6
g7
(lp3801
g5
(g6
g7
(lp3802
VSo
p3803
atp3804
Rp3805
(dp3806
g17
VRB
p3807
sbatp3808
Rp3809
(dp3810
g17
VSBAR
p3811
sbag5
(g6
g7
(lp3812
g536
atp3813
Rp3814
(dp3815
g17
g536
sbag5
(g6
g7
(lp3816
g5
(g6
g7
(lp3817
Vwhy
p3818
atp3819
Rp3820
(dp3821
g17
VWRB
p3822
sbatp3823
Rp3824
(dp3825
g17
VWHADVP
p3826
sbag5
(g6
g7
(lp3827
g5
(g6
g7
(lp3828
Vhas
p3829
atp3830
Rp3831
(dp3832
g17
VVBZ
p3833
sbag5
(g6
g7
(lp3834
g5
(g6
g7
(lp3835
Vavailability
p3836
atp3837
Rp3838
(dp3839
g17
VNN
p3840
sbatp3841
Rp3842
(dp3843
g17
VNP
p3844
sbag5
(g6
g7
(lp3845
g5
(g6
g7
(lp3846
Vgotten
p3847
atp3848
Rp3849
(dp3850
g17
VVBN
p3851
sbag5
(g6
g7
(lp3852
g5
(g6
g7
(lp3853
g5
(g6
g7
(lp3854
Vworse
p3855
atp3856
Rp3857
(dp3858
g17
VRBR
p3859
sbatp3860
Rp3861
(dp3862
g17
VADJP
p3863
sbatp3864
Rp3865
(dp3866
g17
g241
sbatp3867
Rp3868
(dp3869
g17
VVP
p3870
sbatp3871
Rp3872
(dp3873
g17
VSQ
p3874
sbag5
(g6
g7
(lp3875
V?
p3876
atp3877
Rp3878
(dp3879
g17
g410
sbatp3880
Rp3881
(dp3882
g17
VSBARQ
p3883
sbatp3884
Rp3885
(dp3886
g17
VROOT
p3887
sbasg421
(icmyPackage
CorE
p3888
(dp3889
g424
(lp3890
(I0
I0
tp3891
a(I0
I19
tp3892
asg428
g5
(g6
g7
(lp3893
g3732
ag3737
ag3742
ag3786
atp3894
Rp3895
(dp3896
g17
g433
sbsbsg434
(icmyPackage
CorE
p3897
(dp3898
g424
(lp3899
(I1
I2
tp3900
a(I1
I5
tp3901
asg428
g5
(g6
g7
(lp3902
g3824
ag3831
ag3842
ag3849
atp3903
Rp3904
(dp3905
g17
g433
sbsbsg444
g816
sg465
(lp3906
(icmyPackage
Sent
p3907
(dp3908
g469
I3
sg470
I15
sg471
S'Clones, packs, load balancing, failover, and fallback all improve availability -- and they are all automatic.'
p3909
sg473
I0
sg474
I65
sg428
(lp3910
g3796
asba(icmyPackage
Sent
p3911
(dp3912
g469
I3
sg470
I15
sg471
S'So, why has availability gotten worse?'
p3913
sg473
I0
sg474
I66
sg428
(lp3914
g3885
asbasba(icmyPackage
CELink
p3915
(dp3916
g3
(lp3917
g5
(g6
g7
(lp3918
g5
(g6
g7
(lp3919
g5
(g6
g7
(lp3920
g5
(g6
g7
(lp3921
g5
(g6
g7
(lp3922
VTaking
p3923
atp3924
Rp3925
(dp3926
g17
VVBG
p3927
sbag5
(g6
g7
(lp3928
g5
(g6
g7
(lp3929
g5
(g6
g7
(lp3930
VMicrosoft
p3931
atp3932
Rp3933
(dp3934
g17
VNNP
p3935
sbatp3936
Rp3937
(dp3938
g17
VNP
p3939
sbag5
(g6
g7
(lp3940
g5
(g6
g7
(lp3941
Vas
p3942
atp3943
Rp3944
(dp3945
g17
VIN
p3946
sbag5
(g6
g7
(lp3947
g5
(g6
g7
(lp3948
Van
p3949
atp3950
Rp3951
(dp3952
g17
VDT
p3953
sbag5
(g6
g7
(lp3954
Vexample
p3955
atp3956
Rp3957
(dp3958
g17
VNN
p3959
sbatp3960
Rp3961
(dp3962
g17
VNP
p3963
sbatp3964
Rp3965
(dp3966
g17
VPP
p3967
sbatp3968
Rp3969
(dp3970
g17
VNP
p3971
sbatp3972
Rp3973
(dp3974
g17
VVP
p3975
sbatp3976
Rp3977
(dp3978
g17
g241
sbag5
(g6
g7
(lp3979
g536
atp3980
Rp3981
(dp3982
g17
g536
sbag5
(g6
g7
(lp3983
g5
(g6
g7
(lp3984
g5
(g6
g7
(lp3985
Vthe
p3986
atp3987
Rp3988
(dp3989
g17
VDT
p3990
sbag5
(g6
g7
(lp3991
g5
(g6
g7
(lp3992
Vmost
p3993
atp3994
Rp3995
(dp3996
g17
VRBS
p3997
sbag5
(g6
g7
(lp3998
Vspectacular
p3999
atp4000
Rp4001
(dp4002
g17
VJJ
p4003
sbatp4004
Rp4005
(dp4006
g17
VADJP
p4007
sbag5
(g6
g7
(lp4008
VMSN
p4009
atp4010
Rp4011
(dp4012
g17
VNNP
p4013
sbag5
(g6
g7
(lp4014
Voutages
p4015
atp4016
Rp4017
(dp4018
g17
VNNS
p4019
sbatp4020
Rp4021
(dp4022
g17
VNP
p4023
sbag5
(g6
g7
(lp4024
g5
(g6
g7
(lp4025
Vof
p4026
atp4027
Rp4028
(dp4029
g17
VIN
p4030
sbag5
(g6
g7
(lp4031
g5
(g6
g7
(lp4032
Vlate
p4033
atp4034
Rp4035
(dp4036
g17
VJJ
p4037
sbatp4038
Rp4039
(dp4040
g17
VNP
p4041
sbatp4042
Rp4043
(dp4044
g17
VPP
p4045
sbatp4046
Rp4047
(dp4048
g17
VNP
p4049
sbag5
(g6
g7
(lp4050
g5
(g6
g7
(lp4051
Vhave
p4052
atp4053
Rp4054
(dp4055
g17
VVBP
p4056
sbag5
(g6
g7
(lp4057
g5
(g6
g7
(lp4058
Vbeen
p4059
atp4060
Rp4061
(dp4062
g17
VVBN
p4063
sbag5
(g6
g7
(lp4064
g5
(g6
g7
(lp4065
Vdue
p4066
atp4067
Rp4068
(dp4069
g17
VJJ
p4070
sbag5
(g6
g7
(lp4071
g5
(g6
g7
(lp4072
Vto
p4073
atp4074
Rp4075
(dp4076
g17
VTO
p4077
sbag5
(g6
g7
(lp4078
g5
(g6
g7
(lp4079
g5
(g6
g7
(lp4080
g5
(g6
g7
(lp4081
Voperations
p4082
atp4083
Rp4084
(dp4085
g17
VNNS
p4086
sbag5
(g6
g7
(lp4087
Vmistakes
p4088
atp4089
Rp4090
(dp4091
g17
VNNS
p4092
sbatp4093
Rp4094
(dp4095
g17
VNP
p4096
sbag5
(g6
g7
(lp4097
g5
(g6
g7
(lp4098
V-LRB-
p4099
atp4100
Rp4101
(dp4102
g17
V-LRB-
p4103
sbag5
(g6
g7
(lp4104
g5
(g6
g7
(lp4105
Vmisconfigured
p4106
atp4107
Rp4108
(dp4109
g17
VVBN
p4110
sbag5
(g6
g7
(lp4111
g5
(g6
g7
(lp4112
g852
atp4113
Rp4114
(dp4115
g17
VDT
p4116
sbag5
(g6
g7
(lp4117
Vrouter
p4118
atp4119
Rp4120
(dp4121
g17
VNN
p4122
sbatp4123
Rp4124
(dp4125
g17
VNP
p4126
sbatp4127
Rp4128
(dp4129
g17
VVP
p4130
sbag5
(g6
g7
(lp4131
V-RRB-
p4132
atp4133
Rp4134
(dp4135
g17
V-RRB-
p4136
sbatp4137
Rp4138
(dp4139
g17
VPRN
p4140
sbatp4141
Rp4142
(dp4143
g17
VNP
p4144
sbag5
(g6
g7
(lp4145
Vand
p4146
atp4147
Rp4148
(dp4149
g17
VCC
p4150
sbag5
(g6
g7
(lp4151
g5
(g6
g7
(lp4152
g5
(g6
g7
(lp4153
Vsabotage
p4154
atp4155
Rp4156
(dp4157
g17
VNN
p4158
sbatp4159
Rp4160
(dp4161
g17
VNP
p4162
sbag5
(g6
g7
(lp4163
g5
(g6
g7
(lp4164
V-LRB-
p4165
atp4166
Rp4167
(dp4168
g17
V-LRB-
p4169
sbag5
(g6
g7
(lp4170
g5
(g6
g7
(lp4171
g5
(g6
g7
(lp4172
Vdenial
p4173
atp4174
Rp4175
(dp4176
g17
VNN
p4177
sbatp4178
Rp4179
(dp4180
g17
VNP
p4181
sbag5
(g6
g7
(lp4182
g5
(g6
g7
(lp4183
Vof
p4184
atp4185
Rp4186
(dp4187
g17
VIN
p4188
sbag5
(g6
g7
(lp4189
g5
(g6
g7
(lp4190
Vservice
p4191
atp4192
Rp4193
(dp4194
g17
VNN
p4195
sbag5
(g6
g7
(lp4196
Vattacks
p4197
atp4198
Rp4199
(dp4200
g17
VNNS
p4201
sbatp4202
Rp4203
(dp4204
g17
VNP
p4205
sbatp4206
Rp4207
(dp4208
g17
VPP
p4209
sbatp4210
Rp4211
(dp4212
g17
VNP
p4213
sbag5
(g6
g7
(lp4214
V-RRB-
p4215
atp4216
Rp4217
(dp4218
g17
V-RRB-
p4219
sbatp4220
Rp4221
(dp4222
g17
VPRN
p4223
sbatp4224
Rp4225
(dp4226
g17
VNP
p4227
sbatp4228
Rp4229
(dp4230
g17
VNP
p4231
sbatp4232
Rp4233
(dp4234
g17
VPP
p4235
sbatp4236
Rp4237
(dp4238
g17
VADJP
p4239
sbatp4240
Rp4241
(dp4242
g17
VVP
p4243
sbatp4244
Rp4245
(dp4246
g17
VVP
p4247
sbag5
(g6
g7
(lp4248
g410
atp4249
Rp4250
(dp4251
g17
g410
sbatp4252
Rp4253
(dp4254
g17
g241
sbatp4255
Rp4256
(dp4257
g17
VROOT
p4258
sbasg421
(icmyPackage
CorE
p4259
(dp4260
g424
(lp4261
(I0
I0
tp4262
a(I0
I4
tp4263
asg428
g3977
sbsg434
(icmyPackage
CorE
p4264
(dp4265
g424
(lp4266
(I0
I6
tp4267
a(I0
I32
tp4268
asg428
g5
(g6
g7
(lp4269
g4047
ag4245
ag4250
atp4270
Rp4271
(dp4272
g17
g433
sbsbsg444
(icmyPackage
pattern
p4273
(dp4274
g447
I30
sg448
I0
sg449
(lp4275
sg453
(lp4276
I3
aI2
aI1
asg455
(lp4277
S'Being over here we tend to be a bit isolated.'
p4278
aS'Not being sure of the word, he turned it up in the dictionary.'
p4279
asg458
I81
sg459
(lp4280
(lp4281
S'&V-ing@C@'
p4282
aS'(,)'
p4283
aS'&R@Complete@'
p4284
aasbsg465
(lp4285
(icmyPackage
Sent
p4286
(dp4287
g469
I3
sg470
I15
sg471
S'Taking Microsoft as an example, the most spectacular MSN outages of late have been due to operations mistakes (misconfigured a router) and sabotage (denial of service attacks).'
p4288
sg473
I0
sg474
I70
sg428
(lp4289
g4256
asbasba(icmyPackage
CELink
p4290
(dp4291
g3
(lp4292
g4271
asg421
(icmyPackage
CorE
p4293
(dp4294
g424
(lp4295
(I0
I11
tp4296
a(I0
I25
tp4297
asg428
g4229
sbsg434
(icmyPackage
CorE
p4298
(dp4299
g424
(lp4300
(I0
I0
tp4301
a(I0
I8
tp4302
asg428
g5
(g6
g7
(lp4303
g4047
ag4054
ag4061
atp4304
Rp4305
(dp4306
g17
g433
sbsbsg444
(icmyPackage
pattern
p4307
(dp4308
g447
I0
sg448
I0
sg449
(lp4309
(lp4310
S'due'
p4311
aS'to'
p4312
aasg453
(lp4313
I2
aI1
aI1
asg455
(lp4314
S'Data stored on hard disks is at higher risk due to the mechanical nature of the device.'
p4315
asg458
I72
sg459
(lp4316
(lp4317
S'&R'
p4318
aa(lp4319
S'&NP@C@'
p4320
aasbsg465
(lp4321
g4286
asba(icmyPackage
CELink
p4322
(dp4323
g3
(lp4324
g5
(g6
g7
(lp4325
g5
(g6
g7
(lp4326
g5
(g6
g7
(lp4327
VBut
p4328
atp4329
Rp4330
(dp4331
g17
VCC
p4332
sbag5
(g6
g7
(lp4333
g536
atp4334
Rp4335
(dp4336
g17
g536
sbag5
(g6
g7
(lp4337
g5
(g6
g7
(lp4338
Vdue
p4339
atp4340
Rp4341
(dp4342
g17
VJJ
p4343
sbag5
(g6
g7
(lp4344
Vto
p4345
atp4346
Rp4347
(dp4348
g17
VTO
p4349
sbag5
(g6
g7
(lp4350
g5
(g6
g7
(lp4351
Vsome
p4352
atp4353
Rp4354
(dp4355
g17
VDT
p4356
sbag5
(g6
g7
(lp4357
Voperations
p4358
atp4359
Rp4360
(dp4361
g17
VNNS
p4362
sbag5
(g6
g7
(lp4363
Vand
p4364
atp4365
Rp4366
(dp4367
g17
VCC
p4368
sbag5
(g6
g7
(lp4369
Vsabotage
p4370
atp4371
Rp4372
(dp4373
g17
VNN
p4374
sbag5
(g6
g7
(lp4375
Vproblems
p4376
atp4377
Rp4378
(dp4379
g17
VNNS
p4380
sbatp4381
Rp4382
(dp4383
g17
VNP
p4384
sbatp4385
Rp4386
(dp4387
g17
VPP
p4388
sbag5
(g6
g7
(lp4389
g536
atp4390
Rp4391
(dp4392
g17
g536
sbag5
(g6
g7
(lp4393
g5
(g6
g7
(lp4394
Vthe
p4395
atp4396
Rp4397
(dp4398
g17
VDT
p4399
sbag5
(g6
g7
(lp4400
Vend-user
p4401
atp4402
Rp4403
(dp4404
g17
VNN
p4405
sbatp4406
Rp4407
(dp4408
g17
VNP
p4409
sbag5
(g6
g7
(lp4410
g5
(g6
g7
(lp4411
Vhas
p4412
atp4413
Rp4414
(dp4415
g17
VVBZ
p4416
sbag5
(g6
g7
(lp4417
g5
(g6
g7
(lp4418
Vseen
p4419
atp4420
Rp4421
(dp4422
g17
VVBN
p4423
sbag5
(g6
g7
(lp4424
g5
(g6
g7
(lp4425
Vmore
p4426
atp4427
Rp4428
(dp4429
g17
VRBR
p4430
sbatp4431
Rp4432
(dp4433
g17
VADVP
p4434
sbag5
(g6
g7
(lp4435
g5
(g6
g7
(lp4436
Vlike
p4437
atp4438
Rp4439
(dp4440
g17
VIN
p4441
sbag5
(g6
g7
(lp4442
g5
(g6
g7
(lp4443
VClass-2
p4444
atp4445
Rp4446
(dp4447
g17
VNN
p4448
sbag5
(g6
g7
(lp4449
Vservice
p4450
atp4451
Rp4452
(dp4453
g17
VNN
p4454
sbatp4455
Rp4456
(dp4457
g17
VNP
p4458
sbatp4459
Rp4460
(dp4461
g17
VPP
p4462
sbatp4463
Rp4464
(dp4465
g17
VVP
p4466
sbatp4467
Rp4468
(dp4469
g17
VVP
p4470
sbag5
(g6
g7
(lp4471
g410
atp4472
Rp4473
(dp4474
g17
g410
sbatp4475
Rp4476
(dp4477
g17
g241
sbatp4478
Rp4479
(dp4480
g17
VROOT
p4481
sbasg421
(icmyPackage
CorE
p4482
(dp4483
g424
(lp4484
(I0
I4
tp4485
a(I0
I8
tp4486
asg428
g4382
sbsg434
(icmyPackage
CorE
p4487
(dp4488
g424
(lp4489
(I0
I10
tp4490
a(I0
I18
tp4491
asg428
g5
(g6
g7
(lp4492
g4407
ag4468
ag4473
atp4493
Rp4494
(dp4495
g17
g433
sbsbsg444
(icmyPackage
pattern
p4496
(dp4497
g447
I0
sg448
I0
sg449
(lp4498
(lp4499
S'due'
p4500
aS'to'
p4501
aasg453
(lp4502
I2
aI1
aI1
asg455
(lp4503
S'Due to limitations in size and legal rules, our efforts did not blossom'
p4504
asg458
I71
sg459
(lp4505
(lp4506
a(lp4507
S'&NP@C@'
p4508
aS'(,)'
p4509
aS'&R'
p4510
aasbsg465
(lp4511
(icmyPackage
Sent
p4512
(dp4513
g469
I3
sg470
I15
sg471
S'But, due to some operations and sabotage problems, the end-user has seen more like Class-2 service.'
p4514
sg473
I0
sg474
I76
sg428
(lp4515
g4479
asbasba(icmyPackage
CELink
p4516
(dp4517
g3
(lp4518
g5
(g6
g7
(lp4519
g5
(g6
g7
(lp4520
g5
(g6
g7
(lp4521
g5
(g6
g7
(lp4522
VNow
p4523
atp4524
Rp4525
(dp4526
g17
VRB
p4527
sbatp4528
Rp4529
(dp4530
g17
VADVP
p4531
sbag5
(g6
g7
(lp4532
g5
(g6
g7
(lp4533
g5
(g6
g7
(lp4534
Voperations
p4535
atp4536
Rp4537
(dp4538
g17
VNNS
p4539
sbag5
(g6
g7
(lp4540
Vmistakes
p4541
atp4542
Rp4543
(dp4544
g17
VNNS
p4545
sbatp4546
Rp4547
(dp4548
g17
VNP
p4549
sbag5
(g6
g7
(lp4550
Vand
p4551
atp4552
Rp4553
(dp4554
g17
VCC
p4555
sbag5
(g6
g7
(lp4556
g5
(g6
g7
(lp4557
Vsabotage
p4558
atp4559
Rp4560
(dp4561
g17
VNN
p4562
sbatp4563
Rp4564
(dp4565
g17
VNP
p4566
sbatp4567
Rp4568
(dp4569
g17
VNP
p4570
sbag5
(g6
g7
(lp4571
g5
(g6
g7
(lp4572
Vare
p4573
atp4574
Rp4575
(dp4576
g17
VVBP
p4577
sbag5
(g6
g7
(lp4578
g5
(g6
g7
(lp4579
g5
(g6
g7
(lp4580
Vthe
p4581
atp4582
Rp4583
(dp4584
g17
VDT
p4585
sbag5
(g6
g7
(lp4586
Vmain
p4587
atp4588
Rp4589
(dp4590
g17
VJJ
p4591
sbag5
(g6
g7
(lp4592
Vsources
p4593
atp4594
Rp4595
(dp4596
g17
VNNS
p4597
sbatp4598
Rp4599
(dp4600
g17
VNP
p4601
sbag5
(g6
g7
(lp4602
g5
(g6
g7
(lp4603
Vof
p4604
atp4605
Rp4606
(dp4607
g17
VIN
p4608
sbag5
(g6
g7
(lp4609
g5
(g6
g7
(lp4610
Vfailure
p4611
atp4612
Rp4613
(dp4614
g17
VNN
p4615
sbatp4616
Rp4617
(dp4618
g17
VNP
p4619
sbatp4620
Rp4621
(dp4622
g17
VPP
p4623
sbatp4624
Rp4625
(dp4626
g17
VNP
p4627
sbatp4628
Rp4629
(dp4630
g17
VVP
p4631
sbag5
(g6
g7
(lp4632
g410
atp4633
Rp4634
(dp4635
g17
g410
sbatp4636
Rp4637
(dp4638
g17
g241
sbatp4639
Rp4640
(dp4641
g17
VROOT
p4642
sbag5
(g6
g7
(lp4643
g5
(g6
g7
(lp4644
g5
(g6
g7
(lp4645
g5
(g6
g7
(lp4646
VSo
p4647
atp4648
Rp4649
(dp4650
g17
VRB
p4651
sbatp4652
Rp4653
(dp4654
g17
VADVP
p4655
sbag5
(g6
g7
(lp4656
g536
atp4657
Rp4658
(dp4659
g17
g536
sbag5
(g6
g7
(lp4660
g5
(g6
g7
(lp4661
Vnow
p4662
atp4663
Rp4664
(dp4665
g17
VRB
p4666
sbatp4667
Rp4668
(dp4669
g17
VADVP
p4670
sbag5
(g6
g7
(lp4671
g5
(g6
g7
(lp4672
Vwe
p4673
atp4674
Rp4675
(dp4676
g17
VPRP
p4677
sbatp4678
Rp4679
(dp4680
g17
VNP
p4681
sbag5
(g6
g7
(lp4682
g5
(g6
g7
(lp4683
Vhave
p4684
atp4685
Rp4686
(dp4687
g17
VVBP
p4688
sbag5
(g6
g7
(lp4689
g5
(g6
g7
(lp4690
g852
atp4691
Rp4692
(dp4693
g17
VDT
p4694
sbag5
(g6
g7
(lp4695
Vnew
p4696
atp4697
Rp4698
(dp4699
g17
VJJ
p4700
sbag5
(g6
g7
(lp4701
Vwar
p4702
atp4703
Rp4704
(dp4705
g17
VNN
p4706
sbag5
(g6
g7
(lp4707
g5
(g6
g7
(lp4708
g5
(g6
g7
(lp4709
Vto
p4710
atp4711
Rp4712
(dp4713
g17
VTO
p4714
sbag5
(g6
g7
(lp4715
g5
(g6
g7
(lp4716
Vfight
p4717
atp4718
Rp4719
(dp4720
g17
VVB
p4721
sbatp4722
Rp4723
(dp4724
g17
VVP
p4725
sbatp4726
Rp4727
(dp4728
g17
VVP
p4729
sbatp4730
Rp4731
(dp4732
g17
g241
sbatp4733
Rp4734
(dp4735
g17
VNP
p4736
sbatp4737
Rp4738
(dp4739
g17
VVP
p4740
sbag5
(g6
g7
(lp4741
g410
atp4742
Rp4743
(dp4744
g17
g410
sbatp4745
Rp4746
(dp4747
g17
g241
sbatp4748
Rp4749
(dp4750
g17
VROOT
p4751
sbasg421
(icmyPackage
CorE
p4752
(dp4753
g424
(lp4754
(I0
I0
tp4755
a(I0
I10
tp4756
asg428
g5
(g6
g7
(lp4757
g4529
ag4568
ag4629
atp4758
Rp4759
(dp4760
g17
g433
sbsbsg434
(icmyPackage
CorE
p4761
(dp4762
g424
(lp4763
(I1
I2
tp4764
a(I1
I10
tp4765
asg428
g5
(g6
g7
(lp4766
g4668
ag4679
ag4738
ag4743
atp4767
Rp4768
(dp4769
g17
g433
sbsbsg444
g816
sg465
(lp4770
(icmyPackage
Sent
p4771
(dp4772
g469
I3
sg470
I16
sg471
S'Now operations mistakes and sabotage are the main sources of failure.'
p4773
sg473
I0
sg474
I78
sg428
(lp4774
g4640
asba(icmyPackage
Sent
p4775
(dp4776
g469
I3
sg470
I16
sg471
S'So, now we have a new war to fight.'
p4777
sg473
I0
sg474
I79
sg428
(lp4778
g4749
asbasba(icmyPackage
CELink
p4779
(dp4780
g3
(lp4781
g5
(g6
g7
(lp4782
g5
(g6
g7
(lp4783
g5
(g6
g7
(lp4784
g5
(g6
g7
(lp4785
Vfirewalls
p4786
atp4787
Rp4788
(dp4789
g17
VNNS
p4790
sbatp4791
Rp4792
(dp4793
g17
VNP
p4794
sbag5
(g6
g7
(lp4795
g5
(g6
g7
(lp4796
Vhere
p4797
atp4798
Rp4799
(dp4800
g17
VRB
p4801
sbatp4802
Rp4803
(dp4804
g17
VADVP
p4805
sbag5
(g6
g7
(lp4806
g5
(g6
g7
(lp4807
g536
atp4808
Rp4809
(dp4810
g17
g536
sbag5
(g6
g7
(lp4811
g5
(g6
g7
(lp4812
g5
(g6
g7
(lp4813
Vmail
p4814
atp4815
Rp4816
(dp4817
g17
VNN
p4818
sbatp4819
Rp4820
(dp4821
g17
VNP
p4822
sbag5
(g6
g7
(lp4823
g5
(g6
g7
(lp4824
Vfilters
p4825
atp4826
Rp4827
(dp4828
g17
VVBZ
p4829
sbag5
(g6
g7
(lp4830
g5
(g6
g7
(lp4831
Vthere
p4832
atp4833
Rp4834
(dp4835
g17
VRB
p4836
sbatp4837
Rp4838
(dp4839
g17
VADVP
p4840
sbatp4841
Rp4842
(dp4843
g17
VVP
p4844
sbatp4845
Rp4846
(dp4847
g17
g241
sbag5
(g6
g7
(lp4848
g536
atp4849
Rp4850
(dp4851
g17
g536
sbatp4852
Rp4853
(dp4854
g17
VPRN
p4855
sbag5
(g6
g7
(lp4856
g5
(g6
g7
(lp4857
Vintrusion
p4858
atp4859
Rp4860
(dp4861
g17
VNN
p4862
sbatp4863
Rp4864
(dp4865
g17
VNP
p4866
sbag5
(g6
g7
(lp4867
g5
(g6
g7
(lp4868
Vdetection
p4869
atp4870
Rp4871
(dp4872
g17
VVBP
p4873
sbag5
(g6
g7
(lp4874
g5
(g6
g7
(lp4875
g5
(g6
g7
(lp4876
Vover
p4877
atp4878
Rp4879
(dp4880
g17
VRB
p4881
sbag5
(g6
g7
(lp4882
Vthere
p4883
atp4884
Rp4885
(dp4886
g17
VRB
p4887
sbatp4888
Rp4889
(dp4890
g17
VADVP
p4891
sbag5
(g6
g7
(lp4892
g536
atp4893
Rp4894
(dp4895
g17
g536
sbag5
(g6
g7
(lp4896
Vand
p4897
atp4898
Rp4899
(dp4900
g17
VCC
p4901
sbag5
(g6
g7
(lp4902
g5
(g6
g7
(lp4903
Vso
p4904
atp4905
Rp4906
(dp4907
g17
VRB
p4908
sbag5
(g6
g7
(lp4909
Von
p4910
atp4911
Rp4912
(dp4913
g17
VRB
p4914
sbatp4915
Rp4916
(dp4917
g17
VADVP
p4918
sbatp4919
Rp4920
(dp4921
g17
VADVP
p4922
sbatp4923
Rp4924
(dp4925
g17
VVP
p4926
sbag5
(g6
g7
(lp4927
g410
atp4928
Rp4929
(dp4930
g17
g410
sbatp4931
Rp4932
(dp4933
g17
g241
sbatp4934
Rp4935
(dp4936
g17
VROOT
p4937
sbag5
(g6
g7
(lp4938
g5
(g6
g7
(lp4939
g5
(g6
g7
(lp4940
g5
(g6
g7
(lp4941
VClearly
p4942
atp4943
Rp4944
(dp4945
g17
VRB
p4946
sbatp4947
Rp4948
(dp4949
g17
VADVP
p4950
sbag5
(g6
g7
(lp4951
g536
atp4952
Rp4953
(dp4954
g17
g536
sbag5
(g6
g7
(lp4955
g5
(g6
g7
(lp4956
g5
(g6
g7
(lp4957
Vthese
p4958
atp4959
Rp4960
(dp4961
g17
VDT
p4962
sbag5
(g6
g7
(lp4963
Vproblems
p4964
atp4965
Rp4966
(dp4967
g17
VNNS
p4968
sbatp4969
Rp4970
(dp4971
g17
VNP
p4972
sbag5
(g6
g7
(lp4973
g5
(g6
g7
(lp4974
Vhave
p4975
atp4976
Rp4977
(dp4978
g17
VVBP
p4979
sbag5
(g6
g7
(lp4980
g5
(g6
g7
(lp4981
Vmagnified
p4982
atp4983
Rp4984
(dp4985
g17
VVBN
p4986
sbag5
(g6
g7
(lp4987
g5
(g6
g7
(lp4988
Vin
p4989
atp4990
Rp4991
(dp4992
g17
VIN
p4993
sbag5
(g6
g7
(lp4994
g5
(g6
g7
(lp4995
Vthe
p4996
atp4997
Rp4998
(dp4999
g17
VDT
p5000
sbag5
(g6
g7
(lp5001
Vrecent
p5002
atp5003
Rp5004
(dp5005
g17
VJJ
p5006
sbag5
(g6
g7
(lp5007
Vpast
p5008
atp5009
Rp5010
(dp5011
g17
VNN
p5012
sbatp5013
Rp5014
(dp5015
g17
VNP
p5016
sbatp5017
Rp5018
(dp5019
g17
VPP
p5020
sbatp5021
Rp5022
(dp5023
g17
VVP
p5024
sbatp5025
Rp5026
(dp5027
g17
VVP
p5028
sbatp5029
Rp5030
(dp5031
g17
g241
sbag5
(g6
g7
(lp5032
Vand
p5033
atp5034
Rp5035
(dp5036
g17
VCC
p5037
sbag5
(g6
g7
(lp5038
g5
(g6
g7
(lp5039
g5
(g6
g7
(lp5040
Vit
p5041
atp5042
Rp5043
(dp5044
g17
VPRP
p5045
sbatp5046
Rp5047
(dp5048
g17
VNP
p5049
sbag5
(g6
g7
(lp5050
g5
(g6
g7
(lp5051
Vseems
p5052
atp5053
Rp5054
(dp5055
g17
VVBZ
p5056
sbag5
(g6
g7
(lp5057
g5
(g6
g7
(lp5058
Vlikely
p5059
atp5060
Rp5061
(dp5062
g17
VJJ
p5063
sbatp5064
Rp5065
(dp5066
g17
VADJP
p5067
sbag5
(g6
g7
(lp5068
g5
(g6
g7
(lp5069
Vthat
p5070
atp5071
Rp5072
(dp5073
g17
VIN
p5074
sbag5
(g6
g7
(lp5075
g5
(g6
g7
(lp5076
g5
(g6
g7
(lp5077
Vthey
p5078
atp5079
Rp5080
(dp5081
g17
VPRP
p5082
sbatp5083
Rp5084
(dp5085
g17
VNP
p5086
sbag5
(g6
g7
(lp5087
g5
(g6
g7
(lp5088
Vwill
p5089
atp5090
Rp5091
(dp5092
g17
VMD
p5093
sbag5
(g6
g7
(lp5094
g5
(g6
g7
(lp5095
Vincrease
p5096
atp5097
Rp5098
(dp5099
g17
VVB
p5100
sbatp5101
Rp5102
(dp5103
g17
VVP
p5104
sbatp5105
Rp5106
(dp5107
g17
VVP
p5108
sbatp5109
Rp5110
(dp5111
g17
g241
sbatp5112
Rp5113
(dp5114
g17
VSBAR
p5115
sbatp5116
Rp5117
(dp5118
g17
VVP
p5119
sbatp5120
Rp5121
(dp5122
g17
g241
sbag5
(g6
g7
(lp5123
g410
atp5124
Rp5125
(dp5126
g17
g410
sbatp5127
Rp5128
(dp5129
g17
g241
sbatp5130
Rp5131
(dp5132
g17
VROOT
p5133
sbasg421
(icmyPackage
CorE
p5134
(dp5135
g424
(lp5136
(I0
I0
tp5137
a(I0
I10
tp5138
asg428
g5
(g6
g7
(lp5139
g4792
ag4803
ag4853
ag4864
ag4871
ag4889
atp5140
Rp5141
(dp5142
g17
g433
sbsbsg434
(icmyPackage
CorE
p5143
(dp5144
g424
(lp5145
(I0
I14
tp5146
a(I1
I16
tp5147
asg428
g5
(g6
g7
(lp5148
g4912
ag4929
ag4948
ag4953
ag5030
ag5035
ag5047
ag5054
ag5065
ag5072
ag5084
ag5091
atp5149
Rp5150
(dp5151
g17
g433
sbsbsg444
g816
sg465
(lp5152
(icmyPackage
Sent
p5153
(dp5154
g469
I3
sg470
I18
sg471
S'firewalls here, mail filters there, intrusion detection over there, and so on.'
p5155
sg473
I0
sg474
I89
sg428
(lp5156
g4935
asba(icmyPackage
Sent
p5157
(dp5158
g469
I3
sg470
I18
sg471
S'Clearly, these problems have magnified in the recent past and it seems likely that they will increase.'
p5159
sg473
I0
sg474
I90
sg428
(lp5160
g5131
asbasba(icmyPackage
CELink
p5161
(dp5162
g3
(lp5163
g5
(g6
g7
(lp5164
g5
(g6
g7
(lp5165
g5
(g6
g7
(lp5166
g5
(g6
g7
(lp5167
g5
(g6
g7
(lp5168
VipSec
p5169
atp5170
Rp5171
(dp5172
g17
VJJ
p5173
sbag5
(g6
g7
(lp5174
Veverywhere
p5175
atp5176
Rp5177
(dp5178
g17
VNNS
p5179
sbatp5180
Rp5181
(dp5182
g17
VNP
p5183
sbag5
(g6
g7
(lp5184
g536
atp5185
Rp5186
(dp5187
g17
g536
sbag5
(g6
g7
(lp5188
g5
(g6
g7
(lp5189
Vno
p5190
atp5191
Rp5192
(dp5193
g17
VDT
p5194
sbag5
(g6
g7
(lp5195
Vanonymous
p5196
atp5197
Rp5198
(dp5199
g17
VJJ
p5200
sbag5
(g6
g7
(lp5201
Vaccess
p5202
atp5203
Rp5204
(dp5205
g17
VNN
p5206
sbatp5207
Rp5208
(dp5209
g17
VNP
p5210
sbag5
(g6
g7
(lp5211
g536
atp5212
Rp5213
(dp5214
g17
g536
sbag5
(g6
g7
(lp5215
g5
(g6
g7
(lp5216
g5
(g6
g7
(lp5217
Vcareful
p5218
atp5219
Rp5220
(dp5221
g17
VJJ
p5222
sbag5
(g6
g7
(lp5223
Vtracing
p5224
atp5225
Rp5226
(dp5227
g17
VNNS
p5228
sbatp5229
Rp5230
(dp5231
g17
VNP
p5232
sbag5
(g6
g7
(lp5233
g5
(g6
g7
(lp5234
Vof
p5235
atp5236
Rp5237
(dp5238
g17
VIN
p5239
sbag5
(g6
g7
(lp5240
g5
(g6
g7
(lp5241
Vall
p5242
atp5243
Rp5244
(dp5245
g17
VDT
p5246
sbag5
(g6
g7
(lp5247
Vtraffic
p5248
atp5249
Rp5250
(dp5251
g17
VNN
p5252
sbatp5253
Rp5254
(dp5255
g17
VNP
p5256
sbatp5257
Rp5258
(dp5259
g17
VPP
p5260
sbatp5261
Rp5262
(dp5263
g17
VNP
p5264
sbag5
(g6
g7
(lp5265
g536
atp5266
Rp5267
(dp5268
g17
g536
sbag5
(g6
g7
(lp5269
Vand
p5270
atp5271
Rp5272
(dp5273
g17
VCC
p5274
sbag5
(g6
g7
(lp5275
g5
(g6
g7
(lp5276
Vother
p5277
atp5278
Rp5279
(dp5280
g17
VJJ
p5281
sbag5
(g6
g7
(lp5282
Vdraconian
p5283
atp5284
Rp5285
(dp5286
g17
VNNS
p5287
sbatp5288
Rp5289
(dp5290
g17
VNP
p5291
sbatp5292
Rp5293
(dp5294
g17
VNP
p5295
sbag5
(g6
g7
(lp5296
g5
(g6
g7
(lp5297
Vmeasures
p5298
atp5299
Rp5300
(dp5301
g17
VVBZ
p5302
sbag5
(g6
g7
(lp5303
g5
(g6
g7
(lp5304
g5
(g6
g7
(lp5305
Vto
p5306
atp5307
Rp5308
(dp5309
g17
VTO
p5310
sbag5
(g6
g7
(lp5311
g5
(g6
g7
(lp5312
Vmake
p5313
atp5314
Rp5315
(dp5316
g17
VVB
p5317
sbag5
(g6
g7
(lp5318
g5
(g6
g7
(lp5319
g5
(g6
g7
(lp5320
Vit
p5321
atp5322
Rp5323
(dp5324
g17
VPRP
p5325
sbatp5326
Rp5327
(dp5328
g17
VNP
p5329
sbag5
(g6
g7
(lp5330
g5
(g6
g7
(lp5331
Vmuch
p5332
atp5333
Rp5334
(dp5335
g17
VRB
p5336
sbag5
(g6
g7
(lp5337
Vmore
p5338
atp5339
Rp5340
(dp5341
g17
VRBR
p5342
sbag5
(g6
g7
(lp5343
Vdifficult
p5344
atp5345
Rp5346
(dp5347
g17
VJJ
p5348
sbatp5349
Rp5350
(dp5351
g17
VADJP
p5352
sbag5
(g6
g7
(lp5353
g5
(g6
g7
(lp5354
g5
(g6
g7
(lp5355
Vto
p5356
atp5357
Rp5358
(dp5359
g17
VTO
p5360
sbag5
(g6
g7
(lp5361
g5
(g6
g7
(lp5362
Vlaunch
p5363
atp5364
Rp5365
(dp5366
g17
VVB
p5367
sbag5
(g6
g7
(lp5368
g5
(g6
g7
(lp5369
Vthese
p5370
atp5371
Rp5372
(dp5373
g17
VDT
p5374
sbag5
(g6
g7
(lp5375
Vattacks
p5376
atp5377
Rp5378
(dp5379
g17
VNNS
p5380
sbatp5381
Rp5382
(dp5383
g17
VNP
p5384
sbatp5385
Rp5386
(dp5387
g17
VVP
p5388
sbatp5389
Rp5390
(dp5391
g17
VVP
p5392
sbatp5393
Rp5394
(dp5395
g17
g241
sbatp5396
Rp5397
(dp5398
g17
g241
sbatp5399
Rp5400
(dp5401
g17
VVP
p5402
sbatp5403
Rp5404
(dp5405
g17
VVP
p5406
sbatp5407
Rp5408
(dp5409
g17
g241
sbatp5410
Rp5411
(dp5412
g17
VVP
p5413
sbag5
(g6
g7
(lp5414
g410
atp5415
Rp5416
(dp5417
g17
g410
sbatp5418
Rp5419
(dp5420
g17
g241
sbatp5421
Rp5422
(dp5423
g17
VROOT
p5424
sbag5
(g6
g7
(lp5425
g5
(g6
g7
(lp5426
g5
(g6
g7
(lp5427
g5
(g6
g7
(lp5428
VSo
p5429
atp5430
Rp5431
(dp5432
g17
VRB
p5433
sbatp5434
Rp5435
(dp5436
g17
VADVP
p5437
sbag5
(g6
g7
(lp5438
g536
atp5439
Rp5440
(dp5441
g17
g536
sbag5
(g6
g7
(lp5442
g5
(g6
g7
(lp5443
g5
(g6
g7
(lp5444
Vyou
p5445
atp5446
Rp5447
(dp5448
g17
VPRP
p5449
sbatp5450
Rp5451
(dp5452
g17
VNP
p5453
sbag5
(g6
g7
(lp5454
g5
(g6
g7
(lp5455
Vfinally
p5456
atp5457
Rp5458
(dp5459
g17
VRB
p5460
sbatp5461
Rp5462
(dp5463
g17
VADVP
p5464
sbag5
(g6
g7
(lp5465
g5
(g6
g7
(lp5466
Vget
p5467
atp5468
Rp5469
(dp5470
g17
VVB
p5471
sbag5
(g6
g7
(lp5472
g5
(g6
g7
(lp5473
Vyour
p5474
atp5475
Rp5476
(dp5477
g17
VPRP$
p5478
sbag5
(g6
g7
(lp5479
Vsystem
p5480
atp5481
Rp5482
(dp5483
g17
VNN
p5484
sbag5
(g6
g7
(lp5485
Vworking
p5486
atp5487
Rp5488
(dp5489
g17
VNN
p5490
sbatp5491
Rp5492
(dp5493
g17
VNP
p5494
sbatp5495
Rp5496
(dp5497
g17
VVP
p5498
sbatp5499
Rp5500
(dp5501
g17
g241
sbag5
(g6
g7
(lp5502
Vand
p5503
atp5504
Rp5505
(dp5506
g17
VCC
p5507
sbag5
(g6
g7
(lp5508
g5
(g6
g7
(lp5509
g5
(g6
g7
(lp5510
Vin
p5511
atp5512
Rp5513
(dp5514
g17
VIN
p5515
sbag5
(g6
g7
(lp5516
g5
(g6
g7
(lp5517
Vfact
p5518
atp5519
Rp5520
(dp5521
g17
VNN
p5522
sbatp5523
Rp5524
(dp5525
g17
VNP
p5526
sbatp5527
Rp5528
(dp5529
g17
VPP
p5530
sbag5
(g6
g7
(lp5531
g5
(g6
g7
(lp5532
Vit
p5533
atp5534
Rp5535
(dp5536
g17
VPRP
p5537
sbatp5538
Rp5539
(dp5540
g17
VNP
p5541
sbag5
(g6
g7
(lp5542
g5
(g6
g7
(lp5543
Vis
p5544
atp5545
Rp5546
(dp5547
g17
VVBZ
p5548
sbag5
(g6
g7
(lp5549
g5
(g6
g7
(lp5550
Vdelivering
p5551
atp5552
Rp5553
(dp5554
g17
VVBG
p5555
sbag5
(g6
g7
(lp5556
g5
(g6
g7
(lp5557
Vclass-5
p5558
atp5559
Rp5560
(dp5561
g17
VJJ
p5562
sbag5
(g6
g7
(lp5563
Vavailability
p5564
atp5565
Rp5566
(dp5567
g17
VNN
p5568
sbatp5569
Rp5570
(dp5571
g17
VNP
p5572
sbatp5573
Rp5574
(dp5575
g17
VVP
p5576
sbatp5577
Rp5578
(dp5579
g17
VVP
p5580
sbatp5581
Rp5582
(dp5583
g17
g241
sbag5
(g6
g7
(lp5584
g410
atp5585
Rp5586
(dp5587
g17
g410
sbatp5588
Rp5589
(dp5590
g17
g241
sbatp5591
Rp5592
(dp5593
g17
VROOT
p5594
sbasg421
(icmyPackage
CorE
p5595
(dp5596
g424
(lp5597
(I0
I0
tp5598
a(I0
I26
tp5599
asg428
g5
(g6
g7
(lp5600
g5293
ag5411
atp5601
Rp5602
(dp5603
g17
g433
sbsbsg434
(icmyPackage
CorE
p5604
(dp5605
g424
(lp5606
(I1
I2
tp5607
a(I1
I16
tp5608
asg428
g5
(g6
g7
(lp5609
g5500
ag5505
ag5582
ag5586
atp5610
Rp5611
(dp5612
g17
g433
sbsbsg444
g816
sg465
(lp5613
(icmyPackage
Sent
p5614
(dp5615
g469
I3
sg470
I18
sg471
S'ipSec everywhere, no anonymous access, careful tracing of all traffic, and other draconian measures to make it much more difficult to launch these attacks.'
p5616
sg473
I0
sg474
I92
sg428
(lp5617
g5422
asba(icmyPackage
Sent
p5618
(dp5619
g469
I4
sg470
I19
sg471
S'So, you finally get your system working and in fact it is delivering class-5 availability.'
p5620
sg473
I0
sg474
I93
sg428
(lp5621
g5592
asbasba(icmyPackage
CELink
p5622
(dp5623
g3
(lp5624
g5
(g6
g7
(lp5625
g5
(g6
g7
(lp5626
g5
(g6
g7
(lp5627
g5
(g6
g7
(lp5628
VThings
p5629
atp5630
Rp5631
(dp5632
g17
VNNS
p5633
sbatp5634
Rp5635
(dp5636
g17
VNP
p5637
sbag5
(g6
g7
(lp5638
g5
(g6
g7
(lp5639
Vare
p5640
atp5641
Rp5642
(dp5643
g17
VVBP
p5644
sbag5
(g6
g7
(lp5645
g5
(g6
g7
(lp5646
Vgoing
p5647
atp5648
Rp5649
(dp5650
g17
VVBG
p5651
sbag5
(g6
g7
(lp5652
g5
(g6
g7
(lp5653
g5
(g6
g7
(lp5654
Vso
p5655
atp5656
Rp5657
(dp5658
g17
VRB
p5659
sbag5
(g6
g7
(lp5660
Vwell
p5661
atp5662
Rp5663
(dp5664
g17
VRB
p5665
sbatp5666
Rp5667
(dp5668
g17
VADVP
p5669
sbag5
(g6
g7
(lp5670
g5
(g6
g7
(lp5671
Vthat
p5672
atp5673
Rp5674
(dp5675
g17
VIN
p5676
sbag5
(g6
g7
(lp5677
g5
(g6
g7
(lp5678
g5
(g6
g7
(lp5679
Vthe
p5680
atp5681
Rp5682
(dp5683
g17
VDT
p5684
sbag5
(g6
g7
(lp5685
Vcompany
p5686
atp5687
Rp5688
(dp5689
g17
VNN
p5690
sbatp5691
Rp5692
(dp5693
g17
VNP
p5694
sbag5
(g6
g7
(lp5695
g5
(g6
g7
(lp5696
Vdecides
p5697
atp5698
Rp5699
(dp5700
g17
VVBZ
p5701
sbag5
(g6
g7
(lp5702
g5
(g6
g7
(lp5703
g5
(g6
g7
(lp5704
Vto
p5705
atp5706
Rp5707
(dp5708
g17
VTO
p5709
sbag5
(g6
g7
(lp5710
g5
(g6
g7
(lp5711
g5
(g6
g7
(lp5712
V-LRB-
p5713
atp5714
Rp5715
(dp5716
g17
V-LRB-
p5717
sbag5
(g6
g7
(lp5718
V1
p5719
atp5720
Rp5721
(dp5722
g17
VLS
p5723
sbag5
(g6
g7
(lp5724
V-RRB-
p5725
atp5726
Rp5727
(dp5728
g17
V-RRB-
p5729
sbatp5730
Rp5731
(dp5732
g17
VLST
p5733
sbag5
(g6
g7
(lp5734
Vdo
p5735
atp5736
Rp5737
(dp5738
g17
VVB
p5739
sbag5
(g6
g7
(lp5740
g5
(g6
g7
(lp5741
g852
atp5742
Rp5743
(dp5744
g17
VDT
p5745
sbag5
(g6
g7
(lp5746
Vleveraged
p5747
atp5748
Rp5749
(dp5750
g17
VJJ
p5751
sbag5
(g6
g7
(lp5752
Vbuyout
p5753
atp5754
Rp5755
(dp5756
g17
VNN
p5757
sbatp5758
Rp5759
(dp5760
g17
VNP
p5761
sbag5
(g6
g7
(lp5762
g5
(g6
g7
(lp5763
g5
(g6
g7
(lp5764
g5
(g6
g7
(lp5765
Vof
p5766
atp5767
Rp5768
(dp5769
g17
VIN
p5770
sbag5
(g6
g7
(lp5771
g5
(g6
g7
(lp5772
g852
atp5773
Rp5774
(dp5775
g17
VDT
p5776
sbag5
(g6
g7
(lp5777
g5
(g6
g7
(lp5778
Vmuch
p5779
atp5780
Rp5781
(dp5782
g17
VRB
p5783
sbag5
(g6
g7
(lp5784
Vlarger
p5785
atp5786
Rp5787
(dp5788
g17
VJJR
p5789
sbatp5790
Rp5791
(dp5792
g17
VADJP
p5793
sbag5
(g6
g7
(lp5794
Vcompany
p5795
atp5796
Rp5797
(dp5798
g17
VNN
p5799
sbatp5800
Rp5801
(dp5802
g17
VNP
p5803
sbatp5804
Rp5805
(dp5806
g17
VPP
p5807
sbag5
(g6
g7
(lp5808
Vand
p5809
atp5810
Rp5811
(dp5812
g17
VCC
p5813
sbag5
(g6
g7
(lp5814
g5
(g6
g7
(lp5815
g5
(g6
g7
(lp5816
Vasks
p5817
atp5818
Rp5819
(dp5820
g17
VVBZ
p5821
sbag5
(g6
g7
(lp5822
g5
(g6
g7
(lp5823
g5
(g6
g7
(lp5824
Vyou
p5825
atp5826
Rp5827
(dp5828
g17
VPRP
p5829
sbatp5830
Rp5831
(dp5832
g17
VNP
p5833
sbag5
(g6
g7
(lp5834
g5
(g6
g7
(lp5835
Vto
p5836
atp5837
Rp5838
(dp5839
g17
VTO
p5840
sbag5
(g6
g7
(lp5841
g5
(g6
g7
(lp5842
g5
(g6
g7
(lp5843
Vintegrate
p5844
atp5845
Rp5846
(dp5847
g17
VVB
p5848
sbag5
(g6
g7
(lp5849
g5
(g6
g7
(lp5850
Vyour
p5851
atp5852
Rp5853
(dp5854
g17
VPRP$
p5855
sbag5
(g6
g7
(lp5856
Vsite
p5857
atp5858
Rp5859
(dp5860
g17
VNN
p5861
sbatp5862
Rp5863
(dp5864
g17
VNP
p5865
sbag5
(g6
g7
(lp5866
g5
(g6
g7
(lp5867
Vwith
p5868
atp5869
Rp5870
(dp5871
g17
VIN
p5872
sbag5
(g6
g7
(lp5873
g5
(g6
g7
(lp5874
Vtheirs
p5875
atp5876
Rp5877
(dp5878
g17
VPRP
p5879
sbatp5880
Rp5881
(dp5882
g17
VNP
p5883
sbatp5884
Rp5885
(dp5886
g17
VPP
p5887
sbatp5888
Rp5889
(dp5890
g17
VVP
p5891
sbag5
(g6
g7
(lp5892
g536
atp5893
Rp5894
(dp5895
g17
g536
sbag5
(g6
g7
(lp5896
g5
(g6
g7
(lp5897
g5
(g6
g7
(lp5898
V-LRB-
p5899
atp5900
Rp5901
(dp5902
g17
V-LRB-
p5903
sbag5
(g6
g7
(lp5904
g5
(g6
g7
(lp5905
g1052
atp5906
Rp5907
(dp5908
g17
VCD
p5909
sbatp5910
Rp5911
(dp5912
g17
VNP
p5913
sbag5
(g6
g7
(lp5914
V-RRB-
p5915
atp5916
Rp5917
(dp5918
g17
V-RRB-
p5919
sbatp5920
Rp5921
(dp5922
g17
VPRN
p5923
sbag5
(g6
g7
(lp5924
Vform
p5925
atp5926
Rp5927
(dp5928
g17
VVB
p5929
sbag5
(g6
g7
(lp5930
g5
(g6
g7
(lp5931
g852
atp5932
Rp5933
(dp5934
g17
VDT
p5935
sbag5
(g6
g7
(lp5936
Vconsortium
p5937
atp5938
Rp5939
(dp5940
g17
VNN
p5941
sbatp5942
Rp5943
(dp5944
g17
VNP
p5945
sbag5
(g6
g7
(lp5946
g5
(g6
g7
(lp5947
Vwith
p5948
atp5949
Rp5950
(dp5951
g17
VIN
p5952
sbag5
(g6
g7
(lp5953
g5
(g6
g7
(lp5954
g5
(g6
g7
(lp5955
Vtwo
p5956
atp5957
Rp5958
(dp5959
g17
VCD
p5960
sbag5
(g6
g7
(lp5961
Vother
p5962
atp5963
Rp5964
(dp5965
g17
VJJ
p5966
sbag5
(g6
g7
(lp5967
Vcompanies
p5968
atp5969
Rp5970
(dp5971
g17
VNNS
p5972
sbatp5973
Rp5974
(dp5975
g17
VNP
p5976
sbag5
(g6
g7
(lp5977
g5
(g6
g7
(lp5978
Vto
p5979
atp5980
Rp5981
(dp5982
g17
VTO
p5983
sbag5
(g6
g7
(lp5984
g5
(g6
g7
(lp5985
Vprovide
p5986
atp5987
Rp5988
(dp5989
g17
VVB
p5990
sbag5
(g6
g7
(lp5991
g5
(g6
g7
(lp5992
Vsome
p5993
atp5994
Rp5995
(dp5996
g17
VDT
p5997
sbag5
(g6
g7
(lp5998
Vnew
p5999
atp6000
Rp6001
(dp6002
g17
VJJ
p6003
sbag5
(g6
g7
(lp6004
Vservices
p6005
atp6006
Rp6007
(dp6008
g17
VNNS
p6009
sbatp6010
Rp6011
(dp6012
g17
VNP
p6013
sbatp6014
Rp6015
(dp6016
g17
VVP
p6017
sbatp6018
Rp6019
(dp6020
g17
VVP
p6021
sbatp6022
Rp6023
(dp6024
g17
g241
sbatp6025
Rp6026
(dp6027
g17
VSBAR
p6028
sbatp6029
Rp6030
(dp6031
g17
VVP
p6032
sbag5
(g6
g7
(lp6033
g536
atp6034
Rp6035
(dp6036
g17
g536
sbag5
(g6
g7
(lp6037
g5
(g6
g7
(lp6038
g5
(g6
g7
(lp6039
V-LRB-
p6040
atp6041
Rp6042
(dp6043
g17
V-LRB-
p6044
sbag5
(g6
g7
(lp6045
V3
p6046
atp6047
Rp6048
(dp6049
g17
VLS
p6050
sbag5
(g6
g7
(lp6051
V-RRB-
p6052
atp6053
Rp6054
(dp6055
g17
V-RRB-
p6056
sbatp6057
Rp6058
(dp6059
g17
VLST
p6060
sbag5
(g6
g7
(lp6061
Vinternationalize
p6062
atp6063
Rp6064
(dp6065
g17
VVB
p6066
sbag5
(g6
g7
(lp6067
g5
(g6
g7
(lp6068
Vthe
p6069
atp6070
Rp6071
(dp6072
g17
VDT
p6073
sbag5
(g6
g7
(lp6074
Voperation
p6075
atp6076
Rp6077
(dp6078
g17
VNN
p6079
sbatp6080
Rp6081
(dp6082
g17
VNP
p6083
sbag5
(g6
g7
(lp6084
g5
(g6
g7
(lp6085
g5
(g6
g7
(lp6086
Voffering
p6087
atp6088
Rp6089
(dp6090
g17
VVBG
p6091
sbag5
(g6
g7
(lp6092
g5
(g6
g7
(lp6093
g5
(g6
g7
(lp6094
g5
(g6
g7
(lp6095
Vservices
p6096
atp6097
Rp6098
(dp6099
g17
VNNS
p6100
sbatp6101
Rp6102
(dp6103
g17
VNP
p6104
sbag5
(g6
g7
(lp6105
g5
(g6
g7
(lp6106
Vin
p6107
atp6108
Rp6109
(dp6110
g17
VIN
p6111
sbag5
(g6
g7
(lp6112
g5
(g6
g7
(lp6113
Vthe
p6114
atp6115
Rp6116
(dp6117
g17
VDT
p6118
sbag5
(g6
g7
(lp6119
V20
p6120
atp6121
Rp6122
(dp6123
g17
VCD
p6124
sbag5
(g6
g7
(lp6125
Vmajor
p6126
atp6127
Rp6128
(dp6129
g17
VJJ
p6130
sbag5
(g6
g7
(lp6131
Vlanguages
p6132
atp6133
Rp6134
(dp6135
g17
VNNS
p6136
sbatp6137
Rp6138
(dp6139
g17
VNP
p6140
sbatp6141
Rp6142
(dp6143
g17
VPP
p6144
sbatp6145
Rp6146
(dp6147
g17
VNP
p6148
sbag5
(g6
g7
(lp6149
Vand
p6150
atp6151
Rp6152
(dp6153
g17
VCC
p6154
sbag5
(g6
g7
(lp6155
g5
(g6
g7
(lp6156
g5
(g6
g7
(lp6157
V50
p6158
atp6159
Rp6160
(dp6161
g17
VCD
p6162
sbag5
(g6
g7
(lp6163
Vmajor
p6164
atp6165
Rp6166
(dp6167
g17
VJJ
p6168
sbag5
(g6
g7
(lp6169
Vcurrencies
p6170
atp6171
Rp6172
(dp6173
g17
VNNS
p6174
sbatp6175
Rp6176
(dp6177
g17
VNP
p6178
sbag5
(g6
g7
(lp6179
Vand
p6180
atp6181
Rp6182
(dp6183
g17
VCC
p6184
sbag5
(g6
g7
(lp6185
g5
(g6
g7
(lp6186
V500
p6187
atp6188
Rp6189
(dp6190
g17
VCD
p6191
sbag5
(g6
g7
(lp6192
Vtax
p6193
atp6194
Rp6195
(dp6196
g17
VNN
p6197
sbag5
(g6
g7
(lp6198
Vcodes
p6199
atp6200
Rp6201
(dp6202
g17
VNNS
p6203
sbatp6204
Rp6205
(dp6206
g17
VNP
p6207
sbatp6208
Rp6209
(dp6210
g17
VNP
p6211
sbatp6212
Rp6213
(dp6214
g17
VNP
p6215
sbatp6216
Rp6217
(dp6218
g17
VVP
p6219
sbatp6220
Rp6221
(dp6222
g17
g241
sbatp6223
Rp6224
(dp6225
g17
VVP
p6226
sbag5
(g6
g7
(lp6227
g536
atp6228
Rp6229
(dp6230
g17
g536
sbag5
(g6
g7
(lp6231
Vand
p6232
atp6233
Rp6234
(dp6235
g17
VCC
p6236
sbag5
(g6
g7
(lp6237
g5
(g6
g7
(lp6238
g5
(g6
g7
(lp6239
V-LRB-
p6240
atp6241
Rp6242
(dp6243
g17
V-LRB-
p6244
sbag5
(g6
g7
(lp6245
V4
p6246
atp6247
Rp6248
(dp6249
g17
VLS
p6250
sbag5
(g6
g7
(lp6251
V-RRB-
p6252
atp6253
Rp6254
(dp6255
g17
V-RRB-
p6256
sbatp6257
Rp6258
(dp6259
g17
VLST
p6260
sbag5
(g6
g7
(lp6261
Vembrace
p6262
atp6263
Rp6264
(dp6265
g17
VVB
p6266
sbag5
(g6
g7
(lp6267
g5
(g6
g7
(lp6268
Vthe
p6269
atp6270
Rp6271
(dp6272
g17
VDT
p6273
sbag5
(g6
g7
(lp6274
Vlatest
p6275
atp6276
Rp6277
(dp6278
g17
VJJS
p6279
sbag5
(g6
g7
(lp6280
Vtechnology
p6281
atp6282
Rp6283
(dp6284
g17
VNN
p6285
sbatp6286
Rp6287
(dp6288
g17
VNP
p6289
sbag5
(g6
g7
(lp6290
g5
(g6
g7
(lp6291
g5
(g6
g7
(lp6292
g5
(g6
g7
(lp6293
Vfad
p6294
atp6295
Rp6296
(dp6297
g17
VNN
p6298
sbatp6299
Rp6300
(dp6301
g17
VNP
p6302
sbag5
(g6
g7
(lp6303
g536
atp6304
Rp6305
(dp6306
g17
g536
sbag5
(g6
g7
(lp6307
g5
(g6
g7
(lp6308
g5
(g6
g7
(lp6309
Vwhich
p6310
atp6311
Rp6312
(dp6313
g17
VWDT
p6314
sbatp6315
Rp6316
(dp6317
g17
VWHNP
p6318
sbag5
(g6
g7
(lp6319
g5
(g6
g7
(lp6320
g5
(g6
g7
(lp6321
Vtoday
p6322
atp6323
Rp6324
(dp6325
g17
VNN
p6326
sbatp6327
Rp6328
(dp6329
g17
VNP
p6330
sbag5
(g6
g7
(lp6331
g5
(g6
g7
(lp6332
Vis
p6333
atp6334
Rp6335
(dp6336
g17
VVBZ
p6337
sbag5
(g6
g7
(lp6338
g5
(g6
g7
(lp6339
g5
(g6
g7
(lp6340
VUDDI
p6341
atp6342
Rp6343
(dp6344
g17
VNNP
p6345
sbatp6346
Rp6347
(dp6348
g17
VNP
p6349
sbag5
(g6
g7
(lp6350
g536
atp6351
Rp6352
(dp6353
g17
g536
sbag5
(g6
g7
(lp6354
g5
(g6
g7
(lp6355
VWSDL
p6356
atp6357
Rp6358
(dp6359
g17
VNNP
p6360
sbatp6361
Rp6362
(dp6363
g17
VNP
p6364
sbag5
(g6
g7
(lp6365
g536
atp6366
Rp6367
(dp6368
g17
g536
sbag5
(g6
g7
(lp6369
g5
(g6
g7
(lp6370
Vschemas
p6371
atp6372
Rp6373
(dp6374
g17
VNNS
p6375
sbatp6376
Rp6377
(dp6378
g17
VNP
p6379
sbag5
(g6
g7
(lp6380
g536
atp6381
Rp6382
(dp6383
g17
g536
sbag5
(g6
g7
(lp6384
g5
(g6
g7
(lp6385
VXLANG
p6386
atp6387
Rp6388
(dp6389
g17
VNNP
p6390
sbatp6391
Rp6392
(dp6393
g17
VNP
p6394
sbag5
(g6
g7
(lp6395
g536
atp6396
Rp6397
(dp6398
g17
g536
sbag5
(g6
g7
(lp6399
g5
(g6
g7
(lp6400
VSOAP
p6401
atp6402
Rp6403
(dp6404
g17
VNNP
p6405
sbatp6406
Rp6407
(dp6408
g17
VNP
p6409
sbag5
(g6
g7
(lp6410
g536
atp6411
Rp6412
(dp6413
g17
g536
sbag5
(g6
g7
(lp6414
Vand
p6415
atp6416
Rp6417
(dp6418
g17
VCC
p6419
sbag5
(g6
g7
(lp6420
g5
(g6
g7
(lp6421
VXML
p6422
atp6423
Rp6424
(dp6425
g17
VNN
p6426
sbatp6427
Rp6428
(dp6429
g17
VNP
p6430
sbatp6431
Rp6432
(dp6433
g17
VNP
p6434
sbatp6435
Rp6436
(dp6437
g17
VVP
p6438
sbatp6439
Rp6440
(dp6441
g17
g241
sbatp6442
Rp6443
(dp6444
g17
VSBAR
p6445
sbatp6446
Rp6447
(dp6448
g17
VNP
p6449
sbatp6450
Rp6451
(dp6452
g17
g241
sbatp6453
Rp6454
(dp6455
g17
VVP
p6456
sbatp6457
Rp6458
(dp6459
g17
VVP
p6460
sbatp6461
Rp6462
(dp6463
g17
VVP
p6464
sbatp6465
Rp6466
(dp6467
g17
g241
sbatp6468
Rp6469
(dp6470
g17
VVP
p6471
sbatp6472
Rp6473
(dp6474
g17
g241
sbatp6475
Rp6476
(dp6477
g17
VUCP
p6478
sbatp6479
Rp6480
(dp6481
g17
g241
sbatp6482
Rp6483
(dp6484
g17
VVP
p6485
sbatp6486
Rp6487
(dp6488
g17
VVP
p6489
sbatp6490
Rp6491
(dp6492
g17
g241
sbatp6493
Rp6494
(dp6495
g17
VVP
p6496
sbatp6497
Rp6498
(dp6499
g17
g241
sbatp6500
Rp6501
(dp6502
g17
VSBAR
p6503
sbatp6504
Rp6505
(dp6506
g17
VADVP
p6507
sbatp6508
Rp6509
(dp6510
g17
VVP
p6511
sbatp6512
Rp6513
(dp6514
g17
VVP
p6515
sbag5
(g6
g7
(lp6516
g410
atp6517
Rp6518
(dp6519
g17
g410
sbatp6520
Rp6521
(dp6522
g17
g241
sbatp6523
Rp6524
(dp6525
g17
VROOT
p6526
sbasg421
(icmyPackage
CorE
p6527
(dp6528
g424
(lp6529
(I0
I0
tp6530
a(I0
I4
tp6531
asg428
g5
(g6
g7
(lp6532
g5635
ag5642
ag5649
ag5667
atp6533
Rp6534
(dp6535
g17
g433
sbsbsg434
(icmyPackage
CorE
p6536
(dp6537
g424
(lp6538
(I0
I6
tp6539
a(I0
I95
tp6540
asg428
g5
(g6
g7
(lp6541
g6498
ag6518
atp6542
Rp6543
(dp6544
g17
g433
sbsbsg444
(icmyPackage
pattern
p6545
(dp6546
g447
I47
sg448
I0
sg449
(lp6547
(lp6548
S'so'
p6549
aa(lp6550
S'that'
p6551
aasg453
(lp6552
I3
aI3
aI1
asg455
(lp6553
S'She got so angry that she ran after them.'
p6554
aS'My tooth was aching so much that I had to have it out.'
p6555
aS'She found them so overwhelming that she burst into tears.'
p6556
asg458
I82
sg459
(lp6557
(lp6558
S'&C'
p6559
aa(lp6560
S'&adj/&adv@C@'
p6561
aa(lp6562
S'&R'
p6563
aasbsg465
(lp6564
(icmyPackage
Sent
p6565
(dp6566
g469
I4
sg470
I19
sg471
S'Things are going so well that the company decides to (1) do a leveraged buyout of a much larger company and asks you to integrate your site with theirs, (2) form a consortium with two other companies to provide some new services, (3) internationalize the operation offering services in the 20 major languages and 50 major currencies and 500 tax codes, and (4) embrace the latest technology fad, which today is UDDI, WSDL, schemas, XLANG, SOAP, and XML.'
p6567
sg473
I0
sg474
I95
sg428
(lp6568
g6524
asbasba(icmyPackage
CELink
p6569
(dp6570
g3
(lp6571
g5
(g6
g7
(lp6572
g5
(g6
g7
(lp6573
g5
(g6
g7
(lp6574
g5
(g6
g7
(lp6575
g80
atp6576
Rp6577
(dp6578
g17
VPRP
p6579
sbatp6580
Rp6581
(dp6582
g17
VNP
p6583
sbag5
(g6
g7
(lp6584
g5
(g6
g7
(lp6585
Vconfess
p6586
atp6587
Rp6588
(dp6589
g17
VVBZ
p6590
sbag5
(g6
g7
(lp6591
g5
(g6
g7
(lp6592
Vto
p6593
atp6594
Rp6595
(dp6596
g17
VTO
p6597
sbag5
(g6
g7
(lp6598
g5
(g6
g7
(lp6599
g5
(g6
g7
(lp6600
Vhaving
p6601
atp6602
Rp6603
(dp6604
g17
VVBG
p6605
sbag5
(g6
g7
(lp6606
g5
(g6
g7
(lp6607
g5
(g6
g7
(lp6608
g5
(g6
g7
(lp6609
Vdrunk
p6610
atp6611
Rp6612
(dp6613
g17
VNNP
p6614
sbag5
(g6
g7
(lp6615
Vthe
p6616
atp6617
Rp6618
(dp6619
g17
VNNP
p6620
sbag5
(g6
g7
(lp6621
g410
atp6622
Rp6623
(dp6624
g17
g410
sbag5
(g6
g7
(lp6625
VNET
p6626
atp6627
Rp6628
(dp6629
g17
VNNP
p6630
sbatp6631
Rp6632
(dp6633
g17
VNP
p6634
sbag5
(g6
g7
(lp6635
g5
(g6
g7
(lp6636
Vcool-aid
p6637
atp6638
Rp6639
(dp6640
g17
VJJ
p6641
sbag5
(g6
g7
(lp6642
Vand
p6643
atp6644
Rp6645
(dp6646
g17
VCC
p6647
sbag5
(g6
g7
(lp6648
Vso
p6649
atp6650
Rp6651
(dp6652
g17
VRB
p6653
sbatp6654
Rp6655
(dp6656
g17
VADJP
p6657
sbatp6658
Rp6659
(dp6660
g17
VNP
p6661
sbag5
(g6
g7
(lp6662
g5
(g6
g7
(lp6663
Vagree
p6664
atp6665
Rp6666
(dp6667
g17
VVB
p6668
sbag5
(g6
g7
(lp6669
g5
(g6
g7
(lp6670
Vthat
p6671
atp6672
Rp6673
(dp6674
g17
VIN
p6675
sbag5
(g6
g7
(lp6676
g5
(g6
g7
(lp6677
g5
(g6
g7
(lp6678
g5
(g6
g7
(lp6679
VUDDI
p6680
atp6681
Rp6682
(dp6683
g17
VNNP
p6684
sbag5
(g6
g7
(lp6685
g536
atp6686
Rp6687
(dp6688
g17
g536
sbag5
(g6
g7
(lp6689
VWSDL
p6690
atp6691
Rp6692
(dp6693
g17
VNNP
p6694
sbag5
(g6
g7
(lp6695
g536
atp6696
Rp6697
(dp6698
g17
g536
sbag5
(g6
g7
(lp6699
Vschemas
p6700
atp6701
Rp6702
(dp6703
g17
VNNP
p6704
sbag5
(g6
g7
(lp6705
g536
atp6706
Rp6707
(dp6708
g17
g536
sbag5
(g6
g7
(lp6709
VXLANG
p6710
atp6711
Rp6712
(dp6713
g17
VNNP
p6714
sbag5
(g6
g7
(lp6715
g536
atp6716
Rp6717
(dp6718
g17
g536
sbag5
(g6
g7
(lp6719
VSOAP
p6720
atp6721
Rp6722
(dp6723
g17
VNNP
p6724
sbag5
(g6
g7
(lp6725
g536
atp6726
Rp6727
(dp6728
g17
g536
sbatp6729
Rp6730
(dp6731
g17
VNP
p6732
sbag5
(g6
g7
(lp6733
Vand
p6734
atp6735
Rp6736
(dp6737
g17
VCC
p6738
sbag5
(g6
g7
(lp6739
g5
(g6
g7
(lp6740
VXML
p6741
atp6742
Rp6743
(dp6744
g17
VNN
p6745
sbag5
(g6
g7
(lp6746
Vhelp
p6747
atp6748
Rp6749
(dp6750
g17
VNN
p6751
sbatp6752
Rp6753
(dp6754
g17
VNP
p6755
sbatp6756
Rp6757
(dp6758
g17
VNP
p6759
sbag5
(g6
g7
(lp6760
g5
(g6
g7
(lp6761
Vmake
p6762
atp6763
Rp6764
(dp6765
g17
VVBP
p6766
sbag5
(g6
g7
(lp6767
g5
(g6
g7
(lp6768
g5
(g6
g7
(lp6769
Vapplications
p6770
atp6771
Rp6772
(dp6773
g17
VNNS
p6774
sbatp6775
Rp6776
(dp6777
g17
VNP
p6778
sbag5
(g6
g7
(lp6779
g5
(g6
g7
(lp6780
Vmore
p6781
atp6782
Rp6783
(dp6784
g17
VRBR
p6785
sbag5
(g6
g7
(lp6786
Vagile
p6787
atp6788
Rp6789
(dp6790
g17
VJJ
p6791
sbatp6792
Rp6793
(dp6794
g17
VADJP
p6795
sbatp6796
Rp6797
(dp6798
g17
g241
sbatp6799
Rp6800
(dp6801
g17
VVP
p6802
sbatp6803
Rp6804
(dp6805
g17
g241
sbatp6806
Rp6807
(dp6808
g17
VSBAR
p6809
sbatp6810
Rp6811
(dp6812
g17
VVP
p6813
sbatp6814
Rp6815
(dp6816
g17
g241
sbatp6817
Rp6818
(dp6819
g17
VVP
p6820
sbatp6821
Rp6822
(dp6823
g17
g241
sbatp6824
Rp6825
(dp6826
g17
VPP
p6827
sbatp6828
Rp6829
(dp6830
g17
VVP
p6831
sbag5
(g6
g7
(lp6832
g410
atp6833
Rp6834
(dp6835
g17
g410
sbatp6836
Rp6837
(dp6838
g17
g241
sbatp6839
Rp6840
(dp6841
g17
VROOT
p6842
sbasg421
(icmyPackage
CorE
p6843
(dp6844
g424
(lp6845
(I0
I0
tp6846
a(I0
I8
tp6847
asg428
g5
(g6
g7
(lp6848
g6581
ag6588
ag6595
ag6603
ag6632
ag6639
atp6849
Rp6850
(dp6851
g17
g433
sbsbsg434
(icmyPackage
CorE
p6852
(dp6853
g424
(lp6854
(I0
I11
tp6855
a(I0
I30
tp6856
asg428
g5
(g6
g7
(lp6857
g6811
ag6834
atp6858
Rp6859
(dp6860
g17
g433
sbsbsg444
g816
sg465
(lp6861
(icmyPackage
Sent
p6862
(dp6863
g469
I4
sg470
I21
sg471
S'I confess to having drunk the .NET cool-aid and so agree that UDDI, WSDL, schemas, XLANG, SOAP, and XML help make applications more agile.'
p6864
sg473
I0
sg474
I99
sg428
(lp6865
g6840
asbasba(icmyPackage
CELink
p6866
(dp6867
g3
(lp6868
g5
(g6
g7
(lp6869
g5
(g6
g7
(lp6870
g5
(g6
g7
(lp6871
g5
(g6
g7
(lp6872
g5
(g6
g7
(lp6873
VIf
p6874
atp6875
Rp6876
(dp6877
g17
VIN
p6878
sbag5
(g6
g7
(lp6879
g5
(g6
g7
(lp6880
g5
(g6
g7
(lp6881
Vyou
p6882
atp6883
Rp6884
(dp6885
g17
VPRP
p6886
sbatp6887
Rp6888
(dp6889
g17
VNP
p6890
sbag5
(g6
g7
(lp6891
g5
(g6
g7
(lp6892
Vare
p6893
atp6894
Rp6895
(dp6896
g17
VVBP
p6897
sbag5
(g6
g7
(lp6898
g5
(g6
g7
(lp6899
Vold
p6900
atp6901
Rp6902
(dp6903
g17
VJJ
p6904
sbag5
(g6
g7
(lp6905
Venough
p6906
atp6907
Rp6908
(dp6909
g17
VRB
p6910
sbag5
(g6
g7
(lp6911
g5
(g6
g7
(lp6912
g5
(g6
g7
(lp6913
Vto
p6914
atp6915
Rp6916
(dp6917
g17
VTO
p6918
sbag5
(g6
g7
(lp6919
g5
(g6
g7
(lp6920
Vremember
p6921
atp6922
Rp6923
(dp6924
g17
VVB
p6925
sbag5
(g6
g7
(lp6926
g5
(g6
g7
(lp6927
g5
(g6
g7
(lp6928
Vwhat
p6929
atp6930
Rp6931
(dp6932
g17
VWP
p6933
sbatp6934
Rp6935
(dp6936
g17
VWHNP
p6937
sbag5
(g6
g7
(lp6938
g5
(g6
g7
(lp6939
g5
(g6
g7
(lp6940
VFormats
p6941
atp6942
Rp6943
(dp6944
g17
VNNPS
p6945
sbag5
(g6
g7
(lp6946
Vand
p6947
atp6948
Rp6949
(dp6950
g17
VCC
p6951
sbag5
(g6
g7
(lp6952
VProtocols
p6953
atp6954
Rp6955
(dp6956
g17
VNNPS
p6957
sbatp6958
Rp6959
(dp6960
g17
VNP
p6961
sbag5
(g6
g7
(lp6962
g5
(g6
g7
(lp6963
Vmeans
p6964
atp6965
Rp6966
(dp6967
g17
VVBZ
p6968
sbatp6969
Rp6970
(dp6971
g17
VVP
p6972
sbatp6973
Rp6974
(dp6975
g17
g241
sbatp6976
Rp6977
(dp6978
g17
VSBAR
p6979
sbatp6980
Rp6981
(dp6982
g17
VVP
p6983
sbatp6984
Rp6985
(dp6986
g17
VVP
p6987
sbatp6988
Rp6989
(dp6990
g17
g241
sbatp6991
Rp6992
(dp6993
g17
VADJP
p6994
sbag5
(g6
g7
(lp6995
g5
(g6
g7
(lp6996
V-LRB-
p6997
atp6998
Rp6999
(dp7000
g17
V-LRB-
p7001
sbag5
(g6
g7
(lp7002
g5
(g6
g7
(lp7003
VFAP
p7004
atp7005
Rp7006
(dp7007
g17
VNNP
p7008
sbatp7009
Rp7010
(dp7011
g17
VNP
p7012
sbag5
(g6
g7
(lp7013
V-RRB-
p7014
atp7015
Rp7016
(dp7017
g17
V-RRB-
p7018
sbatp7019
Rp7020
(dp7021
g17
VPRN
p7022
sbatp7023
Rp7024
(dp7025
g17
VVP
p7026
sbatp7027
Rp7028
(dp7029
g17
g241
sbatp7030
Rp7031
(dp7032
g17
VSBAR
p7033
sbag5
(g6
g7
(lp7034
g536
atp7035
Rp7036
(dp7037
g17
g536
sbag5
(g6
g7
(lp7038
g5
(g6
g7
(lp7039
Vschemas
p7040
atp7041
Rp7042
(dp7043
g17
VNNP
p7044
sbag5
(g6
g7
(lp7045
g536
atp7046
Rp7047
(dp7048
g17
g536
sbag5
(g6
g7
(lp7049
VWSDL
p7050
atp7051
Rp7052
(dp7053
g17
VNNP
p7054
sbag5
(g6
g7
(lp7055
g536
atp7056
Rp7057
(dp7058
g17
g536
sbag5
(g6
g7
(lp7059
Vand
p7060
atp7061
Rp7062
(dp7063
g17
VCC
p7064
sbag5
(g6
g7
(lp7065
VSOAP
p7066
atp7067
Rp7068
(dp7069
g17
VNNP
p7070
sbatp7071
Rp7072
(dp7073
g17
VNP
p7074
sbag5
(g6
g7
(lp7075
g5
(g6
g7
(lp7076
Vare
p7077
atp7078
Rp7079
(dp7080
g17
VVBP
p7081
sbag5
(g6
g7
(lp7082
g5
(g6
g7
(lp7083
Vformats
p7084
atp7085
Rp7086
(dp7087
g17
VNNS
p7088
sbatp7089
Rp7090
(dp7091
g17
VNP
p7092
sbatp7093
Rp7094
(dp7095
g17
VVP
p7096
sbatp7097
Rp7098
(dp7099
g17
g241
sbag5
(g6
g7
(lp7100
g536
atp7101
Rp7102
(dp7103
g17
g536
sbag5
(g6
g7
(lp7104
g5
(g6
g7
(lp7105
VXLANG
p7106
atp7107
Rp7108
(dp7109
g17
VNNP
p7110
sbatp7111
Rp7112
(dp7113
g17
VNP
p7114
sbag5
(g6
g7
(lp7115
g5
(g6
g7
(lp7116
Vis
p7117
atp7118
Rp7119
(dp7120
g17
VVBZ
p7121
sbag5
(g6
g7
(lp7122
g5
(g6
g7
(lp7123
Vprotocols
p7124
atp7125
Rp7126
(dp7127
g17
VNNS
p7128
sbatp7129
Rp7130
(dp7131
g17
VNP
p7132
sbatp7133
Rp7134
(dp7135
g17
VVP
p7136
sbag5
(g6
g7
(lp7137
g410
atp7138
Rp7139
(dp7140
g17
g410
sbatp7141
Rp7142
(dp7143
g17
g241
sbatp7144
Rp7145
(dp7146
g17
VROOT
p7147
sbasg421
(icmyPackage
CorE
p7148
(dp7149
g424
(lp7150
(I0
I1
tp7151
a(I0
I14
tp7152
asg428
g7028
sbsg434
(icmyPackage
CorE
p7153
(dp7154
g424
(lp7155
(I0
I16
tp7156
a(I0
I28
tp7157
asg428
g5
(g6
g7
(lp7158
g7072
ag7094
ag7102
ag7112
ag7134
ag7139
atp7159
Rp7160
(dp7161
g17
g433
sbsbsg444
g632
sg465
(lp7162
(icmyPackage
Sent
p7163
(dp7164
g469
I4
sg470
I21
sg471
S'If you are old enough to remember what Formats and Protocols means (FAP), schemas, WSDL, and SOAP are formats, XLANG is protocols.'
p7165
sg473
I0
sg474
I103
sg428
(lp7166
g7145
asbasba(icmyPackage
CELink
p7167
(dp7168
g3
(lp7169
g5
(g6
g7
(lp7170
g5
(g6
g7
(lp7171
g5
(g6
g7
(lp7172
g5
(g6
g7
(lp7173
VThat
p7174
atp7175
Rp7176
(dp7177
g17
VDT
p7178
sbag5
(g6
g7
(lp7179
Voperating
p7180
atp7181
Rp7182
(dp7183
g17
VVBG
p7184
sbag5
(g6
g7
(lp7185
Vsystem
p7186
atp7187
Rp7188
(dp7189
g17
VNN
p7190
sbatp7191
Rp7192
(dp7193
g17
VNP
p7194
sbag5
(g6
g7
(lp7195
g5
(g6
g7
(lp7196
Vtuned
p7197
atp7198
Rp7199
(dp7200
g17
VVBD
p7201
sbag5
(g6
g7
(lp7202
g5
(g6
g7
(lp7203
Vitself
p7204
atp7205
Rp7206
(dp7207
g17
VPRP
p7208
sbatp7209
Rp7210
(dp7211
g17
VNP
p7212
sbag5
(g6
g7
(lp7213
g5
(g6
g7
(lp7214
Vas
p7215
atp7216
Rp7217
(dp7218
g17
VIN
p7219
sbag5
(g6
g7
(lp7220
g5
(g6
g7
(lp7221
g5
(g6
g7
(lp7222
Vit
p7223
atp7224
Rp7225
(dp7226
g17
VPRP
p7227
sbatp7228
Rp7229
(dp7230
g17
VNP
p7231
sbag5
(g6
g7
(lp7232
g5
(g6
g7
(lp7233
Vobserved
p7234
atp7235
Rp7236
(dp7237
g17
VVBD
p7238
sbag5
(g6
g7
(lp7239
g5
(g6
g7
(lp7240
Vthe
p7241
atp7242
Rp7243
(dp7244
g17
VDT
p7245
sbag5
(g6
g7
(lp7246
Vsystem
p7247
atp7248
Rp7249
(dp7250
g17
VNN
p7251
sbag5
(g6
g7
(lp7252
Vload
p7253
atp7254
Rp7255
(dp7256
g17
VNN
p7257
sbatp7258
Rp7259
(dp7260
g17
VNP
p7261
sbatp7262
Rp7263
(dp7264
g17
VVP
p7265
sbatp7266
Rp7267
(dp7268
g17
g241
sbatp7269
Rp7270
(dp7271
g17
VSBAR
p7272
sbatp7273
Rp7274
(dp7275
g17
VVP
p7276
sbag5
(g6
g7
(lp7277
g410
atp7278
Rp7279
(dp7280
g17
g410
sbatp7281
Rp7282
(dp7283
g17
g241
sbatp7284
Rp7285
(dp7286
g17
VROOT
p7287
sbasg421
(icmyPackage
CorE
p7288
(dp7289
g424
(lp7290
(I0
I6
tp7291
a(I0
I11
tp7292
asg428
g5
(g6
g7
(lp7293
g7267
ag7279
atp7294
Rp7295
(dp7296
g17
g433
sbsbsg434
(icmyPackage
CorE
p7297
(dp7298
g424
(lp7299
(I0
I0
tp7300
a(I0
I4
tp7301
asg428
g5
(g6
g7
(lp7302
g7192
ag7199
ag7210
atp7303
Rp7304
(dp7305
g17
g433
sbsbsg444
g1017
sg465
(lp7306
(icmyPackage
Sent
p7307
(dp7308
g469
I5
sg470
I27
sg471
S'That operating system tuned itself as it observed the system load.'
p7309
sg473
I0
sg474
I125
sg428
(lp7310
g7285
asbasba(icmyPackage
CELink
p7311
(dp7312
g3
(lp7313
g5
(g6
g7
(lp7314
g5
(g6
g7
(lp7315
g5
(g6
g7
(lp7316
g5
(g6
g7
(lp7317
VMy
p7318
atp7319
Rp7320
(dp7321
g17
VPRP$
p7322
sbag5
(g6
g7
(lp7323
Vsense
p7324
atp7325
Rp7326
(dp7327
g17
VNN
p7328
sbatp7329
Rp7330
(dp7331
g17
VNP
p7332
sbag5
(g6
g7
(lp7333
g5
(g6
g7
(lp7334
Vis
p7335
atp7336
Rp7337
(dp7338
g17
VVBZ
p7339
sbag5
(g6
g7
(lp7340
g5
(g6
g7
(lp7341
Vthat
p7342
atp7343
Rp7344
(dp7345
g17
VIN
p7346
sbag5
(g6
g7
(lp7347
g5
(g6
g7
(lp7348
g5
(g6
g7
(lp7349
Vis
p7350
atp7351
Rp7352
(dp7353
g17
VVBZ
p7354
sbag5
(g6
g7
(lp7355
g5
(g6
g7
(lp7356
Veasy
p7357
atp7358
Rp7359
(dp7360
g17
VJJ
p7361
sbag5
(g6
g7
(lp7362
g5
(g6
g7
(lp7363
g5
(g6
g7
(lp7364
Vto
p7365
atp7366
Rp7367
(dp7368
g17
VTO
p7369
sbag5
(g6
g7
(lp7370
g5
(g6
g7
(lp7371
Vmake
p7372
atp7373
Rp7374
(dp7375
g17
VVB
p7376
sbag5
(g6
g7
(lp7377
g5
(g6
g7
(lp7378
g5
(g6
g7
(lp7379
Vthings
p7380
atp7381
Rp7382
(dp7383
g17
VNNS
p7384
sbatp7385
Rp7386
(dp7387
g17
VNP
p7388
sbag5
(g6
g7
(lp7389
g5
(g6
g7
(lp7390
Vwork
p7391
atp7392
Rp7393
(dp7394
g17
VVB
p7395
sbag5
(g6
g7
(lp7396
g5
(g6
g7
(lp7397
Vif
p7398
atp7399
Rp7400
(dp7401
g17
VIN
p7402
sbag5
(g6
g7
(lp7403
g5
(g6
g7
(lp7404
g5
(g6
g7
(lp7405
Veverything
p7406
atp7407
Rp7408
(dp7409
g17
VNN
p7410
sbatp7411
Rp7412
(dp7413
g17
VNP
p7414
sbag5
(g6
g7
(lp7415
g5
(g6
g7
(lp7416
Vgoes
p7417
atp7418
Rp7419
(dp7420
g17
VVBZ
p7421
sbag5
(g6
g7
(lp7422
g5
(g6
g7
(lp7423
Vwell
p7424
atp7425
Rp7426
(dp7427
g17
VRB
p7428
sbatp7429
Rp7430
(dp7431
g17
VADVP
p7432
sbatp7433
Rp7434
(dp7435
g17
VVP
p7436
sbatp7437
Rp7438
(dp7439
g17
g241
sbatp7440
Rp7441
(dp7442
g17
VSBAR
p7443
sbatp7444
Rp7445
(dp7446
g17
VVP
p7447
sbatp7448
Rp7449
(dp7450
g17
g241
sbatp7451
Rp7452
(dp7453
g17
VVP
p7454
sbatp7455
Rp7456
(dp7457
g17
VVP
p7458
sbatp7459
Rp7460
(dp7461
g17
g241
sbatp7462
Rp7463
(dp7464
g17
VADJP
p7465
sbatp7466
Rp7467
(dp7468
g17
VVP
p7469
sbatp7470
Rp7471
(dp7472
g17
g241
sbatp7473
Rp7474
(dp7475
g17
VSBAR
p7476
sbatp7477
Rp7478
(dp7479
g17
VVP
p7480
sbag5
(g6
g7
(lp7481
g410
atp7482
Rp7483
(dp7484
g17
g410
sbatp7485
Rp7486
(dp7487
g17
g241
sbatp7488
Rp7489
(dp7490
g17
VROOT
p7491
sbasg421
(icmyPackage
CorE
p7492
(dp7493
g424
(lp7494
(I0
I11
tp7495
a(I0
I14
tp7496
asg428
g5
(g6
g7
(lp7497
g7438
ag7483
atp7498
Rp7499
(dp7500
g17
g433
sbsbsg434
(icmyPackage
CorE
p7501
(dp7502
g424
(lp7503
(I0
I0
tp7504
a(I0
I9
tp7505
asg428
g5
(g6
g7
(lp7506
g7330
ag7337
ag7344
ag7352
ag7359
ag7367
ag7374
ag7386
ag7393
atp7507
Rp7508
(dp7509
g17
g433
sbsbsg444
g445
sg465
(lp7510
(icmyPackage
Sent
p7511
(dp7512
g469
I5
sg470
I28
sg471
S'My sense is that is easy to make things work if everything goes well.'
p7513
sg473
I0
sg474
I137
sg428
(lp7514
g7489
asbasba(icmyPackage
CELink
p7515
(dp7516
g3
(lp7517
g5
(g6
g7
(lp7518
g5
(g6
g7
(lp7519
g5
(g6
g7
(lp7520
g5
(g6
g7
(lp7521
VIn
p7522
atp7523
Rp7524
(dp7525
g17
VIN
p7526
sbag5
(g6
g7
(lp7527
g5
(g6
g7
(lp7528
V1996
p7529
atp7530
Rp7531
(dp7532
g17
VCD
p7533
sbatp7534
Rp7535
(dp7536
g17
VNP
p7537
sbatp7538
Rp7539
(dp7540
g17
VPP
p7541
sbag5
(g6
g7
(lp7542
g5
(g6
g7
(lp7543
g80
atp7544
Rp7545
(dp7546
g17
VPRP
p7547
sbatp7548
Rp7549
(dp7550
g17
VNP
p7551
sbag5
(g6
g7
(lp7552
g5
(g6
g7
(lp7553
Vhelped
p7554
atp7555
Rp7556
(dp7557
g17
VVBD
p7558
sbag5
(g6
g7
(lp7559
g5
(g6
g7
(lp7560
Vwith
p7561
atp7562
Rp7563
(dp7564
g17
VIN
p7565
sbag5
(g6
g7
(lp7566
g5
(g6
g7
(lp7567
g5
(g6
g7
(lp7568
g5
(g6
g7
(lp7569
g852
atp7570
Rp7571
(dp7572
g17
VDT
p7573
sbag5
(g6
g7
(lp7574
V12,000
p7575
atp7576
Rp7577
(dp7578
g17
VCD
p7579
sbag5
(g6
g7
(lp7580
Vtps
p7581
atp7582
Rp7583
(dp7584
g17
VNN
p7585
sbag5
(g6
g7
(lp7586
Vbenchmark
p7587
atp7588
Rp7589
(dp7590
g17
VNN
p7591
sbatp7592
Rp7593
(dp7594
g17
VNP
p7595
sbag5
(g6
g7
(lp7596
g5
(g6
g7
(lp7597
V-LRB-
p7598
atp7599
Rp7600
(dp7601
g17
V-LRB-
p7602
sbag5
(g6
g7
(lp7603
g5
(g6
g7
(lp7604
g5
(g6
g7
(lp7605
Vloosely
p7606
atp7607
Rp7608
(dp7609
g17
VRB
p7610
sbatp7611
Rp7612
(dp7613
g17
VADVP
p7614
sbag5
(g6
g7
(lp7615
Vbased
p7616
atp7617
Rp7618
(dp7619
g17
VVBN
p7620
sbag5
(g6
g7
(lp7621
g5
(g6
g7
(lp7622
Von
p7623
atp7624
Rp7625
(dp7626
g17
VIN
p7627
sbag5
(g6
g7
(lp7628
g5
(g6
g7
(lp7629
VtpcA
p7630
atp7631
Rp7632
(dp7633
g17
VNN
p7634
sbatp7635
Rp7636
(dp7637
g17
VNP
p7638
sbatp7639
Rp7640
(dp7641
g17
VPP
p7642
sbatp7643
Rp7644
(dp7645
g17
VVP
p7646
sbag5
(g6
g7
(lp7647
V-RRB-
p7648
atp7649
Rp7650
(dp7651
g17
V-RRB-
p7652
sbatp7653
Rp7654
(dp7655
g17
VPRN
p7656
sbatp7657
Rp7658
(dp7659
g17
VNP
p7660
sbag5
(g6
g7
(lp7661
g536
atp7662
Rp7663
(dp7664
g17
g536
sbag5
(g6
g7
(lp7665
g5
(g6
g7
(lp7666
g5
(g6
g7
(lp7667
Vwhich
p7668
atp7669
Rp7670
(dp7671
g17
VWDT
p7672
sbatp7673
Rp7674
(dp7675
g17
VWHNP
p7676
sbag5
(g6
g7
(lp7677
g5
(g6
g7
(lp7678
g5
(g6
g7
(lp7679
Vshowed
p7680
atp7681
Rp7682
(dp7683
g17
VVBD
p7684
sbag5
(g6
g7
(lp7685
g5
(g6
g7
(lp7686
g5
(g6
g7
(lp7687
g5
(g6
g7
(lp7688
g852
atp7689
Rp7690
(dp7691
g17
VDT
p7692
sbag5
(g6
g7
(lp7693
Vbillion
p7694
atp7695
Rp7696
(dp7697
g17
VCD
p7698
sbatp7699
Rp7700
(dp7701
g17
VQP
p7702
sbag5
(g6
g7
(lp7703
Vbanking
p7704
atp7705
Rp7706
(dp7707
g17
VNN
p7708
sbag5
(g6
g7
(lp7709
Vtransactions
p7710
atp7711
Rp7712
(dp7713
g17
VNNS
p7714
sbatp7715
Rp7716
(dp7717
g17
VNP
p7718
sbag5
(g6
g7
(lp7719
g5
(g6
g7
(lp7720
Vper
p7721
atp7722
Rp7723
(dp7724
g17
VIN
p7725
sbag5
(g6
g7
(lp7726
g5
(g6
g7
(lp7727
Vday
p7728
atp7729
Rp7730
(dp7731
g17
VNN
p7732
sbatp7733
Rp7734
(dp7735
g17
VNP
p7736
sbatp7737
Rp7738
(dp7739
g17
VPP
p7740
sbatp7741
Rp7742
(dp7743
g17
VNP
p7744
sbatp7745
Rp7746
(dp7747
g17
VVP
p7748
sbatp7749
Rp7750
(dp7751
g17
g241
sbatp7752
Rp7753
(dp7754
g17
VSBAR
p7755
sbatp7756
Rp7757
(dp7758
g17
VNP
p7759
sbatp7760
Rp7761
(dp7762
g17
VPP
p7763
sbatp7764
Rp7765
(dp7766
g17
VVP
p7767
sbag5
(g6
g7
(lp7768
g410
atp7769
Rp7770
(dp7771
g17
g410
sbatp7772
Rp7773
(dp7774
g17
g241
sbatp7775
Rp7776
(dp7777
g17
VROOT
p7778
sbasg421
(icmyPackage
CorE
p7779
(dp7780
g424
(lp7781
(I0
I13
tp7782
ag7782
asg428
g7636
sbsg434
(icmyPackage
CorE
p7783
(dp7784
g424
(lp7785
(I0
I16
tp7786
a(I0
I24
tp7787
asg428
g5
(g6
g7
(lp7788
g7753
ag7770
atp7789
Rp7790
(dp7791
g17
g433
sbsbsg444
(icmyPackage
pattern
p7792
(dp7793
g447
I0
sg448
I0
sg449
(lp7794
(lp7795
S'based'
p7796
aS'on'
p7797
aa(lp7798
g640
aasg453
(lp7799
I2
aI1
aI1
asg455
(lp7800
S"He said that, based on his own experience, more students have been going back in recent years as their home countries' economies heat up."
p7801
asg458
I47
sg459
(lp7802
(lp7803
a(lp7804
S'&V-ing/&NP@C@'
p7805
aS'(&Clause@C@)'
p7806
aa(lp7807
S'&R'
p7808
aasbsg465
(lp7809
(icmyPackage
Sent
p7810
(dp7811
g469
I6
sg470
I30
sg471
S'In 1996 I helped with a 12,000 tps benchmark (loosely based on tpcA), which showed a billion banking transactions per day.'
p7812
sg473
I0
sg474
I147
sg428
(lp7813
g7776
asbasba(icmyPackage
CELink
p7814
(dp7815
g3
(lp7816
g5
(g6
g7
(lp7817
g5
(g6
g7
(lp7818
g5
(g6
g7
(lp7819
g5
(g6
g7
(lp7820
g5
(g6
g7
(lp7821
VOne
p7822
atp7823
Rp7824
(dp7825
g17
VCD
p7826
sbag5
(g6
g7
(lp7827
Vcolleague
p7828
atp7829
Rp7830
(dp7831
g17
VNN
p7832
sbatp7833
Rp7834
(dp7835
g17
VNP
p7836
sbag5
(g6
g7
(lp7837
g5
(g6
g7
(lp7838
Vasked
p7839
atp7840
Rp7841
(dp7842
g17
VVBD
p7843
sbag5
(g6
g7
(lp7844
g5
(g6
g7
(lp7845
Vme
p7846
atp7847
Rp7848
(dp7849
g17
VPRP
p7850
sbatp7851
Rp7852
(dp7853
g17
VNP
p7854
sbag5
(g6
g7
(lp7855
g5
(g6
g7
(lp7856
g5
(g6
g7
(lp7857
Vhow
p7858
atp7859
Rp7860
(dp7861
g17
VWRB
p7862
sbag5
(g6
g7
(lp7863
Vmany
p7864
atp7865
Rp7866
(dp7867
g17
VJJ
p7868
sbag5
(g6
g7
(lp7869
g5
(g6
g7
(lp7870
Vof
p7871
atp7872
Rp7873
(dp7874
g17
VIN
p7875
sbag5
(g6
g7
(lp7876
g5
(g6
g7
(lp7877
Vthese
p7878
atp7879
Rp7880
(dp7881
g17
VDT
p7882
sbag5
(g6
g7
(lp7883
Vsystems
p7884
atp7885
Rp7886
(dp7887
g17
VNNS
p7888
sbatp7889
Rp7890
(dp7891
g17
VNP
p7892
sbatp7893
Rp7894
(dp7895
g17
VPP
p7896
sbatp7897
Rp7898
(dp7899
g17
VWHADJP
p7900
sbag5
(g6
g7
(lp7901
g5
(g6
g7
(lp7902
g5
(g6
g7
(lp7903
g80
atp7904
Rp7905
(dp7906
g17
VPRP
p7907
sbatp7908
Rp7909
(dp7910
g17
VNP
p7911
sbag5
(g6
g7
(lp7912
g5
(g6
g7
(lp7913
Vexpected
p7914
atp7915
Rp7916
(dp7917
g17
VVBD
p7918
sbag5
(g6
g7
(lp7919
g5
(g6
g7
(lp7920
g5
(g6
g7
(lp7921
Vto
p7922
atp7923
Rp7924
(dp7925
g17
VTO
p7926
sbag5
(g6
g7
(lp7927
g5
(g6
g7
(lp7928
Vsell
p7929
atp7930
Rp7931
(dp7932
g17
VVB
p7933
sbatp7934
Rp7935
(dp7936
g17
VVP
p7937
sbatp7938
Rp7939
(dp7940
g17
VVP
p7941
sbatp7942
Rp7943
(dp7944
g17
g241
sbatp7945
Rp7946
(dp7947
g17
VVP
p7948
sbatp7949
Rp7950
(dp7951
g17
g241
sbatp7952
Rp7953
(dp7954
g17
VSBAR
p7955
sbatp7956
Rp7957
(dp7958
g17
VVP
p7959
sbatp7960
Rp7961
(dp7962
g17
g241
sbag5
(g6
g7
(lp7963
V--
p7964
atp7965
Rp7966
(dp7967
g17
g290
sbag5
(g6
g7
(lp7968
g5
(g6
g7
(lp7969
g5
(g6
g7
(lp7970
g80
atp7971
Rp7972
(dp7973
g17
VPRP
p7974
sbatp7975
Rp7976
(dp7977
g17
VNP
p7978
sbag5
(g6
g7
(lp7979
g5
(g6
g7
(lp7980
Vhad
p7981
atp7982
Rp7983
(dp7984
g17
VVBD
p7985
sbag5
(g6
g7
(lp7986
g5
(g6
g7
(lp7987
g5
(g6
g7
(lp7988
Vto
p7989
atp7990
Rp7991
(dp7992
g17
VTO
p7993
sbag5
(g6
g7
(lp7994
g5
(g6
g7
(lp7995
Vanswer
p7996
atp7997
Rp7998
(dp7999
g17
VVB
p8000
sbag5
(g6
g7
(lp8001
g5
(g6
g7
(lp8002
Vzero
p8003
atp8004
Rp8005
(dp8006
g17
VCD
p8007
sbatp8008
Rp8009
(dp8010
g17
VNP
p8011
sbag5
(g6
g7
(lp8012
g5
(g6
g7
(lp8013
Vbecause
p8014
atp8015
Rp8016
(dp8017
g17
VIN
p8018
sbag5
(g6
g7
(lp8019
g5
(g6
g7
(lp8020
g5
(g6
g7
(lp8021
Vthe
p8022
atp8023
Rp8024
(dp8025
g17
VDT
p8026
sbag5
(g6
g7
(lp8027
Vsystem
p8028
atp8029
Rp8030
(dp8031
g17
VNN
p8032
sbatp8033
Rp8034
(dp8035
g17
VNP
p8036
sbag5
(g6
g7
(lp8037
g5
(g6
g7
(lp8038
Vreally
p8039
atp8040
Rp8041
(dp8042
g17
VRB
p8043
sbatp8044
Rp8045
(dp8046
g17
VADVP
p8047
sbag5
(g6
g7
(lp8048
g5
(g6
g7
(lp8049
Vwas
p8050
atp8051
Rp8052
(dp8053
g17
VVBD
p8054
sbag5
(g6
g7
(lp8055
g5
(g6
g7
(lp8056
Vlarger
p8057
atp8058
Rp8059
(dp8060
g17
VJJR
p8061
sbatp8062
Rp8063
(dp8064
g17
VADJP
p8065
sbag5
(g6
g7
(lp8066
g5
(g6
g7
(lp8067
Vthan
p8068
atp8069
Rp8070
(dp8071
g17
VIN
p8072
sbag5
(g6
g7
(lp8073
g5
(g6
g7
(lp8074
g5
(g6
g7
(lp8075
Vanything
p8076
atp8077
Rp8078
(dp8079
g17
VNN
p8080
sbag5
(g6
g7
(lp8081
Vanyone
p8082
atp8083
Rp8084
(dp8085
g17
VNN
p8086
sbatp8087
Rp8088
(dp8089
g17
VNP
p8090
sbag5
(g6
g7
(lp8091
g5
(g6
g7
(lp8092
Vneeded
p8093
atp8094
Rp8095
(dp8096
g17
VVBN
p8097
sbag5
(g6
g7
(lp8098
g5
(g6
g7
(lp8099
Vat
p8100
atp8101
Rp8102
(dp8103
g17
VIN
p8104
sbag5
(g6
g7
(lp8105
g5
(g6
g7
(lp8106
Vthe
p8107
atp8108
Rp8109
(dp8110
g17
VDT
p8111
sbag5
(g6
g7
(lp8112
Vtime
p8113
atp8114
Rp8115
(dp8116
g17
VNN
p8117
sbatp8118
Rp8119
(dp8120
g17
VNP
p8121
sbatp8122
Rp8123
(dp8124
g17
VPP
p8125
sbatp8126
Rp8127
(dp8128
g17
VVP
p8129
sbatp8130
Rp8131
(dp8132
g17
VNP
p8133
sbatp8134
Rp8135
(dp8136
g17
VPP
p8137
sbatp8138
Rp8139
(dp8140
g17
VVP
p8141
sbatp8142
Rp8143
(dp8144
g17
g241
sbatp8145
Rp8146
(dp8147
g17
VSBAR
p8148
sbatp8149
Rp8150
(dp8151
g17
VVP
p8152
sbatp8153
Rp8154
(dp8155
g17
VVP
p8156
sbatp8157
Rp8158
(dp8159
g17
g241
sbatp8160
Rp8161
(dp8162
g17
VVP
p8163
sbatp8164
Rp8165
(dp8166
g17
g241
sbag5
(g6
g7
(lp8167
g410
atp8168
Rp8169
(dp8170
g17
g410
sbatp8171
Rp8172
(dp8173
g17
g241
sbatp8174
Rp8175
(dp8176
g17
VROOT
p8177
sbasg421
(icmyPackage
CorE
p8178
(dp8179
g424
(lp8180
(I0
I20
tp8181
a(I0
I32
tp8182
asg428
g5
(g6
g7
(lp8183
g8143
ag8169
atp8184
Rp8185
(dp8186
g17
g433
sbsbsg434
(icmyPackage
CorE
p8187
(dp8188
g424
(lp8189
(I0
I0
tp8190
a(I0
I18
tp8191
asg428
g5
(g6
g7
(lp8192
g7961
ag7966
ag7976
ag7983
ag7991
ag7998
ag8009
atp8193
Rp8194
(dp8195
g17
g433
sbsbsg444
(icmyPackage
pattern
p8196
(dp8197
g447
I407
sg448
I1
sg449
(lp8198
(lp8199
S'because'
p8200
aasg453
(lp8201
I3
aI1
aI1
asg455
(lp8202
S'It ends up in burnout and less production, because we inevitably run out of energy.'
p8203
asg458
I76
sg459
(lp8204
(lp8205
S'&R'
p8206
aS'(,)'
p8207
aS'(&ADV)'
p8208
aa(lp8209
S'&C'
p8210
aasbsg465
(lp8211
(icmyPackage
Sent
p8212
(dp8213
g469
I6
sg470
I30
sg471
S'One colleague asked me how many of these systems I expected to sell -- I had to answer zero because the system really was larger than anything anyone needed at the time.'
p8214
sg473
I0
sg474
I149
sg428
(lp8215
g8175
asbasba(icmyPackage
CELink
p8216
(dp8217
g3
(lp8218
g5
(g6
g7
(lp8219
g5
(g6
g7
(lp8220
g5
(g6
g7
(lp8221
g5
(g6
g7
(lp8222
g5
(g6
g7
(lp8223
VThe
p8224
atp8225
Rp8226
(dp8227
g17
VDT
p8228
sbag5
(g6
g7
(lp8229
VtpcC
p8230
atp8231
Rp8232
(dp8233
g17
VNN
p8234
sbatp8235
Rp8236
(dp8237
g17
VNP
p8238
sbag5
(g6
g7
(lp8239
Vand
p8240
atp8241
Rp8242
(dp8243
g17
VCC
p8244
sbag5
(g6
g7
(lp8245
g5
(g6
g7
(lp8246
Vthe
p8247
atp8248
Rp8249
(dp8250
g17
VDT
p8251
sbag5
(g6
g7
(lp8252
Vmore
p8253
atp8254
Rp8255
(dp8256
g17
VJJR
p8257
sbag5
(g6
g7
(lp8258
Vrecent
p8259
atp8260
Rp8261
(dp8262
g17
VJJ
p8263
sbag5
(g6
g7
(lp8264
VtpcW
p8265
atp8266
Rp8267
(dp8268
g17
VNN
p8269
sbag5
(g6
g7
(lp8270
Vbenchmarks
p8271
atp8272
Rp8273
(dp8274
g17
VNNS
p8275
sbatp8276
Rp8277
(dp8278
g17
VNP
p8279
sbatp8280
Rp8281
(dp8282
g17
VNP
p8283
sbag5
(g6
g7
(lp8284
g5
(g6
g7
(lp8285
Vmay
p8286
atp8287
Rp8288
(dp8289
g17
VMD
p8290
sbag5
(g6
g7
(lp8291
g5
(g6
g7
(lp8292
Vbe
p8293
atp8294
Rp8295
(dp8296
g17
VVB
p8297
sbag5
(g6
g7
(lp8298
g5
(g6
g7
(lp8299
Vfaulted
p8300
atp8301
Rp8302
(dp8303
g17
VVBN
p8304
sbag5
(g6
g7
(lp8305
g5
(g6
g7
(lp8306
Vfor
p8307
atp8308
Rp8309
(dp8310
g17
VIN
p8311
sbag5
(g6
g7
(lp8312
g5
(g6
g7
(lp8313
g5
(g6
g7
(lp8314
Vbeing
p8315
atp8316
Rp8317
(dp8318
g17
VVBG
p8319
sbag5
(g6
g7
(lp8320
g5
(g6
g7
(lp8321
Vstunts
p8322
atp8323
Rp8324
(dp8325
g17
VNNS
p8326
sbatp8327
Rp8328
(dp8329
g17
VNP
p8330
sbatp8331
Rp8332
(dp8333
g17
VVP
p8334
sbatp8335
Rp8336
(dp8337
g17
g241
sbatp8338
Rp8339
(dp8340
g17
VPP
p8341
sbatp8342
Rp8343
(dp8344
g17
VVP
p8345
sbatp8346
Rp8347
(dp8348
g17
VVP
p8349
sbatp8350
Rp8351
(dp8352
g17
VVP
p8353
sbag5
(g6
g7
(lp8354
g290
atp8355
Rp8356
(dp8357
g17
g290
sbatp8358
Rp8359
(dp8360
g17
g241
sbatp8361
Rp8362
(dp8363
g17
VROOT
p8364
sbasg421
(icmyPackage
CorE
p8365
(dp8366
g424
(lp8367
(I0
I12
tp8368
a(I0
I13
tp8369
asg428
g8336
sbsg434
(icmyPackage
CorE
p8370
(dp8371
g424
(lp8372
(I0
I0
tp8373
a(I0
I10
tp8374
asg428
g5
(g6
g7
(lp8375
g8281
ag8288
ag8295
ag8302
atp8376
Rp8377
(dp8378
g17
g433
sbsbsg444
(icmyPackage
pattern
p8379
(dp8380
g447
I25
sg448
I0
sg449
(lp8381
(lp8382
S'for'
p8383
aasg453
(lp8384
I2
aI1
aI1
asg455
(lp8385
S'She was angry with him for being late.'
p8386
asg458
I44
sg459
(lp8387
(lp8388
S'&R'
p8389
aa(lp8390
S'&V-ing@C@'
p8391
aasbsg465
(lp8392
(icmyPackage
Sent
p8393
(dp8394
g469
I6
sg470
I33
sg471
S'The tpcC and the more recent tpcW benchmarks may be faulted for being stunts:'
p8395
sg473
I0
sg474
I158
sg428
(lp8396
g8362
asbasba(icmyPackage
CELink
p8397
(dp8398
g3
(lp8399
g5
(g6
g7
(lp8400
g5
(g6
g7
(lp8401
g5
(g6
g7
(lp8402
g5
(g6
g7
(lp8403
g5
(g6
g7
(lp8404
VFocusing
p8405
atp8406
Rp8407
(dp8408
g17
VVBG
p8409
sbag5
(g6
g7
(lp8410
g5
(g6
g7
(lp8411
Von
p8412
atp8413
Rp8414
(dp8415
g17
VIN
p8416
sbag5
(g6
g7
(lp8417
g5
(g6
g7
(lp8418
Vthe
p8419
atp8420
Rp8421
(dp8422
g17
VDT
p8423
sbag5
(g6
g7
(lp8424
VtpcC
p8425
atp8426
Rp8427
(dp8428
g17
VJJ
p8429
sbag5
(g6
g7
(lp8430
Vresults
p8431
atp8432
Rp8433
(dp8434
g17
VNNS
p8435
sbatp8436
Rp8437
(dp8438
g17
VNP
p8439
sbatp8440
Rp8441
(dp8442
g17
VPP
p8443
sbatp8444
Rp8445
(dp8446
g17
VVP
p8447
sbatp8448
Rp8449
(dp8450
g17
g241
sbag5
(g6
g7
(lp8451
g536
atp8452
Rp8453
(dp8454
g17
g536
sbag5
(g6
g7
(lp8455
g5
(g6
g7
(lp8456
Vthere
p8457
atp8458
Rp8459
(dp8460
g17
VEX
p8461
sbatp8462
Rp8463
(dp8464
g17
VNP
p8465
sbag5
(g6
g7
(lp8466
g5
(g6
g7
(lp8467
Vare
p8468
atp8469
Rp8470
(dp8471
g17
VVBP
p8472
sbag5
(g6
g7
(lp8473
g5
(g6
g7
(lp8474
Vthree
p8475
atp8476
Rp8477
(dp8478
g17
VCD
p8479
sbag5
(g6
g7
(lp8480
Vstyles
p8481
atp8482
Rp8483
(dp8484
g17
VNNS
p8485
sbatp8486
Rp8487
(dp8488
g17
VNP
p8489
sbatp8490
Rp8491
(dp8492
g17
VVP
p8493
sbag5
(g6
g7
(lp8494
g410
atp8495
Rp8496
(dp8497
g17
g410
sbatp8498
Rp8499
(dp8500
g17
g241
sbatp8501
Rp8502
(dp8503
g17
VROOT
p8504
sbasg421
(icmyPackage
CorE
p8505
(dp8506
g424
(lp8507
(I0
I0
tp8508
a(I0
I4
tp8509
asg428
g8449
sbsg434
(icmyPackage
CorE
p8510
(dp8511
g424
(lp8512
(I0
I6
tp8513
a(I0
I10
tp8514
asg428
g5
(g6
g7
(lp8515
g8463
ag8491
ag8496
atp8516
Rp8517
(dp8518
g17
g433
sbsbsg444
g4273
sg465
(lp8519
(icmyPackage
Sent
p8520
(dp8521
g469
I6
sg470
I34
sg471
S'Focusing on the tpcC results, there are three styles.'
p8522
sg473
I0
sg474
I162
sg428
(lp8523
g8502
asbasba(icmyPackage
CELink
p8524
(dp8525
g3
(lp8526
g5
(g6
g7
(lp8527
g5
(g6
g7
(lp8528
g5
(g6
g7
(lp8529
g5
(g6
g7
(lp8530
VBig
p8531
atp8532
Rp8533
(dp8534
g17
VNNP
p8535
sbag5
(g6
g7
(lp8536
Vblocks
p8537
atp8538
Rp8539
(dp8540
g17
VNNS
p8541
sbatp8542
Rp8543
(dp8544
g17
VNP
p8545
sbag5
(g6
g7
(lp8546
g5
(g6
g7
(lp8547
Vhave
p8548
atp8549
Rp8550
(dp8551
g17
VVBP
p8552
sbag5
(g6
g7
(lp8553
g5
(g6
g7
(lp8554
g5
(g6
g7
(lp8555
Vlow
p8556
atp8557
Rp8558
(dp8559
g17
VJJ
p8560
sbag5
(g6
g7
(lp8561
g5
(g6
g7
(lp8562
g5
(g6
g7
(lp8563
Vvolume
p8564
atp8565
Rp8566
(dp8567
g17
VNN
p8568
sbatp8569
Rp8570
(dp8571
g17
VNP
p8572
sbag5
(g6
g7
(lp8573
Vand
p8574
atp8575
Rp8576
(dp8577
g17
VCC
p8578
sbag5
(g6
g7
(lp8579
g5
(g6
g7
(lp8580
Vso
p8581
atp8582
Rp8583
(dp8584
g17
VRB
p8585
sbag5
(g6
g7
(lp8586
Vhigh
p8587
atp8588
Rp8589
(dp8590
g17
VJJ
p8591
sbatp8592
Rp8593
(dp8594
g17
VADJP
p8595
sbatp8596
Rp8597
(dp8598
g17
VUCP
p8599
sbag5
(g6
g7
(lp8600
Vfixed
p8601
atp8602
Rp8603
(dp8604
g17
VJJ
p8605
sbag5
(g6
g7
(lp8606
Vengineering
p8607
atp8608
Rp8609
(dp8610
g17
VNN
p8611
sbag5
(g6
g7
(lp8612
Vcosts
p8613
atp8614
Rp8615
(dp8616
g17
VNNS
p8617
sbatp8618
Rp8619
(dp8620
g17
VNP
p8621
sbag5
(g6
g7
(lp8622
g5
(g6
g7
(lp8623
g5
(g6
g7
(lp8624
Vthat
p8625
atp8626
Rp8627
(dp8628
g17
VWDT
p8629
sbatp8630
Rp8631
(dp8632
g17
VWHNP
p8633
sbag5
(g6
g7
(lp8634
g5
(g6
g7
(lp8635
g5
(g6
g7
(lp8636
Vhave
p8637
atp8638
Rp8639
(dp8640
g17
VVBP
p8641
sbag5
(g6
g7
(lp8642
g5
(g6
g7
(lp8643
g5
(g6
g7
(lp8644
Vto
p8645
atp8646
Rp8647
(dp8648
g17
VTO
p8649
sbag5
(g6
g7
(lp8650
g5
(g6
g7
(lp8651
Vbe
p8652
atp8653
Rp8654
(dp8655
g17
VVB
p8656
sbag5
(g6
g7
(lp8657
g5
(g6
g7
(lp8658
Vspread
p8659
atp8660
Rp8661
(dp8662
g17
VVBN
p8663
sbag5
(g6
g7
(lp8664
g5
(g6
g7
(lp8665
Vover
p8666
atp8667
Rp8668
(dp8669
g17
VIN
p8670
sbag5
(g6
g7
(lp8671
g5
(g6
g7
(lp8672
g5
(g6
g7
(lp8673
Vvery
p8674
atp8675
Rp8676
(dp8677
g17
VRB
p8678
sbag5
(g6
g7
(lp8679
Vfew
p8680
atp8681
Rp8682
(dp8683
g17
VJJ
p8684
sbatp8685
Rp8686
(dp8687
g17
VADJP
p8688
sbag5
(g6
g7
(lp8689
Vunits
p8690
atp8691
Rp8692
(dp8693
g17
VNNS
p8694
sbatp8695
Rp8696
(dp8697
g17
VNP
p8698
sbatp8699
Rp8700
(dp8701
g17
VPP
p8702
sbatp8703
Rp8704
(dp8705
g17
VVP
p8706
sbatp8707
Rp8708
(dp8709
g17
VVP
p8710
sbatp8711
Rp8712
(dp8713
g17
VVP
p8714
sbatp8715
Rp8716
(dp8717
g17
g241
sbatp8718
Rp8719
(dp8720
g17
VVP
p8721
sbatp8722
Rp8723
(dp8724
g17
g241
sbatp8725
Rp8726
(dp8727
g17
VSBAR
p8728
sbatp8729
Rp8730
(dp8731
g17
VNP
p8732
sbatp8733
Rp8734
(dp8735
g17
VVP
p8736
sbag5
(g6
g7
(lp8737
g410
atp8738
Rp8739
(dp8740
g17
g410
sbatp8741
Rp8742
(dp8743
g17
g241
sbatp8744
Rp8745
(dp8746
g17
VROOT
p8747
sbasg421
(icmyPackage
CorE
p8748
(dp8749
g424
(lp8750
(I0
I0
tp8751
a(I0
I8
tp8752
asg428
g5
(g6
g7
(lp8753
g8543
ag8550
ag8558
ag8597
ag8603
atp8754
Rp8755
(dp8756
g17
g433
sbsbsg434
(icmyPackage
CorE
p8757
(dp8758
g424
(lp8759
(I0
I12
tp8760
a(I0
I20
tp8761
asg428
g5
(g6
g7
(lp8762
g8723
ag8739
atp8763
Rp8764
(dp8765
g17
g433
sbsbsg444
g6545
sg465
(lp8766
(icmyPackage
Sent
p8767
(dp8768
g469
I6
sg470
I39
sg471
S'Big blocks have low volume and so high fixed engineering costs that have to be spread over very few units.'
p8769
sg473
I0
sg474
I179
sg428
(lp8770
g8745
asbasba(icmyPackage
CELink
p8771
(dp8772
g3
(lp8773
g5
(g6
g7
(lp8774
g5
(g6
g7
(lp8775
g5
(g6
g7
(lp8776
g5
(g6
g7
(lp8777
g5
(g6
g7
(lp8778
VIf
p8779
atp8780
Rp8781
(dp8782
g17
VIN
p8783
sbag5
(g6
g7
(lp8784
g5
(g6
g7
(lp8785
g5
(g6
g7
(lp8786
g5
(g6
g7
(lp8787
Vhigh-volume
p8788
atp8789
Rp8790
(dp8791
g17
VJJ
p8792
sbag5
(g6
g7
(lp8793
VIntel
p8794
atp8795
Rp8796
(dp8797
g17
VNNP
p8798
sbag5
(g6
g7
(lp8799
Vplatforms
p8800
atp8801
Rp8802
(dp8803
g17
VNNS
p8804
sbatp8805
Rp8806
(dp8807
g17
VNP
p8808
sbag5
(g6
g7
(lp8809
g5
(g6
g7
(lp8810
Vprice
p8811
atp8812
Rp8813
(dp8814
g17
VNN
p8815
sbag5
(g6
g7
(lp8816
Vperformance
p8817
atp8818
Rp8819
(dp8820
g17
VNN
p8821
sbatp8822
Rp8823
(dp8824
g17
VNP
p8825
sbatp8826
Rp8827
(dp8828
g17
VNP
p8829
sbag5
(g6
g7
(lp8830
g5
(g6
g7
(lp8831
Vis
p8832
atp8833
Rp8834
(dp8835
g17
VVBZ
p8836
sbag5
(g6
g7
(lp8837
g5
(g6
g7
(lp8838
Vnormalized
p8839
atp8840
Rp8841
(dp8842
g17
VVBN
p8843
sbag5
(g6
g7
(lp8844
g5
(g6
g7
(lp8845
Vto
p8846
atp8847
Rp8848
(dp8849
g17
VTO
p8850
sbag5
(g6
g7
(lp8851
g5
(g6
g7
(lp8852
g5719
atp8853
Rp8854
(dp8855
g17
VCD
p8856
sbatp8857
Rp8858
(dp8859
g17
VNP
p8860
sbatp8861
Rp8862
(dp8863
g17
VPP
p8864
sbatp8865
Rp8866
(dp8867
g17
VVP
p8868
sbatp8869
Rp8870
(dp8871
g17
VVP
p8872
sbatp8873
Rp8874
(dp8875
g17
g241
sbatp8876
Rp8877
(dp8878
g17
VSBAR
p8879
sbag5
(g6
g7
(lp8880
g536
atp8881
Rp8882
(dp8883
g17
g536
sbag5
(g6
g7
(lp8884
Vthen
p8885
atp8886
Rp8887
(dp8888
g17
VRB
p8889
sbag5
(g6
g7
(lp8890
g5
(g6
g7
(lp8891
Vthe
p8892
atp8893
Rp8894
(dp8895
g17
VDT
p8896
sbag5
(g6
g7
(lp8897
Vminis
p8898
atp8899
Rp8900
(dp8901
g17
VNNS
p8902
sbatp8903
Rp8904
(dp8905
g17
VNP
p8906
sbag5
(g6
g7
(lp8907
g5
(g6
g7
(lp8908
Vcost
p8909
atp8910
Rp8911
(dp8912
g17
VVBD
p8913
sbag5
(g6
g7
(lp8914
g5
(g6
g7
(lp8915
V10
p8916
atp8917
Rp8918
(dp8919
g17
VCD
p8920
sbatp8921
Rp8922
(dp8923
g17
VNP
p8924
sbag5
(g6
g7
(lp8925
g5
(g6
g7
(lp8926
g5
(g6
g7
(lp8927
g5
(g6
g7
(lp8928
V$
p8929
atp8930
Rp8931
(dp8932
g17
g8929
sbag5
(g6
g7
(lp8933
Vper
p8934
atp8935
Rp8936
(dp8937
g17
VCD
p8938
sbatp8939
Rp8940
(dp8941
g17
VADJP
p8942
sbag5
(g6
g7
(lp8943
Vunit
p8944
atp8945
Rp8946
(dp8947
g17
VNN
p8948
sbatp8949
Rp8950
(dp8951
g17
VNP
p8952
sbag5
(g6
g7
(lp8953
Vand
p8954
atp8955
Rp8956
(dp8957
g17
VCC
p8958
sbag5
(g6
g7
(lp8959
g5
(g6
g7
(lp8960
Vthe
p8961
atp8962
Rp8963
(dp8964
g17
VDT
p8965
sbag5
(g6
g7
(lp8966
Vmainframes
p8967
atp8968
Rp8969
(dp8970
g17
VNNS
p8971
sbatp8972
Rp8973
(dp8974
g17
VNP
p8975
sbatp8976
Rp8977
(dp8978
g17
VNP
p8979
sbatp8980
Rp8981
(dp8982
g17
VVP
p8983
sbatp8984
Rp8985
(dp8986
g17
g241
sbag5
(g6
g7
(lp8987
g5
(g6
g7
(lp8988
Vcost
p8989
atp8990
Rp8991
(dp8992
g17
VVBD
p8993
sbatp8994
Rp8995
(dp8996
g17
VVP
p8997
sbag5
(g6
g7
(lp8998
g5
(g6
g7
(lp8999
V100
p9000
atp9001
Rp9002
(dp9003
g17
VCD
p9004
sbag5
(g6
g7
(lp9005
g5
(g6
g7
(lp9006
g8929
atp9007
Rp9008
(dp9009
g17
g8929
sbag5
(g6
g7
(lp9010
Vper
p9011
atp9012
Rp9013
(dp9014
g17
VCD
p9015
sbatp9016
Rp9017
(dp9018
g17
VADJP
p9019
sbag5
(g6
g7
(lp9020
Vunit
p9021
atp9022
Rp9023
(dp9024
g17
VNN
p9025
sbatp9026
Rp9027
(dp9028
g17
VNP
p9029
sbag5
(g6
g7
(lp9030
g410
atp9031
Rp9032
(dp9033
g17
g410
sbatp9034
Rp9035
(dp9036
g17
VSINV
p9037
sbatp9038
Rp9039
(dp9040
g17
VROOT
p9041
sbasg421
(icmyPackage
CorE
p9042
(dp9043
g424
(lp9044
(I0
I1
tp9045
a(I0
I9
tp9046
asg428
g8874
sbsg434
(icmyPackage
CorE
p9047
(dp9048
g424
(lp9049
(I0
I11
tp9050
a(I0
I19
tp9051
asg428
g5
(g6
g7
(lp9052
g8887
ag8904
ag8911
ag8922
ag8950
ag8956
atp9053
Rp9054
(dp9055
g17
g433
sbsbsg444
g632
sg465
(lp9056
(icmyPackage
Sent
p9057
(dp9058
g469
I6
sg470
I39
sg471
S'If high-volume Intel platforms price performance is normalized to 1, then the minis cost 10$ per unit and the mainframes cost 100$ per unit.'
p9059
sg473
I0
sg474
I181
sg428
(lp9060
g9039
asbasba(icmyPackage
CELink
p9061
(dp9062
g3
(lp9063
g9039
ag5
(g6
g7
(lp9064
g5
(g6
g7
(lp9065
g5
(g6
g7
(lp9066
g5
(g6
g7
(lp9067
VSo
p9068
atp9069
Rp9070
(dp9071
g17
VRB
p9072
sbatp9073
Rp9074
(dp9075
g17
VADVP
p9076
sbag5
(g6
g7
(lp9077
g536
atp9078
Rp9079
(dp9080
g17
g536
sbag5
(g6
g7
(lp9081
g5
(g6
g7
(lp9082
g80
atp9083
Rp9084
(dp9085
g17
VPRP
p9086
sbatp9087
Rp9088
(dp9089
g17
VNP
p9090
sbag5
(g6
g7
(lp9091
g5
(g6
g7
(lp9092
Vhave
p9093
atp9094
Rp9095
(dp9096
g17
VVBP
p9097
sbag5
(g6
g7
(lp9098
g5
(g6
g7
(lp9099
Vlong
p9100
atp9101
Rp9102
(dp9103
g17
VRB
p9104
sbatp9105
Rp9106
(dp9107
g17
VADVP
p9108
sbag5
(g6
g7
(lp9109
g5
(g6
g7
(lp9110
Vadvocated
p9111
atp9112
Rp9113
(dp9114
g17
VVBN
p9115
sbag5
(g6
g7
(lp9116
g5
(g6
g7
(lp9117
g5
(g6
g7
(lp9118
VScaleOut
p9119
atp9120
Rp9121
(dp9122
g17
VJJ
p9123
sbag5
(g6
g7
(lp9124
Vclusters
p9125
atp9126
Rp9127
(dp9128
g17
VNNS
p9129
sbatp9130
Rp9131
(dp9132
g17
VNP
p9133
sbag5
(g6
g7
(lp9134
g5
(g6
g7
(lp9135
Vbuilt
p9136
atp9137
Rp9138
(dp9139
g17
VVBN
p9140
sbag5
(g6
g7
(lp9141
g5
(g6
g7
(lp9142
Vwith
p9143
atp9144
Rp9145
(dp9146
g17
VIN
p9147
sbag5
(g6
g7
(lp9148
g5
(g6
g7
(lp9149
Vcommodity
p9150
atp9151
Rp9152
(dp9153
g17
VNN
p9154
sbag5
(g6
g7
(lp9155
Vbricks
p9156
atp9157
Rp9158
(dp9159
g17
VNNS
p9160
sbatp9161
Rp9162
(dp9163
g17
VNP
p9164
sbatp9165
Rp9166
(dp9167
g17
VPP
p9168
sbatp9169
Rp9170
(dp9171
g17
VVP
p9172
sbatp9173
Rp9174
(dp9175
g17
VNP
p9176
sbatp9177
Rp9178
(dp9179
g17
VVP
p9180
sbatp9181
Rp9182
(dp9183
g17
VVP
p9184
sbag5
(g6
g7
(lp9185
g410
atp9186
Rp9187
(dp9188
g17
g410
sbatp9189
Rp9190
(dp9191
g17
g241
sbatp9192
Rp9193
(dp9194
g17
VROOT
p9195
sbasg421
(icmyPackage
CorE
p9196
(dp9197
g424
(lp9198
(I0
I0
tp9199
a(I0
I26
tp9200
asg428
g5
(g6
g7
(lp9201
g8985
ag8995
ag9027
atp9202
Rp9203
(dp9204
g17
g433
sbsbsg434
(icmyPackage
CorE
p9205
(dp9206
g424
(lp9207
(I1
I2
tp9208
a(I1
I12
tp9209
asg428
g5
(g6
g7
(lp9210
g9088
ag9182
ag9187
atp9211
Rp9212
(dp9213
g17
g433
sbsbsg444
g816
sg465
(lp9214
g9057
a(icmyPackage
Sent
p9215
(dp9216
g469
I6
sg470
I39
sg471
S'So, I have long advocated ScaleOut clusters built with commodity bricks.'
p9217
sg473
I0
sg474
I182
sg428
(lp9218
g9193
asbasba(icmyPackage
CELink
p9219
(dp9220
g3
(lp9221
g5
(g6
g7
(lp9222
g5
(g6
g7
(lp9223
g5
(g6
g7
(lp9224
g5
(g6
g7
(lp9225
g5
(g6
g7
(lp9226
VThe
p9227
atp9228
Rp9229
(dp9230
g17
VDT
p9231
sbag5
(g6
g7
(lp9232
Vchairman
p9233
atp9234
Rp9235
(dp9236
g17
VNN
p9237
sbatp9238
Rp9239
(dp9240
g17
VNP
p9241
sbag5
(g6
g7
(lp9242
g5
(g6
g7
(lp9243
Vof
p9244
atp9245
Rp9246
(dp9247
g17
VIN
p9248
sbag5
(g6
g7
(lp9249
g5
(g6
g7
(lp9250
VIBM
p9251
atp9252
Rp9253
(dp9254
g17
VNNP
p9255
sbatp9256
Rp9257
(dp9258
g17
VNP
p9259
sbatp9260
Rp9261
(dp9262
g17
VPP
p9263
sbatp9264
Rp9265
(dp9266
g17
VNP
p9267
sbag5
(g6
g7
(lp9268
g5
(g6
g7
(lp9269
Vis
p9270
atp9271
Rp9272
(dp9273
g17
VVBZ
p9274
sbag5
(g6
g7
(lp9275
g5
(g6
g7
(lp9276
Vcalling
p9277
atp9278
Rp9279
(dp9280
g17
VVBG
p9281
sbag5
(g6
g7
(lp9282
g5
(g6
g7
(lp9283
Vfor
p9284
atp9285
Rp9286
(dp9287
g17
VIN
p9288
sbag5
(g6
g7
(lp9289
g5
(g6
g7
(lp9290
g5
(g6
g7
(lp9291
Vthe
p9292
atp9293
Rp9294
(dp9295
g17
VDT
p9296
sbag5
(g6
g7
(lp9297
Vreturn
p9298
atp9299
Rp9300
(dp9301
g17
VNN
p9302
sbatp9303
Rp9304
(dp9305
g17
VNP
p9306
sbag5
(g6
g7
(lp9307
g5
(g6
g7
(lp9308
Vof
p9309
atp9310
Rp9311
(dp9312
g17
VIN
p9313
sbag5
(g6
g7
(lp9314
g5
(g6
g7
(lp9315
Vthe
p9316
atp9317
Rp9318
(dp9319
g17
VDT
p9320
sbag5
(g6
g7
(lp9321
Vmainframe
p9322
atp9323
Rp9324
(dp9325
g17
VNN
p9326
sbatp9327
Rp9328
(dp9329
g17
VNP
p9330
sbatp9331
Rp9332
(dp9333
g17
VPP
p9334
sbatp9335
Rp9336
(dp9337
g17
VNP
p9338
sbatp9339
Rp9340
(dp9341
g17
VPP
p9342
sbag5
(g6
g7
(lp9343
g536
atp9344
Rp9345
(dp9346
g17
g536
sbag5
(g6
g7
(lp9347
g5
(g6
g7
(lp9348
g5
(g6
g7
(lp9349
Vasserting
p9350
atp9351
Rp9352
(dp9353
g17
VVBG
p9354
sbag5
(g6
g7
(lp9355
g5
(g6
g7
(lp9356
g5
(g6
g7
(lp9357
g5
(g6
g7
(lp9358
Vit
p9359
atp9360
Rp9361
(dp9362
g17
VPRP
p9363
sbatp9364
Rp9365
(dp9366
g17
VNP
p9367
sbag5
(g6
g7
(lp9368
g5
(g6
g7
(lp9369
Vis
p9370
atp9371
Rp9372
(dp9373
g17
VVBZ
p9374
sbag5
(g6
g7
(lp9375
g5
(g6
g7
(lp9376
Vcheaper
p9377
atp9378
Rp9379
(dp9380
g17
VJJR
p9381
sbatp9382
Rp9383
(dp9384
g17
VADJP
p9385
sbag5
(g6
g7
(lp9386
g5
(g6
g7
(lp9387
g5
(g6
g7
(lp9388
Vto
p9389
atp9390
Rp9391
(dp9392
g17
VTO
p9393
sbag5
(g6
g7
(lp9394
g5
(g6
g7
(lp9395
Vrun
p9396
atp9397
Rp9398
(dp9399
g17
VVB
p9400
sbag5
(g6
g7
(lp9401
g5
(g6
g7
(lp9402
V1,000
p9403
atp9404
Rp9405
(dp9406
g17
VCD
p9407
sbag5
(g6
g7
(lp9408
VLinux
p9409
atp9410
Rp9411
(dp9412
g17
VNNP
p9413
sbag5
(g6
g7
(lp9414
Vsystems
p9415
atp9416
Rp9417
(dp9418
g17
VNNS
p9419
sbatp9420
Rp9421
(dp9422
g17
VNP
p9423
sbag5
(g6
g7
(lp9424
g5
(g6
g7
(lp9425
Von
p9426
atp9427
Rp9428
(dp9429
g17
VIN
p9430
sbag5
(g6
g7
(lp9431
g5
(g6
g7
(lp9432
g852
atp9433
Rp9434
(dp9435
g17
VDT
p9436
sbag5
(g6
g7
(lp9437
Vmainframe
p9438
atp9439
Rp9440
(dp9441
g17
VNN
p9442
sbatp9443
Rp9444
(dp9445
g17
VNP
p9446
sbatp9447
Rp9448
(dp9449
g17
VPP
p9450
sbag5
(g6
g7
(lp9451
g5
(g6
g7
(lp9452
Vthan
p9453
atp9454
Rp9455
(dp9456
g17
VIN
p9457
sbag5
(g6
g7
(lp9458
g5
(g6
g7
(lp9459
g5
(g6
g7
(lp9460
Vit
p9461
atp9462
Rp9463
(dp9464
g17
VPRP
p9465
sbatp9466
Rp9467
(dp9468
g17
VNP
p9469
sbag5
(g6
g7
(lp9470
g5
(g6
g7
(lp9471
Vis
p9472
atp9473
Rp9474
(dp9475
g17
VVBZ
p9476
sbag5
(g6
g7
(lp9477
g5
(g6
g7
(lp9478
g5
(g6
g7
(lp9479
Vto
p9480
atp9481
Rp9482
(dp9483
g17
VTO
p9484
sbag5
(g6
g7
(lp9485
g5
(g6
g7
(lp9486
Vrun
p9487
atp9488
Rp9489
(dp9490
g17
VVB
p9491
sbag5
(g6
g7
(lp9492
g5
(g6
g7
(lp9493
V1,000
p9494
atp9495
Rp9496
(dp9497
g17
VCD
p9498
sbag5
(g6
g7
(lp9499
VIntel
p9500
atp9501
Rp9502
(dp9503
g17
VNNP
p9504
sbag5
(g6
g7
(lp9505
Vboxes
p9506
atp9507
Rp9508
(dp9509
g17
VNNS
p9510
sbatp9511
Rp9512
(dp9513
g17
VNP
p9514
sbag5
(g6
g7
(lp9515
V--
p9516
atp9517
Rp9518
(dp9519
g17
g290
sbag5
(g6
g7
(lp9520
g5
(g6
g7
(lp9521
Vmostly
p9522
atp9523
Rp9524
(dp9525
g17
VRB
p9526
sbatp9527
Rp9528
(dp9529
g17
VADVP
p9530
sbatp9531
Rp9532
(dp9533
g17
VVP
p9534
sbatp9535
Rp9536
(dp9537
g17
VVP
p9538
sbatp9539
Rp9540
(dp9541
g17
g241
sbatp9542
Rp9543
(dp9544
g17
VVP
p9545
sbatp9546
Rp9547
(dp9548
g17
g241
sbatp9549
Rp9550
(dp9551
g17
VSBAR
p9552
sbatp9553
Rp9554
(dp9555
g17
VVP
p9556
sbatp9557
Rp9558
(dp9559
g17
VVP
p9560
sbatp9561
Rp9562
(dp9563
g17
g241
sbag5
(g6
g7
(lp9564
g5
(g6
g7
(lp9565
Vbecause
p9566
atp9567
Rp9568
(dp9569
g17
VIN
p9570
sbag5
(g6
g7
(lp9571
g5
(g6
g7
(lp9572
g5
(g6
g7
(lp9573
Vthe
p9574
atp9575
Rp9576
(dp9577
g17
VDT
p9578
sbag5
(g6
g7
(lp9579
Vmanagement
p9580
atp9581
Rp9582
(dp9583
g17
VNN
p9584
sbag5
(g6
g7
(lp9585
Vcosts
p9586
atp9587
Rp9588
(dp9589
g17
VNNS
p9590
sbatp9591
Rp9592
(dp9593
g17
VNP
p9594
sbag5
(g6
g7
(lp9595
g5
(g6
g7
(lp9596
Vdominate
p9597
atp9598
Rp9599
(dp9600
g17
VVBP
p9601
sbatp9602
Rp9603
(dp9604
g17
VVP
p9605
sbatp9606
Rp9607
(dp9608
g17
g241
sbatp9609
Rp9610
(dp9611
g17
VSBAR
p9612
sbatp9613
Rp9614
(dp9615
g17
VVP
p9616
sbatp9617
Rp9618
(dp9619
g17
g241
sbatp9620
Rp9621
(dp9622
g17
VSBAR
p9623
sbatp9624
Rp9625
(dp9626
g17
VVP
p9627
sbatp9628
Rp9629
(dp9630
g17
g241
sbatp9631
Rp9632
(dp9633
g17
VVP
p9634
sbatp9635
Rp9636
(dp9637
g17
VVP
p9638
sbag5
(g6
g7
(lp9639
g410
atp9640
Rp9641
(dp9642
g17
g410
sbatp9643
Rp9644
(dp9645
g17
g241
sbatp9646
Rp9647
(dp9648
g17
VROOT
p9649
sbasg421
(icmyPackage
CorE
p9650
(dp9651
g424
(lp9652
(I0
I36
tp9653
a(I0
I40
tp9654
asg428
g5
(g6
g7
(lp9655
g9607
ag9641
atp9656
Rp9657
(dp9658
g17
g433
sbsbsg434
(icmyPackage
CorE
p9659
(dp9660
g424
(lp9661
(I0
I0
tp9662
a(I0
I34
tp9663
asg428
g5
(g6
g7
(lp9664
g9265
ag9272
ag9279
ag9340
ag9345
ag9352
ag9365
ag9372
ag9383
ag9562
atp9665
Rp9666
(dp9667
g17
g433
sbsbsg444
g8196
sg465
(lp9668
(icmyPackage
Sent
p9669
(dp9670
g469
I6
sg470
I40
sg471
S'The chairman of IBM is calling for the return of the mainframe, asserting it is cheaper to run 1,000 Linux systems on a mainframe than it is to run 1,000 Intel boxes -- mostly because the management costs dominate.'
p9671
sg473
I0
sg474
I185
sg428
(lp9672
g9647
asbasba(icmyPackage
CELink
p9673
(dp9674
g3
(lp9675
g5
(g6
g7
(lp9676
g5
(g6
g7
(lp9677
g5
(g6
g7
(lp9678
g5
(g6
g7
(lp9679
VAt
p9680
atp9681
Rp9682
(dp9683
g17
VIN
p9684
sbag5
(g6
g7
(lp9685
g5
(g6
g7
(lp9686
g5
(g6
g7
(lp9687
Vthe
p9688
atp9689
Rp9690
(dp9691
g17
VDT
p9692
sbag5
(g6
g7
(lp9693
Vbeginning
p9694
atp9695
Rp9696
(dp9697
g17
VNN
p9698
sbatp9699
Rp9700
(dp9701
g17
VNP
p9702
sbag5
(g6
g7
(lp9703
g5
(g6
g7
(lp9704
Vof
p9705
atp9706
Rp9707
(dp9708
g17
VIN
p9709
sbag5
(g6
g7
(lp9710
g5
(g6
g7
(lp9711
Vthe
p9712
atp9713
Rp9714
(dp9715
g17
VDT
p9716
sbag5
(g6
g7
(lp9717
V1990s
p9718
atp9719
Rp9720
(dp9721
g17
VNNS
p9722
sbatp9723
Rp9724
(dp9725
g17
VNP
p9726
sbatp9727
Rp9728
(dp9729
g17
VPP
p9730
sbatp9731
Rp9732
(dp9733
g17
VNP
p9734
sbatp9735
Rp9736
(dp9737
g17
VPP
p9738
sbag5
(g6
g7
(lp9739
g5
(g6
g7
(lp9740
Vfew
p9741
atp9742
Rp9743
(dp9744
g17
VJJ
p9745
sbag5
(g6
g7
(lp9746
VSMPs
p9747
atp9748
Rp9749
(dp9750
g17
VNNS
p9751
sbatp9752
Rp9753
(dp9754
g17
VNP
p9755
sbag5
(g6
g7
(lp9756
g5
(g6
g7
(lp9757
Vscaled
p9758
atp9759
Rp9760
(dp9761
g17
VVBD
p9762
sbag5
(g6
g7
(lp9763
g5
(g6
g7
(lp9764
Vwell
p9765
atp9766
Rp9767
(dp9768
g17
VRB
p9769
sbatp9770
Rp9771
(dp9772
g17
VADVP
p9773
sbag5
(g6
g7
(lp9774
g5
(g6
g7
(lp9775
Vbeyond
p9776
atp9777
Rp9778
(dp9779
g17
VIN
p9780
sbag5
(g6
g7
(lp9781
g5
(g6
g7
(lp9782
V8
p9783
atp9784
Rp9785
(dp9786
g17
VCD
p9787
sbag5
(g6
g7
(lp9788
Vprocessors
p9789
atp9790
Rp9791
(dp9792
g17
VNNS
p9793
sbatp9794
Rp9795
(dp9796
g17
VNP
p9797
sbatp9798
Rp9799
(dp9800
g17
VPP
p9801
sbatp9802
Rp9803
(dp9804
g17
VVP
p9805
sbag5
(g6
g7
(lp9806
g410
atp9807
Rp9808
(dp9809
g17
g410
sbatp9810
Rp9811
(dp9812
g17
g241
sbatp9813
Rp9814
(dp9815
g17
VROOT
p9816
sbag5
(g6
g7
(lp9817
g5
(g6
g7
(lp9818
g5
(g6
g7
(lp9819
g5
(g6
g7
(lp9820
VIn
p9821
atp9822
Rp9823
(dp9824
g17
VIN
p9825
sbag5
(g6
g7
(lp9826
g5
(g6
g7
(lp9827
Vretrospect
p9828
atp9829
Rp9830
(dp9831
g17
VNN
p9832
sbatp9833
Rp9834
(dp9835
g17
VNP
p9836
sbatp9837
Rp9838
(dp9839
g17
VPP
p9840
sbag5
(g6
g7
(lp9841
g5
(g6
g7
(lp9842
Vthis
p9843
atp9844
Rp9845
(dp9846
g17
VDT
p9847
sbatp9848
Rp9849
(dp9850
g17
VNP
p9851
sbag5
(g6
g7
(lp9852
g5
(g6
g7
(lp9853
Vwas
p9854
atp9855
Rp9856
(dp9857
g17
VVBD
p9858
sbag5
(g6
g7
(lp9859
g5
(g6
g7
(lp9860
Vdue
p9861
atp9862
Rp9863
(dp9864
g17
VJJ
p9865
sbag5
(g6
g7
(lp9866
g5
(g6
g7
(lp9867
Vto
p9868
atp9869
Rp9870
(dp9871
g17
VTO
p9872
sbag5
(g6
g7
(lp9873
g5
(g6
g7
(lp9874
g5
(g6
g7
(lp9875
g852
atp9876
Rp9877
(dp9878
g17
VDT
p9879
sbag5
(g6
g7
(lp9880
Vbus
p9881
atp9882
Rp9883
(dp9884
g17
VNN
p9885
sbatp9886
Rp9887
(dp9888
g17
VNP
p9889
sbag5
(g6
g7
(lp9890
g5
(g6
g7
(lp9891
Vrather
p9892
atp9893
Rp9894
(dp9895
g17
VRB
p9896
sbag5
(g6
g7
(lp9897
Vthan
p9898
atp9899
Rp9900
(dp9901
g17
VIN
p9902
sbatp9903
Rp9904
(dp9905
g17
VCONJP
p9906
sbag5
(g6
g7
(lp9907
g5
(g6
g7
(lp9908
g5
(g6
g7
(lp9909
Vswitched
p9910
atp9911
Rp9912
(dp9913
g17
VJJ
p9914
sbag5
(g6
g7
(lp9915
Vmemory
p9916
atp9917
Rp9918
(dp9919
g17
VNN
p9920
sbag5
(g6
g7
(lp9921
Vinterconnect
p9922
atp9923
Rp9924
(dp9925
g17
VNNS
p9926
sbatp9927
Rp9928
(dp9929
g17
VNP
p9930
sbag5
(g6
g7
(lp9931
g536
atp9932
Rp9933
(dp9934
g17
g536
sbag5
(g6
g7
(lp9935
g5
(g6
g7
(lp9936
Vunsophisticated
p9937
atp9938
Rp9939
(dp9940
g17
VJJ
p9941
sbag5
(g6
g7
(lp9942
Vcache
p9943
atp9944
Rp9945
(dp9946
g17
VNN
p9947
sbag5
(g6
g7
(lp9948
Vmanagement
p9949
atp9950
Rp9951
(dp9952
g17
VNN
p9953
sbatp9954
Rp9955
(dp9956
g17
VNP
p9957
sbag5
(g6
g7
(lp9958
g536
atp9959
Rp9960
(dp9961
g17
g536
sbag5
(g6
g7
(lp9962
Vand
p9963
atp9964
Rp9965
(dp9966
g17
VCC
p9967
sbag5
(g6
g7
(lp9968
g5
(g6
g7
(lp9969
Vignorant
p9970
atp9971
Rp9972
(dp9973
g17
VJJ
p9974
sbag5
(g6
g7
(lp9975
Vsoftware
p9976
atp9977
Rp9978
(dp9979
g17
VNN
p9980
sbatp9981
Rp9982
(dp9983
g17
VNP
p9984
sbatp9985
Rp9986
(dp9987
g17
VNP
p9988
sbatp9989
Rp9990
(dp9991
g17
VNP
p9992
sbatp9993
Rp9994
(dp9995
g17
VPP
p9996
sbatp9997
Rp9998
(dp9999
g17
VADJP
p10000
sbatp10001
Rp10002
(dp10003
g17
VVP
p10004
sbag5
(g6
g7
(lp10005
g410
atp10006
Rp10007
(dp10008
g17
g410
sbatp10009
Rp10010
(dp10011
g17
g241
sbatp10012
Rp10013
(dp10014
g17
VROOT
p10015
sbasg421
(icmyPackage
CorE
p10016
(dp10017
g424
(lp10018
(I1
I6
tp10019
a(I1
I20
tp10020
asg428
g9990
sbsg434
(icmyPackage
CorE
p10021
(dp10022
g424
(lp10023
(I0
I1
tp10024
a(I1
I1
tp10025
asg428
g5
(g6
g7
(lp10026
g9732
ag9753
ag9803
ag9808
ag9838
atp10027
Rp10028
(dp10029
g17
g433
sbsbsg444
(icmyPackage
pattern
p10030
(dp10031
g447
I5
sg448
I1
sg449
(lp10032
(lp10033
S'due'
p10034
aS'to'
p10035
aasg453
(lp10036
I4
aI1
aI2
asg455
(lp10037
S'Amazing things will happen. This is due to the fact that the space between does not belong to any of the cultures that refract one another.'
p10038
aS'But the difference between Java code and XSD remains; this is due to the fundamental nature of the mismatch between the two technologies.'
p10039
asg458
I102
sg459
(lp10040
(lp10041
S'&R'
p10042
aS'(,/./;/--)'
p10043
aS'(&AND)'
p10044
aS'&THIS'
p10045
aS'&BE'
p10046
aa(lp10047
S'&NP@C@'
p10048
aS'(&Clause@C@)'
p10049
aasbsg465
(lp10050
(icmyPackage
Sent
p10051
(dp10052
g469
I6
sg470
I41
sg471
S'At the beginning of the 1990s few SMPs scaled well beyond 8 processors.'
p10053
sg473
I0
sg474
I194
sg428
(lp10054
g9814
asba(icmyPackage
Sent
p10055
(dp10056
g469
I6
sg470
I41
sg471
S'In retrospect this was due to a bus rather than switched memory interconnect, unsophisticated cache management, and ignorant software.'
p10057
sg473
I0
sg474
I195
sg428
(lp10058
g10013
asbasba(icmyPackage
CELink
p10059
(dp10060
g3
(lp10061
g5
(g6
g7
(lp10062
g5
(g6
g7
(lp10063
g5
(g6
g7
(lp10064
g5
(g6
g7
(lp10065
VInterestingly
p10066
atp10067
Rp10068
(dp10069
g17
VVB
p10070
sbag5
(g6
g7
(lp10071
g5
(g6
g7
(lp10072
g5
(g6
g7
(lp10073
Vthey
p10074
atp10075
Rp10076
(dp10077
g17
VPRP
p10078
sbatp10079
Rp10080
(dp10081
g17
VNP
p10082
sbag5
(g6
g7
(lp10083
g5
(g6
g7
(lp10084
Vachieve
p10085
atp10086
Rp10087
(dp10088
g17
VVB
p10089
sbag5
(g6
g7
(lp10090
g5
(g6
g7
(lp10091
Vthis
p10092
atp10093
Rp10094
(dp10095
g17
VDT
p10096
sbag5
(g6
g7
(lp10097
Vscaling
p10098
atp10099
Rp10100
(dp10101
g17
VNN
p10102
sbatp10103
Rp10104
(dp10105
g17
VNP
p10106
sbag5
(g6
g7
(lp10107
g5
(g6
g7
(lp10108
Vby
p10109
atp10110
Rp10111
(dp10112
g17
VIN
p10113
sbag5
(g6
g7
(lp10114
g5
(g6
g7
(lp10115
g5
(g6
g7
(lp10116
Vrecognizing
p10117
atp10118
Rp10119
(dp10120
g17
VVBG
p10121
sbag5
(g6
g7
(lp10122
g5
(g6
g7
(lp10123
Vthat
p10124
atp10125
Rp10126
(dp10127
g17
VIN
p10128
sbag5
(g6
g7
(lp10129
g5
(g6
g7
(lp10130
g5
(g6
g7
(lp10131
Vcache
p10132
atp10133
Rp10134
(dp10135
g17
VNN
p10136
sbag5
(g6
g7
(lp10137
Vlocality
p10138
atp10139
Rp10140
(dp10141
g17
VNN
p10142
sbatp10143
Rp10144
(dp10145
g17
VNP
p10146
sbag5
(g6
g7
(lp10147
g5
(g6
g7
(lp10148
Vis
p10149
atp10150
Rp10151
(dp10152
g17
VVBZ
p10153
sbag5
(g6
g7
(lp10154
g5
(g6
g7
(lp10155
Vcritical
p10156
atp10157
Rp10158
(dp10159
g17
VJJ
p10160
sbatp10161
Rp10162
(dp10163
g17
VADJP
p10164
sbag5
(g6
g7
(lp10165
g536
atp10166
Rp10167
(dp10168
g17
g536
sbag5
(g6
g7
(lp10169
g5
(g6
g7
(lp10170
Vso
p10171
atp10172
Rp10173
(dp10174
g17
VIN
p10175
sbag5
(g6
g7
(lp10176
g5
(g6
g7
(lp10177
g5
(g6
g7
(lp10178
g5
(g6
g7
(lp10179
Vsharing
p10180
atp10181
Rp10182
(dp10183
g17
VNN
p10184
sbatp10185
Rp10186
(dp10187
g17
VNP
p10188
sbag5
(g6
g7
(lp10189
g5
(g6
g7
(lp10190
Vof
p10191
atp10192
Rp10193
(dp10194
g17
VIN
p10195
sbag5
(g6
g7
(lp10196
g5
(g6
g7
(lp10197
Vmemory
p10198
atp10199
Rp10200
(dp10201
g17
VNN
p10202
sbatp10203
Rp10204
(dp10205
g17
VNP
p10206
sbatp10207
Rp10208
(dp10209
g17
VPP
p10210
sbatp10211
Rp10212
(dp10213
g17
VNP
p10214
sbag5
(g6
g7
(lp10215
g5
(g6
g7
(lp10216
Vis
p10217
atp10218
Rp10219
(dp10220
g17
VVBZ
p10221
sbag5
(g6
g7
(lp10222
g5
(g6
g7
(lp10223
Vused
p10224
atp10225
Rp10226
(dp10227
g17
VVBN
p10228
sbag5
(g6
g7
(lp10229
g5
(g6
g7
(lp10230
g5
(g6
g7
(lp10231
Vvery
p10232
atp10233
Rp10234
(dp10235
g17
VRB
p10236
sbag5
(g6
g7
(lp10237
Vsparingly
p10238
atp10239
Rp10240
(dp10241
g17
VJJ
p10242
sbatp10243
Rp10244
(dp10245
g17
VADJP
p10246
sbatp10247
Rp10248
(dp10249
g17
g241
sbatp10250
Rp10251
(dp10252
g17
VVP
p10253
sbatp10254
Rp10255
(dp10256
g17
VVP
p10257
sbatp10258
Rp10259
(dp10260
g17
g241
sbatp10261
Rp10262
(dp10263
g17
VSBAR
p10264
sbatp10265
Rp10266
(dp10267
g17
VVP
p10268
sbatp10269
Rp10270
(dp10271
g17
g241
sbatp10272
Rp10273
(dp10274
g17
VSBAR
p10275
sbatp10276
Rp10277
(dp10278
g17
VVP
p10279
sbatp10280
Rp10281
(dp10282
g17
g241
sbatp10283
Rp10284
(dp10285
g17
VPP
p10286
sbatp10287
Rp10288
(dp10289
g17
VVP
p10290
sbatp10291
Rp10292
(dp10293
g17
g241
sbatp10294
Rp10295
(dp10296
g17
VVP
p10297
sbag5
(g6
g7
(lp10298
g290
atp10299
Rp10300
(dp10301
g17
g290
sbatp10302
Rp10303
(dp10304
g17
g241
sbatp10305
Rp10306
(dp10307
g17
VROOT
p10308
sbasg421
(icmyPackage
CorE
p10309
(dp10310
g424
(lp10311
(I0
I0
tp10312
a(I0
I11
tp10313
asg428
g5
(g6
g7
(lp10314
g10068
ag10080
ag10087
ag10104
ag10111
ag10119
ag10126
ag10144
ag10151
ag10162
atp10315
Rp10316
(dp10317
g17
g433
sbsbsg434
(icmyPackage
CorE
p10318
(dp10319
g424
(lp10320
(I0
I14
tp10321
a(I0
I21
tp10322
asg428
g5
(g6
g7
(lp10323
g10259
ag10300
atp10324
Rp10325
(dp10326
g17
g433
sbsbsg444
g816
sg465
(lp10327
(icmyPackage
Sent
p10328
(dp10329
g469
I6
sg470
I41
sg471
S'Interestingly they achieve this scaling by recognizing that cache locality is critical, so sharing of memory is used very sparingly:'
p10330
sg473
I0
sg474
I198
sg428
(lp10331
g10306
asbasba(icmyPackage
CELink
p10332
(dp10333
g3
(lp10334
g5
(g6
g7
(lp10335
g5
(g6
g7
(lp10336
g5
(g6
g7
(lp10337
g5
(g6
g7
(lp10338
VIdeally
p10339
atp10340
Rp10341
(dp10342
g17
VRB
p10343
sbatp10344
Rp10345
(dp10346
g17
VADVP
p10347
sbag5
(g6
g7
(lp10348
g536
atp10349
Rp10350
(dp10351
g17
g536
sbag5
(g6
g7
(lp10352
g5
(g6
g7
(lp10353
g5
(g6
g7
(lp10354
Veach
p10355
atp10356
Rp10357
(dp10358
g17
VDT
p10359
sbatp10360
Rp10361
(dp10362
g17
VNP
p10363
sbag5
(g6
g7
(lp10364
g5
(g6
g7
(lp10365
Vof
p10366
atp10367
Rp10368
(dp10369
g17
VIN
p10370
sbag5
(g6
g7
(lp10371
g5
(g6
g7
(lp10372
Vthe
p10373
atp10374
Rp10375
(dp10376
g17
VDT
p10377
sbag5
(g6
g7
(lp10378
V64
p10379
atp10380
Rp10381
(dp10382
g17
VCD
p10383
sbag5
(g6
g7
(lp10384
Vprocessors
p10385
atp10386
Rp10387
(dp10388
g17
VNNS
p10389
sbatp10390
Rp10391
(dp10392
g17
VNP
p10393
sbatp10394
Rp10395
(dp10396
g17
VPP
p10397
sbatp10398
Rp10399
(dp10400
g17
VNP
p10401
sbag5
(g6
g7
(lp10402
g5
(g6
g7
(lp10403
Vexecutes
p10404
atp10405
Rp10406
(dp10407
g17
VVBZ
p10408
sbag5
(g6
g7
(lp10409
g5
(g6
g7
(lp10410
g5
(g6
g7
(lp10411
Vin
p10412
atp10413
Rp10414
(dp10415
g17
VIN
p10416
sbag5
(g6
g7
(lp10417
g5
(g6
g7
(lp10418
Vits
p10419
atp10420
Rp10421
(dp10422
g17
VPRP$
p10423
sbag5
(g6
g7
(lp10424
Vown
p10425
atp10426
Rp10427
(dp10428
g17
VJJ
p10429
sbag5
(g6
g7
(lp10430
Vcache
p10431
atp10432
Rp10433
(dp10434
g17
VNN
p10435
sbatp10436
Rp10437
(dp10438
g17
VNP
p10439
sbatp10440
Rp10441
(dp10442
g17
VPP
p10443
sbag5
(g6
g7
(lp10444
Vand
p10445
atp10446
Rp10447
(dp10448
g17
VCC
p10449
sbag5
(g6
g7
(lp10450
g5
(g6
g7
(lp10451
Von
p10452
atp10453
Rp10454
(dp10455
g17
VIN
p10456
sbag5
(g6
g7
(lp10457
g5
(g6
g7
(lp10458
g5
(g6
g7
(lp10459
Vits
p10460
atp10461
Rp10462
(dp10463
g17
VPRP$
p10464
sbag5
(g6
g7
(lp10465
Vown
p10466
atp10467
Rp10468
(dp10469
g17
VJJ
p10470
sbag5
(g6
g7
(lp10471
Vpartition
p10472
atp10473
Rp10474
(dp10475
g17
VNN
p10476
sbatp10477
Rp10478
(dp10479
g17
VNP
p10480
sbag5
(g6
g7
(lp10481
g5
(g6
g7
(lp10482
Vof
p10483
atp10484
Rp10485
(dp10486
g17
VIN
p10487
sbag5
(g6
g7
(lp10488
g5
(g6
g7
(lp10489
g5
(g6
g7
(lp10490
Vthe
p10491
atp10492
Rp10493
(dp10494
g17
VDT
p10495
sbag5
(g6
g7
(lp10496
Vshared
p10497
atp10498
Rp10499
(dp10500
g17
VVBN
p10501
sbag5
(g6
g7
(lp10502
Vmemory
p10503
atp10504
Rp10505
(dp10506
g17
VNN
p10507
sbatp10508
Rp10509
(dp10510
g17
VNP
p10511
sbag5
(g6
g7
(lp10512
g536
atp10513
Rp10514
(dp10515
g17
g536
sbag5
(g6
g7
(lp10516
g5
(g6
g7
(lp10517
Vonly
p10518
atp10519
Rp10520
(dp10521
g17
VRB
p10522
sbag5
(g6
g7
(lp10523
g5
(g6
g7
(lp10524
g5
(g6
g7
(lp10525
Voccasionally
p10526
atp10527
Rp10528
(dp10529
g17
VRB
p10530
sbatp10531
Rp10532
(dp10533
g17
VADVP
p10534
sbag5
(g6
g7
(lp10535
g5
(g6
g7
(lp10536
Vreading
p10537
atp10538
Rp10539
(dp10540
g17
VVBG
p10541
sbag5
(g6
g7
(lp10542
Vand
p10543
atp10544
Rp10545
(dp10546
g17
VCC
p10547
sbag5
(g6
g7
(lp10548
Vwriting
p10549
atp10550
Rp10551
(dp10552
g17
VVBG
p10553
sbag5
(g6
g7
(lp10554
g5
(g6
g7
(lp10555
g5
(g6
g7
(lp10556
Vmemory
p10557
atp10558
Rp10559
(dp10560
g17
VNN
p10561
sbatp10562
Rp10563
(dp10564
g17
VNP
p10565
sbag5
(g6
g7
(lp10566
g5
(g6
g7
(lp10567
Vshared
p10568
atp10569
Rp10570
(dp10571
g17
VVBN
p10572
sbag5
(g6
g7
(lp10573
g5
(g6
g7
(lp10574
Vwith
p10575
atp10576
Rp10577
(dp10578
g17
VIN
p10579
sbag5
(g6
g7
(lp10580
g5
(g6
g7
(lp10581
Vother
p10582
atp10583
Rp10584
(dp10585
g17
VJJ
p10586
sbag5
(g6
g7
(lp10587
Vprocessors
p10588
atp10589
Rp10590
(dp10591
g17
VNNS
p10592
sbatp10593
Rp10594
(dp10595
g17
VNP
p10596
sbatp10597
Rp10598
(dp10599
g17
VPP
p10600
sbatp10601
Rp10602
(dp10603
g17
VVP
p10604
sbatp10605
Rp10606
(dp10607
g17
VNP
p10608
sbatp10609
Rp10610
(dp10611
g17
VVP
p10612
sbatp10613
Rp10614
(dp10615
g17
g241
sbatp10616
Rp10617
(dp10618
g17
VSBAR
p10619
sbatp10620
Rp10621
(dp10622
g17
VNP
p10623
sbatp10624
Rp10625
(dp10626
g17
VPP
p10627
sbatp10628
Rp10629
(dp10630
g17
VNP
p10631
sbatp10632
Rp10633
(dp10634
g17
VPP
p10635
sbatp10636
Rp10637
(dp10638
g17
VPP
p10639
sbatp10640
Rp10641
(dp10642
g17
VVP
p10643
sbag5
(g6
g7
(lp10644
g410
atp10645
Rp10646
(dp10647
g17
g410
sbatp10648
Rp10649
(dp10650
g17
g241
sbatp10651
Rp10652
(dp10653
g17
VROOT
p10654
sbag5
(g6
g7
(lp10655
g5
(g6
g7
(lp10656
g5
(g6
g7
(lp10657
g5
(g6
g7
(lp10658
VSo
p10659
atp10660
Rp10661
(dp10662
g17
VRB
p10663
sbatp10664
Rp10665
(dp10666
g17
VADVP
p10667
sbag5
(g6
g7
(lp10668
g536
atp10669
Rp10670
(dp10671
g17
g536
sbag5
(g6
g7
(lp10672
g5
(g6
g7
(lp10673
Vparadoxically
p10674
atp10675
Rp10676
(dp10677
g17
VRB
p10678
sbatp10679
Rp10680
(dp10681
g17
VADVP
p10682
sbag5
(g6
g7
(lp10683
g536
atp10684
Rp10685
(dp10686
g17
g536
sbag5
(g6
g7
(lp10687
g5
(g6
g7
(lp10688
Vshared
p10689
atp10690
Rp10691
(dp10692
g17
VVBD
p10693
sbag5
(g6
g7
(lp10694
g5
(g6
g7
(lp10695
g5
(g6
g7
(lp10696
g5
(g6
g7
(lp10697
Vmemory
p10698
atp10699
Rp10700
(dp10701
g17
VNN
p10702
sbag5
(g6
g7
(lp10703
Vsystems
p10704
atp10705
Rp10706
(dp10707
g17
VNNS
p10708
sbatp10709
Rp10710
(dp10711
g17
VNP
p10712
sbag5
(g6
g7
(lp10713
g5
(g6
g7
(lp10714
Vhave
p10715
atp10716
Rp10717
(dp10718
g17
VVBP
p10719
sbag5
(g6
g7
(lp10720
g5
(g6
g7
(lp10721
Vbeen
p10722
atp10723
Rp10724
(dp10725
g17
VVBN
p10726
sbag5
(g6
g7
(lp10727
g5
(g6
g7
(lp10728
Vsuccessful
p10729
atp10730
Rp10731
(dp10732
g17
VJJ
p10733
sbag5
(g6
g7
(lp10734
g5
(g6
g7
(lp10735
Vby
p10736
atp10737
Rp10738
(dp10739
g17
VIN
p10740
sbag5
(g6
g7
(lp10741
g5
(g6
g7
(lp10742
g5
(g6
g7
(lp10743
Vadopting
p10744
atp10745
Rp10746
(dp10747
g17
VVBG
p10748
sbag5
(g6
g7
(lp10749
g5
(g6
g7
(lp10750
g852
atp10751
Rp10752
(dp10753
g17
VDT
p10754
sbag5
(g6
g7
(lp10755
Vshared-nothing
p10756
atp10757
Rp10758
(dp10759
g17
VJJ
p10760
sbag5
(g6
g7
(lp10761
Vsoftware
p10762
atp10763
Rp10764
(dp10765
g17
VNN
p10766
sbag5
(g6
g7
(lp10767
Varchitecture
p10768
atp10769
Rp10770
(dp10771
g17
VNN
p10772
sbatp10773
Rp10774
(dp10775
g17
VNP
p10776
sbatp10777
Rp10778
(dp10779
g17
VVP
p10780
sbatp10781
Rp10782
(dp10783
g17
g241
sbatp10784
Rp10785
(dp10786
g17
VPP
p10787
sbatp10788
Rp10789
(dp10790
g17
VADJP
p10791
sbatp10792
Rp10793
(dp10794
g17
VVP
p10795
sbatp10796
Rp10797
(dp10798
g17
VVP
p10799
sbatp10800
Rp10801
(dp10802
g17
g241
sbatp10803
Rp10804
(dp10805
g17
VSBAR
p10806
sbatp10807
Rp10808
(dp10809
g17
VVP
p10810
sbag5
(g6
g7
(lp10811
g410
atp10812
Rp10813
(dp10814
g17
g410
sbatp10815
Rp10816
(dp10817
g17
g241
sbatp10818
Rp10819
(dp10820
g17
VROOT
p10821
sbasg421
(icmyPackage
CorE
p10822
(dp10823
g424
(lp10824
(I0
I0
tp10825
a(I0
I31
tp10826
asg428
g5
(g6
g7
(lp10827
g10345
ag10350
ag10399
ag10641
atp10828
Rp10829
(dp10830
g17
g433
sbsbsg434
(icmyPackage
CorE
p10831
(dp10832
g424
(lp10833
(I1
I2
tp10834
a(I1
I16
tp10835
asg428
g5
(g6
g7
(lp10836
g10680
ag10685
ag10808
ag10813
atp10837
Rp10838
(dp10839
g17
g433
sbsbsg444
g816
sg465
(lp10840
(icmyPackage
Sent
p10841
(dp10842
g469
I6
sg470
I41
sg471
S'Ideally, each of the 64 processors executes in its own cache and on its own partition of the shared memory, only occasionally reading and writing memory shared with other processors.'
p10843
sg473
I0
sg474
I200
sg428
(lp10844
g10652
asba(icmyPackage
Sent
p10845
(dp10846
g469
I6
sg470
I41
sg471
S'So, paradoxically, shared memory systems have been successful by adopting a shared-nothing software architecture.'
p10847
sg473
I0
sg474
I201
sg428
(lp10848
g10819
asbasba(icmyPackage
CELink
p10849
(dp10850
g3
(lp10851
g5
(g6
g7
(lp10852
g5
(g6
g7
(lp10853
g5
(g6
g7
(lp10854
g5
(g6
g7
(lp10855
g5
(g6
g7
(lp10856
VRAM
p10857
atp10858
Rp10859
(dp10860
g17
VNNP
p10861
sbatp10862
Rp10863
(dp10864
g17
VNP
p10865
sbag5
(g6
g7
(lp10866
g5
(g6
g7
(lp10867
Vis
p10868
atp10869
Rp10870
(dp10871
g17
VVBZ
p10872
sbag5
(g6
g7
(lp10873
g5
(g6
g7
(lp10874
Vcheap
p10875
atp10876
Rp10877
(dp10878
g17
VJJ
p10879
sbatp10880
Rp10881
(dp10882
g17
VADJP
p10883
sbatp10884
Rp10885
(dp10886
g17
VVP
p10887
sbatp10888
Rp10889
(dp10890
g17
g241
sbag5
(g6
g7
(lp10891
Vand
p10892
atp10893
Rp10894
(dp10895
g17
VCC
p10896
sbag5
(g6
g7
(lp10897
Vso
p10898
atp10899
Rp10900
(dp10901
g17
VRB
p10902
sbag5
(g6
g7
(lp10903
g5
(g6
g7
(lp10904
g5
(g6
g7
(lp10905
Vthe
p10906
atp10907
Rp10908
(dp10909
g17
VDT
p10910
sbag5
(g6
g7
(lp10911
Vpopular
p10912
atp10913
Rp10914
(dp10915
g17
VJJ
p10916
sbag5
(g6
g7
(lp10917
Vdata
p10918
atp10919
Rp10920
(dp10921
g17
VNNS
p10922
sbatp10923
Rp10924
(dp10925
g17
VNP
p10926
sbag5
(g6
g7
(lp10927
g5
(g6
g7
(lp10928
Vis
p10929
atp10930
Rp10931
(dp10932
g17
VVBZ
p10933
sbag5
(g6
g7
(lp10934
g5
(g6
g7
(lp10935
Vin
p10936
atp10937
Rp10938
(dp10939
g17
VIN
p10940
sbag5
(g6
g7
(lp10941
g5
(g6
g7
(lp10942
g5
(g6
g7
(lp10943
VRAM
p10944
atp10945
Rp10946
(dp10947
g17
VNNP
p10948
sbatp10949
Rp10950
(dp10951
g17
VNP
p10952
sbag5
(g6
g7
(lp10953
g5
(g6
g7
(lp10954
Vnot
p10955
atp10956
Rp10957
(dp10958
g17
VRB
p10959
sbag5
(g6
g7
(lp10960
Von
p10961
atp10962
Rp10963
(dp10964
g17
VIN
p10965
sbag5
(g6
g7
(lp10966
g5
(g6
g7
(lp10967
Vdisk
p10968
atp10969
Rp10970
(dp10971
g17
VNN
p10972
sbatp10973
Rp10974
(dp10975
g17
VNP
p10976
sbatp10977
Rp10978
(dp10979
g17
VPP
p10980
sbatp10981
Rp10982
(dp10983
g17
VNP
p10984
sbatp10985
Rp10986
(dp10987
g17
VPP
p10988
sbatp10989
Rp10990
(dp10991
g17
VVP
p10992
sbatp10993
Rp10994
(dp10995
g17
g241
sbag5
(g6
g7
(lp10996
g410
atp10997
Rp10998
(dp10999
g17
g410
sbatp11000
Rp11001
(dp11002
g17
g241
sbatp11003
Rp11004
(dp11005
g17
VROOT
p11006
sbasg421
(icmyPackage
CorE
p11007
(dp11008
g424
(lp11009
(I0
I0
tp11010
a(I0
I2
tp11011
asg428
g10889
sbsg434
(icmyPackage
CorE
p11012
(dp11013
g424
(lp11014
(I0
I5
tp11015
a(I0
I14
tp11016
asg428
g5
(g6
g7
(lp11017
g10994
ag10998
atp11018
Rp11019
(dp11020
g17
g433
sbsbsg444
g816
sg465
(lp11021
(icmyPackage
Sent
p11022
(dp11023
g469
I6
sg470
I42
sg471
S'RAM is cheap and so the popular data is in RAM not on disk.'
p11024
sg473
I0
sg474
I205
sg428
(lp11025
g11004
asbasba(icmyPackage
CELink
p11026
(dp11027
g3
(lp11028
g5
(g6
g7
(lp11029
g5
(g6
g7
(lp11030
g5
(g6
g7
(lp11031
g5
(g6
g7
(lp11032
VIt
p11033
atp11034
Rp11035
(dp11036
g17
VPRP
p11037
sbatp11038
Rp11039
(dp11040
g17
VNP
p11041
sbag5
(g6
g7
(lp11042
g5
(g6
g7
(lp11043
Vis
p11044
atp11045
Rp11046
(dp11047
g17
VVBZ
p11048
sbag5
(g6
g7
(lp11049
g5
(g6
g7
(lp11050
g5
(g6
g7
(lp11051
Vgenerally
p11052
atp11053
Rp11054
(dp11055
g17
VRB
p11056
sbag5
(g6
g7
(lp11057
Vfaster
p11058
atp11059
Rp11060
(dp11061
g17
VJJR
p11062
sbag5
(g6
g7
(lp11063
g5
(g6
g7
(lp11064
Vto
p11065
atp11066
Rp11067
(dp11068
g17
VTO
p11069
sbag5
(g6
g7
(lp11070
g5
(g6
g7
(lp11071
VRPC
p11072
atp11073
Rp11074
(dp11075
g17
VNNP
p11076
sbatp11077
Rp11078
(dp11079
g17
VNP
p11080
sbatp11081
Rp11082
(dp11083
g17
VPP
p11084
sbatp11085
Rp11086
(dp11087
g17
VADJP
p11088
sbag5
(g6
g7
(lp11089
g5
(g6
g7
(lp11090
Vto
p11091
atp11092
Rp11093
(dp11094
g17
VTO
p11095
sbag5
(g6
g7
(lp11096
g5
(g6
g7
(lp11097
g5
(g6
g7
(lp11098
Vthe
p11099
atp11100
Rp11101
(dp11102
g17
VDT
p11103
sbag5
(g6
g7
(lp11104
Vcached
p11105
atp11106
Rp11107
(dp11108
g17
VJJ
p11109
sbag5
(g6
g7
(lp11110
Vversion
p11111
atp11112
Rp11113
(dp11114
g17
VNN
p11115
sbatp11116
Rp11117
(dp11118
g17
VNP
p11119
sbag5
(g6
g7
(lp11120
g5
(g6
g7
(lp11121
Vof
p11122
atp11123
Rp11124
(dp11125
g17
VIN
p11126
sbag5
(g6
g7
(lp11127
g5
(g6
g7
(lp11128
Vthe
p11129
atp11130
Rp11131
(dp11132
g17
VDT
p11133
sbag5
(g6
g7
(lp11134
Vdata
p11135
atp11136
Rp11137
(dp11138
g17
VNNS
p11139
sbatp11140
Rp11141
(dp11142
g17
VNP
p11143
sbatp11144
Rp11145
(dp11146
g17
VPP
p11147
sbatp11148
Rp11149
(dp11150
g17
VNP
p11151
sbatp11152
Rp11153
(dp11154
g17
VPP
p11155
sbatp11156
Rp11157
(dp11158
g17
VADJP
p11159
sbag5
(g6
g7
(lp11160
g5
(g6
g7
(lp11161
Vthan
p11162
atp11163
Rp11164
(dp11165
g17
VIN
p11166
sbag5
(g6
g7
(lp11167
g5
(g6
g7
(lp11168
g5
(g6
g7
(lp11169
Vit
p11170
atp11171
Rp11172
(dp11173
g17
VPRP
p11174
sbatp11175
Rp11176
(dp11177
g17
VNP
p11178
sbag5
(g6
g7
(lp11179
g5
(g6
g7
(lp11180
Vis
p11181
atp11182
Rp11183
(dp11184
g17
VVBZ
p11185
sbag5
(g6
g7
(lp11186
g5
(g6
g7
(lp11187
g5
(g6
g7
(lp11188
Vto
p11189
atp11190
Rp11191
(dp11192
g17
VTO
p11193
sbag5
(g6
g7
(lp11194
g5
(g6
g7
(lp11195
Vread
p11196
atp11197
Rp11198
(dp11199
g17
VVB
p11200
sbag5
(g6
g7
(lp11201
g5
(g6
g7
(lp11202
Vit
p11203
atp11204
Rp11205
(dp11206
g17
VPRP
p11207
sbatp11208
Rp11209
(dp11210
g17
VNP
p11211
sbag5
(g6
g7
(lp11212
g5
(g6
g7
(lp11213
Voff
p11214
atp11215
Rp11216
(dp11217
g17
VIN
p11218
sbag5
(g6
g7
(lp11219
g5
(g6
g7
(lp11220
Vshared
p11221
atp11222
Rp11223
(dp11224
g17
VVBN
p11225
sbag5
(g6
g7
(lp11226
Vdisk
p11227
atp11228
Rp11229
(dp11230
g17
VNN
p11231
sbatp11232
Rp11233
(dp11234
g17
VNP
p11235
sbatp11236
Rp11237
(dp11238
g17
VPP
p11239
sbatp11240
Rp11241
(dp11242
g17
VVP
p11243
sbatp11244
Rp11245
(dp11246
g17
VVP
p11247
sbatp11248
Rp11249
(dp11250
g17
g241
sbatp11251
Rp11252
(dp11253
g17
VVP
p11254
sbatp11255
Rp11256
(dp11257
g17
g241
sbatp11258
Rp11259
(dp11260
g17
VSBAR
p11261
sbatp11262
Rp11263
(dp11264
g17
VVP
p11265
sbag5
(g6
g7
(lp11266
g410
atp11267
Rp11268
(dp11269
g17
g410
sbatp11270
Rp11271
(dp11272
g17
g241
sbatp11273
Rp11274
(dp11275
g17
VROOT
p11276
sbag5
(g6
g7
(lp11277
g5
(g6
g7
(lp11278
g5
(g6
g7
(lp11279
g5
(g6
g7
(lp11280
VSo
p11281
atp11282
Rp11283
(dp11284
g17
VRB
p11285
sbatp11286
Rp11287
(dp11288
g17
VADVP
p11289
sbag5
(g6
g7
(lp11290
g536
atp11291
Rp11292
(dp11293
g17
g536
sbag5
(g6
g7
(lp11294
g5
(g6
g7
(lp11295
Vshared
p11296
atp11297
Rp11298
(dp11299
g17
VVBN
p11300
sbag5
(g6
g7
(lp11301
Vdisk
p11302
atp11303
Rp11304
(dp11305
g17
VNN
p11306
sbag5
(g6
g7
(lp11307
Vsystems
p11308
atp11309
Rp11310
(dp11311
g17
VNNS
p11312
sbatp11313
Rp11314
(dp11315
g17
VNP
p11316
sbag5
(g6
g7
(lp11317
g5
(g6
g7
(lp11318
Vhave
p11319
atp11320
Rp11321
(dp11322
g17
VVBP
p11323
sbag5
(g6
g7
(lp11324
g5
(g6
g7
(lp11325
Vmorphed
p11326
atp11327
Rp11328
(dp11329
g17
VVBN
p11330
sbag5
(g6
g7
(lp11331
g5
(g6
g7
(lp11332
g5
(g6
g7
(lp11333
Vto
p11334
atp11335
Rp11336
(dp11337
g17
VTO
p11338
sbag5
(g6
g7
(lp11339
g5
(g6
g7
(lp11340
Vpartitioned
p11341
atp11342
Rp11343
(dp11344
g17
VVB
p11345
sbag5
(g6
g7
(lp11346
g5
(g6
g7
(lp11347
Vserved-disk
p11348
atp11349
Rp11350
(dp11351
g17
VJJ
p11352
sbag5
(g6
g7
(lp11353
Vsystems
p11354
atp11355
Rp11356
(dp11357
g17
VNNS
p11358
sbatp11359
Rp11360
(dp11361
g17
VNP
p11362
sbag5
(g6
g7
(lp11363
g5
(g6
g7
(lp11364
g5
(g6
g7
(lp11365
Vto
p11366
atp11367
Rp11368
(dp11369
g17
VTO
p11370
sbag5
(g6
g7
(lp11371
g5
(g6
g7
(lp11372
Vimprove
p11373
atp11374
Rp11375
(dp11376
g17
VVB
p11377
sbag5
(g6
g7
(lp11378
g5
(g6
g7
(lp11379
Vlocality
p11380
atp11381
Rp11382
(dp11383
g17
VRB
p11384
sbatp11385
Rp11386
(dp11387
g17
VADVP
p11388
sbatp11389
Rp11390
(dp11391
g17
VVP
p11392
sbatp11393
Rp11394
(dp11395
g17
VVP
p11396
sbatp11397
Rp11398
(dp11399
g17
g241
sbatp11400
Rp11401
(dp11402
g17
VVP
p11403
sbatp11404
Rp11405
(dp11406
g17
VVP
p11407
sbatp11408
Rp11409
(dp11410
g17
g241
sbatp11411
Rp11412
(dp11413
g17
VVP
p11414
sbatp11415
Rp11416
(dp11417
g17
VVP
p11418
sbag5
(g6
g7
(lp11419
g410
atp11420
Rp11421
(dp11422
g17
g410
sbatp11423
Rp11424
(dp11425
g17
g241
sbatp11426
Rp11427
(dp11428
g17
VROOT
p11429
sbasg421
(icmyPackage
CorE
p11430
(dp11431
g424
(lp11432
(I0
I0
tp11433
a(I0
I21
tp11434
asg428
g5
(g6
g7
(lp11435
g11039
ag11263
atp11436
Rp11437
(dp11438
g17
g433
sbsbsg434
(icmyPackage
CorE
p11439
(dp11440
g424
(lp11441
(I1
I2
tp11442
a(I1
I14
tp11443
asg428
g5
(g6
g7
(lp11444
g11314
ag11416
ag11421
atp11445
Rp11446
(dp11447
g17
g433
sbsbsg444
g816
sg465
(lp11448
(icmyPackage
Sent
p11449
(dp11450
g469
I6
sg470
I42
sg471
S'It is generally faster to RPC to the cached version of the data than it is to read it off shared disk.'
p11451
sg473
I0
sg474
I206
sg428
(lp11452
g11274
asba(icmyPackage
Sent
p11453
(dp11454
g469
I6
sg470
I42
sg471
S'So, shared disk systems have morphed to partitioned served-disk systems to improve locality.'
p11455
sg473
I0
sg474
I207
sg428
(lp11456
g11427
asbasba(icmyPackage
CELink
p11457
(dp11458
g3
(lp11459
g5
(g6
g7
(lp11460
g5
(g6
g7
(lp11461
g5
(g6
g7
(lp11462
g5
(g6
g7
(lp11463
VIndeed
p11464
atp11465
Rp11466
(dp11467
g17
VRB
p11468
sbatp11469
Rp11470
(dp11471
g17
VADVP
p11472
sbag5
(g6
g7
(lp11473
g536
atp11474
Rp11475
(dp11476
g17
g536
sbag5
(g6
g7
(lp11477
g5
(g6
g7
(lp11478
Vgradually
p11479
atp11480
Rp11481
(dp11482
g17
VRB
p11483
sbatp11484
Rp11485
(dp11486
g17
VADVP
p11487
sbag5
(g6
g7
(lp11488
g5
(g6
g7
(lp11489
Vthey
p11490
atp11491
Rp11492
(dp11493
g17
VPRP
p11494
sbatp11495
Rp11496
(dp11497
g17
VNP
p11498
sbag5
(g6
g7
(lp11499
g5
(g6
g7
(lp11500
Vare
p11501
atp11502
Rp11503
(dp11504
g17
VVBP
p11505
sbag5
(g6
g7
(lp11506
g5
(g6
g7
(lp11507
Vrunning
p11508
atp11509
Rp11510
(dp11511
g17
VVBG
p11512
sbag5
(g6
g7
(lp11513
g5
(g6
g7
(lp11514
g5
(g6
g7
(lp11515
Vmore
p11516
atp11517
Rp11518
(dp11519
g17
VJJR
p11520
sbag5
(g6
g7
(lp11521
Vand
p11522
atp11523
Rp11524
(dp11525
g17
VCC
p11526
sbag5
(g6
g7
(lp11527
Vmore
p11528
atp11529
Rp11530
(dp11531
g17
VJJR
p11532
sbatp11533
Rp11534
(dp11535
g17
VNP
p11536
sbag5
(g6
g7
(lp11537
g5
(g6
g7
(lp11538
Vof
p11539
atp11540
Rp11541
(dp11542
g17
VIN
p11543
sbag5
(g6
g7
(lp11544
g5
(g6
g7
(lp11545
Vthe
p11546
atp11547
Rp11548
(dp11549
g17
VDT
p11550
sbag5
(g6
g7
(lp11551
Vdatabase
p11552
atp11553
Rp11554
(dp11555
g17
VNN
p11556
sbag5
(g6
g7
(lp11557
Vfunctionally
p11558
atp11559
Rp11560
(dp11561
g17
VNN
p11562
sbatp11563
Rp11564
(dp11565
g17
VNP
p11566
sbatp11567
Rp11568
(dp11569
g17
VPP
p11570
sbatp11571
Rp11572
(dp11573
g17
VNP
p11574
sbag5
(g6
g7
(lp11575
g5
(g6
g7
(lp11576
Vwithin
p11577
atp11578
Rp11579
(dp11580
g17
VIN
p11581
sbag5
(g6
g7
(lp11582
g5
(g6
g7
(lp11583
Vthe
p11584
atp11585
Rp11586
(dp11587
g17
VDT
p11588
sbag5
(g6
g7
(lp11589
Vbox
p11590
atp11591
Rp11592
(dp11593
g17
VNN
p11594
sbatp11595
Rp11596
(dp11597
g17
VNP
p11598
sbatp11599
Rp11600
(dp11601
g17
VPP
p11602
sbatp11603
Rp11604
(dp11605
g17
VVP
p11606
sbatp11607
Rp11608
(dp11609
g17
VVP
p11610
sbag5
(g6
g7
(lp11611
g410
atp11612
Rp11613
(dp11614
g17
g410
sbatp11615
Rp11616
(dp11617
g17
g241
sbatp11618
Rp11619
(dp11620
g17
VROOT
p11621
sbag5
(g6
g7
(lp11622
g5
(g6
g7
(lp11623
g5
(g6
g7
(lp11624
g5
(g6
g7
(lp11625
VSo
p11626
atp11627
Rp11628
(dp11629
g17
VRB
p11630
sbatp11631
Rp11632
(dp11633
g17
VADVP
p11634
sbag5
(g6
g7
(lp11635
g536
atp11636
Rp11637
(dp11638
g17
g536
sbag5
(g6
g7
(lp11639
g5
(g6
g7
(lp11640
Vparadoxically
p11641
atp11642
Rp11643
(dp11644
g17
VRB
p11645
sbatp11646
Rp11647
(dp11648
g17
VADVP
p11649
sbag5
(g6
g7
(lp11650
g536
atp11651
Rp11652
(dp11653
g17
g536
sbag5
(g6
g7
(lp11654
g5
(g6
g7
(lp11655
Vshared-memory
p11656
atp11657
Rp11658
(dp11659
g17
VJJ
p11660
sbag5
(g6
g7
(lp11661
Vand
p11662
atp11663
Rp11664
(dp11665
g17
VCC
p11666
sbag5
(g6
g7
(lp11667
Vshared-disk
p11668
atp11669
Rp11670
(dp11671
g17
VJJ
p11672
sbag5
(g6
g7
(lp11673
Vsystems
p11674
atp11675
Rp11676
(dp11677
g17
VNNS
p11678
sbatp11679
Rp11680
(dp11681
g17
VNP
p11682
sbag5
(g6
g7
(lp11683
g5
(g6
g7
(lp11684
Vare
p11685
atp11686
Rp11687
(dp11688
g17
VVBP
p11689
sbag5
(g6
g7
(lp11690
g5
(g6
g7
(lp11691
Vbecoming
p11692
atp11693
Rp11694
(dp11695
g17
VVBG
p11696
sbag5
(g6
g7
(lp11697
g5
(g6
g7
(lp11698
Vshared-nothing
p11699
atp11700
Rp11701
(dp11702
g17
VJJ
p11703
sbag5
(g6
g7
(lp11704
Vsystems
p11705
atp11706
Rp11707
(dp11708
g17
VNNS
p11709
sbatp11710
Rp11711
(dp11712
g17
VNP
p11713
sbag5
(g6
g7
(lp11714
g5
(g6
g7
(lp11715
Vas
p11716
atp11717
Rp11718
(dp11719
g17
VIN
p11720
sbag5
(g6
g7
(lp11721
g5
(g6
g7
(lp11722
g5
(g6
g7
(lp11723
Vthey
p11724
atp11725
Rp11726
(dp11727
g17
VPRP
p11728
sbatp11729
Rp11730
(dp11731
g17
VNP
p11732
sbag5
(g6
g7
(lp11733
g5
(g6
g7
(lp11734
Vaim
p11735
atp11736
Rp11737
(dp11738
g17
VVBP
p11739
sbag5
(g6
g7
(lp11740
g5
(g6
g7
(lp11741
Vfor
p11742
atp11743
Rp11744
(dp11745
g17
VIN
p11746
sbag5
(g6
g7
(lp11747
g5
(g6
g7
(lp11748
Vbetter
p11749
atp11750
Rp11751
(dp11752
g17
VJJR
p11753
sbag5
(g6
g7
(lp11754
Vdata
p11755
atp11756
Rp11757
(dp11758
g17
VNNS
p11759
sbatp11760
Rp11761
(dp11762
g17
VNP
p11763
sbatp11764
Rp11765
(dp11766
g17
VPP
p11767
sbag5
(g6
g7
(lp11768
g5
(g6
g7
(lp11769
Vlocality
p11770
atp11771
Rp11772
(dp11773
g17
VRB
p11774
sbatp11775
Rp11776
(dp11777
g17
VADVP
p11778
sbatp11779
Rp11780
(dp11781
g17
VVP
p11782
sbatp11783
Rp11784
(dp11785
g17
g241
sbatp11786
Rp11787
(dp11788
g17
VSBAR
p11789
sbatp11790
Rp11791
(dp11792
g17
VVP
p11793
sbatp11794
Rp11795
(dp11796
g17
VVP
p11797
sbag5
(g6
g7
(lp11798
g410
atp11799
Rp11800
(dp11801
g17
g410
sbatp11802
Rp11803
(dp11804
g17
g241
sbatp11805
Rp11806
(dp11807
g17
VROOT
p11808
sbasg421
(icmyPackage
CorE
p11809
(dp11810
g424
(lp11811
(I0
I0
tp11812
a(I0
I15
tp11813
asg428
g5
(g6
g7
(lp11814
g11470
ag11475
ag11485
ag11496
ag11608
atp11815
Rp11816
(dp11817
g17
g433
sbsbsg434
(icmyPackage
CorE
p11818
(dp11819
g424
(lp11820
(I1
I2
tp11821
a(I1
I19
tp11822
asg428
g5
(g6
g7
(lp11823
g11647
ag11652
ag11680
ag11795
ag11800
atp11824
Rp11825
(dp11826
g17
g433
sbsbsg444
g816
sg465
(lp11827
(icmyPackage
Sent
p11828
(dp11829
g469
I6
sg470
I42
sg471
S'Indeed, gradually they are running more and more of the database functionally within the box.'
p11830
sg473
I0
sg474
I210
sg428
(lp11831
g11619
asba(icmyPackage
Sent
p11832
(dp11833
g469
I6
sg470
I42
sg471
S'So, paradoxically, shared-memory and shared-disk systems are becoming shared-nothing systems as they aim for better data locality.'
p11834
sg473
I0
sg474
I211
sg428
(lp11835
g11806
asbasba(icmyPackage
CELink
p11836
(dp11837
g3
(lp11838
g5
(g6
g7
(lp11839
g5
(g6
g7
(lp11840
g5
(g6
g7
(lp11841
g5
(g6
g7
(lp11842
VIn
p11843
atp11844
Rp11845
(dp11846
g17
VIN
p11847
sbag5
(g6
g7
(lp11848
g5
(g6
g7
(lp11849
Vpart
p11850
atp11851
Rp11852
(dp11853
g17
VNN
p11854
sbatp11855
Rp11856
(dp11857
g17
VNP
p11858
sbatp11859
Rp11860
(dp11861
g17
VPP
p11862
sbag5
(g6
g7
(lp11863
g5
(g6
g7
(lp11864
Vthis
p11865
atp11866
Rp11867
(dp11868
g17
VDT
p11869
sbatp11870
Rp11871
(dp11872
g17
VNP
p11873
sbag5
(g6
g7
(lp11874
g5
(g6
g7
(lp11875
Vis
p11876
atp11877
Rp11878
(dp11879
g17
VVBZ
p11880
sbag5
(g6
g7
(lp11881
g5
(g6
g7
(lp11882
Vdue
p11883
atp11884
Rp11885
(dp11886
g17
VJJ
p11887
sbag5
(g6
g7
(lp11888
g5
(g6
g7
(lp11889
Vto
p11890
atp11891
Rp11892
(dp11893
g17
VTO
p11894
sbag5
(g6
g7
(lp11895
g5
(g6
g7
(lp11896
g5
(g6
g7
(lp11897
g5
(g6
g7
(lp11898
VMoore
p11899
atp11900
Rp11901
(dp11902
g17
VNNP
p11903
sbag5
(g6
g7
(lp11904
V's
p11905
atp11906
Rp11907
(dp11908
g17
VPOS
p11909
sbatp11910
Rp11911
(dp11912
g17
VNP
p11913
sbag5
(g6
g7
(lp11914
Vlaw
p11915
atp11916
Rp11917
(dp11918
g17
VNN
p11919
sbatp11920
Rp11921
(dp11922
g17
VNP
p11923
sbag5
(g6
g7
(lp11924
g536
atp11925
Rp11926
(dp11927
g17
g536
sbag5
(g6
g7
(lp11928
g5
(g6
g7
(lp11929
Vin
p11930
atp11931
Rp11932
(dp11933
g17
VIN
p11934
sbag5
(g6
g7
(lp11935
g5
(g6
g7
(lp11936
g5
(g6
g7
(lp11937
Vpart
p11938
atp11939
Rp11940
(dp11941
g17
VNN
p11942
sbatp11943
Rp11944
(dp11945
g17
VNP
p11946
sbag5
(g6
g7
(lp11947
g5
(g6
g7
(lp11948
g5
(g6
g7
(lp11949
g5
(g6
g7
(lp11950
Vit
p11951
atp11952
Rp11953
(dp11954
g17
VPRP
p11955
sbatp11956
Rp11957
(dp11958
g17
VNP
p11959
sbag5
(g6
g7
(lp11960
g5
(g6
g7
(lp11961
Vis
p11962
atp11963
Rp11964
(dp11965
g17
VVBZ
p11966
sbag5
(g6
g7
(lp11967
g5
(g6
g7
(lp11968
Vdue
p11969
atp11970
Rp11971
(dp11972
g17
VJJ
p11973
sbag5
(g6
g7
(lp11974
g5
(g6
g7
(lp11975
Vto
p11976
atp11977
Rp11978
(dp11979
g17
VTO
p11980
sbag5
(g6
g7
(lp11981
g5
(g6
g7
(lp11982
Vour
p11983
atp11984
Rp11985
(dp11986
g17
VPRP$
p11987
sbag5
(g6
g7
(lp11988
Vfinally
p11989
atp11990
Rp11991
(dp11992
g17
VNN
p11993
sbatp11994
Rp11995
(dp11996
g17
VNP
p11997
sbatp11998
Rp11999
(dp12000
g17
VPP
p12001
sbatp12002
Rp12003
(dp12004
g17
VADJP
p12005
sbag5
(g6
g7
(lp12006
g5
(g6
g7
(lp12007
g5
(g6
g7
(lp12008
Vbringing
p12009
atp12010
Rp12011
(dp12012
g17
VVBG
p12013
sbag5
(g6
g7
(lp12014
g5
(g6
g7
(lp12015
Vthe
p12016
atp12017
Rp12018
(dp12019
g17
VDT
p12020
sbag5
(g6
g7
(lp12021
Vsoftware
p12022
atp12023
Rp12024
(dp12025
g17
VNN
p12026
sbag5
(g6
g7
(lp12027
Vbase
p12028
atp12029
Rp12030
(dp12031
g17
VNN
p12032
sbatp12033
Rp12034
(dp12035
g17
VNP
p12036
sbag5
(g6
g7
(lp12037
g5
(g6
g7
(lp12038
Vto
p12039
atp12040
Rp12041
(dp12042
g17
VTO
p12043
sbag5
(g6
g7
(lp12044
g5
(g6
g7
(lp12045
g852
atp12046
Rp12047
(dp12048
g17
VDT
p12049
sbag5
(g6
g7
(lp12050
Vmodular
p12051
atp12052
Rp12053
(dp12054
g17
VJJ
p12055
sbag5
(g6
g7
(lp12056
Vand
p12057
atp12058
Rp12059
(dp12060
g17
VCC
p12061
sbag5
(g6
g7
(lp12062
Vpartitionable
p12063
atp12064
Rp12065
(dp12066
g17
VJJ
p12067
sbag5
(g6
g7
(lp12068
Varchitecture
p12069
atp12070
Rp12071
(dp12072
g17
VNN
p12073
sbatp12074
Rp12075
(dp12076
g17
VNP
p12077
sbatp12078
Rp12079
(dp12080
g17
VPP
p12081
sbatp12082
Rp12083
(dp12084
g17
VVP
p12085
sbatp12086
Rp12087
(dp12088
g17
g241
sbag5
(g6
g7
(lp12089
g5
(g6
g7
(lp12090
Vthat
p12091
atp12092
Rp12093
(dp12094
g17
VIN
p12095
sbag5
(g6
g7
(lp12096
g5
(g6
g7
(lp12097
g5
(g6
g7
(lp12098
Vmaps
p12099
atp12100
Rp12101
(dp12102
g17
VNNS
p12103
sbatp12104
Rp12105
(dp12106
g17
VNP
p12107
sbag5
(g6
g7
(lp12108
g5
(g6
g7
(lp12109
Vwell
p12110
atp12111
Rp12112
(dp12113
g17
VRB
p12114
sbatp12115
Rp12116
(dp12117
g17
VADVP
p12118
sbatp12119
Rp12120
(dp12121
g17
g241
sbatp12122
Rp12123
(dp12124
g17
VSBAR
p12125
sbag5
(g6
g7
(lp12126
g5
(g6
g7
(lp12127
Vto
p12128
atp12129
Rp12130
(dp12131
g17
VTO
p12132
sbag5
(g6
g7
(lp12133
g5
(g6
g7
(lp12134
Vshared-nothing
p12135
atp12136
Rp12137
(dp12138
g17
VJJ
p12139
sbag5
(g6
g7
(lp12140
Varrays
p12141
atp12142
Rp12143
(dp12144
g17
VNNS
p12145
sbatp12146
Rp12147
(dp12148
g17
VNP
p12149
sbatp12150
Rp12151
(dp12152
g17
VPP
p12153
sbatp12154
Rp12155
(dp12156
g17
VVP
p12157
sbatp12158
Rp12159
(dp12160
g17
g241
sbatp12161
Rp12162
(dp12163
g17
VSBAR
p12164
sbatp12165
Rp12166
(dp12167
g17
VNP
p12168
sbatp12169
Rp12170
(dp12171
g17
VPP
p12172
sbatp12173
Rp12174
(dp12175
g17
VNP
p12176
sbatp12177
Rp12178
(dp12179
g17
VPP
p12180
sbatp12181
Rp12182
(dp12183
g17
VADJP
p12184
sbag5
(g6
g7
(lp12185
g5
(g6
g7
(lp12186
V-LRB-
p12187
atp12188
Rp12189
(dp12190
g17
V-LRB-
p12191
sbag5
(g6
g7
(lp12192
Vand
p12193
atp12194
Rp12195
(dp12196
g17
VCC
p12197
sbag5
(g6
g7
(lp12198
g5
(g6
g7
(lp12199
Vhence
p12200
atp12201
Rp12202
(dp12203
g17
VVBN
p12204
sbag5
(g6
g7
(lp12205
g5
(g6
g7
(lp12206
Vto
p12207
atp12208
Rp12209
(dp12210
g17
VTO
p12211
sbag5
(g6
g7
(lp12212
g5
(g6
g7
(lp12213
Vshared
p12214
atp12215
Rp12216
(dp12217
g17
VVBN
p12218
sbag5
(g6
g7
(lp12219
Vmemory
p12220
atp12221
Rp12222
(dp12223
g17
VNN
p12224
sbag5
(g6
g7
(lp12225
Vand
p12226
atp12227
Rp12228
(dp12229
g17
VCC
p12230
sbag5
(g6
g7
(lp12231
Vshared
p12232
atp12233
Rp12234
(dp12235
g17
VVBN
p12236
sbag5
(g6
g7
(lp12237
Vdisk
p12238
atp12239
Rp12240
(dp12241
g17
VNN
p12242
sbag5
(g6
g7
(lp12243
Varrays
p12244
atp12245
Rp12246
(dp12247
g17
VNNS
p12248
sbatp12249
Rp12250
(dp12251
g17
VNP
p12252
sbatp12253
Rp12254
(dp12255
g17
VPP
p12256
sbatp12257
Rp12258
(dp12259
g17
VVP
p12260
sbag5
(g6
g7
(lp12261
V-RRB-
p12262
atp12263
Rp12264
(dp12265
g17
V-RRB-
p12266
sbatp12267
Rp12268
(dp12269
g17
VPRN
p12270
sbatp12271
Rp12272
(dp12273
g17
VVP
p12274
sbag5
(g6
g7
(lp12275
g410
atp12276
Rp12277
(dp12278
g17
g410
sbatp12279
Rp12280
(dp12281
g17
g241
sbatp12282
Rp12283
(dp12284
g17
VROOT
p12285
sbasg421
(icmyPackage
CorE
p12286
(dp12287
g424
(lp12288
(I0
I0
tp12289
a(I0
I34
tp12290
asg428
g5
(g6
g7
(lp12291
g11860
ag11871
ag11878
ag12182
ag12189
atp12292
Rp12293
(dp12294
g17
g433
sbsbsg434
(icmyPackage
CorE
p12295
(dp12296
g424
(lp12297
(I0
I37
tp12298
a(I0
I42
tp12299
asg428
g5
(g6
g7
(lp12300
g12209
ag12216
ag12222
ag12228
ag12234
ag12240
atp12301
Rp12302
(dp12303
g17
g433
sbsbsg444
(icmyPackage
pattern
p12304
(dp12305
g447
I7
sg448
I1
sg449
(lp12306
(lp12307
S'hence'
p12308
aasg453
(lp12309
I1
aI1
aI1
asg455
(lp12310
S'Increase in temperature increases the rate of deposition and hence the heat loss to the surroundings should be prevented.'
p12311
asg458
I4
sg459
(lp12312
(lp12313
S'&C'
p12314
aS'(,/;/./--)'
p12315
aS'(&AND)'
p12316
aa(lp12317
S'(,)'
p12318
aS'&R'
p12319
aasbsg465
(lp12320
(icmyPackage
Sent
p12321
(dp12322
g469
I6
sg470
I43
sg471
S"In part this is due to Moore's law, in part it is due to our finally bringing the software base to a modular and partitionable architecture that maps well to shared-nothing arrays (and hence to shared memory and shared disk arrays)."
p12323
sg473
I0
sg474
I215
sg428
(lp12324
g12283
asbasba(icmyPackage
CELink
p12325
(dp12326
g3
(lp12327
g12293
asg421
(icmyPackage
CorE
p12328
(dp12329
g424
(lp12330
(I0
I16
tp12331
a(I0
I17
tp12332
asg428
g11995
sbsg434
(icmyPackage
CorE
p12333
(dp12334
g424
(lp12335
(I0
I29
tp12336
a(I0
I30
tp12337
asg428
g12120
sbsg444
(icmyPackage
pattern
p12338
(dp12339
g447
I1
sg448
I0
sg449
(lp12340
(lp12341
S'it'
p12342
aS'is'
p12343
aa(lp12344
S'due'
p12345
aS'to'
p12346
aa(lp12347
S'that'
p12348
aasg453
(lp12349
I4
aI1
aI5
asg455
(lp12350
S'However, it is usually due to the lag of the human-oriented management thinking that causes a variety of problems in an enterprise.'
p12351
aS'It is due to operating system specifics of this nature that lead to the general recommendation to use LDAP for the security registry.'
p12352
asg458
I119
sg459
(lp12353
(lp12354
a(lp12355
S'(&ADV)'
p12356
aa(lp12357
S'&NP@C@'
p12358
aa(lp12359
S'&R'
p12360
aasbsg465
(lp12361
g12321
asba(icmyPackage
CELink
p12362
(dp12363
g3
(lp12364
g5
(g6
g7
(lp12365
g5
(g6
g7
(lp12366
g5
(g6
g7
(lp12367
g5
(g6
g7
(lp12368
V-LRB-
p12369
atp12370
Rp12371
(dp12372
g17
V-LRB-
p12373
sbag5
(g6
g7
(lp12374
g5719
atp12375
Rp12376
(dp12377
g17
VLS
p12378
sbag5
(g6
g7
(lp12379
V-RRB-
p12380
atp12381
Rp12382
(dp12383
g17
V-RRB-
p12384
sbatp12385
Rp12386
(dp12387
g17
VLST
p12388
sbag5
(g6
g7
(lp12389
g5
(g6
g7
(lp12390
VAutomating
p12391
atp12392
Rp12393
(dp12394
g17
VVB
p12395
sbag5
(g6
g7
(lp12396
g5
(g6
g7
(lp12397
Vmanagement
p12398
atp12399
Rp12400
(dp12401
g17
VNN
p12402
sbatp12403
Rp12404
(dp12405
g17
VNP
p12406
sbag5
(g6
g7
(lp12407
g5
(g6
g7
(lp12408
Vso
p12409
atp12410
Rp12411
(dp12412
g17
VRB
p12413
sbag5
(g6
g7
(lp12414
Vthat
p12415
atp12416
Rp12417
(dp12418
g17
VIN
p12419
sbag5
(g6
g7
(lp12420
g5
(g6
g7
(lp12421
g5
(g6
g7
(lp12422
Vhuman
p12423
atp12424
Rp12425
(dp12426
g17
VJJ
p12427
sbag5
(g6
g7
(lp12428
Verror
p12429
atp12430
Rp12431
(dp12432
g17
VNN
p12433
sbatp12434
Rp12435
(dp12436
g17
VNP
p12437
sbag5
(g6
g7
(lp12438
g5
(g6
g7
(lp12439
Vis
p12440
atp12441
Rp12442
(dp12443
g17
VVBZ
p12444
sbag5
(g6
g7
(lp12445
g5
(g6
g7
(lp12446
g5
(g6
g7
(lp12447
Vless
p12448
atp12449
Rp12450
(dp12451
g17
VJJR
p12452
sbatp12453
Rp12454
(dp12455
g17
VNP
p12456
sbag5
(g6
g7
(lp12457
g5
(g6
g7
(lp12458
Vof
p12459
atp12460
Rp12461
(dp12462
g17
VIN
p12463
sbag5
(g6
g7
(lp12464
g5
(g6
g7
(lp12465
g5
(g6
g7
(lp12466
g852
atp12467
Rp12468
(dp12469
g17
VDT
p12470
sbag5
(g6
g7
(lp12471
Vfactor
p12472
atp12473
Rp12474
(dp12475
g17
VNN
p12476
sbatp12477
Rp12478
(dp12479
g17
VNP
p12480
sbag5
(g6
g7
(lp12481
g5
(g6
g7
(lp12482
Vin
p12483
atp12484
Rp12485
(dp12486
g17
VIN
p12487
sbag5
(g6
g7
(lp12488
g5
(g6
g7
(lp12489
g5
(g6
g7
(lp12490
Vconfiguring
p12491
atp12492
Rp12493
(dp12494
g17
VVBG
p12495
sbag5
(g6
g7
(lp12496
Vand
p12497
atp12498
Rp12499
(dp12500
g17
VCC
p12501
sbag5
(g6
g7
(lp12502
Voperating
p12503
atp12504
Rp12505
(dp12506
g17
VVBG
p12507
sbag5
(g6
g7
(lp12508
g5
(g6
g7
(lp12509
Vcomputer
p12510
atp12511
Rp12512
(dp12513
g17
VNN
p12514
sbag5
(g6
g7
(lp12515
Vsystems
p12516
atp12517
Rp12518
(dp12519
g17
VNNS
p12520
sbatp12521
Rp12522
(dp12523
g17
VNP
p12524
sbatp12525
Rp12526
(dp12527
g17
VVP
p12528
sbatp12529
Rp12530
(dp12531
g17
g241
sbatp12532
Rp12533
(dp12534
g17
VPP
p12535
sbatp12536
Rp12537
(dp12538
g17
VNP
p12539
sbatp12540
Rp12541
(dp12542
g17
VPP
p12543
sbatp12544
Rp12545
(dp12546
g17
VNP
p12547
sbatp12548
Rp12549
(dp12550
g17
VVP
p12551
sbatp12552
Rp12553
(dp12554
g17
g241
sbatp12555
Rp12556
(dp12557
g17
VSBAR
p12558
sbatp12559
Rp12560
(dp12561
g17
VVP
p12562
sbag5
(g6
g7
(lp12563
g410
atp12564
Rp12565
(dp12566
g17
g410
sbatp12567
Rp12568
(dp12569
g17
g241
sbatp12570
Rp12571
(dp12572
g17
VROOT
p12573
sbasg421
(icmyPackage
CorE
p12574
(dp12575
g424
(lp12576
(I0
I0
tp12577
a(I0
I4
tp12578
asg428
g5
(g6
g7
(lp12579
g12386
ag12393
ag12404
atp12580
Rp12581
(dp12582
g17
g433
sbsbsg434
(icmyPackage
CorE
p12583
(dp12584
g424
(lp12585
(I0
I7
tp12586
a(I0
I20
tp12587
asg428
g5
(g6
g7
(lp12588
g12553
ag12565
atp12589
Rp12590
(dp12591
g17
g433
sbsbsg444
g2580
sg465
(lp12592
(icmyPackage
Sent
p12593
(dp12594
g469
I7
sg470
I46
sg471
S'(1) Automating management so that human error is less of a factor in configuring and operating computer systems.'
p12595
sg473
I0
sg474
I218
sg428
(lp12596
g12571
asbasba(icmyPackage
CELink
p12597
(dp12598
g3
(lp12599
g5
(g6
g7
(lp12600
g5
(g6
g7
(lp12601
g5
(g6
g7
(lp12602
g5
(g6
g7
(lp12603
V*
p12604
atp12605
Rp12606
(dp12607
g17
VSYM
p12608
sbatp12609
Rp12610
(dp12611
g17
VX
p12612
sbag5
(g6
g7
(lp12613
g5
(g6
g7
(lp12614
g5
(g6
g7
(lp12615
VScalability
p12616
atp12617
Rp12618
(dp12619
g17
VNNP
p12620
sbatp12621
Rp12622
(dp12623
g17
VNP
p12624
sbag5
(g6
g7
(lp12625
g5
(g6
g7
(lp12626
g5
(g6
g7
(lp12627
g5
(g6
g7
(lp12628
Vis
p12629
atp12630
Rp12631
(dp12632
g17
VVBZ
p12633
sbag5
(g6
g7
(lp12634
g5
(g6
g7
(lp12635
Vaddressed
p12636
atp12637
Rp12638
(dp12639
g17
VVBN
p12640
sbag5
(g6
g7
(lp12641
g5
(g6
g7
(lp12642
Vby
p12643
atp12644
Rp12645
(dp12646
g17
VIN
p12647
sbag5
(g6
g7
(lp12648
g5
(g6
g7
(lp12649
Vmanageability
p12650
atp12651
Rp12652
(dp12653
g17
VNN
p12654
sbatp12655
Rp12656
(dp12657
g17
VNP
p12658
sbatp12659
Rp12660
(dp12661
g17
VPP
p12662
sbatp12663
Rp12664
(dp12665
g17
VVP
p12666
sbatp12667
Rp12668
(dp12669
g17
VVP
p12670
sbatp12671
Rp12672
(dp12673
g17
g241
sbatp12674
Rp12675
(dp12676
g17
VSBAR
p12677
sbatp12678
Rp12679
(dp12680
g17
VNP
p12681
sbatp12682
Rp12683
(dp12684
g17
g12612
sbatp12685
Rp12686
(dp12687
g17
VROOT
p12688
sbag5
(g6
g7
(lp12689
g5
(g6
g7
(lp12690
g5
(g6
g7
(lp12691
g5
(g6
g7
(lp12692
VSo
p12693
atp12694
Rp12695
(dp12696
g17
VRB
p12697
sbatp12698
Rp12699
(dp12700
g17
VADVP
p12701
sbag5
(g6
g7
(lp12702
g536
atp12703
Rp12704
(dp12705
g17
g536
sbag5
(g6
g7
(lp12706
g5
(g6
g7
(lp12707
g5
(g6
g7
(lp12708
g5
(g6
g7
(lp12709
Vthe
p12710
atp12711
Rp12712
(dp12713
g17
VDT
p12714
sbag5
(g6
g7
(lp12715
Vnew
p12716
atp12717
Rp12718
(dp12719
g17
VJJ
p12720
sbag5
(g6
g7
(lp12721
Vrole
p12722
atp12723
Rp12724
(dp12725
g17
VNN
p12726
sbatp12727
Rp12728
(dp12729
g17
VNP
p12730
sbag5
(g6
g7
(lp12731
g5
(g6
g7
(lp12732
Vfor
p12733
atp12734
Rp12735
(dp12736
g17
VIN
p12737
sbag5
(g6
g7
(lp12738
V``
p12739
atp12740
Rp12741
(dp12742
g17
V``
p12743
sbag5
(g6
g7
(lp12744
g5
(g6
g7
(lp12745
Vsystems
p12746
atp12747
Rp12748
(dp12749
g17
VNNS
p12750
sbag5
(g6
g7
(lp12751
Vpeople
p12752
atp12753
Rp12754
(dp12755
g17
VNNS
p12756
sbatp12757
Rp12758
(dp12759
g17
VNP
p12760
sbag5
(g6
g7
(lp12761
V''
p12762
atp12763
Rp12764
(dp12765
g17
V''
p12766
sbatp12767
Rp12768
(dp12769
g17
VPP
p12770
sbatp12771
Rp12772
(dp12773
g17
VNP
p12774
sbag5
(g6
g7
(lp12775
g5
(g6
g7
(lp12776
Vlike
p12777
atp12778
Rp12779
(dp12780
g17
VVBP
p12781
sbag5
(g6
g7
(lp12782
g5
(g6
g7
(lp12783
Vyou
p12784
atp12785
Rp12786
(dp12787
g17
VPRP
p12788
sbatp12789
Rp12790
(dp12791
g17
VNP
p12792
sbatp12793
Rp12794
(dp12795
g17
VVP
p12796
sbatp12797
Rp12798
(dp12799
g17
g241
sbag5
(g6
g7
(lp12800
g5
(g6
g7
(lp12801
V-LRB-
p12802
atp12803
Rp12804
(dp12805
g17
V-LRB-
p12806
sbag5
(g6
g7
(lp12807
g5
(g6
g7
(lp12808
Vif
p12809
atp12810
Rp12811
(dp12812
g17
VIN
p12813
sbag5
(g6
g7
(lp12814
g5
(g6
g7
(lp12815
g5
(g6
g7
(lp12816
Vyou
p12817
atp12818
Rp12819
(dp12820
g17
VPRP
p12821
sbatp12822
Rp12823
(dp12824
g17
VNP
p12825
sbag5
(g6
g7
(lp12826
g5
(g6
g7
(lp12827
Vgot
p12828
atp12829
Rp12830
(dp12831
g17
VVBD
p12832
sbag5
(g6
g7
(lp12833
g5
(g6
g7
(lp12834
Vthis
p12835
atp12836
Rp12837
(dp12838
g17
VDT
p12839
sbag5
(g6
g7
(lp12840
Vfar
p12841
atp12842
Rp12843
(dp12844
g17
VRB
p12845
sbatp12846
Rp12847
(dp12848
g17
VADVP
p12849
sbag5
(g6
g7
(lp12850
g5
(g6
g7
(lp12851
Vin
p12852
atp12853
Rp12854
(dp12855
g17
VIN
p12856
sbag5
(g6
g7
(lp12857
g5
(g6
g7
(lp12858
Vthe
p12859
atp12860
Rp12861
(dp12862
g17
VDT
p12863
sbag5
(g6
g7
(lp12864
Vpaper
p12865
atp12866
Rp12867
(dp12868
g17
VNN
p12869
sbatp12870
Rp12871
(dp12872
g17
VNP
p12873
sbatp12874
Rp12875
(dp12876
g17
VPP
p12877
sbatp12878
Rp12879
(dp12880
g17
VVP
p12881
sbatp12882
Rp12883
(dp12884
g17
g241
sbatp12885
Rp12886
(dp12887
g17
VSBAR
p12888
sbag5
(g6
g7
(lp12889
V-RRB-
p12890
atp12891
Rp12892
(dp12893
g17
V-RRB-
p12894
sbatp12895
Rp12896
(dp12897
g17
VPRN
p12898
sbag5
(g6
g7
(lp12899
Vand
p12900
atp12901
Rp12902
(dp12903
g17
VCC
p12904
sbag5
(g6
g7
(lp12905
g5
(g6
g7
(lp12906
g5
(g6
g7
(lp12907
Vme
p12908
atp12909
Rp12910
(dp12911
g17
VPRP
p12912
sbatp12913
Rp12914
(dp12915
g17
VNP
p12916
sbag5
(g6
g7
(lp12917
g5
(g6
g7
(lp12918
Vis
p12919
atp12920
Rp12921
(dp12922
g17
VVBZ
p12923
sbag5
(g6
g7
(lp12924
g5
(g6
g7
(lp12925
g5
(g6
g7
(lp12926
Vto
p12927
atp12928
Rp12929
(dp12930
g17
VTO
p12931
sbag5
(g6
g7
(lp12932
g5
(g6
g7
(lp12933
Vfocus
p12934
atp12935
Rp12936
(dp12937
g17
VVB
p12938
sbag5
(g6
g7
(lp12939
g5
(g6
g7
(lp12940
Von
p12941
atp12942
Rp12943
(dp12944
g17
VIN
p12945
sbag5
(g6
g7
(lp12946
g5
(g6
g7
(lp12947
Vfunctionality
p12948
atp12949
Rp12950
(dp12951
g17
VNN
p12952
sbag5
(g6
g7
(lp12953
g536
atp12954
Rp12955
(dp12956
g17
g536
sbag5
(g6
g7
(lp12957
Vmanageability
p12958
atp12959
Rp12960
(dp12961
g17
VNN
p12962
sbag5
(g6
g7
(lp12963
g536
atp12964
Rp12965
(dp12966
g17
g536
sbag5
(g6
g7
(lp12967
Vand
p12968
atp12969
Rp12970
(dp12971
g17
VCC
p12972
sbag5
(g6
g7
(lp12973
Vdefensive
p12974
atp12975
Rp12976
(dp12977
g17
VNN
p12978
sbag5
(g6
g7
(lp12979
Vservice
p12980
atp12981
Rp12982
(dp12983
g17
VNN
p12984
sbatp12985
Rp12986
(dp12987
g17
VNP
p12988
sbatp12989
Rp12990
(dp12991
g17
VPP
p12992
sbatp12993
Rp12994
(dp12995
g17
VVP
p12996
sbatp12997
Rp12998
(dp12999
g17
VVP
p13000
sbatp13001
Rp13002
(dp13003
g17
g241
sbatp13004
Rp13005
(dp13006
g17
VVP
p13007
sbatp13008
Rp13009
(dp13010
g17
g241
sbag5
(g6
g7
(lp13011
g410
atp13012
Rp13013
(dp13014
g17
g410
sbatp13015
Rp13016
(dp13017
g17
g241
sbatp13018
Rp13019
(dp13020
g17
VROOT
p13021
sbasg421
(icmyPackage
CorE
p13022
(dp13023
g424
(lp13024
(I0
I2
tp13025
a(I0
I5
tp13026
asg428
g12675
sbsg434
(icmyPackage
CorE
p13027
(dp13028
g424
(lp13029
(I1
I2
tp13030
a(I1
I33
tp13031
asg428
g5
(g6
g7
(lp13032
g12798
ag12896
ag12902
ag12914
ag12921
ag12929
ag12936
ag12943
ag12950
ag12955
ag12960
ag12965
ag12970
ag12976
atp13033
Rp13034
(dp13035
g17
g433
sbsbsg444
g816
sg465
(lp13036
(icmyPackage
Sent
p13037
(dp13038
g469
I7
sg470
I50
sg471
S'* Scalability is addressed by manageability'
p13039
sg473
I0
sg474
I227
sg428
(lp13040
g12686
asba(icmyPackage
Sent
p13041
(dp13042
g469
I7
sg470
I51
sg471
S'So, the new role for "systems people" like you (if you got this far in the paper) and me is to focus on functionality, manageability, and defensive service.'
p13043
sg473
I0
sg474
I228
sg428
(lp13044
g13019
asbasba(icmyPackage
CELink
p13045
(dp13046
g3
(lp13047
g5
(g6
g7
(lp13048
g5
(g6
g7
(lp13049
g5
(g6
g7
(lp13050
g5
(g6
g7
(lp13051
g5
(g6
g7
(lp13052
g5
(g6
g7
(lp13053
VMaking
p13054
atp13055
Rp13056
(dp13057
g17
VVBG
p13058
sbag5
(g6
g7
(lp13059
g5
(g6
g7
(lp13060
Vself-managing
p13061
atp13062
Rp13063
(dp13064
g17
VJJ
p13065
sbag5
(g6
g7
(lp13066
Vand
p13067
atp13068
Rp13069
(dp13070
g17
VCC
p13071
sbag5
(g6
g7
(lp13072
Vself-healing
p13073
atp13074
Rp13075
(dp13076
g17
VJJ
p13077
sbag5
(g6
g7
(lp13078
Vsystems
p13079
atp13080
Rp13081
(dp13082
g17
VNNS
p13083
sbatp13084
Rp13085
(dp13086
g17
VNP
p13087
sbatp13088
Rp13089
(dp13090
g17
VVP
p13091
sbag5
(g6
g7
(lp13092
g536
atp13093
Rp13094
(dp13095
g17
g536
sbag5
(g6
g7
(lp13096
Vand
p13097
atp13098
Rp13099
(dp13100
g17
VCC
p13101
sbag5
(g6
g7
(lp13102
g5
(g6
g7
(lp13103
Vmaking
p13104
atp13105
Rp13106
(dp13107
g17
VVBG
p13108
sbag5
(g6
g7
(lp13109
g5
(g6
g7
(lp13110
g5
(g6
g7
(lp13111
Vsystems
p13112
atp13113
Rp13114
(dp13115
g17
VNNS
p13116
sbatp13117
Rp13118
(dp13119
g17
VNP
p13120
sbag5
(g6
g7
(lp13121
g5
(g6
g7
(lp13122
g5
(g6
g7
(lp13123
Vthat
p13124
atp13125
Rp13126
(dp13127
g17
VWDT
p13128
sbatp13129
Rp13130
(dp13131
g17
VWHNP
p13132
sbag5
(g6
g7
(lp13133
g5
(g6
g7
(lp13134
g5
(g6
g7
(lp13135
Vdetect
p13136
atp13137
Rp13138
(dp13139
g17
VVBP
p13140
sbag5
(g6
g7
(lp13141
Vand
p13142
atp13143
Rp13144
(dp13145
g17
VCC
p13146
sbag5
(g6
g7
(lp13147
Vresist
p13148
atp13149
Rp13150
(dp13151
g17
VVBP
p13152
sbag5
(g6
g7
(lp13153
g5
(g6
g7
(lp13154
Vsabotage
p13155
atp13156
Rp13157
(dp13158
g17
VNN
p13159
sbatp13160
Rp13161
(dp13162
g17
VNP
p13163
sbatp13164
Rp13165
(dp13166
g17
VVP
p13167
sbatp13168
Rp13169
(dp13170
g17
g241
sbatp13171
Rp13172
(dp13173
g17
VSBAR
p13174
sbatp13175
Rp13176
(dp13177
g17
VNP
p13178
sbatp13179
Rp13180
(dp13181
g17
VVP
p13182
sbatp13183
Rp13184
(dp13185
g17
VVP
p13186
sbatp13187
Rp13188
(dp13189
g17
g241
sbag5
(g6
g7
(lp13190
g5
(g6
g7
(lp13191
Vstand
p13192
atp13193
Rp13194
(dp13195
g17
VVBP
p13196
sbag5
(g6
g7
(lp13197
g5
(g6
g7
(lp13198
Vas
p13199
atp13200
Rp13201
(dp13202
g17
VIN
p13203
sbag5
(g6
g7
(lp13204
g5
(g6
g7
(lp13205
g5
(g6
g7
(lp13206
Vour
p13207
atp13208
Rp13209
(dp13210
g17
VPRP$
p13211
sbag5
(g6
g7
(lp13212
Vgreatest
p13213
atp13214
Rp13215
(dp13216
g17
VJJS
p13217
sbag5
(g6
g7
(lp13218
Vsystem
p13219
atp13220
Rp13221
(dp13222
g17
VNN
p13223
sbag5
(g6
g7
(lp13224
Vbuilding
p13225
atp13226
Rp13227
(dp13228
g17
VNN
p13229
sbatp13230
Rp13231
(dp13232
g17
VNP
p13233
sbag5
(g6
g7
(lp13234
g5
(g6
g7
(lp13235
Vchallenge
p13236
atp13237
Rp13238
(dp13239
g17
VVBP
p13240
sbatp13241
Rp13242
(dp13243
g17
VVP
p13244
sbatp13245
Rp13246
(dp13247
g17
g241
sbatp13248
Rp13249
(dp13250
g17
VSBAR
p13251
sbatp13252
Rp13253
(dp13254
g17
VVP
p13255
sbag5
(g6
g7
(lp13256
g410
atp13257
Rp13258
(dp13259
g17
g410
sbatp13260
Rp13261
(dp13262
g17
g241
sbatp13263
Rp13264
(dp13265
g17
VROOT
p13266
sbasg421
(icmyPackage
CorE
p13267
(dp13268
g424
(lp13269
(I0
I16
tp13270
a(I0
I21
tp13271
asg428
g5
(g6
g7
(lp13272
g13246
ag13258
atp13273
Rp13274
(dp13275
g17
g433
sbsbsg434
(icmyPackage
CorE
p13276
(dp13277
g424
(lp13278
(I0
I8
tp13279
a(I0
I14
tp13280
asg428
g5
(g6
g7
(lp13281
g13176
ag13194
atp13282
Rp13283
(dp13284
g17
g433
sbsbsg444
g1017
sg465
(lp13285
(icmyPackage
Sent
p13286
(dp13287
g469
I7
sg470
I51
sg471
S'Making self-managing and self-healing systems, and making systems that detect and resist sabotage stand as our greatest system building challenge.'
p13288
sg473
I0
sg474
I229
sg428
(lp13289
g13264
asbasba.