(lp0
(icmyPackage
CELink
p1
(dp2
S'PTreelst'
p3
(lp4
ccopy_reg
_reconstructor
p5
(cnltk.tree
Tree
p6
c__builtin__
list
p7
(lp8
g5
(g6
g7
(lp9
g5
(g6
g7
(lp10
g5
(g6
g7
(lp11
VWe
p12
atp13
Rp14
(dp15
S'_label'
p16
VPRP
p17
sbatp18
Rp19
(dp20
g16
VNP
p21
sbag5
(g6
g7
(lp22
g5
(g6
g7
(lp23
Vwant
p24
atp25
Rp26
(dp27
g16
VVBP
p28
sbag5
(g6
g7
(lp29
g5
(g6
g7
(lp30
g5
(g6
g7
(lp31
Vto
p32
atp33
Rp34
(dp35
g16
VTO
p36
sbag5
(g6
g7
(lp37
g5
(g6
g7
(lp38
Vsend
p39
atp40
Rp41
(dp42
g16
VVB
p43
sbag5
(g6
g7
(lp44
g5
(g6
g7
(lp45
g5
(g6
g7
(lp46
g5
(g6
g7
(lp47
V10TB
p48
atp49
Rp50
(dp51
g16
VCD
p52
sbatp53
Rp54
(dp55
g16
VNP
p56
sbag5
(g6
g7
(lp57
V-LRB-
p58
atp59
Rp60
(dp61
g16
V-LRB-
p62
sbag5
(g6
g7
(lp63
g5
(g6
g7
(lp64
g5
(g6
g7
(lp65
Vterabytes
p66
atp67
Rp68
(dp69
g16
VNNS
p70
sbatp71
Rp72
(dp73
g16
VNP
p74
sbag5
(g6
g7
(lp75
V,
p76
atp77
Rp78
(dp79
g16
g76
sbag5
(g6
g7
(lp80
g5
(g6
g7
(lp81
g5
(g6
g7
(lp82
Vwhich
p83
atp84
Rp85
(dp86
g16
VWDT
p87
sbatp88
Rp89
(dp90
g16
VWHNP
p91
sbag5
(g6
g7
(lp92
g5
(g6
g7
(lp93
g5
(g6
g7
(lp94
Vis
p95
atp96
Rp97
(dp98
g16
VVBZ
p99
sbag5
(g6
g7
(lp100
g5
(g6
g7
(lp101
g5
(g6
g7
(lp102
Vten
p103
atp104
Rp105
(dp106
g16
VCD
p107
sbag5
(g6
g7
(lp108
Vmillion
p109
atp110
Rp111
(dp112
g16
VCD
p113
sbatp114
Rp115
(dp116
g16
VQP
p117
sbag5
(g6
g7
(lp118
Vmegabytes
p119
atp120
Rp121
(dp122
g16
VNNS
p123
sbatp124
Rp125
(dp126
g16
VNP
p127
sbatp128
Rp129
(dp130
g16
VVP
p131
sbatp132
Rp133
(dp134
g16
VS
p135
sbatp136
Rp137
(dp138
g16
VSBAR
p139
sbatp140
Rp141
(dp142
g16
VNP
p143
sbag5
(g6
g7
(lp144
V-RRB-
p145
atp146
Rp147
(dp148
g16
V-RRB-
p149
sbatp150
Rp151
(dp152
g16
VNP
p153
sbag5
(g6
g7
(lp154
g5
(g6
g7
(lp155
Vto
p156
atp157
Rp158
(dp159
g16
VTO
p160
sbag5
(g6
g7
(lp161
g5
(g6
g7
(lp162
g5
(g6
g7
(lp163
Vmany
p164
atp165
Rp166
(dp167
g16
VJJ
p168
sbatp169
Rp170
(dp171
g16
VNP
p172
sbag5
(g6
g7
(lp173
g5
(g6
g7
(lp174
Vof
p175
atp176
Rp177
(dp178
g16
VIN
p179
sbag5
(g6
g7
(lp180
g5
(g6
g7
(lp181
Vour
p182
atp183
Rp184
(dp185
g16
VPRP$
p186
sbag5
(g6
g7
(lp187
Vcolleagues
p188
atp189
Rp190
(dp191
g16
VNNS
p192
sbatp193
Rp194
(dp195
g16
VNP
p196
sbatp197
Rp198
(dp199
g16
VPP
p200
sbatp201
Rp202
(dp203
g16
VNP
p204
sbatp205
Rp206
(dp207
g16
VPP
p208
sbatp209
Rp210
(dp211
g16
VNP
p212
sbag5
(g6
g7
(lp213
g5
(g6
g7
(lp214
Vso
p215
atp216
Rp217
(dp218
g16
VRB
p219
sbag5
(g6
g7
(lp220
Vthat
p221
atp222
Rp223
(dp224
g16
VIN
p225
sbag5
(g6
g7
(lp226
g5
(g6
g7
(lp227
g5
(g6
g7
(lp228
Vthey
p229
atp230
Rp231
(dp232
g16
VPRP
p233
sbatp234
Rp235
(dp236
g16
VNP
p237
sbag5
(g6
g7
(lp238
g5
(g6
g7
(lp239
Vcan
p240
atp241
Rp242
(dp243
g16
VMD
p244
sbag5
(g6
g7
(lp245
g5
(g6
g7
(lp246
Vhave
p247
atp248
Rp249
(dp250
g16
VVB
p251
sbag5
(g6
g7
(lp252
g5
(g6
g7
(lp253
g5
(g6
g7
(lp254
g5
(g6
g7
(lp255
g5
(g6
g7
(lp256
g5
(g6
g7
(lp257
Va
p258
atp259
Rp260
(dp261
g16
VDT
p262
sbag5
(g6
g7
(lp263
Vprivate
p264
atp265
Rp266
(dp267
g16
VJJ
p268
sbag5
(g6
g7
(lp269
Vcopy
p270
atp271
Rp272
(dp273
g16
VNN
p274
sbatp275
Rp276
(dp277
g16
VNP
p278
sbag5
(g6
g7
(lp279
g5
(g6
g7
(lp280
Vof
p281
atp282
Rp283
(dp284
g16
VIN
p285
sbag5
(g6
g7
(lp286
g5
(g6
g7
(lp287
g5
(g6
g7
(lp288
Vthe
p289
atp290
Rp291
(dp292
g16
VDT
p293
sbag5
(g6
g7
(lp294
VSloan
p295
atp296
Rp297
(dp298
g16
VNNP
p299
sbag5
(g6
g7
(lp300
VDigital
p301
atp302
Rp303
(dp304
g16
VNNP
p305
sbag5
(g6
g7
(lp306
VSky
p307
atp308
Rp309
(dp310
g16
VNNP
p311
sbag5
(g6
g7
(lp312
VSurvey
p313
atp314
Rp315
(dp316
g16
VNNP
p317
sbatp318
Rp319
(dp320
g16
VNP
p321
sbag5
(g6
g7
(lp322
g5
(g6
g7
(lp323
V-LRB-
p324
atp325
Rp326
(dp327
g16
V-LRB-
p328
sbag5
(g6
g7
(lp329
g5
(g6
g7
(lp330
Vhttp://skyserver.sdss.org/
p331
atp332
Rp333
(dp334
g16
VNNP
p335
sbatp336
Rp337
(dp338
g16
VNP
p339
sbag5
(g6
g7
(lp340
V-RRB-
p341
atp342
Rp343
(dp344
g16
V-RRB-
p345
sbatp346
Rp347
(dp348
g16
VPRN
p349
sbatp350
Rp351
(dp352
g16
VNP
p353
sbatp354
Rp355
(dp356
g16
VPP
p357
sbatp358
Rp359
(dp360
g16
VNP
p361
sbag5
(g6
g7
(lp362
Vor
p363
atp364
Rp365
(dp366
g16
VCC
p367
sbag5
(g6
g7
(lp368
g5
(g6
g7
(lp369
Vof
p370
atp371
Rp372
(dp373
g16
VIN
p374
sbag5
(g6
g7
(lp375
g5
(g6
g7
(lp376
Vthe
p377
atp378
Rp379
(dp380
g16
VDT
p381
sbag5
(g6
g7
(lp382
VTerraServer
p383
atp384
Rp385
(dp386
g16
VNNP
p387
sbatp388
Rp389
(dp390
g16
VNP
p391
sbatp392
Rp393
(dp394
g16
VPP
p395
sbatp396
Rp397
(dp398
g16
VUCP
p399
sbag5
(g6
g7
(lp400
Vdata
p401
atp402
Rp403
(dp404
g16
VNNS
p405
sbatp406
Rp407
(dp408
g16
VNP
p409
sbag5
(g6
g7
(lp410
g5
(g6
g7
(lp411
V-LRB-
p412
atp413
Rp414
(dp415
g16
V-LRB-
p416
sbag5
(g6
g7
(lp417
g5
(g6
g7
(lp418
Vhttp://TerraServer.net/
p419
atp420
Rp421
(dp422
g16
VNNP
p423
sbatp424
Rp425
(dp426
g16
VNP
p427
sbag5
(g6
g7
(lp428
V-RRB-
p429
atp430
Rp431
(dp432
g16
V-RRB-
p433
sbatp434
Rp435
(dp436
g16
VPRN
p437
sbatp438
Rp439
(dp440
g16
VNP
p441
sbatp442
Rp443
(dp444
g16
VVP
p445
sbatp446
Rp447
(dp448
g16
VVP
p449
sbatp450
Rp451
(dp452
g16
g135
sbatp453
Rp454
(dp455
g16
VSBAR
p456
sbatp457
Rp458
(dp459
g16
VVP
p460
sbatp461
Rp462
(dp463
g16
VVP
p464
sbatp465
Rp466
(dp467
g16
g135
sbatp468
Rp469
(dp470
g16
VVP
p471
sbag5
(g6
g7
(lp472
V.
p473
atp474
Rp475
(dp476
g16
g473
sbatp477
Rp478
(dp479
g16
g135
sbatp480
Rp481
(dp482
g16
VROOT
p483
sbasS'cause'
p484
(icmyPackage
CorE
p485
(dp486
S'span'
p487
(lp488
(I0
I0
tp489
a(I0
I18
tp490
asS'PTree'
p491
g5
(g6
g7
(lp492
g19
ag26
ag34
ag41
ag210
atp493
Rp494
(dp495
g16
S'ROOT'
p496
sbsbsS'effect'
p497
(icmyPackage
CorE
p498
(dp499
g487
(lp500
(I0
I21
tp501
a(I0
I44
tp502
asg491
g5
(g6
g7
(lp503
g451
ag475
atp504
Rp505
(dp506
g16
g496
sbsbsS'pt'
p507
(icmyPackage
pattern
p508
(dp509
S'pfreq'
p510
I45
sS'moresent'
p511
I0
sS'main_token'
p512
(lp513
(lp514
S'so'
p515
aS'that'
p516
aasS'ptype'
p517
(lp518
I3
aI1
aI1
asS'cases'
p519
(lp520
S'The teacher then decided to ask him some very easy questions so that he could get a few right.'
p521
asS'id'
p522
I77
sS'constraints'
p523
(lp524
(lp525
S'&C'
p526
aa(lp527
S'&R'
p528
aasbsS'sInfo'
p529
(lp530
(icmyPackage
Sent
p531
(dp532
S'Ctag'
p533
I1
sS'Ptag'
p534
I0
sS'text'
p535
S'We want to send 10TB (terabytes, which is ten million megabytes) to many of our colleagues so that they can have a private copy of the Sloan Digital Sky Survey (http://skyserver.sdss.org/) or of the TerraServer data (http://TerraServer.net/).'
p536
sS'SCtag'
p537
I0
sS'Stag'
p538
I0
sg491
(lp539
g481
asbasba(icmyPackage
CELink
p540
(dp541
g3
(lp542
g5
(g6
g7
(lp543
g5
(g6
g7
(lp544
g5
(g6
g7
(lp545
g5
(g6
g7
(lp546
VIn
p547
atp548
Rp549
(dp550
g16
VIN
p551
sbag5
(g6
g7
(lp552
g5
(g6
g7
(lp553
Vbackup
p554
atp555
Rp556
(dp557
g16
VNN
p558
sbag5
(g6
g7
(lp559
Vor
p560
atp561
Rp562
(dp563
g16
VCC
p564
sbag5
(g6
g7
(lp565
Varchiving
p566
atp567
Rp568
(dp569
g16
VNN
p570
sbatp571
Rp572
(dp573
g16
VNP
p574
sbatp575
Rp576
(dp577
g16
VPP
p578
sbag5
(g6
g7
(lp579
g5
(g6
g7
(lp580
Vyou
p581
atp582
Rp583
(dp584
g16
VPRP
p585
sbatp586
Rp587
(dp588
g16
VNP
p589
sbag5
(g6
g7
(lp590
g5
(g6
g7
(lp591
Vare
p592
atp593
Rp594
(dp595
g16
VVBP
p596
sbag5
(g6
g7
(lp597
g5
(g6
g7
(lp598
Vmailing
p599
atp600
Rp601
(dp602
g16
VVBG
p603
sbag5
(g6
g7
(lp604
g5
(g6
g7
(lp605
Vthe
p606
atp607
Rp608
(dp609
g16
VDT
p610
sbag5
(g6
g7
(lp611
Vdata
p612
atp613
Rp614
(dp615
g16
VNNS
p616
sbatp617
Rp618
(dp619
g16
VNP
p620
sbag5
(g6
g7
(lp621
g5
(g6
g7
(lp622
Vto
p623
atp624
Rp625
(dp626
g16
VTO
p627
sbag5
(g6
g7
(lp628
g5
(g6
g7
(lp629
Vyourself
p630
atp631
Rp632
(dp633
g16
VPRP
p634
sbatp635
Rp636
(dp637
g16
VNP
p638
sbatp639
Rp640
(dp641
g16
VPP
p642
sbag5
(g6
g7
(lp643
g5
(g6
g7
(lp644
Vin
p645
atp646
Rp647
(dp648
g16
VIN
p649
sbag5
(g6
g7
(lp650
g5
(g6
g7
(lp651
g5
(g6
g7
(lp652
Vthe
p653
atp654
Rp655
(dp656
g16
VDT
p657
sbag5
(g6
g7
(lp658
Vfuture
p659
atp660
Rp661
(dp662
g16
VNN
p663
sbatp664
Rp665
(dp666
g16
VNP
p667
sbag5
(g6
g7
(lp668
g5
(g6
g7
(lp669
V-LRB-
p670
atp671
Rp672
(dp673
g16
V-LRB-
p674
sbag5
(g6
g7
(lp675
g5
(g6
g7
(lp676
Vfor
p677
atp678
Rp679
(dp680
g16
VIN
p681
sbag5
(g6
g7
(lp682
g5
(g6
g7
(lp683
Vrestore
p684
atp685
Rp686
(dp687
g16
VNNP
p688
sbatp689
Rp690
(dp691
g16
VNP
p692
sbatp693
Rp694
(dp695
g16
VPP
p696
sbag5
(g6
g7
(lp697
V-RRB-
p698
atp699
Rp700
(dp701
g16
V-RRB-
p702
sbatp703
Rp704
(dp705
g16
VPRN
p706
sbatp707
Rp708
(dp709
g16
VNP
p710
sbatp711
Rp712
(dp713
g16
VPP
p714
sbatp715
Rp716
(dp717
g16
VVP
p718
sbatp719
Rp720
(dp721
g16
VVP
p722
sbag5
(g6
g7
(lp723
g473
atp724
Rp725
(dp726
g16
g473
sbatp727
Rp728
(dp729
g16
g135
sbatp730
Rp731
(dp732
g16
VROOT
p733
sbag5
(g6
g7
(lp734
g5
(g6
g7
(lp735
g5
(g6
g7
(lp736
g5
(g6
g7
(lp737
VSo
p738
atp739
Rp740
(dp741
g16
VRB
p742
sbatp743
Rp744
(dp745
g16
VADVP
p746
sbag5
(g6
g7
(lp747
g76
atp748
Rp749
(dp750
g16
g76
sbag5
(g6
g7
(lp751
g5
(g6
g7
(lp752
g258
atp753
Rp754
(dp755
g16
VDT
p756
sbag5
(g6
g7
(lp757
Vdata
p758
atp759
Rp760
(dp761
g16
VNNS
p762
sbag5
(g6
g7
(lp763
Vinterchange
p764
atp765
Rp766
(dp767
g16
VNN
p768
sbag5
(g6
g7
(lp769
Vsolution
p770
atp771
Rp772
(dp773
g16
VNN
p774
sbatp775
Rp776
(dp777
g16
VNP
p778
sbag5
(g6
g7
(lp779
g5
(g6
g7
(lp780
Vis
p781
atp782
Rp783
(dp784
g16
VVBZ
p785
sbag5
(g6
g7
(lp786
g5
(g6
g7
(lp787
Vlikely
p788
atp789
Rp790
(dp791
g16
VRB
p792
sbatp793
Rp794
(dp795
g16
VADVP
p796
sbag5
(g6
g7
(lp797
g5
(g6
g7
(lp798
g5
(g6
g7
(lp799
g258
atp800
Rp801
(dp802
g16
VDT
p803
sbag5
(g6
g7
(lp804
Vgood
p805
atp806
Rp807
(dp808
g16
VJJ
p809
sbag5
(g6
g7
(lp810
Vsolution
p811
atp812
Rp813
(dp814
g16
VNN
p815
sbatp816
Rp817
(dp818
g16
VNP
p819
sbag5
(g6
g7
(lp820
g5
(g6
g7
(lp821
g5
(g6
g7
(lp822
Vfor
p823
atp824
Rp825
(dp826
g16
VIN
p827
sbag5
(g6
g7
(lp828
g5
(g6
g7
(lp829
Vbackup/restore
p830
atp831
Rp832
(dp833
g16
VNN
p834
sbatp835
Rp836
(dp837
g16
VNP
p838
sbatp839
Rp840
(dp841
g16
VPP
p842
sbag5
(g6
g7
(lp843
Vand
p844
atp845
Rp846
(dp847
g16
VCC
p848
sbag5
(g6
g7
(lp849
g5
(g6
g7
(lp850
Vfor
p851
atp852
Rp853
(dp854
g16
VIN
p855
sbag5
(g6
g7
(lp856
g5
(g6
g7
(lp857
Varchival
p858
atp859
Rp860
(dp861
g16
VJJ
p862
sbag5
(g6
g7
(lp863
Vstorage
p864
atp865
Rp866
(dp867
g16
VNN
p868
sbatp869
Rp870
(dp871
g16
VNP
p872
sbatp873
Rp874
(dp875
g16
VPP
p876
sbatp877
Rp878
(dp879
g16
VPP
p880
sbatp881
Rp882
(dp883
g16
VNP
p884
sbatp885
Rp886
(dp887
g16
VVP
p888
sbag5
(g6
g7
(lp889
g473
atp890
Rp891
(dp892
g16
g473
sbatp893
Rp894
(dp895
g16
g135
sbatp896
Rp897
(dp898
g16
VROOT
p899
sbasg484
(icmyPackage
CorE
p900
(dp901
g487
(lp902
(I0
I0
tp903
a(I0
I17
tp904
asg491
g5
(g6
g7
(lp905
g576
ag587
ag720
atp906
Rp907
(dp908
g16
g496
sbsbsg497
(icmyPackage
CorE
p909
(dp910
g487
(lp911
(I1
I2
tp912
a(I1
I17
tp913
asg491
g5
(g6
g7
(lp914
g776
ag886
ag891
atp915
Rp916
(dp917
g16
g496
sbsbsg507
(icmyPackage
pattern
p918
(dp919
g510
I265
sg511
I1
sg512
(lp920
(lp921
S'so'
p922
aasg517
(lp923
I1
aI1
aI1
asg519
(lp924
S'It was not long before he saw me looking at him, and so he began to move.'
p925
asg522
I0
sg523
(lp926
(lp927
S'&C'
p928
aS'(,/;/./--)'
p929
aS'(&AND)'
p930
aa(lp931
S'(-far)'
p932
aS'(,)'
p933
aS'&R'
p934
aasbsg529
(lp935
(icmyPackage
Sent
p936
(dp937
g533
I1
sg534
I1
sg535
S'In backup or archiving you are mailing the data to yourself in the future (for restore).'
p938
sg537
I0
sg538
I2
sg491
(lp939
g731
asba(icmyPackage
Sent
p940
(dp941
g533
I1
sg534
I1
sg535
S'So, a data interchange solution is likely a good solution for backup/restore and for archival storage.'
p942
sg537
I0
sg538
I3
sg491
(lp943
g897
asbasba(icmyPackage
CELink
p944
(dp945
g3
(lp946
g5
(g6
g7
(lp947
g5
(g6
g7
(lp948
g5
(g6
g7
(lp949
g5
(g6
g7
(lp950
g5
(g6
g7
(lp951
VThe
p952
atp953
Rp954
(dp955
g16
VDT
p956
sbag5
(g6
g7
(lp957
VNext
p958
atp959
Rp960
(dp961
g16
VNNP
p962
sbag5
(g6
g7
(lp963
VGeneration
p964
atp965
Rp966
(dp967
g16
VNNP
p968
sbag5
(g6
g7
(lp969
VInternet
p970
atp971
Rp972
(dp973
g16
VNN
p974
sbatp975
Rp976
(dp977
g16
VNP
p978
sbag5
(g6
g7
(lp979
g5
(g6
g7
(lp980
V-LRB-
p981
atp982
Rp983
(dp984
g16
V-LRB-
p985
sbag5
(g6
g7
(lp986
g5
(g6
g7
(lp987
VNGI
p988
atp989
Rp990
(dp991
g16
VNNP
p992
sbatp993
Rp994
(dp995
g16
VNP
p996
sbag5
(g6
g7
(lp997
V-RRB-
p998
atp999
Rp1000
(dp1001
g16
V-RRB-
p1002
sbatp1003
Rp1004
(dp1005
g16
VPRN
p1006
sbatp1007
Rp1008
(dp1009
g16
VNP
p1010
sbag5
(g6
g7
(lp1011
g5
(g6
g7
(lp1012
Vpromised
p1013
atp1014
Rp1015
(dp1016
g16
VVBD
p1017
sbag5
(g6
g7
(lp1018
g5
(g6
g7
(lp1019
g5
(g6
g7
(lp1020
Vgigabit
p1021
atp1022
Rp1023
(dp1024
g16
VNN
p1025
sbatp1026
Rp1027
(dp1028
g16
VNP
p1029
sbag5
(g6
g7
(lp1030
g5
(g6
g7
(lp1031
Vper
p1032
atp1033
Rp1034
(dp1035
g16
VIN
p1036
sbag5
(g6
g7
(lp1037
g5
(g6
g7
(lp1038
Vsecond
p1039
atp1040
Rp1041
(dp1042
g16
VJJ
p1043
sbag5
(g6
g7
(lp1044
Vbandwidth
p1045
atp1046
Rp1047
(dp1048
g16
VNN
p1049
sbag5
(g6
g7
(lp1050
Vdesktop-to-desktop
p1051
atp1052
Rp1053
(dp1054
g16
VNN
p1055
sbatp1056
Rp1057
(dp1058
g16
VNP
p1059
sbatp1060
Rp1061
(dp1062
g16
VPP
p1063
sbatp1064
Rp1065
(dp1066
g16
VNP
p1067
sbag5
(g6
g7
(lp1068
g5
(g6
g7
(lp1069
Vby
p1070
atp1071
Rp1072
(dp1073
g16
VIN
p1074
sbag5
(g6
g7
(lp1075
g5
(g6
g7
(lp1076
Vthe
p1077
atp1078
Rp1079
(dp1080
g16
VDT
p1081
sbag5
(g6
g7
(lp1082
Vyear
p1083
atp1084
Rp1085
(dp1086
g16
VNN
p1087
sbag5
(g6
g7
(lp1088
V2000
p1089
atp1090
Rp1091
(dp1092
g16
VCD
p1093
sbatp1094
Rp1095
(dp1096
g16
VNP
p1097
sbatp1098
Rp1099
(dp1100
g16
VPP
p1101
sbatp1102
Rp1103
(dp1104
g16
VVP
p1105
sbag5
(g6
g7
(lp1106
g473
atp1107
Rp1108
(dp1109
g16
g473
sbatp1110
Rp1111
(dp1112
g16
g135
sbatp1113
Rp1114
(dp1115
g16
VROOT
p1116
sbag5
(g6
g7
(lp1117
g5
(g6
g7
(lp1118
g5
(g6
g7
(lp1119
VSo
p1120
atp1121
Rp1122
(dp1123
g16
VIN
p1124
sbag5
(g6
g7
(lp1125
g76
atp1126
Rp1127
(dp1128
g16
g76
sbag5
(g6
g7
(lp1129
g5
(g6
g7
(lp1130
Vif
p1131
atp1132
Rp1133
(dp1134
g16
VIN
p1135
sbag5
(g6
g7
(lp1136
g5
(g6
g7
(lp1137
g5
(g6
g7
(lp1138
Vyou
p1139
atp1140
Rp1141
(dp1142
g16
VPRP
p1143
sbatp1144
Rp1145
(dp1146
g16
VNP
p1147
sbag5
(g6
g7
(lp1148
g5
(g6
g7
(lp1149
Vhave
p1150
atp1151
Rp1152
(dp1153
g16
VVBP
p1154
sbag5
(g6
g7
(lp1155
g5
(g6
g7
(lp1156
Vthe
p1157
atp1158
Rp1159
(dp1160
g16
VDT
p1161
sbag5
(g6
g7
(lp1162
VNext
p1163
atp1164
Rp1165
(dp1166
g16
VJJ
p1167
sbag5
(g6
g7
(lp1168
VGeneration
p1169
atp1170
Rp1171
(dp1172
g16
VNNP
p1173
sbag5
(g6
g7
(lp1174
VInternet
p1175
atp1176
Rp1177
(dp1178
g16
VNN
p1179
sbatp1180
Rp1181
(dp1182
g16
VNP
p1183
sbatp1184
Rp1185
(dp1186
g16
VVP
p1187
sbatp1188
Rp1189
(dp1190
g16
g135
sbatp1191
Rp1192
(dp1193
g16
VSBAR
p1194
sbag5
(g6
g7
(lp1195
g76
atp1196
Rp1197
(dp1198
g16
g76
sbag5
(g6
g7
(lp1199
g5
(g6
g7
(lp1200
Vthen
p1201
atp1202
Rp1203
(dp1204
g16
VRB
p1205
sbatp1206
Rp1207
(dp1208
g16
VADVP
p1209
sbag5
(g6
g7
(lp1210
g5
(g6
g7
(lp1211
Vthis
p1212
atp1213
Rp1214
(dp1215
g16
VDT
p1216
sbag5
(g6
g7
(lp1217
Vtransfer
p1218
atp1219
Rp1220
(dp1221
g16
VNN
p1222
sbatp1223
Rp1224
(dp1225
g16
VNP
p1226
sbag5
(g6
g7
(lp1227
g5
(g6
g7
(lp1228
Vis
p1229
atp1230
Rp1231
(dp1232
g16
VVBZ
p1233
sbag5
(g6
g7
(lp1234
g5
(g6
g7
(lp1235
g5
(g6
g7
(lp1236
g5
(g6
g7
(lp1237
Vjust
p1238
atp1239
Rp1240
(dp1241
g16
VRB
p1242
sbag5
(g6
g7
(lp1243
V8
p1244
atp1245
Rp1246
(dp1247
g16
VCD
p1248
sbag5
(g6
g7
(lp1249
Vtrillion
p1250
atp1251
Rp1252
(dp1253
g16
VCD
p1254
sbatp1255
Rp1256
(dp1257
g16
VQP
p1258
sbag5
(g6
g7
(lp1259
Vbits
p1260
atp1261
Rp1262
(dp1263
g16
VNNS
p1264
sbatp1265
Rp1266
(dp1267
g16
VNP
p1268
sbag5
(g6
g7
(lp1269
g76
atp1270
Rp1271
(dp1272
g16
g76
sbag5
(g6
g7
(lp1273
Vor
p1274
atp1275
Rp1276
(dp1277
g16
VCC
p1278
sbag5
(g6
g7
(lp1279
g5
(g6
g7
(lp1280
g5
(g6
g7
(lp1281
g5
(g6
g7
(lp1282
Vabout
p1283
atp1284
Rp1285
(dp1286
g16
VRB
p1287
sbag5
(g6
g7
(lp1288
V8,000
p1289
atp1290
Rp1291
(dp1292
g16
VCD
p1293
sbatp1294
Rp1295
(dp1296
g16
VQP
p1297
sbag5
(g6
g7
(lp1298
Vseconds
p1299
atp1300
Rp1301
(dp1302
g16
VNNS
p1303
sbatp1304
Rp1305
(dp1306
g16
VNP
p1307
sbag5
(g6
g7
(lp1308
V--
p1309
atp1310
Rp1311
(dp1312
g16
V:
p1313
sbag5
(g6
g7
(lp1314
g5
(g6
g7
(lp1315
g258
atp1316
Rp1317
(dp1318
g16
VDT
p1319
sbag5
(g6
g7
(lp1320
Vfew
p1321
atp1322
Rp1323
(dp1324
g16
VJJ
p1325
sbag5
(g6
g7
(lp1326
Vhours
p1327
atp1328
Rp1329
(dp1330
g16
VNNS
p1331
sbag5
(g6
g7
(lp1332
Vwait
p1333
atp1334
Rp1335
(dp1336
g16
VNN
p1337
sbatp1338
Rp1339
(dp1340
g16
VNP
p1341
sbatp1342
Rp1343
(dp1344
g16
VNP
p1345
sbatp1346
Rp1347
(dp1348
g16
VNP
p1349
sbatp1350
Rp1351
(dp1352
g16
VVP
p1353
sbag5
(g6
g7
(lp1354
g473
atp1355
Rp1356
(dp1357
g16
g473
sbatp1358
Rp1359
(dp1360
g16
g135
sbatp1361
Rp1362
(dp1363
g16
VROOT
p1364
sbasg484
(icmyPackage
CorE
p1365
(dp1366
g487
(lp1367
(I0
I0
tp1368
a(I0
I16
tp1369
asg491
g5
(g6
g7
(lp1370
g1008
ag1103
atp1371
Rp1372
(dp1373
g16
g496
sbsbsg497
(icmyPackage
CorE
p1374
(dp1375
g487
(lp1376
(I1
I2
tp1377
a(I1
I28
tp1378
asg491
g5
(g6
g7
(lp1379
g1192
ag1197
ag1207
ag1224
ag1351
ag1356
atp1380
Rp1381
(dp1382
g16
g496
sbsbsg507
g918
sg529
(lp1383
(icmyPackage
Sent
p1384
(dp1385
g533
I1
sg534
I2
sg535
S'The Next Generation Internet (NGI) promised gigabit per second bandwidth desktop-to-desktop by the year 2000.'
p1386
sg537
I0
sg538
I5
sg491
(lp1387
g1114
asba(icmyPackage
Sent
p1388
(dp1389
g533
I1
sg534
I2
sg535
S'So, if you have the Next Generation Internet, then this transfer is just 8 trillion bits, or about 8,000 seconds -- a few hours wait.'
p1390
sg537
I0
sg538
I6
sg491
(lp1391
g1362
asbasba(icmyPackage
CELink
p1392
(dp1393
g3
(lp1394
g5
(g6
g7
(lp1395
g5
(g6
g7
(lp1396
g5
(g6
g7
(lp1397
g5
(g6
g7
(lp1398
g5
(g6
g7
(lp1399
VUnfortunately
p1400
atp1401
Rp1402
(dp1403
g16
VRB
p1404
sbatp1405
Rp1406
(dp1407
g16
VADVP
p1408
sbag5
(g6
g7
(lp1409
g76
atp1410
Rp1411
(dp1412
g16
g76
sbag5
(g6
g7
(lp1413
g5
(g6
g7
(lp1414
g5
(g6
g7
(lp1415
Vmost
p1416
atp1417
Rp1418
(dp1419
g16
VJJS
p1420
sbatp1421
Rp1422
(dp1423
g16
VNP
p1424
sbag5
(g6
g7
(lp1425
g5
(g6
g7
(lp1426
Vof
p1427
atp1428
Rp1429
(dp1430
g16
VIN
p1431
sbag5
(g6
g7
(lp1432
g5
(g6
g7
(lp1433
Vus
p1434
atp1435
Rp1436
(dp1437
g16
VPRP
p1438
sbatp1439
Rp1440
(dp1441
g16
VNP
p1442
sbatp1443
Rp1444
(dp1445
g16
VPP
p1446
sbatp1447
Rp1448
(dp1449
g16
VNP
p1450
sbag5
(g6
g7
(lp1451
g5
(g6
g7
(lp1452
Vare
p1453
atp1454
Rp1455
(dp1456
g16
VVBP
p1457
sbag5
(g6
g7
(lp1458
g5
(g6
g7
(lp1459
Vstill
p1460
atp1461
Rp1462
(dp1463
g16
VRB
p1464
sbatp1465
Rp1466
(dp1467
g16
VADVP
p1468
sbag5
(g6
g7
(lp1469
g5
(g6
g7
(lp1470
Vwaiting
p1471
atp1472
Rp1473
(dp1474
g16
VVBG
p1475
sbag5
(g6
g7
(lp1476
g5
(g6
g7
(lp1477
Vfor
p1478
atp1479
Rp1480
(dp1481
g16
VIN
p1482
sbag5
(g6
g7
(lp1483
g5
(g6
g7
(lp1484
Vthe
p1485
atp1486
Rp1487
(dp1488
g16
VDT
p1489
sbag5
(g6
g7
(lp1490
VNext
p1491
atp1492
Rp1493
(dp1494
g16
VNNP
p1495
sbag5
(g6
g7
(lp1496
VGeneration
p1497
atp1498
Rp1499
(dp1500
g16
VNNP
p1501
sbag5
(g6
g7
(lp1502
VInternet
p1503
atp1504
Rp1505
(dp1506
g16
VNNP
p1507
sbatp1508
Rp1509
(dp1510
g16
VNP
p1511
sbatp1512
Rp1513
(dp1514
g16
VPP
p1515
sbatp1516
Rp1517
(dp1518
g16
VVP
p1519
sbatp1520
Rp1521
(dp1522
g16
VVP
p1523
sbatp1524
Rp1525
(dp1526
g16
g135
sbag5
(g6
g7
(lp1527
V--
p1528
atp1529
Rp1530
(dp1531
g16
g1313
sbag5
(g6
g7
(lp1532
g5
(g6
g7
(lp1533
g5
(g6
g7
(lp1534
Vwe
p1535
atp1536
Rp1537
(dp1538
g16
VPRP
p1539
sbatp1540
Rp1541
(dp1542
g16
VNP
p1543
sbag5
(g6
g7
(lp1544
g5
(g6
g7
(lp1545
Vmeasure
p1546
atp1547
Rp1548
(dp1549
g16
VVB
p1550
sbag5
(g6
g7
(lp1551
g5
(g6
g7
(lp1552
Vbandwidth
p1553
atp1554
Rp1555
(dp1556
g16
VNN
p1557
sbatp1558
Rp1559
(dp1560
g16
VNP
p1561
sbag5
(g6
g7
(lp1562
g5
(g6
g7
(lp1563
Vamong
p1564
atp1565
Rp1566
(dp1567
g16
VIN
p1568
sbag5
(g6
g7
(lp1569
g5
(g6
g7
(lp1570
g5
(g6
g7
(lp1571
Vour
p1572
atp1573
Rp1574
(dp1575
g16
VPRP$
p1576
sbag5
(g6
g7
(lp1577
Vcolleagues
p1578
atp1579
Rp1580
(dp1581
g16
VNNS
p1582
sbatp1583
Rp1584
(dp1585
g16
VNP
p1586
sbag5
(g6
g7
(lp1587
g5
(g6
g7
(lp1588
Vat
p1589
atp1590
Rp1591
(dp1592
g16
VIN
p1593
sbag5
(g6
g7
(lp1594
g5
(g6
g7
(lp1595
g5
(g6
g7
(lp1596
g5
(g6
g7
(lp1597
Vbetween
p1598
atp1599
Rp1600
(dp1601
g16
VIN
p1602
sbag5
(g6
g7
(lp1603
V1
p1604
atp1605
Rp1606
(dp1607
g16
VCD
p1608
sbatp1609
Rp1610
(dp1611
g16
VQP
p1612
sbag5
(g6
g7
(lp1613
Vmegabits
p1614
atp1615
Rp1616
(dp1617
g16
VNNS
p1618
sbatp1619
Rp1620
(dp1621
g16
VNP
p1622
sbag5
(g6
g7
(lp1623
g5
(g6
g7
(lp1624
Vper
p1625
atp1626
Rp1627
(dp1628
g16
VIN
p1629
sbag5
(g6
g7
(lp1630
g5
(g6
g7
(lp1631
g5
(g6
g7
(lp1632
Vsecond
p1633
atp1634
Rp1635
(dp1636
g16
VJJ
p1637
sbag5
(g6
g7
(lp1638
V-LRB-
p1639
atp1640
Rp1641
(dp1642
g16
V-LRB-
p1643
sbag5
(g6
g7
(lp1644
Vmbps
p1645
atp1646
Rp1647
(dp1648
g16
VNNS
p1649
sbag5
(g6
g7
(lp1650
V-RRB-
p1651
atp1652
Rp1653
(dp1654
g16
V-RRB-
p1655
sbatp1656
Rp1657
(dp1658
g16
VNP
p1659
sbag5
(g6
g7
(lp1660
Vand
p1661
atp1662
Rp1663
(dp1664
g16
VCC
p1665
sbag5
(g6
g7
(lp1666
g5
(g6
g7
(lp1667
V100
p1668
atp1669
Rp1670
(dp1671
g16
VCD
p1672
sbag5
(g6
g7
(lp1673
Vmbps
p1674
atp1675
Rp1676
(dp1677
g16
VNNS
p1678
sbatp1679
Rp1680
(dp1681
g16
VNP
p1682
sbatp1683
Rp1684
(dp1685
g16
VNP
p1686
sbatp1687
Rp1688
(dp1689
g16
VPP
p1690
sbatp1691
Rp1692
(dp1693
g16
VNP
p1694
sbatp1695
Rp1696
(dp1697
g16
VPP
p1698
sbatp1699
Rp1700
(dp1701
g16
VNP
p1702
sbatp1703
Rp1704
(dp1705
g16
VPP
p1706
sbatp1707
Rp1708
(dp1709
g16
VVP
p1710
sbatp1711
Rp1712
(dp1713
g16
g135
sbag5
(g6
g7
(lp1714
g473
atp1715
Rp1716
(dp1717
g16
g473
sbatp1718
Rp1719
(dp1720
g16
g135
sbatp1721
Rp1722
(dp1723
g16
VROOT
p1724
sbag5
(g6
g7
(lp1725
g5
(g6
g7
(lp1726
g5
(g6
g7
(lp1727
g5
(g6
g7
(lp1728
VSo
p1729
atp1730
Rp1731
(dp1732
g16
VRB
p1733
sbatp1734
Rp1735
(dp1736
g16
VADVP
p1737
sbag5
(g6
g7
(lp1738
g76
atp1739
Rp1740
(dp1741
g16
g76
sbag5
(g6
g7
(lp1742
g5
(g6
g7
(lp1743
Vit
p1744
atp1745
Rp1746
(dp1747
g16
VPRP
p1748
sbatp1749
Rp1750
(dp1751
g16
VNP
p1752
sbag5
(g6
g7
(lp1753
g5
(g6
g7
(lp1754
Vis
p1755
atp1756
Rp1757
(dp1758
g16
VVBZ
p1759
sbag5
(g6
g7
(lp1760
g5
(g6
g7
(lp1761
Vtakes
p1762
atp1763
Rp1764
(dp1765
g16
VVBG
p1766
sbag5
(g6
g7
(lp1767
g5
(g6
g7
(lp1768
Vus
p1769
atp1770
Rp1771
(dp1772
g16
VPRP
p1773
sbatp1774
Rp1775
(dp1776
g16
VNP
p1777
sbag5
(g6
g7
(lp1778
g5
(g6
g7
(lp1779
Vdays
p1780
atp1781
Rp1782
(dp1783
g16
VNNS
p1784
sbag5
(g6
g7
(lp1785
Vor
p1786
atp1787
Rp1788
(dp1789
g16
VCC
p1790
sbag5
(g6
g7
(lp1791
Vmonths
p1792
atp1793
Rp1794
(dp1795
g16
VNNS
p1796
sbatp1797
Rp1798
(dp1799
g16
VNP
p1800
sbag5
(g6
g7
(lp1801
g5
(g6
g7
(lp1802
g5
(g6
g7
(lp1803
Vto
p1804
atp1805
Rp1806
(dp1807
g16
VTO
p1808
sbag5
(g6
g7
(lp1809
g5
(g6
g7
(lp1810
Vmove
p1811
atp1812
Rp1813
(dp1814
g16
VVB
p1815
sbag5
(g6
g7
(lp1816
g5
(g6
g7
(lp1817
g258
atp1818
Rp1819
(dp1820
g16
VDT
p1821
sbag5
(g6
g7
(lp1822
Vterabyte
p1823
atp1824
Rp1825
(dp1826
g16
VNN
p1827
sbatp1828
Rp1829
(dp1830
g16
VNP
p1831
sbag5
(g6
g7
(lp1832
g5
(g6
g7
(lp1833
Vfrom
p1834
atp1835
Rp1836
(dp1837
g16
VIN
p1838
sbag5
(g6
g7
(lp1839
g5
(g6
g7
(lp1840
Vplace
p1841
atp1842
Rp1843
(dp1844
g16
VNN
p1845
sbatp1846
Rp1847
(dp1848
g16
VNP
p1849
sbatp1850
Rp1851
(dp1852
g16
VPP
p1853
sbag5
(g6
g7
(lp1854
g5
(g6
g7
(lp1855
g5
(g6
g7
(lp1856
Vto
p1857
atp1858
Rp1859
(dp1860
g16
VTO
p1861
sbag5
(g6
g7
(lp1862
g5
(g6
g7
(lp1863
Vplace
p1864
atp1865
Rp1866
(dp1867
g16
VVB
p1868
sbag5
(g6
g7
(lp1869
g5
(g6
g7
(lp1870
g5
(g6
g7
(lp1871
Vusing
p1872
atp1873
Rp1874
(dp1875
g16
VVBG
p1876
sbag5
(g6
g7
(lp1877
g5
(g6
g7
(lp1878
Vthe
p1879
atp1880
Rp1881
(dp1882
g16
VDT
p1883
sbag5
(g6
g7
(lp1884
VLast
p1885
atp1886
Rp1887
(dp1888
g16
VJJ
p1889
sbag5
(g6
g7
(lp1890
VGeneration
p1891
atp1892
Rp1893
(dp1894
g16
VNNP
p1895
sbag5
(g6
g7
(lp1896
VInternet
p1897
atp1898
Rp1899
(dp1900
g16
VNN
p1901
sbatp1902
Rp1903
(dp1904
g16
VNP
p1905
sbatp1906
Rp1907
(dp1908
g16
VVP
p1909
sbatp1910
Rp1911
(dp1912
g16
g135
sbatp1913
Rp1914
(dp1915
g16
VVP
p1916
sbatp1917
Rp1918
(dp1919
g16
VVP
p1920
sbatp1921
Rp1922
(dp1923
g16
g135
sbatp1924
Rp1925
(dp1926
g16
VVP
p1927
sbatp1928
Rp1929
(dp1930
g16
VVP
p1931
sbatp1932
Rp1933
(dp1934
g16
g135
sbatp1935
Rp1936
(dp1937
g16
VVP
p1938
sbatp1939
Rp1940
(dp1941
g16
VVP
p1942
sbag5
(g6
g7
(lp1943
g473
atp1944
Rp1945
(dp1946
g16
g473
sbatp1947
Rp1948
(dp1949
g16
g135
sbatp1950
Rp1951
(dp1952
g16
VROOT
p1953
sbasg484
(icmyPackage
CorE
p1954
(dp1955
g487
(lp1956
(I0
I0
tp1957
a(I0
I31
tp1958
asg491
g5
(g6
g7
(lp1959
g1525
ag1530
ag1712
atp1960
Rp1961
(dp1962
g16
g496
sbsbsg497
(icmyPackage
CorE
p1963
(dp1964
g487
(lp1965
(I1
I2
tp1966
a(I1
I22
tp1967
asg491
g5
(g6
g7
(lp1968
g1750
ag1940
ag1945
atp1969
Rp1970
(dp1971
g16
g496
sbsbsg507
g918
sg529
(lp1972
(icmyPackage
Sent
p1973
(dp1974
g533
I1
sg534
I2
sg535
S'Unfortunately, most of us are still waiting for the Next Generation Internet -- we measure bandwidth among our colleagues at between 1 megabits per second (mbps) and 100 mbps.'
p1975
sg537
I0
sg538
I7
sg491
(lp1976
g1722
asba(icmyPackage
Sent
p1977
(dp1978
g533
I1
sg534
I2
sg535
S'So, it is takes us days or months to move a terabyte from place to place using the Last Generation Internet .'
p1979
sg537
I0
sg538
I8
sg491
(lp1980
g1951
asbasba(icmyPackage
CELink
p1981
(dp1982
g3
(lp1983
g5
(g6
g7
(lp1984
g5
(g6
g7
(lp1985
g5
(g6
g7
(lp1986
g5
(g6
g7
(lp1987
g5
(g6
g7
(lp1988
VThe
p1989
atp1990
Rp1991
(dp1992
g16
VDT
p1993
sbag5
(g6
g7
(lp1994
Velapsed
p1995
atp1996
Rp1997
(dp1998
g16
VJJ
p1999
sbag5
(g6
g7
(lp2000
Vtime
p2001
atp2002
Rp2003
(dp2004
g16
VNN
p2005
sbatp2006
Rp2007
(dp2008
g16
VNP
p2009
sbag5
(g6
g7
(lp2010
g5
(g6
g7
(lp2011
Vis
p2012
atp2013
Rp2014
(dp2015
g16
VVBZ
p2016
sbag5
(g6
g7
(lp2017
g5
(g6
g7
(lp2018
g5
(g6
g7
(lp2019
Vsomething
p2020
atp2021
Rp2022
(dp2023
g16
VNN
p2024
sbatp2025
Rp2026
(dp2027
g16
VNP
p2028
sbag5
(g6
g7
(lp2029
g5
(g6
g7
(lp2030
Vlike
p2031
atp2032
Rp2033
(dp2034
g16
VIN
p2035
sbag5
(g6
g7
(lp2036
g5
(g6
g7
(lp2037
V24
p2038
atp2039
Rp2040
(dp2041
g16
VCD
p2042
sbag5
(g6
g7
(lp2043
Vhours
p2044
atp2045
Rp2046
(dp2047
g16
VNNS
p2048
sbatp2049
Rp2050
(dp2051
g16
VNP
p2052
sbatp2053
Rp2054
(dp2055
g16
VPP
p2056
sbatp2057
Rp2058
(dp2059
g16
VNP
p2060
sbatp2061
Rp2062
(dp2063
g16
VVP
p2064
sbatp2065
Rp2066
(dp2067
g16
g135
sbag5
(g6
g7
(lp2068
Vand
p2069
atp2070
Rp2071
(dp2072
g16
VCC
p2073
sbag5
(g6
g7
(lp2074
g5
(g6
g7
(lp2075
g5
(g6
g7
(lp2076
Vthe
p2077
atp2078
Rp2079
(dp2080
g16
VDT
p2081
sbag5
(g6
g7
(lp2082
Vbandwidth
p2083
atp2084
Rp2085
(dp2086
g16
VNN
p2087
sbatp2088
Rp2089
(dp2090
g16
VNP
p2091
sbag5
(g6
g7
(lp2092
g5
(g6
g7
(lp2093
Vis
p2094
atp2095
Rp2096
(dp2097
g16
VVBZ
p2098
sbag5
(g6
g7
(lp2099
g5
(g6
g7
(lp2100
Vabout
p2101
atp2102
Rp2103
(dp2104
g16
VIN
p2105
sbag5
(g6
g7
(lp2106
g5
(g6
g7
(lp2107
g5
(g6
g7
(lp2108
g258
atp2109
Rp2110
(dp2111
g16
VDT
p2112
sbag5
(g6
g7
(lp2113
Vgigabyte
p2114
atp2115
Rp2116
(dp2117
g16
VNN
p2118
sbatp2119
Rp2120
(dp2121
g16
VNP
p2122
sbag5
(g6
g7
(lp2123
g5
(g6
g7
(lp2124
Vper
p2125
atp2126
Rp2127
(dp2128
g16
VIN
p2129
sbag5
(g6
g7
(lp2130
g5
(g6
g7
(lp2131
Vday
p2132
atp2133
Rp2134
(dp2135
g16
VNN
p2136
sbatp2137
Rp2138
(dp2139
g16
VNP
p2140
sbatp2141
Rp2142
(dp2143
g16
VPP
p2144
sbatp2145
Rp2146
(dp2147
g16
VNP
p2148
sbatp2149
Rp2150
(dp2151
g16
VPP
p2152
sbatp2153
Rp2154
(dp2155
g16
VVP
p2156
sbatp2157
Rp2158
(dp2159
g16
g135
sbag5
(g6
g7
(lp2160
g473
atp2161
Rp2162
(dp2163
g16
g473
sbatp2164
Rp2165
(dp2166
g16
g135
sbatp2167
Rp2168
(dp2169
g16
VROOT
p2170
sbag5
(g6
g7
(lp2171
g5
(g6
g7
(lp2172
g5
(g6
g7
(lp2173
g5
(g6
g7
(lp2174
VSo
p2175
atp2176
Rp2177
(dp2178
g16
VRB
p2179
sbatp2180
Rp2181
(dp2182
g16
VADVP
p2183
sbag5
(g6
g7
(lp2184
g76
atp2185
Rp2186
(dp2187
g16
g76
sbag5
(g6
g7
(lp2188
g5
(g6
g7
(lp2189
VCD
p2190
atp2191
Rp2192
(dp2193
g16
VNNP
p2194
sbag5
(g6
g7
(lp2195
Vsneaker
p2196
atp2197
Rp2198
(dp2199
g16
VNN
p2200
sbag5
(g6
g7
(lp2201
Vnet
p2202
atp2203
Rp2204
(dp2205
g16
VNN
p2206
sbatp2207
Rp2208
(dp2209
g16
VNP
p2210
sbag5
(g6
g7
(lp2211
g5
(g6
g7
(lp2212
g5
(g6
g7
(lp2213
Vruns
p2214
atp2215
Rp2216
(dp2217
g16
VVBZ
p2218
sbag5
(g6
g7
(lp2219
g5
(g6
g7
(lp2220
Vat
p2221
atp2222
Rp2223
(dp2224
g16
VIN
p2225
sbag5
(g6
g7
(lp2226
g5
(g6
g7
(lp2227
g5
(g6
g7
(lp2228
Vabout
p2229
atp2230
Rp2231
(dp2232
g16
VRB
p2233
sbag5
(g6
g7
(lp2234
V70kbps
p2235
atp2236
Rp2237
(dp2238
g16
VCD
p2239
sbatp2240
Rp2241
(dp2242
g16
VQP
p2243
sbatp2244
Rp2245
(dp2246
g16
VNP
p2247
sbatp2248
Rp2249
(dp2250
g16
VPP
p2251
sbatp2252
Rp2253
(dp2254
g16
VVP
p2255
sbag5
(g6
g7
(lp2256
g76
atp2257
Rp2258
(dp2259
g16
g76
sbag5
(g6
g7
(lp2260
g5
(g6
g7
(lp2261
Vcosts
p2262
atp2263
Rp2264
(dp2265
g16
VVBZ
p2266
sbag5
(g6
g7
(lp2267
g5
(g6
g7
(lp2268
g5
(g6
g7
(lp2269
g5
(g6
g7
(lp2270
Vabout
p2271
atp2272
Rp2273
(dp2274
g16
VRB
p2275
sbag5
(g6
g7
(lp2276
V1600
p2277
atp2278
Rp2279
(dp2280
g16
VCD
p2281
sbatp2282
Rp2283
(dp2284
g16
VQP
p2285
sbag5
(g6
g7
(lp2286
VCDs
p2287
atp2288
Rp2289
(dp2290
g16
VNNS
p2291
sbatp2292
Rp2293
(dp2294
g16
VNP
p2295
sbag5
(g6
g7
(lp2296
g5
(g6
g7
(lp2297
Vfor
p2298
atp2299
Rp2300
(dp2301
g16
VIN
p2302
sbag5
(g6
g7
(lp2303
g5
(g6
g7
(lp2304
g5
(g6
g7
(lp2305
g258
atp2306
Rp2307
(dp2308
g16
VDT
p2309
sbag5
(g6
g7
(lp2310
Vterabyte
p2311
atp2312
Rp2313
(dp2314
g16
VNN
p2315
sbatp2316
Rp2317
(dp2318
g16
VNP
p2319
sbag5
(g6
g7
(lp2320
g5
(g6
g7
(lp2321
V-LRB-
p2322
atp2323
Rp2324
(dp2325
g16
V-LRB-
p2326
sbag5
(g6
g7
(lp2327
g5
(g6
g7
(lp2328
g5
(g6
g7
(lp2329
g5
(g6
g7
(lp2330
g5
(g6
g7
(lp2331
V==
p2332
atp2333
Rp2334
(dp2335
g16
VCD
p2336
sbag5
(g6
g7
(lp2337
V250
p2338
atp2339
Rp2340
(dp2341
g16
VCD
p2342
sbatp2343
Rp2344
(dp2345
g16
VQP
p2346
sbatp2347
Rp2348
(dp2349
g16
VNP
p2350
sbag5
(g6
g7
(lp2351
g5
(g6
g7
(lp2352
V$
p2353
atp2354
Rp2355
(dp2356
g16
g2353
sbag5
(g6
g7
(lp2357
Vmedia
p2358
atp2359
Rp2360
(dp2361
g16
VCD
p2362
sbatp2363
Rp2364
(dp2365
g16
VNP
p2366
sbatp2367
Rp2368
(dp2369
g16
VNP
p2370
sbag5
(g6
g7
(lp2371
g5
(g6
g7
(lp2372
Vcost
p2373
atp2374
Rp2375
(dp2376
g16
VNN
p2377
sbatp2378
Rp2379
(dp2380
g16
VNP
p2381
sbatp2382
Rp2383
(dp2384
g16
VNP
p2385
sbag5
(g6
g7
(lp2386
V-RRB-
p2387
atp2388
Rp2389
(dp2390
g16
V-RRB-
p2391
sbatp2392
Rp2393
(dp2394
g16
VPRN
p2395
sbatp2396
Rp2397
(dp2398
g16
VNP
p2399
sbatp2400
Rp2401
(dp2402
g16
VPP
p2403
sbatp2404
Rp2405
(dp2406
g16
VNP
p2407
sbatp2408
Rp2409
(dp2410
g16
VVP
p2411
sbag5
(g6
g7
(lp2412
g76
atp2413
Rp2414
(dp2415
g16
g76
sbag5
(g6
g7
(lp2416
Vand
p2417
atp2418
Rp2419
(dp2420
g16
VCC
p2421
sbag5
(g6
g7
(lp2422
g5
(g6
g7
(lp2423
Vtakes
p2424
atp2425
Rp2426
(dp2427
g16
VVBZ
p2428
sbag5
(g6
g7
(lp2429
g5
(g6
g7
(lp2430
Vabout
p2431
atp2432
Rp2433
(dp2434
g16
VIN
p2435
sbag5
(g6
g7
(lp2436
g5
(g6
g7
(lp2437
g258
atp2438
Rp2439
(dp2440
g16
VDT
p2441
sbag5
(g6
g7
(lp2442
Vweek
p2443
atp2444
Rp2445
(dp2446
g16
VNN
p2447
sbatp2448
Rp2449
(dp2450
g16
VNP
p2451
sbatp2452
Rp2453
(dp2454
g16
VPP
p2455
sbag5
(g6
g7
(lp2456
g5
(g6
g7
(lp2457
g5
(g6
g7
(lp2458
Vto
p2459
atp2460
Rp2461
(dp2462
g16
VTO
p2463
sbag5
(g6
g7
(lp2464
g5
(g6
g7
(lp2465
Vwrite
p2466
atp2467
Rp2468
(dp2469
g16
VVB
p2470
sbag5
(g6
g7
(lp2471
g76
atp2472
Rp2473
(dp2474
g16
g76
sbag5
(g6
g7
(lp2475
Vship
p2476
atp2477
Rp2478
(dp2479
g16
VVB
p2480
sbag5
(g6
g7
(lp2481
g76
atp2482
Rp2483
(dp2484
g16
g76
sbag5
(g6
g7
(lp2485
Vand
p2486
atp2487
Rp2488
(dp2489
g16
VCC
p2490
sbag5
(g6
g7
(lp2491
Vread
p2492
atp2493
Rp2494
(dp2495
g16
VVB
p2496
sbag5
(g6
g7
(lp2497
g5
(g6
g7
(lp2498
Vthe
p2499
atp2500
Rp2501
(dp2502
g16
VDT
p2503
sbag5
(g6
g7
(lp2504
Vterabyte
p2505
atp2506
Rp2507
(dp2508
g16
VNN
p2509
sbatp2510
Rp2511
(dp2512
g16
VNP
p2513
sbatp2514
Rp2515
(dp2516
g16
VVP
p2517
sbatp2518
Rp2519
(dp2520
g16
VVP
p2521
sbatp2522
Rp2523
(dp2524
g16
g135
sbatp2525
Rp2526
(dp2527
g16
VVP
p2528
sbatp2529
Rp2530
(dp2531
g16
VVP
p2532
sbag5
(g6
g7
(lp2533
g473
atp2534
Rp2535
(dp2536
g16
g473
sbatp2537
Rp2538
(dp2539
g16
g135
sbatp2540
Rp2541
(dp2542
g16
VROOT
p2543
sbasg484
(icmyPackage
CorE
p2544
(dp2545
g487
(lp2546
(I0
I0
tp2547
a(I0
I16
tp2548
asg491
g5
(g6
g7
(lp2549
g2066
ag2071
ag2158
atp2550
Rp2551
(dp2552
g16
g496
sbsbsg497
(icmyPackage
CorE
p2553
(dp2554
g487
(lp2555
(I1
I2
tp2556
a(I1
I39
tp2557
asg491
g5
(g6
g7
(lp2558
g2208
ag2530
ag2535
atp2559
Rp2560
(dp2561
g16
g496
sbsbsg507
g918
sg529
(lp2562
(icmyPackage
Sent
p2563
(dp2564
g533
I2
sg534
I4
sg535
S'The elapsed time is something like 24 hours and the bandwidth is about a gigabyte per day.'
p2565
sg537
I0
sg538
I17
sg491
(lp2566
g2168
asba(icmyPackage
Sent
p2567
(dp2568
g533
I2
sg534
I4
sg535
S'So, CD sneaker net runs at about 70kbps, costs about 1600 CDs for a terabyte (== 250$ media cost), and takes about a week to write, ship, and read the terabyte.'
p2569
sg537
I0
sg538
I18
sg491
(lp2570
g2541
asbasba(icmyPackage
CELink
p2571
(dp2572
g3
(lp2573
g5
(g6
g7
(lp2574
g5
(g6
g7
(lp2575
g5
(g6
g7
(lp2576
g5
(g6
g7
(lp2577
g5
(g6
g7
(lp2578
VIf
p2579
atp2580
Rp2581
(dp2582
g16
VIN
p2583
sbag5
(g6
g7
(lp2584
g5
(g6
g7
(lp2585
g5
(g6
g7
(lp2586
Vwe
p2587
atp2588
Rp2589
(dp2590
g16
VPRP
p2591
sbatp2592
Rp2593
(dp2594
g16
VNP
p2595
sbag5
(g6
g7
(lp2596
g5
(g6
g7
(lp2597
Vuse
p2598
atp2599
Rp2600
(dp2601
g16
VVBP
p2602
sbag5
(g6
g7
(lp2603
g5
(g6
g7
(lp2604
Vthe
p2605
atp2606
Rp2607
(dp2608
g16
VDT
p2609
sbag5
(g6
g7
(lp2610
Vtapes
p2611
atp2612
Rp2613
(dp2614
g16
VNNS
p2615
sbatp2616
Rp2617
(dp2618
g16
VNP
p2619
sbag5
(g6
g7
(lp2620
g5
(g6
g7
(lp2621
V10
p2622
atp2623
Rp2624
(dp2625
g16
VCD
p2626
sbag5
(g6
g7
(lp2627
Vtimes
p2628
atp2629
Rp2630
(dp2631
g16
VNNS
p2632
sbatp2633
Rp2634
(dp2635
g16
VNP
p2636
sbatp2637
Rp2638
(dp2639
g16
VVP
p2640
sbatp2641
Rp2642
(dp2643
g16
g135
sbatp2644
Rp2645
(dp2646
g16
VSBAR
p2647
sbag5
(g6
g7
(lp2648
g76
atp2649
Rp2650
(dp2651
g16
g76
sbag5
(g6
g7
(lp2652
Vthen
p2653
atp2654
Rp2655
(dp2656
g16
VRB
p2657
sbag5
(g6
g7
(lp2658
g5
(g6
g7
(lp2659
Vour
p2660
atp2661
Rp2662
(dp2663
g16
VPRP$
p2664
sbatp2665
Rp2666
(dp2667
g16
VNP
p2668
sbag5
(g6
g7
(lp2669
g5
(g6
g7
(lp2670
Vcost
p2671
atp2672
Rp2673
(dp2674
g16
VVBP
p2675
sbag5
(g6
g7
(lp2676
g5
(g6
g7
(lp2677
V-LRB-
p2678
atp2679
Rp2680
(dp2681
g16
V-LRB-
p2682
sbag5
(g6
g7
(lp2683
g5
(g6
g7
(lp2684
Vyou
p2685
atp2686
Rp2687
(dp2688
g16
VPRP
p2689
sbag5
(g6
g7
(lp2690
Vand
p2691
atp2692
Rp2693
(dp2694
g16
VCC
p2695
sbag5
(g6
g7
(lp2696
Vme
p2697
atp2698
Rp2699
(dp2700
g16
VPRP
p2701
sbatp2702
Rp2703
(dp2704
g16
VNP
p2705
sbag5
(g6
g7
(lp2706
V-RRB-
p2707
atp2708
Rp2709
(dp2710
g16
V-RRB-
p2711
sbag5
(g6
g7
(lp2712
g5
(g6
g7
(lp2713
Vto
p2714
atp2715
Rp2716
(dp2717
g16
VTO
p2718
sbag5
(g6
g7
(lp2719
g5
(g6
g7
(lp2720
Vexchange
p2721
atp2722
Rp2723
(dp2724
g16
VVB
p2725
sbag5
(g6
g7
(lp2726
g5
(g6
g7
(lp2727
g258
atp2728
Rp2729
(dp2730
g16
VDT
p2731
sbag5
(g6
g7
(lp2732
VTB
p2733
atp2734
Rp2735
(dp2736
g16
VNN
p2737
sbatp2738
Rp2739
(dp2740
g16
VNP
p2741
sbatp2742
Rp2743
(dp2744
g16
VVP
p2745
sbatp2746
Rp2747
(dp2748
g16
VVP
p2749
sbatp2750
Rp2751
(dp2752
g16
g135
sbatp2753
Rp2754
(dp2755
g16
VVP
p2756
sbatp2757
Rp2758
(dp2759
g16
g135
sbag5
(g6
g7
(lp2760
g5
(g6
g7
(lp2761
Vis
p2762
atp2763
Rp2764
(dp2765
g16
VVBZ
p2766
sbag5
(g6
g7
(lp2767
g5
(g6
g7
(lp2768
g5
(g6
g7
(lp2769
g5
(g6
g7
(lp2770
V30
p2771
atp2772
Rp2773
(dp2774
g16
VCD
p2775
sbag5
(g6
g7
(lp2776
VK$
p2777
atp2778
Rp2779
(dp2780
g16
VNN
p2781
sbatp2782
Rp2783
(dp2784
g16
VNP
p2785
sbag5
(g6
g7
(lp2786
g5
(g6
g7
(lp2787
Vfor
p2788
atp2789
Rp2790
(dp2791
g16
VIN
p2792
sbag5
(g6
g7
(lp2793
g5
(g6
g7
(lp2794
Vtwo
p2795
atp2796
Rp2797
(dp2798
g16
VCD
p2799
sbag5
(g6
g7
(lp2800
Vtape
p2801
atp2802
Rp2803
(dp2804
g16
VNN
p2805
sbag5
(g6
g7
(lp2806
Vrobots
p2807
atp2808
Rp2809
(dp2810
g16
VNNS
p2811
sbatp2812
Rp2813
(dp2814
g16
VNP
p2815
sbatp2816
Rp2817
(dp2818
g16
VPP
p2819
sbatp2820
Rp2821
(dp2822
g16
VNP
p2823
sbag5
(g6
g7
(lp2824
Vand
p2825
atp2826
Rp2827
(dp2828
g16
VCC
p2829
sbag5
(g6
g7
(lp2830
g5
(g6
g7
(lp2831
g5
(g6
g7
(lp2832
V1K
p2833
atp2834
Rp2835
(dp2836
g16
VCD
p2837
sbatp2838
Rp2839
(dp2840
g16
VNP
p2841
sbag5
(g6
g7
(lp2842
g5
(g6
g7
(lp2843
g2353
atp2844
Rp2845
(dp2846
g16
g2353
sbag5
(g6
g7
(lp2847
g5
(g6
g7
(lp2848
Vfor
p2849
atp2850
Rp2851
(dp2852
g16
VIN
p2853
sbag5
(g6
g7
(lp2854
Vthe
p2855
atp2856
Rp2857
(dp2858
g16
VDT
p2859
sbatp2860
Rp2861
(dp2862
g16
VQP
p2863
sbatp2864
Rp2865
(dp2866
g16
VNP
p2867
sbatp2868
Rp2869
(dp2870
g16
VNP
p2871
sbatp2872
Rp2873
(dp2874
g16
VNP
p2875
sbatp2876
Rp2877
(dp2878
g16
VVP
p2879
sbag5
(g6
g7
(lp2880
g5
(g6
g7
(lp2881
Vmedia
p2882
atp2883
Rp2884
(dp2885
g16
VNNS
p2886
sbatp2887
Rp2888
(dp2889
g16
VNP
p2890
sbag5
(g6
g7
(lp2891
g473
atp2892
Rp2893
(dp2894
g16
g473
sbatp2895
Rp2896
(dp2897
g16
VSINV
p2898
sbatp2899
Rp2900
(dp2901
g16
VROOT
p2902
sbasg484
(icmyPackage
CorE
p2903
(dp2904
g487
(lp2905
(I0
I1
tp2906
a(I0
I6
tp2907
asg491
g2642
sbsg497
(icmyPackage
CorE
p2908
(dp2909
g487
(lp2910
(I0
I8
tp2911
a(I0
I33
tp2912
asg491
g5
(g6
g7
(lp2913
g2655
ag2666
ag2754
ag2877
ag2888
ag2893
atp2914
Rp2915
(dp2916
g16
g496
sbsbsg507
(icmyPackage
pattern
p2917
(dp2918
g510
I0
sg511
I0
sg512
(lp2919
(lp2920
(lp2921
S'if'
p2922
aS'once'
p2923
aaa(lp2924
S','
p2925
aasg517
(lp2926
I1
aI1
aI1
asg519
(lp2927
S'If some light and mobile detection devices can be invented in the future, many new applications can be imagined, for example, people can get some services while thinking.'
p2928
asg522
I15
sg523
(lp2929
(lp2930
a(lp2931
S'&C@Complete@'
p2932
aa(lp2933
S'&R@Complete@'
p2934
aasbsg529
(lp2935
(icmyPackage
Sent
p2936
(dp2937
g533
I3
sg534
I6
sg535
S'If we use the tapes 10 times, then our cost (you and me) to exchange a TB is 30 K$ for two tape robots and 1K$ for the media.'
p2938
sg537
I0
sg538
I31
sg491
(lp2939
g2900
asbasba(icmyPackage
CELink
p2940
(dp2941
g3
(lp2942
g5
(g6
g7
(lp2943
g5
(g6
g7
(lp2944
g5
(g6
g7
(lp2945
g5
(g6
g7
(lp2946
g5
(g6
g7
(lp2947
VIgnoring
p2948
atp2949
Rp2950
(dp2951
g16
VVBG
p2952
sbag5
(g6
g7
(lp2953
g5
(g6
g7
(lp2954
Vlabor
p2955
atp2956
Rp2957
(dp2958
g16
VNN
p2959
sbag5
(g6
g7
(lp2960
Vcosts
p2961
atp2962
Rp2963
(dp2964
g16
VNNS
p2965
sbatp2966
Rp2967
(dp2968
g16
VNP
p2969
sbatp2970
Rp2971
(dp2972
g16
VVP
p2973
sbatp2974
Rp2975
(dp2976
g16
g135
sbag5
(g6
g7
(lp2977
g76
atp2978
Rp2979
(dp2980
g16
g76
sbag5
(g6
g7
(lp2981
g5
(g6
g7
(lp2982
Vit
p2983
atp2984
Rp2985
(dp2986
g16
VPRP
p2987
sbatp2988
Rp2989
(dp2990
g16
VNP
p2991
sbag5
(g6
g7
(lp2992
g5
(g6
g7
(lp2993
Vis
p2994
atp2995
Rp2996
(dp2997
g16
VVBZ
p2998
sbag5
(g6
g7
(lp2999
g5
(g6
g7
(lp3000
V31k
p3001
atp3002
Rp3003
(dp3004
g16
VJJ
p3005
sbatp3006
Rp3007
(dp3008
g16
VADJP
p3009
sbag5
(g6
g7
(lp3010
g5
(g6
g7
(lp3011
g5
(g6
g7
(lp3012
g2353
atp3013
Rp3014
(dp3015
g16
g2353
sbag5
(g6
g7
(lp3016
Vtotal
p3017
atp3018
Rp3019
(dp3020
g16
VJJ
p3021
sbatp3022
Rp3023
(dp3024
g16
VADJP
p3025
sbag5
(g6
g7
(lp3026
Vor
p3027
atp3028
Rp3029
(dp3030
g16
VCC
p3031
sbag5
(g6
g7
(lp3032
g5
(g6
g7
(lp3033
V3k
p3034
atp3035
Rp3036
(dp3037
g16
VVBG
p3038
sbag5
(g6
g7
(lp3039
g5
(g6
g7
(lp3040
g2353
atp3041
Rp3042
(dp3043
g16
g2353
sbag5
(g6
g7
(lp3044
g5
(g6
g7
(lp3045
Vper
p3046
atp3047
Rp3048
(dp3049
g16
VIN
p3050
sbag5
(g6
g7
(lp3051
VTB
p3052
atp3053
Rp3054
(dp3055
g16
VCD
p3056
sbatp3057
Rp3058
(dp3059
g16
VQP
p3060
sbatp3061
Rp3062
(dp3063
g16
VNP
p3064
sbatp3065
Rp3066
(dp3067
g16
VVP
p3068
sbatp3069
Rp3070
(dp3071
g16
VUCP
p3072
sbatp3073
Rp3074
(dp3075
g16
VVP
p3076
sbag5
(g6
g7
(lp3077
g473
atp3078
Rp3079
(dp3080
g16
g473
sbatp3081
Rp3082
(dp3083
g16
g135
sbatp3084
Rp3085
(dp3086
g16
VROOT
p3087
sbasg484
(icmyPackage
CorE
p3088
(dp3089
g487
(lp3090
(I0
I0
tp3091
a(I0
I2
tp3092
asg491
g2975
sbsg497
(icmyPackage
CorE
p3093
(dp3094
g487
(lp3095
(I0
I4
tp3096
a(I0
I14
tp3097
asg491
g5
(g6
g7
(lp3098
g2989
ag3074
ag3079
atp3099
Rp3100
(dp3101
g16
g496
sbsbsg507
(icmyPackage
pattern
p3102
(dp3103
g510
I30
sg511
I0
sg512
(lp3104
sg517
(lp3105
I3
aI2
aI1
asg519
(lp3106
S'Being over here we tend to be a bit isolated.'
p3107
aS'Not being sure of the word, he turned it up in the dictionary.'
p3108
asg522
I81
sg523
(lp3109
(lp3110
S'&V-ing@C@'
p3111
aS'(,)'
p3112
aS'&R@Complete@'
p3113
aasbsg529
(lp3114
(icmyPackage
Sent
p3115
(dp3116
g533
I3
sg534
I6
sg535
S'Ignoring labor costs, it is 31k$ total or 3k$ per TB.'
p3117
sg537
I0
sg538
I32
sg491
(lp3118
g3085
asbasba(icmyPackage
CELink
p3119
(dp3120
g3
(lp3121
g5
(g6
g7
(lp3122
g5
(g6
g7
(lp3123
g5
(g6
g7
(lp3124
g5
(g6
g7
(lp3125
g5
(g6
g7
(lp3126
VWe
p3127
atp3128
Rp3129
(dp3130
g16
VPRP
p3131
sbatp3132
Rp3133
(dp3134
g16
VNP
p3135
sbag5
(g6
g7
(lp3136
g5
(g6
g7
(lp3137
Vbegan
p3138
atp3139
Rp3140
(dp3141
g16
VVBD
p3142
sbag5
(g6
g7
(lp3143
g5
(g6
g7
(lp3144
g5
(g6
g7
(lp3145
Vsending
p3146
atp3147
Rp3148
(dp3149
g16
VVBG
p3150
sbag5
(g6
g7
(lp3151
g5
(g6
g7
(lp3152
Vraw
p3153
atp3154
Rp3155
(dp3156
g16
VJJ
p3157
sbag5
(g6
g7
(lp3158
Vdisks
p3159
atp3160
Rp3161
(dp3162
g16
VNNS
p3163
sbatp3164
Rp3165
(dp3166
g16
VNP
p3167
sbag5
(g6
g7
(lp3168
g5
(g6
g7
(lp3169
Vto
p3170
atp3171
Rp3172
(dp3173
g16
VTO
p3174
sbag5
(g6
g7
(lp3175
g5
(g6
g7
(lp3176
Vone
p3177
atp3178
Rp3179
(dp3180
g16
VCD
p3181
sbag5
(g6
g7
(lp3182
Vanother
p3183
atp3184
Rp3185
(dp3186
g16
VDT
p3187
sbatp3188
Rp3189
(dp3190
g16
VNP
p3191
sbatp3192
Rp3193
(dp3194
g16
VPP
p3195
sbatp3196
Rp3197
(dp3198
g16
VVP
p3199
sbatp3200
Rp3201
(dp3202
g16
g135
sbatp3203
Rp3204
(dp3205
g16
VVP
p3206
sbatp3207
Rp3208
(dp3209
g16
g135
sbag5
(g6
g7
(lp3210
g76
atp3211
Rp3212
(dp3213
g16
g76
sbag5
(g6
g7
(lp3214
Vbut
p3215
atp3216
Rp3217
(dp3218
g16
VCC
p3219
sbag5
(g6
g7
(lp3220
g5
(g6
g7
(lp3221
g5
(g6
g7
(lp3222
Vthat
p3223
atp3224
Rp3225
(dp3226
g16
VDT
p3227
sbatp3228
Rp3229
(dp3230
g16
VNP
p3231
sbag5
(g6
g7
(lp3232
g5
(g6
g7
(lp3233
Vhas
p3234
atp3235
Rp3236
(dp3237
g16
VVBZ
p3238
sbag5
(g6
g7
(lp3239
g5
(g6
g7
(lp3240
g5
(g6
g7
(lp3241
Vthe
p3242
atp3243
Rp3244
(dp3245
g16
VDT
p3246
sbag5
(g6
g7
(lp3247
Vnasty
p3248
atp3249
Rp3250
(dp3251
g16
VJJ
p3252
sbag5
(g6
g7
(lp3253
Vproblem
p3254
atp3255
Rp3256
(dp3257
g16
VNN
p3258
sbatp3259
Rp3260
(dp3261
g16
VNP
p3262
sbag5
(g6
g7
(lp3263
g5
(g6
g7
(lp3264
g5
(g6
g7
(lp3265
Vthat
p3266
atp3267
Rp3268
(dp3269
g16
VWDT
p3270
sbag5
(g6
g7
(lp3271
Vdisks
p3272
atp3273
Rp3274
(dp3275
g16
VNNS
p3276
sbatp3277
Rp3278
(dp3279
g16
VWHNP
p3280
sbag5
(g6
g7
(lp3281
g5
(g6
g7
(lp3282
g5
(g6
g7
(lp3283
Vdo
p3284
atp3285
Rp3286
(dp3287
g16
VVBP
p3288
sbag5
(g6
g7
(lp3289
Vnot
p3290
atp3291
Rp3292
(dp3293
g16
VRB
p3294
sbag5
(g6
g7
(lp3295
g5
(g6
g7
(lp3296
Vplug
p3297
atp3298
Rp3299
(dp3300
g16
VVB
p3301
sbag5
(g6
g7
(lp3302
g5
(g6
g7
(lp3303
Vright
p3304
atp3305
Rp3306
(dp3307
g16
VRB
p3308
sbatp3309
Rp3310
(dp3311
g16
VADVP
p3312
sbag5
(g6
g7
(lp3313
g5
(g6
g7
(lp3314
Vinto
p3315
atp3316
Rp3317
(dp3318
g16
VIN
p3319
sbag5
(g6
g7
(lp3320
g5
(g6
g7
(lp3321
Vthe
p3322
atp3323
Rp3324
(dp3325
g16
VDT
p3326
sbag5
(g6
g7
(lp3327
Vnetwork
p3328
atp3329
Rp3330
(dp3331
g16
VNN
p3332
sbatp3333
Rp3334
(dp3335
g16
VNP
p3336
sbatp3337
Rp3338
(dp3339
g16
VPP
p3340
sbatp3341
Rp3342
(dp3343
g16
VVP
p3344
sbatp3345
Rp3346
(dp3347
g16
VVP
p3348
sbatp3349
Rp3350
(dp3351
g16
g135
sbatp3352
Rp3353
(dp3354
g16
VSBAR
p3355
sbatp3356
Rp3357
(dp3358
g16
VNP
p3359
sbatp3360
Rp3361
(dp3362
g16
VVP
p3363
sbatp3364
Rp3365
(dp3366
g16
g135
sbag5
(g6
g7
(lp3367
g473
atp3368
Rp3369
(dp3370
g16
g473
sbatp3371
Rp3372
(dp3373
g16
g135
sbatp3374
Rp3375
(dp3376
g16
VROOT
p3377
sbag5
(g6
g7
(lp3378
g5
(g6
g7
(lp3379
g5
(g6
g7
(lp3380
VSo
p3381
atp3382
Rp3383
(dp3384
g16
VIN
p3385
sbag5
(g6
g7
(lp3386
g5
(g6
g7
(lp3387
Vthe
p3388
atp3389
Rp3390
(dp3391
g16
VDT
p3392
sbag5
(g6
g7
(lp3393
Vrecipient
p3394
atp3395
Rp3396
(dp3397
g16
VNN
p3398
sbatp3399
Rp3400
(dp3401
g16
VNP
p3402
sbag5
(g6
g7
(lp3403
g5
(g6
g7
(lp3404
Vhad
p3405
atp3406
Rp3407
(dp3408
g16
VVBD
p3409
sbag5
(g6
g7
(lp3410
g5
(g6
g7
(lp3411
g5
(g6
g7
(lp3412
Vto
p3413
atp3414
Rp3415
(dp3416
g16
VTO
p3417
sbag5
(g6
g7
(lp3418
g5
(g6
g7
(lp3419
Vhave
p3420
atp3421
Rp3422
(dp3423
g16
VVB
p3424
sbag5
(g6
g7
(lp3425
g5
(g6
g7
(lp3426
g5
(g6
g7
(lp3427
Vexactly
p3428
atp3429
Rp3430
(dp3431
g16
VRB
p3432
sbag5
(g6
g7
(lp3433
Vthe
p3434
atp3435
Rp3436
(dp3437
g16
VDT
p3438
sbag5
(g6
g7
(lp3439
Vright
p3440
atp3441
Rp3442
(dp3443
g16
VJJ
p3444
sbag5
(g6
g7
(lp3445
Vkind
p3446
atp3447
Rp3448
(dp3449
g16
VNN
p3450
sbatp3451
Rp3452
(dp3453
g16
VNP
p3454
sbag5
(g6
g7
(lp3455
g5
(g6
g7
(lp3456
Vof
p3457
atp3458
Rp3459
(dp3460
g16
VIN
p3461
sbag5
(g6
g7
(lp3462
g5
(g6
g7
(lp3463
g5
(g6
g7
(lp3464
Vdisk
p3465
atp3466
Rp3467
(dp3468
g16
VNN
p3469
sbag5
(g6
g7
(lp3470
Vreader
p3471
atp3472
Rp3473
(dp3474
g16
VNN
p3475
sbatp3476
Rp3477
(dp3478
g16
VNP
p3479
sbag5
(g6
g7
(lp3480
g5
(g6
g7
(lp3481
V-LRB-
p3482
atp3483
Rp3484
(dp3485
g16
V-LRB-
p3486
sbag5
(g6
g7
(lp3487
g5
(g6
g7
(lp3488
g5
(g6
g7
(lp3489
Van
p3490
atp3491
Rp3492
(dp3493
g16
VDT
p3494
sbag5
(g6
g7
(lp3495
VATA
p3496
atp3497
Rp3498
(dp3499
g16
VNNP
p3500
sbag5
(g6
g7
(lp3501
Vpath
p3502
atp3503
Rp3504
(dp3505
g16
VNN
p3506
sbatp3507
Rp3508
(dp3509
g16
VNP
p3510
sbag5
(g6
g7
(lp3511
g5
(g6
g7
(lp3512
g5
(g6
g7
(lp3513
Vthat
p3514
atp3515
Rp3516
(dp3517
g16
VWDT
p3518
sbatp3519
Rp3520
(dp3521
g16
VWHNP
p3522
sbag5
(g6
g7
(lp3523
g5
(g6
g7
(lp3524
g5
(g6
g7
(lp3525
Vcould
p3526
atp3527
Rp3528
(dp3529
g16
VMD
p3530
sbag5
(g6
g7
(lp3531
g5
(g6
g7
(lp3532
Vread
p3533
atp3534
Rp3535
(dp3536
g16
VVB
p3537
sbag5
(g6
g7
(lp3538
g5
(g6
g7
(lp3539
Van
p3540
atp3541
Rp3542
(dp3543
g16
VDT
p3544
sbag5
(g6
g7
(lp3545
VNTFS
p3546
atp3547
Rp3548
(dp3549
g16
VNNP
p3550
sbag5
(g6
g7
(lp3551
Vfile
p3552
atp3553
Rp3554
(dp3555
g16
VNN
p3556
sbag5
(g6
g7
(lp3557
Vsystem
p3558
atp3559
Rp3560
(dp3561
g16
VNN
p3562
sbatp3563
Rp3564
(dp3565
g16
VNP
p3566
sbag5
(g6
g7
(lp3567
g5
(g6
g7
(lp3568
Vwith
p3569
atp3570
Rp3571
(dp3572
g16
VIN
p3573
sbag5
(g6
g7
(lp3574
g5
(g6
g7
(lp3575
Van
p3576
atp3577
Rp3578
(dp3579
g16
VDT
p3580
sbag5
(g6
g7
(lp3581
VSQL
p3582
atp3583
Rp3584
(dp3585
g16
VNNP
p3586
sbag5
(g6
g7
(lp3587
Vdatabase
p3588
atp3589
Rp3590
(dp3591
g16
VNN
p3592
sbatp3593
Rp3594
(dp3595
g16
VNP
p3596
sbatp3597
Rp3598
(dp3599
g16
VPP
p3600
sbatp3601
Rp3602
(dp3603
g16
VVP
p3604
sbatp3605
Rp3606
(dp3607
g16
VVP
p3608
sbatp3609
Rp3610
(dp3611
g16
g135
sbatp3612
Rp3613
(dp3614
g16
VSBAR
p3615
sbatp3616
Rp3617
(dp3618
g16
VNP
p3619
sbag5
(g6
g7
(lp3620
V-RRB-
p3621
atp3622
Rp3623
(dp3624
g16
V-RRB-
p3625
sbatp3626
Rp3627
(dp3628
g16
VPRN
p3629
sbatp3630
Rp3631
(dp3632
g16
VNP
p3633
sbatp3634
Rp3635
(dp3636
g16
VPP
p3637
sbatp3638
Rp3639
(dp3640
g16
VNP
p3641
sbatp3642
Rp3643
(dp3644
g16
VVP
p3645
sbatp3646
Rp3647
(dp3648
g16
VVP
p3649
sbatp3650
Rp3651
(dp3652
g16
g135
sbatp3653
Rp3654
(dp3655
g16
VVP
p3656
sbag5
(g6
g7
(lp3657
g473
atp3658
Rp3659
(dp3660
g16
g473
sbatp3661
Rp3662
(dp3663
g16
g135
sbatp3664
Rp3665
(dp3666
g16
VROOT
p3667
sbasg484
(icmyPackage
CorE
p3668
(dp3669
g487
(lp3670
(I0
I0
tp3671
a(I0
I23
tp3672
asg491
g5
(g6
g7
(lp3673
g3208
ag3212
ag3217
ag3365
atp3674
Rp3675
(dp3676
g16
g496
sbsbsg497
(icmyPackage
CorE
p3677
(dp3678
g487
(lp3679
(I1
I1
tp3680
a(I1
I29
tp3681
asg491
g5
(g6
g7
(lp3682
g3400
ag3654
ag3659
atp3683
Rp3684
(dp3685
g16
g496
sbsbsg507
g918
sg529
(lp3686
(icmyPackage
Sent
p3687
(dp3688
g533
I4
sg534
I8
sg535
S'We began sending raw disks to one another, but that has the nasty problem that disks do not plug right into the network.'
p3689
sg537
I0
sg538
I36
sg491
(lp3690
g3375
asba(icmyPackage
Sent
p3691
(dp3692
g533
I4
sg534
I8
sg535
S'So the recipient had to have exactly the right kind of disk reader (an ATA path that could read an NTFS file system with an SQL database).'
p3693
sg537
I0
sg538
I37
sg491
(lp3694
g3665
asbasba(icmyPackage
CELink
p3695
(dp3696
g3
(lp3697
g5
(g6
g7
(lp3698
g5
(g6
g7
(lp3699
g5
(g6
g7
(lp3700
g5
(g6
g7
(lp3701
VEven
p3702
atp3703
Rp3704
(dp3705
g16
VRB
p3706
sbag5
(g6
g7
(lp3707
Vwithin
p3708
atp3709
Rp3710
(dp3711
g16
VIN
p3712
sbag5
(g6
g7
(lp3713
g5
(g6
g7
(lp3714
g5
(g6
g7
(lp3715
Vthe
p3716
atp3717
Rp3718
(dp3719
g16
VDT
p3720
sbag5
(g6
g7
(lp3721
Vselect
p3722
atp3723
Rp3724
(dp3725
g16
VJJ
p3726
sbag5
(g6
g7
(lp3727
Vgroup
p3728
atp3729
Rp3730
(dp3731
g16
VNN
p3732
sbatp3733
Rp3734
(dp3735
g16
VNP
p3736
sbag5
(g6
g7
(lp3737
g5
(g6
g7
(lp3738
g5
(g6
g7
(lp3739
Vthat
p3740
atp3741
Rp3742
(dp3743
g16
VWDT
p3744
sbatp3745
Rp3746
(dp3747
g16
VWHNP
p3748
sbag5
(g6
g7
(lp3749
g5
(g6
g7
(lp3750
g5
(g6
g7
(lp3751
Vcan
p3752
atp3753
Rp3754
(dp3755
g16
VMD
p3756
sbag5
(g6
g7
(lp3757
g5
(g6
g7
(lp3758
Vread
p3759
atp3760
Rp3761
(dp3762
g16
VVB
p3763
sbag5
(g6
g7
(lp3764
g5
(g6
g7
(lp3765
Vour
p3766
atp3767
Rp3768
(dp3769
g16
VPRP$
p3770
sbag5
(g6
g7
(lp3771
Vfavored
p3772
atp3773
Rp3774
(dp3775
g16
VJJ
p3776
sbag5
(g6
g7
(lp3777
Vdisk
p3778
atp3779
Rp3780
(dp3781
g16
VNN
p3782
sbag5
(g6
g7
(lp3783
Vformat
p3784
atp3785
Rp3786
(dp3787
g16
VNN
p3788
sbatp3789
Rp3790
(dp3791
g16
VNP
p3792
sbatp3793
Rp3794
(dp3795
g16
VVP
p3796
sbatp3797
Rp3798
(dp3799
g16
VVP
p3800
sbatp3801
Rp3802
(dp3803
g16
g135
sbatp3804
Rp3805
(dp3806
g16
VSBAR
p3807
sbatp3808
Rp3809
(dp3810
g16
VNP
p3811
sbatp3812
Rp3813
(dp3814
g16
VPP
p3815
sbag5
(g6
g7
(lp3816
g76
atp3817
Rp3818
(dp3819
g16
g76
sbag5
(g6
g7
(lp3820
g5
(g6
g7
(lp3821
Vwe
p3822
atp3823
Rp3824
(dp3825
g16
VPRP
p3826
sbatp3827
Rp3828
(dp3829
g16
VNP
p3830
sbag5
(g6
g7
(lp3831
g5
(g6
g7
(lp3832
Vhad
p3833
atp3834
Rp3835
(dp3836
g16
VVBD
p3837
sbag5
(g6
g7
(lp3838
g5
(g6
g7
(lp3839
g5
(g6
g7
(lp3840
Vmany
p3841
atp3842
Rp3843
(dp3844
g16
VJJ
p3845
sbag5
(g6
g7
(lp3846
Vproblems
p3847
atp3848
Rp3849
(dp3850
g16
VNNS
p3851
sbatp3852
Rp3853
(dp3854
g16
VNP
p3855
sbag5
(g6
g7
(lp3856
g5
(g6
g7
(lp3857
Vabout
p3858
atp3859
Rp3860
(dp3861
g16
VIN
p3862
sbag5
(g6
g7
(lp3863
g5
(g6
g7
(lp3864
Vmaster-slave
p3865
atp3866
Rp3867
(dp3868
g16
VJJ
p3869
sbag5
(g6
g7
(lp3870
Vsettings
p3871
atp3872
Rp3873
(dp3874
g16
VNNS
p3875
sbatp3876
Rp3877
(dp3878
g16
VNP
p3879
sbatp3880
Rp3881
(dp3882
g16
VPP
p3883
sbatp3884
Rp3885
(dp3886
g16
VNP
p3887
sbag5
(g6
g7
(lp3888
g5
(g6
g7
(lp3889
Von
p3890
atp3891
Rp3892
(dp3893
g16
VIN
p3894
sbag5
(g6
g7
(lp3895
g5
(g6
g7
(lp3896
Vthe
p3897
atp3898
Rp3899
(dp3900
g16
VDT
p3901
sbag5
(g6
g7
(lp3902
VATA
p3903
atp3904
Rp3905
(dp3906
g16
VNNP
p3907
sbag5
(g6
g7
(lp3908
Vbus
p3909
atp3910
Rp3911
(dp3912
g16
VNN
p3913
sbatp3914
Rp3915
(dp3916
g16
VNP
p3917
sbatp3918
Rp3919
(dp3920
g16
VPP
p3921
sbag5
(g6
g7
(lp3922
g76
atp3923
Rp3924
(dp3925
g16
g76
sbag5
(g6
g7
(lp3926
g5
(g6
g7
(lp3927
Vabout
p3928
atp3929
Rp3930
(dp3931
g16
VIN
p3932
sbag5
(g6
g7
(lp3933
g5
(g6
g7
(lp3934
g5
(g6
g7
(lp3935
g5
(g6
g7
(lp3936
Vrecognizing
p3937
atp3938
Rp3939
(dp3940
g16
VVBG
p3941
sbag5
(g6
g7
(lp3942
g5
(g6
g7
(lp3943
Vdynamic
p3944
atp3945
Rp3946
(dp3947
g16
VJJ
p3948
sbag5
(g6
g7
(lp3949
Vdisks
p3950
atp3951
Rp3952
(dp3953
g16
VNNS
p3954
sbatp3955
Rp3956
(dp3957
g16
VNP
p3958
sbatp3959
Rp3960
(dp3961
g16
VVP
p3962
sbag5
(g6
g7
(lp3963
g76
atp3964
Rp3965
(dp3966
g16
g76
sbag5
(g6
g7
(lp3967
Vand
p3968
atp3969
Rp3970
(dp3971
g16
VCC
p3972
sbag5
(g6
g7
(lp3973
g5
(g6
g7
(lp3974
Vinnumerable
p3975
atp3976
Rp3977
(dp3978
g16
VVBG
p3979
sbag5
(g6
g7
(lp3980
g5
(g6
g7
(lp3981
Vother
p3982
atp3983
Rp3984
(dp3985
g16
VJJ
p3986
sbag5
(g6
g7
(lp3987
Vdetails
p3988
atp3989
Rp3990
(dp3991
g16
VNNS
p3992
sbatp3993
Rp3994
(dp3995
g16
VNP
p3996
sbatp3997
Rp3998
(dp3999
g16
VVP
p4000
sbatp4001
Rp4002
(dp4003
g16
VVP
p4004
sbatp4005
Rp4006
(dp4007
g16
g135
sbatp4008
Rp4009
(dp4010
g16
VPP
p4011
sbatp4012
Rp4013
(dp4014
g16
VVP
p4015
sbag5
(g6
g7
(lp4016
g473
atp4017
Rp4018
(dp4019
g16
g473
sbatp4020
Rp4021
(dp4022
g16
g135
sbatp4023
Rp4024
(dp4025
g16
VROOT
p4026
sbag5
(g6
g7
(lp4027
g5
(g6
g7
(lp4028
g5
(g6
g7
(lp4029
g5
(g6
g7
(lp4030
VSo
p4031
atp4032
Rp4033
(dp4034
g16
VRB
p4035
sbatp4036
Rp4037
(dp4038
g16
VADVP
p4039
sbag5
(g6
g7
(lp4040
g76
atp4041
Rp4042
(dp4043
g16
g76
sbag5
(g6
g7
(lp4044
g5
(g6
g7
(lp4045
Vsending
p4046
atp4047
Rp4048
(dp4049
g16
VVBG
p4050
sbag5
(g6
g7
(lp4051
g5
(g6
g7
(lp4052
Vmagnetic
p4053
atp4054
Rp4055
(dp4056
g16
VJJ
p4057
sbag5
(g6
g7
(lp4058
Vdisks
p4059
atp4060
Rp4061
(dp4062
g16
VNNS
p4063
sbatp4064
Rp4065
(dp4066
g16
VNP
p4067
sbag5
(g6
g7
(lp4068
g5
(g6
g7
(lp4069
Varound
p4070
atp4071
Rp4072
(dp4073
g16
VRB
p4074
sbatp4075
Rp4076
(dp4077
g16
VADVP
p4078
sbatp4079
Rp4080
(dp4081
g16
VVP
p4082
sbag5
(g6
g7
(lp4083
g5
(g6
g7
(lp4084
Vis
p4085
atp4086
Rp4087
(dp4088
g16
VVBZ
p4089
sbag5
(g6
g7
(lp4090
g5
(g6
g7
(lp4091
Vproblematic
p4092
atp4093
Rp4094
(dp4095
g16
VJJ
p4096
sbatp4097
Rp4098
(dp4099
g16
VADJP
p4100
sbatp4101
Rp4102
(dp4103
g16
VVP
p4104
sbag5
(g6
g7
(lp4105
g473
atp4106
Rp4107
(dp4108
g16
g473
sbatp4109
Rp4110
(dp4111
g16
g135
sbatp4112
Rp4113
(dp4114
g16
VROOT
p4115
sbasg484
(icmyPackage
CorE
p4116
(dp4117
g487
(lp4118
(I0
I0
tp4119
a(I0
I33
tp4120
asg491
g5
(g6
g7
(lp4121
g3813
ag3818
ag3828
ag4013
atp4122
Rp4123
(dp4124
g16
g496
sbsbsg497
(icmyPackage
CorE
p4125
(dp4126
g487
(lp4127
(I1
I2
tp4128
a(I1
I8
tp4129
asg491
g5
(g6
g7
(lp4130
g4080
ag4102
ag4107
atp4131
Rp4132
(dp4133
g16
g496
sbsbsg507
g918
sg529
(lp4134
(icmyPackage
Sent
p4135
(dp4136
g533
I4
sg534
I8
sg535
S'Even within the select group that can read our favored disk format, we had many problems about master-slave settings on the ATA bus, about recognizing dynamic disks, and innumerable other details.'
p4137
sg537
I0
sg538
I39
sg491
(lp4138
g4024
asba(icmyPackage
Sent
p4139
(dp4140
g533
I4
sg534
I8
sg535
S'So, sending magnetic disks around is problematic.'
p4141
sg537
I0
sg538
I40
sg491
(lp4142
g4113
asbasba(icmyPackage
CELink
p4143
(dp4144
g3
(lp4145
g5
(g6
g7
(lp4146
g5
(g6
g7
(lp4147
g5
(g6
g7
(lp4148
g5
(g6
g7
(lp4149
VStill
p4150
atp4151
Rp4152
(dp4153
g16
VRB
p4154
sbatp4155
Rp4156
(dp4157
g16
VADVP
p4158
sbag5
(g6
g7
(lp4159
g76
atp4160
Rp4161
(dp4162
g16
g76
sbag5
(g6
g7
(lp4163
g5
(g6
g7
(lp4164
g5
(g6
g7
(lp4165
Vfor
p4166
atp4167
Rp4168
(dp4169
g16
VIN
p4170
sbag5
(g6
g7
(lp4171
g5
(g6
g7
(lp4172
g5
(g6
g7
(lp4173
Vfidelity
p4174
atp4175
Rp4176
(dp4177
g16
VNN
p4178
sbatp4179
Rp4180
(dp4181
g16
VNP
p4182
sbag5
(g6
g7
(lp4183
g5
(g6
g7
(lp4184
Vto
p4185
atp4186
Rp4187
(dp4188
g16
VTO
p4189
sbag5
(g6
g7
(lp4190
g5
(g6
g7
(lp4191
Vthe
p4192
atp4193
Rp4194
(dp4195
g16
VDT
p4196
sbag5
(g6
g7
(lp4197
Vargument
p4198
atp4199
Rp4200
(dp4201
g16
VNN
p4202
sbatp4203
Rp4204
(dp4205
g16
VNP
p4206
sbatp4207
Rp4208
(dp4209
g16
VPP
p4210
sbatp4211
Rp4212
(dp4213
g16
VNP
p4214
sbatp4215
Rp4216
(dp4217
g16
VPP
p4218
sbag5
(g6
g7
(lp4219
g76
atp4220
Rp4221
(dp4222
g16
g76
sbag5
(g6
g7
(lp4223
g5
(g6
g7
(lp4224
Vwe
p4225
atp4226
Rp4227
(dp4228
g16
VPRP
p4229
sbatp4230
Rp4231
(dp4232
g16
VNP
p4233
sbag5
(g6
g7
(lp4234
g5
(g6
g7
(lp4235
Vcan
p4236
atp4237
Rp4238
(dp4239
g16
VMD
p4240
sbag5
(g6
g7
(lp4241
g5
(g6
g7
(lp4242
Vread
p4243
atp4244
Rp4245
(dp4246
g16
VVB
p4247
sbag5
(g6
g7
(lp4248
Vand
p4249
atp4250
Rp4251
(dp4252
g16
VCC
p4253
sbag5
(g6
g7
(lp4254
Vwrite
p4255
atp4256
Rp4257
(dp4258
g16
VVB
p4259
sbag5
(g6
g7
(lp4260
g5
(g6
g7
(lp4261
Vdisks
p4262
atp4263
Rp4264
(dp4265
g16
VNNS
p4266
sbatp4267
Rp4268
(dp4269
g16
VNP
p4270
sbag5
(g6
g7
(lp4271
g5
(g6
g7
(lp4272
Vat
p4273
atp4274
Rp4275
(dp4276
g16
VIN
p4277
sbag5
(g6
g7
(lp4278
g5
(g6
g7
(lp4279
g5
(g6
g7
(lp4280
g5
(g6
g7
(lp4281
Vabout
p4282
atp4283
Rp4284
(dp4285
g16
VRB
p4286
sbag5
(g6
g7
(lp4287
V25MBps
p4288
atp4289
Rp4290
(dp4291
g16
VCD
p4292
sbatp4293
Rp4294
(dp4295
g16
VQP
p4296
sbatp4297
Rp4298
(dp4299
g16
VNP
p4300
sbag5
(g6
g7
(lp4301
g5
(g6
g7
(lp4302
V-LRB-
p4303
atp4304
Rp4305
(dp4306
g16
V-LRB-
p4307
sbag5
(g6
g7
(lp4308
g5
(g6
g7
(lp4309
Vaverage
p4310
atp4311
Rp4312
(dp4313
g16
VNN
p4314
sbatp4315
Rp4316
(dp4317
g16
VNP
p4318
sbag5
(g6
g7
(lp4319
V-RRB-
p4320
atp4321
Rp4322
(dp4323
g16
V-RRB-
p4324
sbatp4325
Rp4326
(dp4327
g16
VPRN
p4328
sbatp4329
Rp4330
(dp4331
g16
VNP
p4332
sbatp4333
Rp4334
(dp4335
g16
VPP
p4336
sbatp4337
Rp4338
(dp4339
g16
VVP
p4340
sbatp4341
Rp4342
(dp4343
g16
VVP
p4344
sbatp4345
Rp4346
(dp4347
g16
g135
sbag5
(g6
g7
(lp4348
Vand
p4349
atp4350
Rp4351
(dp4352
g16
VCC
p4353
sbag5
(g6
g7
(lp4354
g5
(g6
g7
(lp4355
g5
(g6
g7
(lp4356
Vthey
p4357
atp4358
Rp4359
(dp4360
g16
VPRP
p4361
sbatp4362
Rp4363
(dp4364
g16
VNP
p4365
sbag5
(g6
g7
(lp4366
g5
(g6
g7
(lp4367
Vcan
p4368
atp4369
Rp4370
(dp4371
g16
VMD
p4372
sbag5
(g6
g7
(lp4373
g5
(g6
g7
(lp4374
Vbe
p4375
atp4376
Rp4377
(dp4378
g16
VVB
p4379
sbag5
(g6
g7
(lp4380
g5
(g6
g7
(lp4381
Vwritten
p4382
atp4383
Rp4384
(dp4385
g16
VVBN
p4386
sbag5
(g6
g7
(lp4387
g5
(g6
g7
(lp4388
Vin
p4389
atp4390
Rp4391
(dp4392
g16
VIN
p4393
sbag5
(g6
g7
(lp4394
g5
(g6
g7
(lp4395
Vparallel
p4396
atp4397
Rp4398
(dp4399
g16
VNN
p4400
sbatp4401
Rp4402
(dp4403
g16
VNP
p4404
sbatp4405
Rp4406
(dp4407
g16
VPP
p4408
sbag5
(g6
g7
(lp4409
g5
(g6
g7
(lp4410
Vat
p4411
atp4412
Rp4413
(dp4414
g16
VIN
p4415
sbag5
(g6
g7
(lp4416
g5
(g6
g7
(lp4417
g5
(g6
g7
(lp4418
Vabout
p4419
atp4420
Rp4421
(dp4422
g16
VRB
p4423
sbag5
(g6
g7
(lp4424
V25MBps
p4425
atp4426
Rp4427
(dp4428
g16
VJJ
p4429
sbatp4430
Rp4431
(dp4432
g16
VNP
p4433
sbag5
(g6
g7
(lp4434
g5
(g6
g7
(lp4435
V-LRB-
p4436
atp4437
Rp4438
(dp4439
g16
V-LRB-
p4440
sbag5
(g6
g7
(lp4441
g5
(g6
g7
(lp4442
g5
(g6
g7
(lp4443
Vsee
p4444
atp4445
Rp4446
(dp4447
g16
VVB
p4448
sbag5
(g6
g7
(lp4449
g5
(g6
g7
(lp4450
Vtable
p4451
atp4452
Rp4453
(dp4454
g16
VNN
p4455
sbag5
(g6
g7
(lp4456
V5
p4457
atp4458
Rp4459
(dp4460
g16
VCD
p4461
sbatp4462
Rp4463
(dp4464
g16
VNP
p4465
sbatp4466
Rp4467
(dp4468
g16
VVP
p4469
sbatp4470
Rp4471
(dp4472
g16
g135
sbag5
(g6
g7
(lp4473
V-RRB-
p4474
atp4475
Rp4476
(dp4477
g16
V-RRB-
p4478
sbatp4479
Rp4480
(dp4481
g16
VPRN
p4482
sbatp4483
Rp4484
(dp4485
g16
VNP
p4486
sbatp4487
Rp4488
(dp4489
g16
VPP
p4490
sbatp4491
Rp4492
(dp4493
g16
VVP
p4494
sbatp4495
Rp4496
(dp4497
g16
VVP
p4498
sbatp4499
Rp4500
(dp4501
g16
VVP
p4502
sbatp4503
Rp4504
(dp4505
g16
g135
sbag5
(g6
g7
(lp4506
g473
atp4507
Rp4508
(dp4509
g16
g473
sbatp4510
Rp4511
(dp4512
g16
g135
sbatp4513
Rp4514
(dp4515
g16
VROOT
p4516
sbag5
(g6
g7
(lp4517
g5
(g6
g7
(lp4518
g5
(g6
g7
(lp4519
VSo
p4520
atp4521
Rp4522
(dp4523
g16
VIN
p4524
sbag5
(g6
g7
(lp4525
g5
(g6
g7
(lp4526
Vwe
p4527
atp4528
Rp4529
(dp4530
g16
VPRP
p4531
sbatp4532
Rp4533
(dp4534
g16
VNP
p4535
sbag5
(g6
g7
(lp4536
g5
(g6
g7
(lp4537
Vcan
p4538
atp4539
Rp4540
(dp4541
g16
VMD
p4542
sbag5
(g6
g7
(lp4543
g5
(g6
g7
(lp4544
g5
(g6
g7
(lp4545
Vwrite
p4546
atp4547
Rp4548
(dp4549
g16
VVB
p4550
sbag5
(g6
g7
(lp4551
g5
(g6
g7
(lp4552
g5
(g6
g7
(lp4553
g258
atp4554
Rp4555
(dp4556
g16
VDT
p4557
sbag5
(g6
g7
(lp4558
g1604
atp4559
Rp4560
(dp4561
g16
VCD
p4562
sbag5
(g6
g7
(lp4563
Vterabyte
p4564
atp4565
Rp4566
(dp4567
g16
VNN
p4568
sbag5
(g6
g7
(lp4569
Varray
p4570
atp4571
Rp4572
(dp4573
g16
VNN
p4574
sbatp4575
Rp4576
(dp4577
g16
VNP
p4578
sbag5
(g6
g7
(lp4579
g5
(g6
g7
(lp4580
Vin
p4581
atp4582
Rp4583
(dp4584
g16
VIN
p4585
sbag5
(g6
g7
(lp4586
g5
(g6
g7
(lp4587
g5
(g6
g7
(lp4588
Vabout
p4589
atp4590
Rp4591
(dp4592
g16
VRB
p4593
sbag5
(g6
g7
(lp4594
V4
p4595
atp4596
Rp4597
(dp4598
g16
VCD
p4599
sbatp4600
Rp4601
(dp4602
g16
VQP
p4603
sbag5
(g6
g7
(lp4604
Vhours
p4605
atp4606
Rp4607
(dp4608
g16
VNNS
p4609
sbatp4610
Rp4611
(dp4612
g16
VNP
p4613
sbatp4614
Rp4615
(dp4616
g16
VPP
p4617
sbatp4618
Rp4619
(dp4620
g16
VNP
p4621
sbatp4622
Rp4623
(dp4624
g16
VVP
p4625
sbag5
(g6
g7
(lp4626
g76
atp4627
Rp4628
(dp4629
g16
g76
sbag5
(g6
g7
(lp4630
g5
(g6
g7
(lp4631
Vship
p4632
atp4633
Rp4634
(dp4635
g16
VVB
p4636
sbag5
(g6
g7
(lp4637
g5
(g6
g7
(lp4638
Vthe
p4639
atp4640
Rp4641
(dp4642
g16
VDT
p4643
sbag5
(g6
g7
(lp4644
V7
p4645
atp4646
Rp4647
(dp4648
g16
VCD
p4649
sbag5
(g6
g7
(lp4650
Vdisks
p4651
atp4652
Rp4653
(dp4654
g16
VNNS
p4655
sbatp4656
Rp4657
(dp4658
g16
VNP
p4659
sbag5
(g6
g7
(lp4660
g5
(g6
g7
(lp4661
Vovernight
p4662
atp4663
Rp4664
(dp4665
g16
VRB
p4666
sbatp4667
Rp4668
(dp4669
g16
VADVP
p4670
sbag5
(g6
g7
(lp4671
g5
(g6
g7
(lp4672
Vfor
p4673
atp4674
Rp4675
(dp4676
g16
VIN
p4677
sbag5
(g6
g7
(lp4678
g5
(g6
g7
(lp4679
g5
(g6
g7
(lp4680
Vabout
p4681
atp4682
Rp4683
(dp4684
g16
VRB
p4685
sbag5
(g6
g7
(lp4686
V50
p4687
atp4688
Rp4689
(dp4690
g16
VCD
p4691
sbag5
(g6
g7
(lp4692
g2353
atp4693
Rp4694
(dp4695
g16
VCD
p4696
sbatp4697
Rp4698
(dp4699
g16
VQP
p4700
sbatp4701
Rp4702
(dp4703
g16
VNP
p4704
sbatp4705
Rp4706
(dp4707
g16
VPP
p4708
sbatp4709
Rp4710
(dp4711
g16
VVP
p4712
sbag5
(g6
g7
(lp4713
g76
atp4714
Rp4715
(dp4716
g16
g76
sbag5
(g6
g7
(lp4717
Vand
p4718
atp4719
Rp4720
(dp4721
g16
VCC
p4722
sbag5
(g6
g7
(lp4723
g5
(g6
g7
(lp4724
g5
(g6
g7
(lp4725
Vthen
p4726
atp4727
Rp4728
(dp4729
g16
VRB
p4730
sbatp4731
Rp4732
(dp4733
g16
VADVP
p4734
sbag5
(g6
g7
(lp4735
Vread
p4736
atp4737
Rp4738
(dp4739
g16
VVB
p4740
sbag5
(g6
g7
(lp4741
g5
(g6
g7
(lp4742
Vthem
p4743
atp4744
Rp4745
(dp4746
g16
VPRP
p4747
sbatp4748
Rp4749
(dp4750
g16
VNP
p4751
sbag5
(g6
g7
(lp4752
g5
(g6
g7
(lp4753
Vin
p4754
atp4755
Rp4756
(dp4757
g16
VIN
p4758
sbag5
(g6
g7
(lp4759
g5
(g6
g7
(lp4760
g4595
atp4761
Rp4762
(dp4763
g16
VCD
p4764
sbag5
(g6
g7
(lp4765
Vhours
p4766
atp4767
Rp4768
(dp4769
g16
VNNS
p4770
sbatp4771
Rp4772
(dp4773
g16
VNP
p4774
sbatp4775
Rp4776
(dp4777
g16
VPP
p4778
sbatp4779
Rp4780
(dp4781
g16
VVP
p4782
sbatp4783
Rp4784
(dp4785
g16
VVP
p4786
sbatp4787
Rp4788
(dp4789
g16
VVP
p4790
sbag5
(g6
g7
(lp4791
g473
atp4792
Rp4793
(dp4794
g16
g473
sbatp4795
Rp4796
(dp4797
g16
g135
sbatp4798
Rp4799
(dp4800
g16
VROOT
p4801
sbasg484
(icmyPackage
CorE
p4802
(dp4803
g487
(lp4804
(I0
I1
tp4805
a(I0
I34
tp4806
asg491
g5
(g6
g7
(lp4807
g4161
ag4346
ag4351
ag4504
atp4808
Rp4809
(dp4810
g16
g496
sbsbsg497
(icmyPackage
CorE
p4811
(dp4812
g487
(lp4813
(I1
I1
tp4814
a(I1
I30
tp4815
asg491
g5
(g6
g7
(lp4816
g4533
ag4788
ag4793
atp4817
Rp4818
(dp4819
g16
g496
sbsbsg507
g918
sg529
(lp4820
(icmyPackage
Sent
p4821
(dp4822
g533
I4
sg534
I9
sg535
S'Still, for fidelity to the argument, we can read and write disks at about 25MBps (average) and they can be written in parallel at about 25MBps (see table 5).'
p4823
sg537
I0
sg538
I41
sg491
(lp4824
g4514
asba(icmyPackage
Sent
p4825
(dp4826
g533
I4
sg534
I9
sg535
S'So we can write a 1 terabyte array in about 4 hours, ship the 7 disks overnight for about 50$, and then read them in 4 hours.'
p4827
sg537
I0
sg538
I42
sg491
(lp4828
g4799
asbasba(icmyPackage
CELink
p4829
(dp4830
g3
(lp4831
g5
(g6
g7
(lp4832
g5
(g6
g7
(lp4833
g5
(g6
g7
(lp4834
g5
(g6
g7
(lp4835
g5
(g6
g7
(lp4836
VIf
p4837
atp4838
Rp4839
(dp4840
g16
VIN
p4841
sbag5
(g6
g7
(lp4842
g5
(g6
g7
(lp4843
g5
(g6
g7
(lp4844
Vwe
p4845
atp4846
Rp4847
(dp4848
g16
VPRP
p4849
sbatp4850
Rp4851
(dp4852
g16
VNP
p4853
sbag5
(g6
g7
(lp4854
g5
(g6
g7
(lp4855
Vuse
p4856
atp4857
Rp4858
(dp4859
g16
VVBP
p4860
sbag5
(g6
g7
(lp4861
g5
(g6
g7
(lp4862
Vthem
p4863
atp4864
Rp4865
(dp4866
g16
VPRP
p4867
sbatp4868
Rp4869
(dp4870
g16
VNP
p4871
sbag5
(g6
g7
(lp4872
g5
(g6
g7
(lp4873
Vten
p4874
atp4875
Rp4876
(dp4877
g16
VCD
p4878
sbag5
(g6
g7
(lp4879
Vtimes
p4880
atp4881
Rp4882
(dp4883
g16
VNNS
p4884
sbatp4885
Rp4886
(dp4887
g16
VNP
p4888
sbatp4889
Rp4890
(dp4891
g16
VVP
p4892
sbatp4893
Rp4894
(dp4895
g16
g135
sbatp4896
Rp4897
(dp4898
g16
VSBAR
p4899
sbag5
(g6
g7
(lp4900
g5
(g6
g7
(lp4901
Vthis
p4902
atp4903
Rp4904
(dp4905
g16
VDT
p4906
sbatp4907
Rp4908
(dp4909
g16
VNP
p4910
sbag5
(g6
g7
(lp4911
g5
(g6
g7
(lp4912
Vis
p4913
atp4914
Rp4915
(dp4916
g16
VVBZ
p4917
sbag5
(g6
g7
(lp4918
g5
(g6
g7
(lp4919
g258
atp4920
Rp4921
(dp4922
g16
VDT
p4923
sbag5
(g6
g7
(lp4924
V190
p4925
atp4926
Rp4927
(dp4928
g16
VJJ
p4929
sbag5
(g6
g7
(lp4930
g5
(g6
g7
(lp4931
g2353
atp4932
Rp4933
(dp4934
g16
g2353
sbag5
(g6
g7
(lp4935
g5
(g6
g7
(lp4936
Vper
p4937
atp4938
Rp4939
(dp4940
g16
VIN
p4941
sbag5
(g6
g7
(lp4942
Vshipped
p4943
atp4944
Rp4945
(dp4946
g16
VCD
p4947
sbatp4948
Rp4949
(dp4950
g16
VQP
p4951
sbatp4952
Rp4953
(dp4954
g16
VADJP
p4955
sbag5
(g6
g7
(lp4956
Vterabyte
p4957
atp4958
Rp4959
(dp4960
g16
VNN
p4961
sbatp4962
Rp4963
(dp4964
g16
VNP
p4965
sbatp4966
Rp4967
(dp4968
g16
VVP
p4969
sbatp4970
Rp4971
(dp4972
g16
g135
sbag5
(g6
g7
(lp4973
g76
atp4974
Rp4975
(dp4976
g16
g76
sbag5
(g6
g7
(lp4977
Vand
p4978
atp4979
Rp4980
(dp4981
g16
VCC
p4982
sbag5
(g6
g7
(lp4983
g5
(g6
g7
(lp4984
g5
(g6
g7
(lp4985
Vthe
p4986
atp4987
Rp4988
(dp4989
g16
VDT
p4990
sbag5
(g6
g7
(lp4991
Vdata
p4992
atp4993
Rp4994
(dp4995
g16
VNN
p4996
sbag5
(g6
g7
(lp4997
Vrate
p4998
atp4999
Rp5000
(dp5001
g16
VNN
p5002
sbatp5003
Rp5004
(dp5005
g16
VNP
p5006
sbag5
(g6
g7
(lp5007
g5
(g6
g7
(lp5008
Vis
p5009
atp5010
Rp5011
(dp5012
g16
VVBZ
p5013
sbag5
(g6
g7
(lp5014
g5
(g6
g7
(lp5015
Vabout
p5016
atp5017
Rp5018
(dp5019
g16
VRB
p5020
sbag5
(g6
g7
(lp5021
V100Mbps
p5022
atp5023
Rp5024
(dp5025
g16
VJJ
p5026
sbatp5027
Rp5028
(dp5029
g16
VADJP
p5030
sbatp5031
Rp5032
(dp5033
g16
VVP
p5034
sbatp5035
Rp5036
(dp5037
g16
g135
sbag5
(g6
g7
(lp5038
g473
atp5039
Rp5040
(dp5041
g16
g473
sbatp5042
Rp5043
(dp5044
g16
g135
sbatp5045
Rp5046
(dp5047
g16
VROOT
p5048
sbasg484
(icmyPackage
CorE
p5049
(dp5050
g487
(lp5051
(I0
I1
tp5052
a(I0
I13
tp5053
asg491
g5
(g6
g7
(lp5054
g4894
ag4908
ag4967
atp5055
Rp5056
(dp5057
g16
g496
sbsbsg497
(icmyPackage
CorE
p5058
(dp5059
g487
(lp5060
(I0
I15
tp5061
a(I0
I22
tp5062
asg491
g5
(g6
g7
(lp5063
g4980
ag5036
ag5040
atp5064
Rp5065
(dp5066
g16
g496
sbsbsg507
g2917
sg529
(lp5067
(icmyPackage
Sent
p5068
(dp5069
g533
I4
sg534
I9
sg535
S'If we use them ten times this is a 190$ per shipped terabyte, and the data rate is about 100Mbps.'
p5070
sg537
I0
sg538
I44
sg491
(lp5071
g5046
asbasba(icmyPackage
CELink
p5072
(dp5073
g3
(lp5074
g5
(g6
g7
(lp5075
g5
(g6
g7
(lp5076
g5
(g6
g7
(lp5077
g5
(g6
g7
(lp5078
g5
(g6
g7
(lp5079
VThe
p5080
atp5081
Rp5082
(dp5083
g16
VDT
p5084
sbag5
(g6
g7
(lp5085
Vcost
p5086
atp5087
Rp5088
(dp5089
g16
VNN
p5090
sbag5
(g6
g7
(lp5091
Vissue
p5092
atp5093
Rp5094
(dp5095
g16
VNN
p5096
sbatp5097
Rp5098
(dp5099
g16
VNP
p5100
sbag5
(g6
g7
(lp5101
g5
(g6
g7
(lp5102
Vis
p5103
atp5104
Rp5105
(dp5106
g16
VVBZ
p5107
sbag5
(g6
g7
(lp5108
g5
(g6
g7
(lp5109
Vthe
p5110
atp5111
Rp5112
(dp5113
g16
VDT
p5114
sbag5
(g6
g7
(lp5115
Veasiest
p5116
atp5117
Rp5118
(dp5119
g16
VJJS
p5120
sbag5
(g6
g7
(lp5121
g5
(g6
g7
(lp5122
g5
(g6
g7
(lp5123
Vto
p5124
atp5125
Rp5126
(dp5127
g16
VTO
p5128
sbag5
(g6
g7
(lp5129
g5
(g6
g7
(lp5130
Vdispose
p5131
atp5132
Rp5133
(dp5134
g16
VVB
p5135
sbag5
(g6
g7
(lp5136
g5
(g6
g7
(lp5137
Vof
p5138
atp5139
Rp5140
(dp5141
g16
VIN
p5142
sbatp5143
Rp5144
(dp5145
g16
VPP
p5146
sbatp5147
Rp5148
(dp5149
g16
VVP
p5150
sbatp5151
Rp5152
(dp5153
g16
VVP
p5154
sbatp5155
Rp5156
(dp5157
g16
g135
sbatp5158
Rp5159
(dp5160
g16
VNP
p5161
sbatp5162
Rp5163
(dp5164
g16
VVP
p5165
sbatp5166
Rp5167
(dp5168
g16
g135
sbag5
(g6
g7
(lp5169
g76
atp5170
Rp5171
(dp5172
g16
g76
sbag5
(g6
g7
(lp5173
Vso
p5174
atp5175
Rp5176
(dp5177
g16
VIN
p5178
sbag5
(g6
g7
(lp5179
g5
(g6
g7
(lp5180
g5
(g6
g7
(lp5181
Vlet
p5182
atp5183
Rp5184
(dp5185
g16
VVB
p5186
sbag5
(g6
g7
(lp5187
V's
p5188
atp5189
Rp5190
(dp5191
g16
VPOS
p5192
sbatp5193
Rp5194
(dp5195
g16
VNP
p5196
sbag5
(g6
g7
(lp5197
g5
(g6
g7
(lp5198
Vdo
p5199
atp5200
Rp5201
(dp5202
g16
VVBP
p5203
sbag5
(g6
g7
(lp5204
g5
(g6
g7
(lp5205
Vthat
p5206
atp5207
Rp5208
(dp5209
g16
VDT
p5210
sbag5
(g6
g7
(lp5211
Vfirst
p5212
atp5213
Rp5214
(dp5215
g16
VJJ
p5216
sbatp5217
Rp5218
(dp5219
g16
VNP
p5220
sbatp5221
Rp5222
(dp5223
g16
VVP
p5224
sbatp5225
Rp5226
(dp5227
g16
g135
sbag5
(g6
g7
(lp5228
g473
atp5229
Rp5230
(dp5231
g16
g473
sbatp5232
Rp5233
(dp5234
g16
g135
sbatp5235
Rp5236
(dp5237
g16
VROOT
p5238
sbasg484
(icmyPackage
CorE
p5239
(dp5240
g487
(lp5241
(I0
I0
tp5242
a(I0
I8
tp5243
asg491
g5167
sbsg497
(icmyPackage
CorE
p5244
(dp5245
g487
(lp5246
(I0
I11
tp5247
a(I0
I16
tp5248
asg491
g5
(g6
g7
(lp5249
g5226
ag5230
atp5250
Rp5251
(dp5252
g16
g496
sbsbsg507
g918
sg529
(lp5253
(icmyPackage
Sent
p5254
(dp5255
g533
I4
sg534
I19
sg535
S"The cost issue is the easiest to dispose of, so let's do that first."
p5256
sg537
I0
sg538
I65
sg491
(lp5257
g5236
asbasba(icmyPackage
CELink
p5258
(dp5259
g3
(lp5260
g5
(g6
g7
(lp5261
g5
(g6
g7
(lp5262
g5
(g6
g7
(lp5263
g5
(g6
g7
(lp5264
g5
(g6
g7
(lp5265
g5
(g6
g7
(lp5266
VThe
p5267
atp5268
Rp5269
(dp5270
g16
VDT
p5271
sbag5
(g6
g7
(lp5272
VMotherboard
p5273
atp5274
Rp5275
(dp5276
g16
VNNP
p5277
sbag5
(g6
g7
(lp5278
V's
p5279
atp5280
Rp5281
(dp5282
g16
VPOS
p5283
sbatp5284
Rp5285
(dp5286
g16
VNP
p5287
sbag5
(g6
g7
(lp5288
Vraid
p5289
atp5290
Rp5291
(dp5292
g16
VNN
p5293
sbag5
(g6
g7
(lp5294
Vcontroller
p5295
atp5296
Rp5297
(dp5298
g16
VNN
p5299
sbatp5300
Rp5301
(dp5302
g16
VNP
p5303
sbag5
(g6
g7
(lp5304
Vand
p5305
atp5306
Rp5307
(dp5308
g16
VCC
p5309
sbag5
(g6
g7
(lp5310
g5
(g6
g7
(lp5311
g5
(g6
g7
(lp5312
g4595
atp5313
Rp5314
(dp5315
g16
VCD
p5316
sbag5
(g6
g7
(lp5317
VATA/133
p5318
atp5319
Rp5320
(dp5321
g16
VCD
p5322
sbatp5323
Rp5324
(dp5325
g16
VQP
p5326
sbag5
(g6
g7
(lp5327
Vcontrollers
p5328
atp5329
Rp5330
(dp5331
g16
VNNS
p5332
sbatp5333
Rp5334
(dp5335
g16
VNP
p5336
sbatp5337
Rp5338
(dp5339
g16
VNP
p5340
sbag5
(g6
g7
(lp5341
g5
(g6
g7
(lp5342
Vsupport
p5343
atp5344
Rp5345
(dp5346
g16
VVBP
p5347
sbag5
(g6
g7
(lp5348
g5
(g6
g7
(lp5349
g5
(g6
g7
(lp5350
Vthe
p5351
atp5352
Rp5353
(dp5354
g16
VDT
p5355
sbag5
(g6
g7
(lp5356
Vseven
p5357
atp5358
Rp5359
(dp5360
g16
VCD
p5361
sbag5
(g6
g7
(lp5362
V153GB
p5363
atp5364
Rp5365
(dp5366
g16
VCD
p5367
sbag5
(g6
g7
(lp5368
Vdisks
p5369
atp5370
Rp5371
(dp5372
g16
VNNS
p5373
sbatp5374
Rp5375
(dp5376
g16
VNP
p5377
sbag5
(g6
g7
(lp5378
g5
(g6
g7
(lp5379
Vconfigured
p5380
atp5381
Rp5382
(dp5383
g16
VVBN
p5384
sbag5
(g6
g7
(lp5385
g5
(g6
g7
(lp5386
Vas
p5387
atp5388
Rp5389
(dp5390
g16
VIN
p5391
sbag5
(g6
g7
(lp5392
g5
(g6
g7
(lp5393
g5
(g6
g7
(lp5394
g258
atp5395
Rp5396
(dp5397
g16
VDT
p5398
sbag5
(g6
g7
(lp5399
V1.1
p5400
atp5401
Rp5402
(dp5403
g16
VCD
p5404
sbag5
(g6
g7
(lp5405
VTB
p5406
atp5407
Rp5408
(dp5409
g16
VNN
p5410
sbag5
(g6
g7
(lp5411
VRAID0
p5412
atp5413
Rp5414
(dp5415
g16
VNN
p5416
sbag5
(g6
g7
(lp5417
Vstripe
p5418
atp5419
Rp5420
(dp5421
g16
VNN
p5422
sbatp5423
Rp5424
(dp5425
g16
VNP
p5426
sbag5
(g6
g7
(lp5427
g5
(g6
g7
(lp5428
Vset
p5429
atp5430
Rp5431
(dp5432
g16
VVBD
p5433
sbatp5434
Rp5435
(dp5436
g16
VVP
p5437
sbatp5438
Rp5439
(dp5440
g16
g135
sbatp5441
Rp5442
(dp5443
g16
VSBAR
p5444
sbatp5445
Rp5446
(dp5447
g16
VVP
p5448
sbatp5449
Rp5450
(dp5451
g16
VNP
p5452
sbag5
(g6
g7
(lp5453
g5
(g6
g7
(lp5454
V-LRB-
p5455
atp5456
Rp5457
(dp5458
g16
V-LRB-
p5459
sbag5
(g6
g7
(lp5460
g5
(g6
g7
(lp5461
g5
(g6
g7
(lp5462
Vusing
p5463
atp5464
Rp5465
(dp5466
g16
VVBG
p5467
sbag5
(g6
g7
(lp5468
g5
(g6
g7
(lp5469
Vhost-based
p5470
atp5471
Rp5472
(dp5473
g16
VJJ
p5474
sbag5
(g6
g7
(lp5475
Vstriping
p5476
atp5477
Rp5478
(dp5479
g16
VNN
p5480
sbatp5481
Rp5482
(dp5483
g16
VNP
p5484
sbag5
(g6
g7
(lp5485
g5
(g6
g7
(lp5486
Vin
p5487
atp5488
Rp5489
(dp5490
g16
VIN
p5491
sbag5
(g6
g7
(lp5492
g5
(g6
g7
(lp5493
Vour
p5494
atp5495
Rp5496
(dp5497
g16
VPRP$
p5498
sbag5
(g6
g7
(lp5499
Vcase
p5500
atp5501
Rp5502
(dp5503
g16
VNN
p5504
sbatp5505
Rp5506
(dp5507
g16
VNP
p5508
sbatp5509
Rp5510
(dp5511
g16
VPP
p5512
sbatp5513
Rp5514
(dp5515
g16
VVP
p5516
sbatp5517
Rp5518
(dp5519
g16
g135
sbag5
(g6
g7
(lp5520
V-RRB-
p5521
atp5522
Rp5523
(dp5524
g16
V-RRB-
p5525
sbatp5526
Rp5527
(dp5528
g16
VPRN
p5529
sbatp5530
Rp5531
(dp5532
g16
VVP
p5533
sbag5
(g6
g7
(lp5534
g473
atp5535
Rp5536
(dp5537
g16
g473
sbatp5538
Rp5539
(dp5540
g16
g135
sbatp5541
Rp5542
(dp5543
g16
VROOT
p5544
sbasg484
(icmyPackage
CorE
p5545
(dp5546
g487
(lp5547
(I0
I16
tp5548
a(I0
I28
tp5549
asg491
g5
(g6
g7
(lp5550
g5439
ag5457
ag5518
atp5551
Rp5552
(dp5553
g16
g496
sbsbsg497
(icmyPackage
CorE
p5554
(dp5555
g487
(lp5556
(I0
I0
tp5557
a(I0
I14
tp5558
asg491
g5
(g6
g7
(lp5559
g5338
ag5345
ag5375
ag5382
atp5560
Rp5561
(dp5562
g16
g496
sbsbsg507
(icmyPackage
pattern
p5563
(dp5564
g510
I26
sg511
I1
sg512
(lp5565
(lp5566
S'as'
p5567
aasg517
(lp5568
I3
aI1
aI1
asg519
(lp5569
S'You do not need to worry about the operation, as the software is very easy to use.'
p5570
asg522
I80
sg523
(lp5571
(lp5572
S'&R@Complete@'
p5573
aS'(,)'
p5574
aS'(-such/-same/-seem/-regard/-regards/-regarded/-view/-views/-viewed/-denote/-denoted/-denotes)'
p5575
aa(lp5576
S'(-if/-follow/-follows/-&adv)'
p5577
aS'&C@Complete@'
p5578
aasbsg529
(lp5579
(icmyPackage
Sent
p5580
(dp5581
g533
I5
sg534
I21
sg535
S"The Motherboard's raid controller and 4 ATA/133 controllers support the seven 153GB disks configured as a 1.1 TB RAID0 stripe set (using host-based striping in our case)."
p5582
sg537
I0
sg538
I71
sg491
(lp5583
g5542
asbasba(icmyPackage
CELink
p5584
(dp5585
g3
(lp5586
g5
(g6
g7
(lp5587
g5
(g6
g7
(lp5588
g5
(g6
g7
(lp5589
g5
(g6
g7
(lp5590
g5
(g6
g7
(lp5591
VWhen
p5592
atp5593
Rp5594
(dp5595
g16
VWRB
p5596
sbatp5597
Rp5598
(dp5599
g16
VWHADVP
p5600
sbag5
(g6
g7
(lp5601
g5
(g6
g7
(lp5602
g5
(g6
g7
(lp5603
Vshipping
p5604
atp5605
Rp5606
(dp5607
g16
VVBG
p5608
sbag5
(g6
g7
(lp5609
g5
(g6
g7
(lp5610
Voutside
p5611
atp5612
Rp5613
(dp5614
g16
VIN
p5615
sbag5
(g6
g7
(lp5616
g5
(g6
g7
(lp5617
Vthe
p5618
atp5619
Rp5620
(dp5621
g16
VDT
p5622
sbag5
(g6
g7
(lp5623
VNAFTA
p5624
atp5625
Rp5626
(dp5627
g16
VNNP
p5628
sbag5
(g6
g7
(lp5629
Vregion
p5630
atp5631
Rp5632
(dp5633
g16
VNN
p5634
sbatp5635
Rp5636
(dp5637
g16
VNP
p5638
sbatp5639
Rp5640
(dp5641
g16
VPP
p5642
sbatp5643
Rp5644
(dp5645
g16
VVP
p5646
sbatp5647
Rp5648
(dp5649
g16
g135
sbatp5650
Rp5651
(dp5652
g16
VSBAR
p5653
sbag5
(g6
g7
(lp5654
g76
atp5655
Rp5656
(dp5657
g16
g76
sbag5
(g6
g7
(lp5658
g5
(g6
g7
(lp5659
Vone
p5660
atp5661
Rp5662
(dp5663
g16
VPRP
p5664
sbatp5665
Rp5666
(dp5667
g16
VNP
p5668
sbag5
(g6
g7
(lp5669
g5
(g6
g7
(lp5670
Vmust
p5671
atp5672
Rp5673
(dp5674
g16
VMD
p5675
sbag5
(g6
g7
(lp5676
g5
(g6
g7
(lp5677
Vpay
p5678
atp5679
Rp5680
(dp5681
g16
VVB
p5682
sbag5
(g6
g7
(lp5683
g5
(g6
g7
(lp5684
g5
(g6
g7
(lp5685
Vtaxes
p5686
atp5687
Rp5688
(dp5689
g16
VNNS
p5690
sbatp5691
Rp5692
(dp5693
g16
VNP
p5694
sbag5
(g6
g7
(lp5695
g5
(g6
g7
(lp5696
Vto
p5697
atp5698
Rp5699
(dp5700
g16
VTO
p5701
sbag5
(g6
g7
(lp5702
g5
(g6
g7
(lp5703
Vexport/import
p5704
atp5705
Rp5706
(dp5707
g16
VVB
p5708
sbag5
(g6
g7
(lp5709
g5
(g6
g7
(lp5710
g5
(g6
g7
(lp5711
Vthe
p5712
atp5713
Rp5714
(dp5715
g16
VDT
p5716
sbag5
(g6
g7
(lp5717
Vdevice
p5718
atp5719
Rp5720
(dp5721
g16
VNN
p5722
sbatp5723
Rp5724
(dp5725
g16
VNP
p5726
sbag5
(g6
g7
(lp5727
V--
p5728
atp5729
Rp5730
(dp5731
g16
g1313
sbag5
(g6
g7
(lp5732
g5
(g6
g7
(lp5733
g5
(g6
g7
(lp5734
g5
(g6
g7
(lp5735
Vin
p5736
atp5737
Rp5738
(dp5739
g16
VIN
p5740
sbag5
(g6
g7
(lp5741
g5
(g6
g7
(lp5742
Vthis
p5743
atp5744
Rp5745
(dp5746
g16
VDT
p5747
sbag5
(g6
g7
(lp5748
Vcase
p5749
atp5750
Rp5751
(dp5752
g16
VNN
p5753
sbatp5754
Rp5755
(dp5756
g16
VNP
p5757
sbatp5758
Rp5759
(dp5760
g16
VPP
p5761
sbag5
(g6
g7
(lp5762
g5
(g6
g7
(lp5763
Vthe
p5764
atp5765
Rp5766
(dp5767
g16
VDT
p5768
sbag5
(g6
g7
(lp5769
V``
p5770
atp5771
Rp5772
(dp5773
g16
V``
p5774
sbag5
(g6
g7
(lp5775
g5
(g6
g7
(lp5776
Vused
p5777
atp5778
Rp5779
(dp5780
g16
VVBN
p5781
sbatp5782
Rp5783
(dp5784
g16
VVP
p5785
sbag5
(g6
g7
(lp5786
V''
p5787
atp5788
Rp5789
(dp5790
g16
V''
p5791
sbag5
(g6
g7
(lp5792
Vdevice
p5793
atp5794
Rp5795
(dp5796
g16
VNN
p5797
sbatp5798
Rp5799
(dp5800
g16
VNP
p5801
sbag5
(g6
g7
(lp5802
g5
(g6
g7
(lp5803
Vis
p5804
atp5805
Rp5806
(dp5807
g16
VVBZ
p5808
sbag5
(g6
g7
(lp5809
g5
(g6
g7
(lp5810
Vstill
p5811
atp5812
Rp5813
(dp5814
g16
VRB
p5815
sbatp5816
Rp5817
(dp5818
g16
VADVP
p5819
sbag5
(g6
g7
(lp5820
g5
(g6
g7
(lp5821
Vworth
p5822
atp5823
Rp5824
(dp5825
g16
VIN
p5826
sbag5
(g6
g7
(lp5827
g5
(g6
g7
(lp5828
g258
atp5829
Rp5830
(dp5831
g16
VDT
p5832
sbag5
(g6
g7
(lp5833
Vthousand
p5834
atp5835
Rp5836
(dp5837
g16
VCD
p5838
sbag5
(g6
g7
(lp5839
Vdollars
p5840
atp5841
Rp5842
(dp5843
g16
VNNS
p5844
sbatp5845
Rp5846
(dp5847
g16
VNP
p5848
sbatp5849
Rp5850
(dp5851
g16
VPP
p5852
sbatp5853
Rp5854
(dp5855
g16
VVP
p5856
sbatp5857
Rp5858
(dp5859
g16
g135
sbag5
(g6
g7
(lp5860
g76
atp5861
Rp5862
(dp5863
g16
g76
sbag5
(g6
g7
(lp5864
Vso
p5865
atp5866
Rp5867
(dp5868
g16
VIN
p5869
sbag5
(g6
g7
(lp5870
g5
(g6
g7
(lp5871
g5
(g6
g7
(lp5872
Vtaxes
p5873
atp5874
Rp5875
(dp5876
g16
VNNS
p5877
sbatp5878
Rp5879
(dp5880
g16
VNP
p5881
sbag5
(g6
g7
(lp5882
g5
(g6
g7
(lp5883
Vcan
p5884
atp5885
Rp5886
(dp5887
g16
VMD
p5888
sbag5
(g6
g7
(lp5889
g5
(g6
g7
(lp5890
Vbe
p5891
atp5892
Rp5893
(dp5894
g16
VVB
p5895
sbag5
(g6
g7
(lp5896
g5
(g6
g7
(lp5897
g5
(g6
g7
(lp5898
Vmore
p5899
atp5900
Rp5901
(dp5902
g16
VJJR
p5903
sbag5
(g6
g7
(lp5904
Vthan
p5905
atp5906
Rp5907
(dp5908
g16
VIN
p5909
sbag5
(g6
g7
(lp5910
V500
p5911
atp5912
Rp5913
(dp5914
g16
VCD
p5915
sbag5
(g6
g7
(lp5916
g2353
atp5917
Rp5918
(dp5919
g16
VCD
p5920
sbatp5921
Rp5922
(dp5923
g16
VQP
p5924
sbatp5925
Rp5926
(dp5927
g16
VNP
p5928
sbatp5929
Rp5930
(dp5931
g16
VVP
p5932
sbatp5933
Rp5934
(dp5935
g16
VVP
p5936
sbatp5937
Rp5938
(dp5939
g16
g135
sbatp5940
Rp5941
(dp5942
g16
g135
sbatp5943
Rp5944
(dp5945
g16
VNP
p5946
sbatp5947
Rp5948
(dp5949
g16
VVP
p5950
sbatp5951
Rp5952
(dp5953
g16
VVP
p5954
sbatp5955
Rp5956
(dp5957
g16
g135
sbatp5958
Rp5959
(dp5960
g16
VVP
p5961
sbatp5962
Rp5963
(dp5964
g16
VVP
p5965
sbag5
(g6
g7
(lp5966
g473
atp5967
Rp5968
(dp5969
g16
g473
sbatp5970
Rp5971
(dp5972
g16
g135
sbatp5973
Rp5974
(dp5975
g16
VROOT
p5976
sbasg484
(icmyPackage
CorE
p5977
(dp5978
g487
(lp5979
(I0
I0
tp5980
a(I0
I29
tp5981
asg491
g5
(g6
g7
(lp5982
g5651
ag5656
ag5666
ag5673
ag5680
ag5692
ag5699
ag5706
ag5724
ag5730
ag5858
atp5983
Rp5984
(dp5985
g16
g496
sbsbsg497
(icmyPackage
CorE
p5986
(dp5987
g487
(lp5988
(I0
I32
tp5989
a(I0
I39
tp5990
asg491
g5
(g6
g7
(lp5991
g5938
ag5968
atp5992
Rp5993
(dp5994
g16
g496
sbsbsg507
g918
sg529
(lp5995
(icmyPackage
Sent
p5996
(dp5997
g533
I6
sg534
I22
sg535
S'When shipping outside the NAFTA region, one must pay taxes to export/import the device -- in this case the "used" device is still worth a thousand dollars, so taxes can be more than 500$.'
p5998
sg537
I0
sg538
I74
sg491
(lp5999
g5974
asbasba(icmyPackage
CELink
p6000
(dp6001
g3
(lp6002
g5974
ag5
(g6
g7
(lp6003
g5
(g6
g7
(lp6004
g5
(g6
g7
(lp6005
g5
(g6
g7
(lp6006
VSo
p6007
atp6008
Rp6009
(dp6010
g16
VRB
p6011
sbatp6012
Rp6013
(dp6014
g16
VADVP
p6015
sbag5
(g6
g7
(lp6016
g76
atp6017
Rp6018
(dp6019
g16
g76
sbag5
(g6
g7
(lp6020
g5
(g6
g7
(lp6021
Vboarder-crossing
p6022
atp6023
Rp6024
(dp6025
g16
VJJ
p6026
sbag5
(g6
g7
(lp6027
Vtaxes
p6028
atp6029
Rp6030
(dp6031
g16
VNNS
p6032
sbatp6033
Rp6034
(dp6035
g16
VNP
p6036
sbag5
(g6
g7
(lp6037
g5
(g6
g7
(lp6038
Vare
p6039
atp6040
Rp6041
(dp6042
g16
VVBP
p6043
sbag5
(g6
g7
(lp6044
g5
(g6
g7
(lp6045
g5
(g6
g7
(lp6046
Vanother
p6047
atp6048
Rp6049
(dp6050
g16
VDT
p6051
sbag5
(g6
g7
(lp6052
Vchallenge
p6053
atp6054
Rp6055
(dp6056
g16
VNN
p6057
sbatp6058
Rp6059
(dp6060
g16
VNP
p6061
sbag5
(g6
g7
(lp6062
g5
(g6
g7
(lp6063
Vfor
p6064
atp6065
Rp6066
(dp6067
g16
VIN
p6068
sbag5
(g6
g7
(lp6069
g5
(g6
g7
(lp6070
VSneakerNet
p6071
atp6072
Rp6073
(dp6074
g16
VNNP
p6075
sbatp6076
Rp6077
(dp6078
g16
VNP
p6079
sbatp6080
Rp6081
(dp6082
g16
VPP
p6083
sbatp6084
Rp6085
(dp6086
g16
VNP
p6087
sbatp6088
Rp6089
(dp6090
g16
VVP
p6091
sbag5
(g6
g7
(lp6092
g473
atp6093
Rp6094
(dp6095
g16
g473
sbatp6096
Rp6097
(dp6098
g16
g135
sbatp6099
Rp6100
(dp6101
g16
VROOT
p6102
sbasg484
(icmyPackage
CorE
p6103
(dp6104
g487
(lp6105
(I0
I0
tp6106
a(I0
I38
tp6107
asg491
g5
(g6
g7
(lp6108
g5651
ag5656
ag5666
ag5963
atp6109
Rp6110
(dp6111
g16
g496
sbsbsg497
(icmyPackage
CorE
p6112
(dp6113
g487
(lp6114
(I1
I2
tp6115
a(I1
I9
tp6116
asg491
g5
(g6
g7
(lp6117
g6034
ag6089
ag6094
atp6118
Rp6119
(dp6120
g16
g496
sbsbsg507
g918
sg529
(lp6121
g5996
a(icmyPackage
Sent
p6122
(dp6123
g533
I6
sg534
I22
sg535
S'So, boarder-crossing taxes are another challenge for SneakerNet.'
p6124
sg537
I0
sg538
I75
sg491
(lp6125
g6100
asbasba(icmyPackage
CELink
p6126
(dp6127
g3
(lp6128
g5
(g6
g7
(lp6129
g5
(g6
g7
(lp6130
g5
(g6
g7
(lp6131
g5
(g6
g7
(lp6132
VSince
p6133
atp6134
Rp6135
(dp6136
g16
VIN
p6137
sbag5
(g6
g7
(lp6138
g5
(g6
g7
(lp6139
g5
(g6
g7
(lp6140
Vserved
p6141
atp6142
Rp6143
(dp6144
g16
VVBD
p6145
sbag5
(g6
g7
(lp6146
g5
(g6
g7
(lp6147
g5
(g6
g7
(lp6148
g5
(g6
g7
(lp6149
Vdata
p6150
atp6151
Rp6152
(dp6153
g16
VNNS
p6154
sbatp6155
Rp6156
(dp6157
g16
VNP
p6158
sbag5
(g6
g7
(lp6159
g5
(g6
g7
(lp6160
Vmust
p6161
atp6162
Rp6163
(dp6164
g16
VMD
p6165
sbag5
(g6
g7
(lp6166
g5
(g6
g7
(lp6167
Vtravel
p6168
atp6169
Rp6170
(dp6171
g16
VVB
p6172
sbag5
(g6
g7
(lp6173
g5
(g6
g7
(lp6174
Vover
p6175
atp6176
Rp6177
(dp6178
g16
VRP
p6179
sbatp6180
Rp6181
(dp6182
g16
VPRT
p6183
sbag5
(g6
g7
(lp6184
g5
(g6
g7
(lp6185
g5
(g6
g7
(lp6186
Vthe
p6187
atp6188
Rp6189
(dp6190
g16
VDT
p6191
sbag5
(g6
g7
(lp6192
VPCI
p6193
atp6194
Rp6195
(dp6196
g16
VNNP
p6197
sbag5
(g6
g7
(lp6198
Vtwice
p6199
atp6200
Rp6201
(dp6202
g16
VRB
p6203
sbatp6204
Rp6205
(dp6206
g16
VNP
p6207
sbag5
(g6
g7
(lp6208
g5
(g6
g7
(lp6209
V-LRB-
p6210
atp6211
Rp6212
(dp6213
g16
V-LRB-
p6214
sbag5
(g6
g7
(lp6215
g5
(g6
g7
(lp6216
g5
(g6
g7
(lp6217
g5
(g6
g7
(lp6218
Vonce
p6219
atp6220
Rp6221
(dp6222
g16
VRB
p6223
sbatp6224
Rp6225
(dp6226
g16
VADVP
p6227
sbag5
(g6
g7
(lp6228
Vfrom
p6229
atp6230
Rp6231
(dp6232
g16
VIN
p6233
sbag5
(g6
g7
(lp6234
g5
(g6
g7
(lp6235
g5
(g6
g7
(lp6236
Vthe
p6237
atp6238
Rp6239
(dp6240
g16
VDT
p6241
sbag5
(g6
g7
(lp6242
Vdisk
p6243
atp6244
Rp6245
(dp6246
g16
VNN
p6247
sbatp6248
Rp6249
(dp6250
g16
VNP
p6251
sbag5
(g6
g7
(lp6252
g5
(g6
g7
(lp6253
Vto
p6254
atp6255
Rp6256
(dp6257
g16
VTO
p6258
sbag5
(g6
g7
(lp6259
g5
(g6
g7
(lp6260
Vmemory
p6261
atp6262
Rp6263
(dp6264
g16
VNN
p6265
sbatp6266
Rp6267
(dp6268
g16
VNP
p6269
sbatp6270
Rp6271
(dp6272
g16
VPP
p6273
sbatp6274
Rp6275
(dp6276
g16
VNP
p6277
sbatp6278
Rp6279
(dp6280
g16
VPP
p6281
sbag5
(g6
g7
(lp6282
Vand
p6283
atp6284
Rp6285
(dp6286
g16
VCC
p6287
sbag5
(g6
g7
(lp6288
g5
(g6
g7
(lp6289
Vthen
p6290
atp6291
Rp6292
(dp6293
g16
VRB
p6294
sbatp6295
Rp6296
(dp6297
g16
VADVP
p6298
sbatp6299
Rp6300
(dp6301
g16
VUCP
p6302
sbatp6303
Rp6304
(dp6305
g16
VPRN
p6306
sbatp6307
Rp6308
(dp6309
g16
VNP
p6310
sbag5
(g6
g7
(lp6311
g5
(g6
g7
(lp6312
Vfrom
p6313
atp6314
Rp6315
(dp6316
g16
VIN
p6317
sbag5
(g6
g7
(lp6318
g5
(g6
g7
(lp6319
Vmemory
p6320
atp6321
Rp6322
(dp6323
g16
VNN
p6324
sbatp6325
Rp6326
(dp6327
g16
VNP
p6328
sbatp6329
Rp6330
(dp6331
g16
VPP
p6332
sbag5
(g6
g7
(lp6333
g5
(g6
g7
(lp6334
Vto
p6335
atp6336
Rp6337
(dp6338
g16
VTO
p6339
sbag5
(g6
g7
(lp6340
g5
(g6
g7
(lp6341
Vnetwork
p6342
atp6343
Rp6344
(dp6345
g16
VNN
p6346
sbatp6347
Rp6348
(dp6349
g16
VNP
p6350
sbatp6351
Rp6352
(dp6353
g16
VPP
p6354
sbatp6355
Rp6356
(dp6357
g16
VVP
p6358
sbatp6359
Rp6360
(dp6361
g16
VVP
p6362
sbatp6363
Rp6364
(dp6365
g16
g135
sbatp6366
Rp6367
(dp6368
g16
VSBAR
p6369
sbatp6370
Rp6371
(dp6372
g16
VVP
p6373
sbatp6374
Rp6375
(dp6376
g16
g135
sbatp6377
Rp6378
(dp6379
g16
VSBAR
p6380
sbag5
(g6
g7
(lp6381
g76
atp6382
Rp6383
(dp6384
g16
g76
sbag5
(g6
g7
(lp6385
g5
(g6
g7
(lp6386
g5
(g6
g7
(lp6387
Vbrick
p6388
atp6389
Rp6390
(dp6391
g16
VNN
p6392
sbag5
(g6
g7
(lp6393
Vinput
p6394
atp6395
Rp6396
(dp6397
g16
VNN
p6398
sbatp6399
Rp6400
(dp6401
g16
VNP
p6402
sbag5
(g6
g7
(lp6403
Vand
p6404
atp6405
Rp6406
(dp6407
g16
VCC
p6408
sbag5
(g6
g7
(lp6409
g5
(g6
g7
(lp6410
Voutput
p6411
atp6412
Rp6413
(dp6414
g16
VNN
p6415
sbatp6416
Rp6417
(dp6418
g16
VNP
p6419
sbatp6420
Rp6421
(dp6422
g16
VNP
p6423
sbag5
(g6
g7
(lp6424
g5
(g6
g7
(lp6425
Vare
p6426
atp6427
Rp6428
(dp6429
g16
VVBP
p6430
sbag5
(g6
g7
(lp6431
g5
(g6
g7
(lp6432
Vlimited
p6433
atp6434
Rp6435
(dp6436
g16
VVBN
p6437
sbag5
(g6
g7
(lp6438
g5
(g6
g7
(lp6439
Vto
p6440
atp6441
Rp6442
(dp6443
g16
VTO
p6444
sbag5
(g6
g7
(lp6445
g5
(g6
g7
(lp6446
g5
(g6
g7
(lp6447
Vabout
p6448
atp6449
Rp6450
(dp6451
g16
VRB
p6452
sbag5
(g6
g7
(lp6453
V40
p6454
atp6455
Rp6456
(dp6457
g16
VCD
p6458
sbatp6459
Rp6460
(dp6461
g16
VQP
p6462
sbag5
(g6
g7
(lp6463
VMBps
p6464
atp6465
Rp6466
(dp6467
g16
VNNS
p6468
sbatp6469
Rp6470
(dp6471
g16
VNP
p6472
sbatp6473
Rp6474
(dp6475
g16
VPP
p6476
sbag5
(g6
g7
(lp6477
g5
(g6
g7
(lp6478
Vin
p6479
atp6480
Rp6481
(dp6482
g16
VIN
p6483
sbag5
(g6
g7
(lp6484
g5
(g6
g7
(lp6485
g5
(g6
g7
(lp6486
Vserving
p6487
atp6488
Rp6489
(dp6490
g16
VVBG
p6491
sbag5
(g6
g7
(lp6492
g5
(g6
g7
(lp6493
Vdata
p6494
atp6495
Rp6496
(dp6497
g16
VNNS
p6498
sbatp6499
Rp6500
(dp6501
g16
VNP
p6502
sbag5
(g6
g7
(lp6503
g5
(g6
g7
(lp6504
Vto
p6505
atp6506
Rp6507
(dp6508
g16
VTO
p6509
sbag5
(g6
g7
(lp6510
g5
(g6
g7
(lp6511
Vclients
p6512
atp6513
Rp6514
(dp6515
g16
VNNS
p6516
sbatp6517
Rp6518
(dp6519
g16
VNP
p6520
sbatp6521
Rp6522
(dp6523
g16
VPP
p6524
sbatp6525
Rp6526
(dp6527
g16
VVP
p6528
sbatp6529
Rp6530
(dp6531
g16
g135
sbatp6532
Rp6533
(dp6534
g16
VPP
p6535
sbatp6536
Rp6537
(dp6538
g16
VVP
p6539
sbatp6540
Rp6541
(dp6542
g16
VVP
p6543
sbag5
(g6
g7
(lp6544
g473
atp6545
Rp6546
(dp6547
g16
g473
sbatp6548
Rp6549
(dp6550
g16
g135
sbatp6551
Rp6552
(dp6553
g16
VROOT
p6554
sbasg484
(icmyPackage
CorE
p6555
(dp6556
g487
(lp6557
(I0
I1
tp6558
a(I0
I21
tp6559
asg491
g6375
sbsg497
(icmyPackage
CorE
p6560
(dp6561
g487
(lp6562
(I0
I23
tp6563
a(I0
I38
tp6564
asg491
g5
(g6
g7
(lp6565
g6421
ag6541
ag6546
atp6566
Rp6567
(dp6568
g16
g496
sbsbsg507
(icmyPackage
pattern
p6569
(dp6570
g510
I15
sg511
I0
sg512
(lp6571
(lp6572
S'since'
p6573
aa(lp6574
g2925
aasg517
(lp6575
I3
aI1
aI1
asg519
(lp6576
S'But, since the herpes virus does not always show its symptoms, prevention is not fool proof.'
p6577
asg522
I78
sg523
(lp6578
(lp6579
a(lp6580
S'&C@NCTime@'
p6581
aa(lp6582
S'&R@NCTime@'
p6583
aasbsg529
(lp6584
(icmyPackage
Sent
p6585
(dp6586
g533
I7
sg534
I23
sg535
S'Since served data must travel over the PCI twice (once from the disk to memory and then from memory to network, brick input and output are limited to about 40 MBps in serving data to clients.'
p6587
sg537
I0
sg538
I78
sg491
(lp6588
g6552
asbasba(icmyPackage
CELink
p6589
(dp6590
g3
(lp6591
g5
(g6
g7
(lp6592
g5
(g6
g7
(lp6593
g5
(g6
g7
(lp6594
g5
(g6
g7
(lp6595
g5
(g6
g7
(lp6596
VThese
p6597
atp6598
Rp6599
(dp6600
g16
VDT
p6601
sbatp6602
Rp6603
(dp6604
g16
VNP
p6605
sbag5
(g6
g7
(lp6606
g5
(g6
g7
(lp6607
Vare
p6608
atp6609
Rp6610
(dp6611
g16
VVBP
p6612
sbag5
(g6
g7
(lp6613
g5
(g6
g7
(lp6614
V``
p6615
atp6616
Rp6617
(dp6618
g16
V``
p6619
sbag5
(g6
g7
(lp6620
Vslow
p6621
atp6622
Rp6623
(dp6624
g16
VJJ
p6625
sbag5
(g6
g7
(lp6626
V''
p6627
atp6628
Rp6629
(dp6630
g16
V''
p6631
sbag5
(g6
g7
(lp6632
g5
(g6
g7
(lp6633
g5
(g6
g7
(lp6634
g5
(g6
g7
(lp6635
V5200
p6636
atp6637
Rp6638
(dp6639
g16
VCD
p6640
sbag5
(g6
g7
(lp6641
Vrpm
p6642
atp6643
Rp6644
(dp6645
g16
VNN
p6646
sbag5
(g6
g7
(lp6647
V9ms
p6648
atp6649
Rp6650
(dp6651
g16
VNNS
p6652
sbatp6653
Rp6654
(dp6655
g16
VNP
p6656
sbag5
(g6
g7
(lp6657
g5
(g6
g7
(lp6658
Vseek
p6659
atp6660
Rp6661
(dp6662
g16
VVBP
p6663
sbag5
(g6
g7
(lp6664
g5
(g6
g7
(lp6665
Vdisks
p6666
atp6667
Rp6668
(dp6669
g16
VNNS
p6670
sbatp6671
Rp6672
(dp6673
g16
VNP
p6674
sbatp6675
Rp6676
(dp6677
g16
VVP
p6678
sbatp6679
Rp6680
(dp6681
g16
g135
sbatp6682
Rp6683
(dp6684
g16
VSBAR
p6685
sbatp6686
Rp6687
(dp6688
g16
VADJP
p6689
sbatp6690
Rp6691
(dp6692
g16
VVP
p6693
sbatp6694
Rp6695
(dp6696
g16
g135
sbag5
(g6
g7
(lp6697
g76
atp6698
Rp6699
(dp6700
g16
g76
sbag5
(g6
g7
(lp6701
Vand
p6702
atp6703
Rp6704
(dp6705
g16
VCC
p6706
sbag5
(g6
g7
(lp6707
g5
(g6
g7
(lp6708
g5
(g6
g7
(lp6709
Vhence
p6710
atp6711
Rp6712
(dp6713
g16
VRB
p6714
sbatp6715
Rp6716
(dp6717
g16
VADVP
p6718
sbag5
(g6
g7
(lp6719
g5
(g6
g7
(lp6720
Vthey
p6721
atp6722
Rp6723
(dp6724
g16
VPRP
p6725
sbatp6726
Rp6727
(dp6728
g16
VNP
p6729
sbag5
(g6
g7
(lp6730
g5
(g6
g7
(lp6731
Vdeliver
p6732
atp6733
Rp6734
(dp6735
g16
VVBP
p6736
sbag5
(g6
g7
(lp6737
g5
(g6
g7
(lp6738
Vabout
p6739
atp6740
Rp6741
(dp6742
g16
VRP
p6743
sbatp6744
Rp6745
(dp6746
g16
VPRT
p6747
sbatp6748
Rp6749
(dp6750
g16
VVP
p6751
sbatp6752
Rp6753
(dp6754
g16
g135
sbag5
(g6
g7
(lp6755
V?
p6756
atp6757
Rp6758
(dp6759
g16
g473
sbatp6760
Rp6761
(dp6762
g16
g135
sbatp6763
Rp6764
(dp6765
g16
VROOT
p6766
sbasg484
(icmyPackage
CorE
p6767
(dp6768
g487
(lp6769
(I0
I0
tp6770
a(I0
I9
tp6771
asg491
g6695
sbsg497
(icmyPackage
CorE
p6772
(dp6773
g487
(lp6774
(I0
I13
tp6775
a(I0
I16
tp6776
asg491
g5
(g6
g7
(lp6777
g6727
ag6749
ag6758
atp6778
Rp6779
(dp6780
g16
g496
sbsbsg507
(icmyPackage
pattern
p6781
(dp6782
g510
I7
sg511
I1
sg512
(lp6783
(lp6784
S'hence'
p6785
aasg517
(lp6786
I1
aI1
aI1
asg519
(lp6787
S'Increase in temperature increases the rate of deposition and hence the heat loss to the surroundings should be prevented.'
p6788
asg522
I4
sg523
(lp6789
(lp6790
S'&C'
p6791
aS'(,/;/./--)'
p6792
aS'(&AND)'
p6793
aa(lp6794
S'(,)'
p6795
aS'&R'
p6796
aasbsg529
(lp6797
(icmyPackage
Sent
p6798
(dp6799
g533
I7
sg534
I24
sg535
S'These are "slow" 5200 rpm 9ms seek disks, and hence they deliver about ?'
p6800
sg537
I0
sg538
I85
sg491
(lp6801
g6764
asbasba(icmyPackage
CELink
p6802
(dp6803
g3
(lp6804
g5
(g6
g7
(lp6805
g5
(g6
g7
(lp6806
g5
(g6
g7
(lp6807
g5
(g6
g7
(lp6808
VEven
p6809
atp6810
Rp6811
(dp6812
g16
VRB
p6813
sbag5
(g6
g7
(lp6814
Vif
p6815
atp6816
Rp6817
(dp6818
g16
VIN
p6819
sbag5
(g6
g7
(lp6820
g5
(g6
g7
(lp6821
g5
(g6
g7
(lp6822
Vit
p6823
atp6824
Rp6825
(dp6826
g16
VPRP
p6827
sbatp6828
Rp6829
(dp6830
g16
VNP
p6831
sbag5
(g6
g7
(lp6832
g5
(g6
g7
(lp6833
Vcomes
p6834
atp6835
Rp6836
(dp6837
g16
VVBZ
p6838
sbag5
(g6
g7
(lp6839
g5
(g6
g7
(lp6840
Vfrom
p6841
atp6842
Rp6843
(dp6844
g16
VIN
p6845
sbag5
(g6
g7
(lp6846
g5
(g6
g7
(lp6847
g258
atp6848
Rp6849
(dp6850
g16
VDT
p6851
sbag5
(g6
g7
(lp6852
Vtrusted
p6853
atp6854
Rp6855
(dp6856
g16
VVBN
p6857
sbag5
(g6
g7
(lp6858
Vsource
p6859
atp6860
Rp6861
(dp6862
g16
VNN
p6863
sbatp6864
Rp6865
(dp6866
g16
VNP
p6867
sbatp6868
Rp6869
(dp6870
g16
VPP
p6871
sbatp6872
Rp6873
(dp6874
g16
VVP
p6875
sbatp6876
Rp6877
(dp6878
g16
g135
sbatp6879
Rp6880
(dp6881
g16
VSBAR
p6882
sbag5
(g6
g7
(lp6883
g76
atp6884
Rp6885
(dp6886
g16
g76
sbag5
(g6
g7
(lp6887
g5
(g6
g7
(lp6888
g5
(g6
g7
(lp6889
g258
atp6890
Rp6891
(dp6892
g16
VDT
p6893
sbag5
(g6
g7
(lp6894
V``
p6895
atp6896
Rp6897
(dp6898
g16
V``
p6899
sbag5
(g6
g7
(lp6900
Vman
p6901
atp6902
Rp6903
(dp6904
g16
VNN
p6905
sbatp6906
Rp6907
(dp6908
g16
VNP
p6909
sbag5
(g6
g7
(lp6910
g5
(g6
g7
(lp6911
Vin
p6912
atp6913
Rp6914
(dp6915
g16
VIN
p6916
sbag5
(g6
g7
(lp6917
g5
(g6
g7
(lp6918
Vthe
p6919
atp6920
Rp6921
(dp6922
g16
VDT
p6923
sbag5
(g6
g7
(lp6924
Vmiddle
p6925
atp6926
Rp6927
(dp6928
g16
VNN
p6929
sbatp6930
Rp6931
(dp6932
g16
VNP
p6933
sbatp6934
Rp6935
(dp6936
g16
VPP
p6937
sbatp6938
Rp6939
(dp6940
g16
VNP
p6941
sbag5
(g6
g7
(lp6942
V''
p6943
atp6944
Rp6945
(dp6946
g16
V''
p6947
sbag5
(g6
g7
(lp6948
g5
(g6
g7
(lp6949
Vcould
p6950
atp6951
Rp6952
(dp6953
g16
VMD
p6954
sbag5
(g6
g7
(lp6955
g5
(g6
g7
(lp6956
g5
(g6
g7
(lp6957
Vambush
p6958
atp6959
Rp6960
(dp6961
g16
VVB
p6962
sbag5
(g6
g7
(lp6963
g5
(g6
g7
(lp6964
Vthe
p6965
atp6966
Rp6967
(dp6968
g16
VDT
p6969
sbag5
(g6
g7
(lp6970
VBIOS
p6971
atp6972
Rp6973
(dp6974
g16
VNNS
p6975
sbatp6976
Rp6977
(dp6978
g16
VNP
p6979
sbatp6980
Rp6981
(dp6982
g16
VVP
p6983
sbag5
(g6
g7
(lp6984
Vor
p6985
atp6986
Rp6987
(dp6988
g16
VCC
p6989
sbag5
(g6
g7
(lp6990
g5
(g6
g7
(lp6991
Vinstall
p6992
atp6993
Rp6994
(dp6995
g16
VVB
p6996
sbag5
(g6
g7
(lp6997
g5
(g6
g7
(lp6998
VVMware
p6999
atp7000
Rp7001
(dp7002
g16
VNNP
p7003
sbatp7004
Rp7005
(dp7006
g16
VNP
p7007
sbatp7008
Rp7009
(dp7010
g16
VVP
p7011
sbatp7012
Rp7013
(dp7014
g16
VVP
p7015
sbatp7016
Rp7017
(dp7018
g16
VVP
p7019
sbag5
(g6
g7
(lp7020
g6756
atp7021
Rp7022
(dp7023
g16
g473
sbatp7024
Rp7025
(dp7026
g16
g135
sbatp7027
Rp7028
(dp7029
g16
VROOT
p7030
sbasg484
(icmyPackage
CorE
p7031
(dp7032
g487
(lp7033
(I0
I2
tp7034
a(I0
I7
tp7035
asg491
g6877
sbsg497
(icmyPackage
CorE
p7036
(dp7037
g487
(lp7038
(I0
I9
tp7039
a(I0
I23
tp7040
asg491
g5
(g6
g7
(lp7041
g6939
ag6945
ag7017
ag7022
atp7042
Rp7043
(dp7044
g16
g496
sbsbsg507
g2917
sg529
(lp7045
(icmyPackage
Sent
p7046
(dp7047
g533
I8
sg534
I28
sg535
S'Even if it comes from a trusted source, a "man in the middle" could ambush the BIOS or install VMware?'
p7048
sg537
I0
sg538
I106
sg491
(lp7049
g7028
asbasba(icmyPackage
CELink
p7050
(dp7051
g3
(lp7052
g5
(g6
g7
(lp7053
g5
(g6
g7
(lp7054
g5
(g6
g7
(lp7055
g5
(g6
g7
(lp7056
Vto
p7057
atp7058
Rp7059
(dp7060
g16
VTO
p7061
sbag5
(g6
g7
(lp7062
g5
(g6
g7
(lp7063
Vambush
p7064
atp7065
Rp7066
(dp7067
g16
VVB
p7068
sbag5
(g6
g7
(lp7069
g5
(g6
g7
(lp7070
Vthe
p7071
atp7072
Rp7073
(dp7074
g16
VDT
p7075
sbag5
(g6
g7
(lp7076
Vsoftware
p7077
atp7078
Rp7079
(dp7080
g16
VNN
p7081
sbatp7082
Rp7083
(dp7084
g16
VNP
p7085
sbatp7086
Rp7087
(dp7088
g16
VVP
p7089
sbatp7090
Rp7091
(dp7092
g16
VVP
p7093
sbag5
(g6
g7
(lp7094
g473
atp7095
Rp7096
(dp7097
g16
g473
sbatp7098
Rp7099
(dp7100
g16
g135
sbatp7101
Rp7102
(dp7103
g16
VROOT
p7104
sbag5
(g6
g7
(lp7105
g5
(g6
g7
(lp7106
g5
(g6
g7
(lp7107
VSo
p7108
atp7109
Rp7110
(dp7111
g16
VIN
p7112
sbag5
(g6
g7
(lp7113
g5
(g6
g7
(lp7114
Vyou
p7115
atp7116
Rp7117
(dp7118
g16
VPRP
p7119
sbatp7120
Rp7121
(dp7122
g16
VNP
p7123
sbag5
(g6
g7
(lp7124
g5
(g6
g7
(lp7125
Vcan
p7126
atp7127
Rp7128
(dp7129
g16
VMD
p7130
sbag5
(g6
g7
(lp7131
Vnot
p7132
atp7133
Rp7134
(dp7135
g16
VRB
p7136
sbag5
(g6
g7
(lp7137
g5
(g6
g7
(lp7138
Veasily
p7139
atp7140
Rp7141
(dp7142
g16
VRB
p7143
sbag5
(g6
g7
(lp7144
Vjust
p7145
atp7146
Rp7147
(dp7148
g16
VRB
p7149
sbatp7150
Rp7151
(dp7152
g16
VADVP
p7153
sbag5
(g6
g7
(lp7154
g5
(g6
g7
(lp7155
g5
(g6
g7
(lp7156
Vreplace
p7157
atp7158
Rp7159
(dp7160
g16
VVB
p7161
sbag5
(g6
g7
(lp7162
g5
(g6
g7
(lp7163
Vthe
p7164
atp7165
Rp7166
(dp7167
g16
VDT
p7168
sbag5
(g6
g7
(lp7169
Vboot
p7170
atp7171
Rp7172
(dp7173
g16
VNN
p7174
sbag5
(g6
g7
(lp7175
Vimage
p7176
atp7177
Rp7178
(dp7179
g16
VNN
p7180
sbatp7181
Rp7182
(dp7183
g16
VNP
p7184
sbatp7185
Rp7186
(dp7187
g16
VVP
p7188
sbag5
(g6
g7
(lp7189
Vand
p7190
atp7191
Rp7192
(dp7193
g16
VCC
p7194
sbag5
(g6
g7
(lp7195
g5
(g6
g7
(lp7196
Vassume
p7197
atp7198
Rp7199
(dp7200
g16
VVB
p7201
sbag5
(g6
g7
(lp7202
g5
(g6
g7
(lp7203
g5
(g6
g7
(lp7204
Vyou
p7205
atp7206
Rp7207
(dp7208
g16
VPRP
p7209
sbatp7210
Rp7211
(dp7212
g16
VNP
p7213
sbag5
(g6
g7
(lp7214
g5
(g6
g7
(lp7215
Vown
p7216
atp7217
Rp7218
(dp7219
g16
VVB
p7220
sbag5
(g6
g7
(lp7221
g5
(g6
g7
(lp7222
Vthe
p7223
atp7224
Rp7225
(dp7226
g16
VDT
p7227
sbag5
(g6
g7
(lp7228
Vmachine
p7229
atp7230
Rp7231
(dp7232
g16
VNN
p7233
sbatp7234
Rp7235
(dp7236
g16
VNP
p7237
sbatp7238
Rp7239
(dp7240
g16
VVP
p7241
sbatp7242
Rp7243
(dp7244
g16
g135
sbag5
(g6
g7
(lp7245
g5
(g6
g7
(lp7246
V-LRB-
p7247
atp7248
Rp7249
(dp7250
g16
V-LRB-
p7251
sbag5
(g6
g7
(lp7252
g5
(g6
g7
(lp7253
g5
(g6
g7
(lp7254
g5
(g6
g7
(lp7255
Vboth
p7256
atp7257
Rp7258
(dp7259
g16
VPDT
p7260
sbag5
(g6
g7
(lp7261
Vthe
p7262
atp7263
Rp7264
(dp7265
g16
VDT
p7266
sbag5
(g6
g7
(lp7267
VBIOS
p7268
atp7269
Rp7270
(dp7271
g16
VNNS
p7272
sbatp7273
Rp7274
(dp7275
g16
VNP
p7276
sbag5
(g6
g7
(lp7277
Vand
p7278
atp7279
Rp7280
(dp7281
g16
VCC
p7282
sbag5
(g6
g7
(lp7283
g5
(g6
g7
(lp7284
Vthe
p7285
atp7286
Rp7287
(dp7288
g16
VDT
p7289
sbag5
(g6
g7
(lp7290
VOS
p7291
atp7292
Rp7293
(dp7294
g16
VNNP
p7295
sbatp7296
Rp7297
(dp7298
g16
VNP
p7299
sbatp7300
Rp7301
(dp7302
g16
VNP
p7303
sbag5
(g6
g7
(lp7304
g5
(g6
g7
(lp7305
Vcan
p7306
atp7307
Rp7308
(dp7309
g16
VMD
p7310
sbag5
(g6
g7
(lp7311
g5
(g6
g7
(lp7312
Vspoof
p7313
atp7314
Rp7315
(dp7316
g16
VVB
p7317
sbag5
(g6
g7
(lp7318
g5
(g6
g7
(lp7319
Vsuch
p7320
atp7321
Rp7322
(dp7323
g16
VJJ
p7324
sbag5
(g6
g7
(lp7325
Voperations
p7326
atp7327
Rp7328
(dp7329
g16
VNNS
p7330
sbatp7331
Rp7332
(dp7333
g16
VNP
p7334
sbatp7335
Rp7336
(dp7337
g16
VVP
p7338
sbatp7339
Rp7340
(dp7341
g16
VVP
p7342
sbatp7343
Rp7344
(dp7345
g16
g135
sbag5
(g6
g7
(lp7346
V-RRB-
p7347
atp7348
Rp7349
(dp7350
g16
V-RRB-
p7351
sbatp7352
Rp7353
(dp7354
g16
VPRN
p7355
sbatp7356
Rp7357
(dp7358
g16
VVP
p7359
sbatp7360
Rp7361
(dp7362
g16
VVP
p7363
sbatp7364
Rp7365
(dp7366
g16
VVP
p7367
sbag5
(g6
g7
(lp7368
g473
atp7369
Rp7370
(dp7371
g16
g473
sbatp7372
Rp7373
(dp7374
g16
g135
sbatp7375
Rp7376
(dp7377
g16
VROOT
p7378
sbasg484
(icmyPackage
CorE
p7379
(dp7380
g487
(lp7381
(I0
I0
tp7382
a(I0
I3
tp7383
asg491
g7091
sbsg497
(icmyPackage
CorE
p7384
(dp7385
g487
(lp7386
(I1
I1
tp7387
a(I1
I28
tp7388
asg491
g5
(g6
g7
(lp7389
g7121
ag7365
ag7370
atp7390
Rp7391
(dp7392
g16
g496
sbsbsg507
g918
sg529
(lp7393
(icmyPackage
Sent
p7394
(dp7395
g533
I8
sg534
I28
sg535
S'to ambush the software.'
p7396
sg537
I0
sg538
I107
sg491
(lp7397
g7102
asba(icmyPackage
Sent
p7398
(dp7399
g533
I8
sg534
I28
sg535
S'So you cannot easily just replace the boot image and assume you own the machine (both the BIOS and the OS can spoof such operations).'
p7400
sg537
I0
sg538
I108
sg491
(lp7401
g7376
asbasba(icmyPackage
CELink
p7402
(dp7403
g3
(lp7404
g5
(g6
g7
(lp7405
g5
(g6
g7
(lp7406
g5
(g6
g7
(lp7407
g5
(g6
g7
(lp7408
VWe
p7409
atp7410
Rp7411
(dp7412
g16
VPRP
p7413
sbatp7414
Rp7415
(dp7416
g16
VNP
p7417
sbag5
(g6
g7
(lp7418
g5
(g6
g7
(lp7419
Vdo
p7420
atp7421
Rp7422
(dp7423
g16
VVBP
p7424
sbag5
(g6
g7
(lp7425
Vnot
p7426
atp7427
Rp7428
(dp7429
g16
VRB
p7430
sbag5
(g6
g7
(lp7431
g5
(g6
g7
(lp7432
Vhave
p7433
atp7434
Rp7435
(dp7436
g16
VVB
p7437
sbag5
(g6
g7
(lp7438
g5
(g6
g7
(lp7439
g5
(g6
g7
(lp7440
Vto
p7441
atp7442
Rp7443
(dp7444
g16
VTO
p7445
sbag5
(g6
g7
(lp7446
g5
(g6
g7
(lp7447
Veliminate
p7448
atp7449
Rp7450
(dp7451
g16
VVB
p7452
sbag5
(g6
g7
(lp7453
g5
(g6
g7
(lp7454
Vthe
p7455
atp7456
Rp7457
(dp7458
g16
VDT
p7459
sbag5
(g6
g7
(lp7460
Vfirewall
p7461
atp7462
Rp7463
(dp7464
g16
VNN
p7465
sbatp7466
Rp7467
(dp7468
g16
VNP
p7469
sbag5
(g6
g7
(lp7470
g5
(g6
g7
(lp7471
Vif
p7472
atp7473
Rp7474
(dp7475
g16
VIN
p7476
sbag5
(g6
g7
(lp7477
g5
(g6
g7
(lp7478
g5
(g6
g7
(lp7479
Vwe
p7480
atp7481
Rp7482
(dp7483
g16
VPRP
p7484
sbatp7485
Rp7486
(dp7487
g16
VNP
p7488
sbag5
(g6
g7
(lp7489
g5
(g6
g7
(lp7490
Vjust
p7491
atp7492
Rp7493
(dp7494
g16
VRB
p7495
sbatp7496
Rp7497
(dp7498
g16
VADVP
p7499
sbag5
(g6
g7
(lp7500
g5
(g6
g7
(lp7501
Vwant
p7502
atp7503
Rp7504
(dp7505
g16
VVBP
p7506
sbag5
(g6
g7
(lp7507
g5
(g6
g7
(lp7508
g5
(g6
g7
(lp7509
Vto
p7510
atp7511
Rp7512
(dp7513
g16
VTO
p7514
sbag5
(g6
g7
(lp7515
g5
(g6
g7
(lp7516
g5
(g6
g7
(lp7517
Vquickly
p7518
atp7519
Rp7520
(dp7521
g16
VRB
p7522
sbag5
(g6
g7
(lp7523
Vand
p7524
atp7525
Rp7526
(dp7527
g16
VCC
p7528
sbag5
(g6
g7
(lp7529
Vcheaply
p7530
atp7531
Rp7532
(dp7533
g16
VRB
p7534
sbatp7535
Rp7536
(dp7537
g16
VADVP
p7538
sbag5
(g6
g7
(lp7539
Vmove
p7540
atp7541
Rp7542
(dp7543
g16
VVB
p7544
sbag5
(g6
g7
(lp7545
g5
(g6
g7
(lp7546
Vthe
p7547
atp7548
Rp7549
(dp7550
g16
VDT
p7551
sbag5
(g6
g7
(lp7552
Vterabytes
p7553
atp7554
Rp7555
(dp7556
g16
VNNS
p7557
sbatp7558
Rp7559
(dp7560
g16
VNP
p7561
sbatp7562
Rp7563
(dp7564
g16
VVP
p7565
sbatp7566
Rp7567
(dp7568
g16
VVP
p7569
sbatp7570
Rp7571
(dp7572
g16
g135
sbatp7573
Rp7574
(dp7575
g16
VVP
p7576
sbatp7577
Rp7578
(dp7579
g16
g135
sbatp7580
Rp7581
(dp7582
g16
VSBAR
p7583
sbatp7584
Rp7585
(dp7586
g16
VVP
p7587
sbatp7588
Rp7589
(dp7590
g16
VVP
p7591
sbatp7592
Rp7593
(dp7594
g16
g135
sbatp7595
Rp7596
(dp7597
g16
VVP
p7598
sbatp7599
Rp7600
(dp7601
g16
VVP
p7602
sbag5
(g6
g7
(lp7603
g473
atp7604
Rp7605
(dp7606
g16
g473
sbatp7607
Rp7608
(dp7609
g16
g135
sbatp7610
Rp7611
(dp7612
g16
VROOT
p7613
sbasg484
(icmyPackage
CorE
p7614
(dp7615
g487
(lp7616
(I0
I9
tp7617
a(I0
I19
tp7618
asg491
g5
(g6
g7
(lp7619
g7578
ag7605
atp7620
Rp7621
(dp7622
g16
g496
sbsbsg497
(icmyPackage
CorE
p7623
(dp7624
g487
(lp7625
(I0
I0
tp7626
a(I0
I7
tp7627
asg491
g5
(g6
g7
(lp7628
g7415
ag7422
ag7428
ag7435
ag7443
ag7450
ag7467
atp7629
Rp7630
(dp7631
g16
g496
sbsbsg507
(icmyPackage
pattern
p7632
(dp7633
g510
I0
sg511
I0
sg512
(lp7634
(lp7635
S'if'
p7636
aasg517
(lp7637
I1
aI1
aI1
asg519
(lp7638
S'An effective knowledge flow network enables a research team to be very powerful in generating new knowledge if every node can innovate and output new knowledge to appropriate members.'
p7639
asg522
I14
sg523
(lp7640
(lp7641
S'&R@Complete@'
p7642
aa(lp7643
S'&C@Complete@'
p7644
aasbsg529
(lp7645
(icmyPackage
Sent
p7646
(dp7647
g533
I8
sg534
I29
sg535
S'We do not have to eliminate the firewall if we just want to quickly and cheaply move the terabytes.'
p7648
sg537
I0
sg538
I112
sg491
(lp7649
g7611
asbasba(icmyPackage
CELink
p7650
(dp7651
g3
(lp7652
g5
(g6
g7
(lp7653
g5
(g6
g7
(lp7654
g5
(g6
g7
(lp7655
g5
(g6
g7
(lp7656
g5
(g6
g7
(lp7657
VWe
p7658
atp7659
Rp7660
(dp7661
g16
VPRP
p7662
sbatp7663
Rp7664
(dp7665
g16
VNP
p7666
sbag5
(g6
g7
(lp7667
g5
(g6
g7
(lp7668
Vdo
p7669
atp7670
Rp7671
(dp7672
g16
VVBP
p7673
sbag5
(g6
g7
(lp7674
Vnot
p7675
atp7676
Rp7677
(dp7678
g16
VRB
p7679
sbag5
(g6
g7
(lp7680
g5
(g6
g7
(lp7681
Vrecommend
p7682
atp7683
Rp7684
(dp7685
g16
VVB
p7686
sbag5
(g6
g7
(lp7687
g5
(g6
g7
(lp7688
Vthat
p7689
atp7690
Rp7691
(dp7692
g16
VDT
p7693
sbatp7694
Rp7695
(dp7696
g16
VNP
p7697
sbatp7698
Rp7699
(dp7700
g16
VVP
p7701
sbatp7702
Rp7703
(dp7704
g16
VVP
p7705
sbatp7706
Rp7707
(dp7708
g16
g135
sbag5
(g6
g7
(lp7709
g76
atp7710
Rp7711
(dp7712
g16
g76
sbag5
(g6
g7
(lp7713
Vbut
p7714
atp7715
Rp7716
(dp7717
g16
VCC
p7718
sbag5
(g6
g7
(lp7719
g5
(g6
g7
(lp7720
g5
(g6
g7
(lp7721
Vit
p7722
atp7723
Rp7724
(dp7725
g16
VPRP
p7726
sbatp7727
Rp7728
(dp7729
g16
VNP
p7730
sbag5
(g6
g7
(lp7731
g5
(g6
g7
(lp7732
Vis
p7733
atp7734
Rp7735
(dp7736
g16
VVBZ
p7737
sbag5
(g6
g7
(lp7738
g5
(g6
g7
(lp7739
Vindeed
p7740
atp7741
Rp7742
(dp7743
g16
VRB
p7744
sbatp7745
Rp7746
(dp7747
g16
VADVP
p7748
sbag5
(g6
g7
(lp7749
g5
(g6
g7
(lp7750
g5
(g6
g7
(lp7751
Vwhat
p7752
atp7753
Rp7754
(dp7755
g16
VWP
p7756
sbatp7757
Rp7758
(dp7759
g16
VWHNP
p7760
sbag5
(g6
g7
(lp7761
g5
(g6
g7
(lp7762
g5
(g6
g7
(lp7763
Vwe
p7764
atp7765
Rp7766
(dp7767
g16
VPRP
p7768
sbatp7769
Rp7770
(dp7771
g16
VNP
p7772
sbag5
(g6
g7
(lp7773
g5
(g6
g7
(lp7774
Vare
p7775
atp7776
Rp7777
(dp7778
g16
VVBP
p7779
sbag5
(g6
g7
(lp7780
g5
(g6
g7
(lp7781
Vdoing
p7782
atp7783
Rp7784
(dp7785
g16
VVBG
p7786
sbatp7787
Rp7788
(dp7789
g16
VVP
p7790
sbatp7791
Rp7792
(dp7793
g16
VVP
p7794
sbatp7795
Rp7796
(dp7797
g16
g135
sbatp7798
Rp7799
(dp7800
g16
VSBAR
p7801
sbatp7802
Rp7803
(dp7804
g16
VVP
p7805
sbatp7806
Rp7807
(dp7808
g16
g135
sbag5
(g6
g7
(lp7809
g473
atp7810
Rp7811
(dp7812
g16
g473
sbatp7813
Rp7814
(dp7815
g16
g135
sbatp7816
Rp7817
(dp7818
g16
VROOT
p7819
sbag5
(g6
g7
(lp7820
g5
(g6
g7
(lp7821
g5
(g6
g7
(lp7822
g5
(g6
g7
(lp7823
VSo
p7824
atp7825
Rp7826
(dp7827
g16
VRB
p7828
sbatp7829
Rp7830
(dp7831
g16
VADVP
p7832
sbag5
(g6
g7
(lp7833
g76
atp7834
Rp7835
(dp7836
g16
g76
sbag5
(g6
g7
(lp7837
g5
(g6
g7
(lp7838
Vwe
p7839
atp7840
Rp7841
(dp7842
g16
VPRP
p7843
sbatp7844
Rp7845
(dp7846
g16
VNP
p7847
sbag5
(g6
g7
(lp7848
g5
(g6
g7
(lp7849
Vconfess
p7850
atp7851
Rp7852
(dp7853
g16
VVBZ
p7854
sbag5
(g6
g7
(lp7855
g5
(g6
g7
(lp7856
Vthat
p7857
atp7858
Rp7859
(dp7860
g16
VIN
p7861
sbag5
(g6
g7
(lp7862
g5
(g6
g7
(lp7863
g5
(g6
g7
(lp7864
Vthe
p7865
atp7866
Rp7867
(dp7868
g16
VDT
p7869
sbag5
(g6
g7
(lp7870
Vsecurity
p7871
atp7872
Rp7873
(dp7874
g16
VNN
p7875
sbag5
(g6
g7
(lp7876
Vproblem
p7877
atp7878
Rp7879
(dp7880
g16
VNN
p7881
sbatp7882
Rp7883
(dp7884
g16
VNP
p7885
sbag5
(g6
g7
(lp7886
g5
(g6
g7
(lp7887
Vmay
p7888
atp7889
Rp7890
(dp7891
g16
VMD
p7892
sbag5
(g6
g7
(lp7893
g5
(g6
g7
(lp7894
Vwell
p7895
atp7896
Rp7897
(dp7898
g16
VRB
p7899
sbatp7900
Rp7901
(dp7902
g16
VADVP
p7903
sbag5
(g6
g7
(lp7904
g5
(g6
g7
(lp7905
Vbe
p7906
atp7907
Rp7908
(dp7909
g16
VVB
p7910
sbag5
(g6
g7
(lp7911
g5
(g6
g7
(lp7912
g5
(g6
g7
(lp7913
g258
atp7914
Rp7915
(dp7916
g16
VDT
p7917
sbag5
(g6
g7
(lp7918
Vbarrier
p7919
atp7920
Rp7921
(dp7922
g16
VNN
p7923
sbatp7924
Rp7925
(dp7926
g16
VNP
p7927
sbag5
(g6
g7
(lp7928
g5
(g6
g7
(lp7929
Vto
p7930
atp7931
Rp7932
(dp7933
g16
VTO
p7934
sbag5
(g6
g7
(lp7935
g5
(g6
g7
(lp7936
g5
(g6
g7
(lp7937
Vcross-company
p7938
atp7939
Rp7940
(dp7941
g16
VJJ
p7942
sbag5
(g6
g7
(lp7943
Vexchanging
p7944
atp7945
Rp7946
(dp7947
g16
VVBG
p7948
sbag5
(g6
g7
(lp7949
Vdata
p7950
atp7951
Rp7952
(dp7953
g16
VNNS
p7954
sbatp7955
Rp7956
(dp7957
g16
VNP
p7958
sbag5
(g6
g7
(lp7959
g5
(g6
g7
(lp7960
Vvia
p7961
atp7962
Rp7963
(dp7964
g16
VIN
p7965
sbag5
(g6
g7
(lp7966
g5
(g6
g7
(lp7967
Vstorage
p7968
atp7969
Rp7970
(dp7971
g16
VNN
p7972
sbag5
(g6
g7
(lp7973
Vbricks
p7974
atp7975
Rp7976
(dp7977
g16
VNNS
p7978
sbatp7979
Rp7980
(dp7981
g16
VNP
p7982
sbatp7983
Rp7984
(dp7985
g16
VPP
p7986
sbatp7987
Rp7988
(dp7989
g16
VNP
p7990
sbatp7991
Rp7992
(dp7993
g16
VPP
p7994
sbatp7995
Rp7996
(dp7997
g16
VNP
p7998
sbatp7999
Rp8000
(dp8001
g16
VVP
p8002
sbatp8003
Rp8004
(dp8005
g16
VVP
p8006
sbatp8007
Rp8008
(dp8009
g16
g135
sbatp8010
Rp8011
(dp8012
g16
VSBAR
p8013
sbatp8014
Rp8015
(dp8016
g16
VVP
p8017
sbag5
(g6
g7
(lp8018
g473
atp8019
Rp8020
(dp8021
g16
g473
sbatp8022
Rp8023
(dp8024
g16
g135
sbatp8025
Rp8026
(dp8027
g16
VROOT
p8028
sbasg484
(icmyPackage
CorE
p8029
(dp8030
g487
(lp8031
(I0
I0
tp8032
a(I0
I13
tp8033
asg491
g5
(g6
g7
(lp8034
g7707
ag7711
ag7716
ag7807
atp8035
Rp8036
(dp8037
g16
g496
sbsbsg497
(icmyPackage
CorE
p8038
(dp8039
g487
(lp8040
(I1
I2
tp8041
a(I1
I20
tp8042
asg491
g5
(g6
g7
(lp8043
g7845
ag8015
ag8020
atp8044
Rp8045
(dp8046
g16
g496
sbsbsg507
g918
sg529
(lp8047
(icmyPackage
Sent
p8048
(dp8049
g533
I8
sg534
I30
sg535
S'We do not recommend that, but it is indeed what we are doing.'
p8050
sg537
I0
sg538
I114
sg491
(lp8051
g7817
asba(icmyPackage
Sent
p8052
(dp8053
g533
I8
sg534
I31
sg535
S'So, we confess that the security problem may well be a barrier to cross-company exchanging data via storage bricks.'
p8054
sg537
I0
sg538
I115
sg491
(lp8055
g8026
asbasba(icmyPackage
CELink
p8056
(dp8057
g3
(lp8058
g5
(g6
g7
(lp8059
g5
(g6
g7
(lp8060
g5
(g6
g7
(lp8061
VBut
p8062
atp8063
Rp8064
(dp8065
g16
VCC
p8066
sbag5
(g6
g7
(lp8067
g5
(g6
g7
(lp8068
Vthere
p8069
atp8070
Rp8071
(dp8072
g16
VEX
p8073
sbatp8074
Rp8075
(dp8076
g16
VNP
p8077
sbag5
(g6
g7
(lp8078
g5
(g6
g7
(lp8079
Vmay
p8080
atp8081
Rp8082
(dp8083
g16
VMD
p8084
sbag5
(g6
g7
(lp8085
g5
(g6
g7
(lp8086
Vbe
p8087
atp8088
Rp8089
(dp8090
g16
VVB
p8091
sbag5
(g6
g7
(lp8092
g5
(g6
g7
(lp8093
Vtechnical
p8094
atp8095
Rp8096
(dp8097
g16
VJJ
p8098
sbag5
(g6
g7
(lp8099
Vsolutions
p8100
atp8101
Rp8102
(dp8103
g16
VNNS
p8104
sbatp8105
Rp8106
(dp8107
g16
VNP
p8108
sbag5
(g6
g7
(lp8109
g5
(g6
g7
(lp8110
Vto
p8111
atp8112
Rp8113
(dp8114
g16
VTO
p8115
sbag5
(g6
g7
(lp8116
g5
(g6
g7
(lp8117
Vthis
p8118
atp8119
Rp8120
(dp8121
g16
VDT
p8122
sbatp8123
Rp8124
(dp8125
g16
VNP
p8126
sbatp8127
Rp8128
(dp8129
g16
VPP
p8130
sbag5
(g6
g7
(lp8131
g5
(g6
g7
(lp8132
Vif
p8133
atp8134
Rp8135
(dp8136
g16
VIN
p8137
sbag5
(g6
g7
(lp8138
g5
(g6
g7
(lp8139
g5
(g6
g7
(lp8140
Vit
p8141
atp8142
Rp8143
(dp8144
g16
VPRP
p8145
sbatp8146
Rp8147
(dp8148
g16
VNP
p8149
sbag5
(g6
g7
(lp8150
g5
(g6
g7
(lp8151
Vbecomes
p8152
atp8153
Rp8154
(dp8155
g16
VVBZ
p8156
sbag5
(g6
g7
(lp8157
g5
(g6
g7
(lp8158
g5
(g6
g7
(lp8159
Vstandard
p8160
atp8161
Rp8162
(dp8163
g16
VJJ
p8164
sbag5
(g6
g7
(lp8165
Vpractice
p8166
atp8167
Rp8168
(dp8169
g16
VNN
p8170
sbatp8171
Rp8172
(dp8173
g16
VNP
p8174
sbag5
(g6
g7
(lp8175
g5
(g6
g7
(lp8176
V-LRB-
p8177
atp8178
Rp8179
(dp8180
g16
V-LRB-
p8181
sbag5
(g6
g7
(lp8182
g5
(g6
g7
(lp8183
g5
(g6
g7
(lp8184
Vobvious
p8185
atp8186
Rp8187
(dp8188
g16
VJJ
p8189
sbag5
(g6
g7
(lp8190
Vsolutions
p8191
atp8192
Rp8193
(dp8194
g16
VNNS
p8195
sbatp8196
Rp8197
(dp8198
g16
VNP
p8199
sbag5
(g6
g7
(lp8200
g5
(g6
g7
(lp8201
Vlike
p8202
atp8203
Rp8204
(dp8205
g16
VIN
p8206
sbag5
(g6
g7
(lp8207
g5
(g6
g7
(lp8208
g5
(g6
g7
(lp8209
g5
(g6
g7
(lp8210
Vscrubbing
p8211
atp8212
Rp8213
(dp8214
g16
VVBG
p8215
sbag5
(g6
g7
(lp8216
g5
(g6
g7
(lp8217
g5
(g6
g7
(lp8218
Vthe
p8219
atp8220
Rp8221
(dp8222
g16
VDT
p8223
sbag5
(g6
g7
(lp8224
Vmachine
p8225
atp8226
Rp8227
(dp8228
g16
VNN
p8229
sbag5
(g6
g7
(lp8230
V's
p8231
atp8232
Rp8233
(dp8234
g16
VPOS
p8235
sbatp8236
Rp8237
(dp8238
g16
VNP
p8239
sbag5
(g6
g7
(lp8240
VOS
p8241
atp8242
Rp8243
(dp8244
g16
VNN
p8245
sbatp8246
Rp8247
(dp8248
g16
VNP
p8249
sbatp8250
Rp8251
(dp8252
g16
VVP
p8253
sbag5
(g6
g7
(lp8254
g76
atp8255
Rp8256
(dp8257
g16
g76
sbag5
(g6
g7
(lp8258
Vor
p8259
atp8260
Rp8261
(dp8262
g16
VCC
p8263
sbag5
(g6
g7
(lp8264
g5
(g6
g7
(lp8265
Vrunning
p8266
atp8267
Rp8268
(dp8269
g16
VVBG
p8270
sbag5
(g6
g7
(lp8271
g5
(g6
g7
(lp8272
g5
(g6
g7
(lp8273
g5
(g6
g7
(lp8274
g258
atp8275
Rp8276
(dp8277
g16
VDT
p8278
sbag5
(g6
g7
(lp8279
Vvirus
p8280
atp8281
Rp8282
(dp8283
g16
VNN
p8284
sbag5
(g6
g7
(lp8285
Vscan
p8286
atp8287
Rp8288
(dp8289
g16
VNN
p8290
sbatp8291
Rp8292
(dp8293
g16
VNP
p8294
sbag5
(g6
g7
(lp8295
g5
(g6
g7
(lp8296
Vare
p8297
atp8298
Rp8299
(dp8300
g16
VVBP
p8301
sbag5
(g6
g7
(lp8302
Vall
p8303
atp8304
Rp8305
(dp8306
g16
VRB
p8307
sbag5
(g6
g7
(lp8308
g5
(g6
g7
(lp8309
Vsusceptible
p8310
atp8311
Rp8312
(dp8313
g16
VJJ
p8314
sbag5
(g6
g7
(lp8315
g5
(g6
g7
(lp8316
Vto
p8317
atp8318
Rp8319
(dp8320
g16
VTO
p8321
sbag5
(g6
g7
(lp8322
g5
(g6
g7
(lp8323
Vdeceptions
p8324
atp8325
Rp8326
(dp8327
g16
VNNS
p8328
sbatp8329
Rp8330
(dp8331
g16
VNP
p8332
sbatp8333
Rp8334
(dp8335
g16
VPP
p8336
sbatp8337
Rp8338
(dp8339
g16
VADJP
p8340
sbag5
(g6
g7
(lp8341
g5
(g6
g7
(lp8342
Vsince
p8343
atp8344
Rp8345
(dp8346
g16
VIN
p8347
sbag5
(g6
g7
(lp8348
g5
(g6
g7
(lp8349
g5
(g6
g7
(lp8350
Vthe
p8351
atp8352
Rp8353
(dp8354
g16
VDT
p8355
sbag5
(g6
g7
(lp8356
Vbrick
p8357
atp8358
Rp8359
(dp8360
g16
VNN
p8361
sbatp8362
Rp8363
(dp8364
g16
VNP
p8365
sbag5
(g6
g7
(lp8366
g5
(g6
g7
(lp8367
Varrives
p8368
atp8369
Rp8370
(dp8371
g16
VVBZ
p8372
sbag5
(g6
g7
(lp8373
g5
(g6
g7
(lp8374
Vwith
p8375
atp8376
Rp8377
(dp8378
g16
VIN
p8379
sbag5
(g6
g7
(lp8380
g5
(g6
g7
(lp8381
g5
(g6
g7
(lp8382
Van
p8383
atp8384
Rp8385
(dp8386
g16
VDT
p8387
sbag5
(g6
g7
(lp8388
Vunknown
p8389
atp8390
Rp8391
(dp8392
g16
VJJ
p8393
sbag5
(g6
g7
(lp8394
VBIOS
p8395
atp8396
Rp8397
(dp8398
g16
VNNS
p8399
sbatp8400
Rp8401
(dp8402
g16
VNP
p8403
sbag5
(g6
g7
(lp8404
Vand
p8405
atp8406
Rp8407
(dp8408
g16
VCC
p8409
sbag5
(g6
g7
(lp8410
g5
(g6
g7
(lp8411
Voperating
p8412
atp8413
Rp8414
(dp8415
g16
VVBG
p8416
sbag5
(g6
g7
(lp8417
Vsystem
p8418
atp8419
Rp8420
(dp8421
g16
VNN
p8422
sbatp8423
Rp8424
(dp8425
g16
VNP
p8426
sbatp8427
Rp8428
(dp8429
g16
VNP
p8430
sbatp8431
Rp8432
(dp8433
g16
VPP
p8434
sbatp8435
Rp8436
(dp8437
g16
VVP
p8438
sbatp8439
Rp8440
(dp8441
g16
g135
sbatp8442
Rp8443
(dp8444
g16
VSBAR
p8445
sbatp8446
Rp8447
(dp8448
g16
VVP
p8449
sbatp8450
Rp8451
(dp8452
g16
g135
sbatp8453
Rp8454
(dp8455
g16
VSBAR
p8456
sbatp8457
Rp8458
(dp8459
g16
VVP
p8460
sbatp8461
Rp8462
(dp8463
g16
VVP
p8464
sbatp8465
Rp8466
(dp8467
g16
g135
sbatp8468
Rp8469
(dp8470
g16
VPP
p8471
sbatp8472
Rp8473
(dp8474
g16
VNP
p8475
sbag5
(g6
g7
(lp8476
V-RRB-
p8477
atp8478
Rp8479
(dp8480
g16
V-RRB-
p8481
sbatp8482
Rp8483
(dp8484
g16
VPRN
p8485
sbatp8486
Rp8487
(dp8488
g16
VNP
p8489
sbatp8490
Rp8491
(dp8492
g16
VVP
p8493
sbatp8494
Rp8495
(dp8496
g16
g135
sbatp8497
Rp8498
(dp8499
g16
VSBAR
p8500
sbatp8501
Rp8502
(dp8503
g16
VVP
p8504
sbatp8505
Rp8506
(dp8507
g16
VVP
p8508
sbag5
(g6
g7
(lp8509
g473
atp8510
Rp8511
(dp8512
g16
g473
sbatp8513
Rp8514
(dp8515
g16
g135
sbatp8516
Rp8517
(dp8518
g16
VROOT
p8519
sbasg484
(icmyPackage
CorE
p8520
(dp8521
g487
(lp8522
(I0
I34
tp8523
a(I0
I43
tp8524
asg491
g8440
sbsg497
(icmyPackage
CorE
p8525
(dp8526
g487
(lp8527
(I0
I0
tp8528
a(I0
I32
tp8529
asg491
g5
(g6
g7
(lp8530
g8064
ag8075
ag8082
ag8089
ag8106
ag8128
ag8135
ag8147
ag8154
ag8172
ag8179
ag8197
ag8204
ag8251
ag8256
ag8261
ag8268
ag8292
ag8299
ag8305
ag8338
atp8531
Rp8532
(dp8533
g16
g496
sbsbsg507
(icmyPackage
pattern
p8534
(dp8535
g510
I23
sg511
I1
sg512
(lp8536
(lp8537
S'since'
p8538
aasg517
(lp8539
I3
aI1
aI1
asg519
(lp8540
S'This is one of the simplest cases since the surface is so thin.'
p8541
aS'He could not answer the question, since he had not made up his mind.'
p8542
aS'That manager has been a basket case here since his wife left him.'
p8543
asg522
I79
sg523
(lp8544
(lp8545
S'&R@NCTime@'
p8546
aS'(,)'
p8547
aa(lp8548
S'&C@NCTime@'
p8549
aasbsg529
(lp8550
(icmyPackage
Sent
p8551
(dp8552
g533
I8
sg534
I31
sg535
S"But there may be technical solutions to this if it becomes standard practice (obvious solutions like scrubbing the machine's OS, or running a virus scan are all susceptible to deceptions since the brick arrives with an unknown BIOS and operating system)."
p8553
sg537
I0
sg538
I116
sg491
(lp8554
g8517
asbasba(icmyPackage
CELink
p8555
(dp8556
g3
(lp8557
g8532
asg484
(icmyPackage
CorE
p8558
(dp8559
g487
(lp8560
(I0
I9
tp8561
a(I0
I32
tp8562
asg491
g5
(g6
g7
(lp8563
g8147
ag8154
ag8172
ag8179
ag8197
ag8204
ag8251
ag8256
ag8261
ag8268
ag8292
ag8299
ag8305
ag8338
atp8564
Rp8565
(dp8566
g16
g496
sbsbsg497
(icmyPackage
CorE
p8567
(dp8568
g487
(lp8569
(I0
I0
tp8570
a(I0
I7
tp8571
asg491
g5
(g6
g7
(lp8572
g8064
ag8075
ag8082
ag8089
ag8106
ag8128
atp8573
Rp8574
(dp8575
g16
g496
sbsbsg507
g7632
sg529
(lp8576
g8551
asba(icmyPackage
CELink
p8577
(dp8578
g3
(lp8579
g5
(g6
g7
(lp8580
g5
(g6
g7
(lp8581
g5
(g6
g7
(lp8582
g5
(g6
g7
(lp8583
VTape
p8584
atp8585
Rp8586
(dp8587
g16
VJJ
p8588
sbag5
(g6
g7
(lp8589
Vvendors
p8590
atp8591
Rp8592
(dp8593
g16
VNNS
p8594
sbatp8595
Rp8596
(dp8597
g16
VNP
p8598
sbag5
(g6
g7
(lp8599
g5
(g6
g7
(lp8600
Voften
p8601
atp8602
Rp8603
(dp8604
g16
VRB
p8605
sbatp8606
Rp8607
(dp8608
g16
VADVP
p8609
sbag5
(g6
g7
(lp8610
g5
(g6
g7
(lp8611
Vquote
p8612
atp8613
Rp8614
(dp8615
g16
VVBP
p8616
sbag5
(g6
g7
(lp8617
g5
(g6
g7
(lp8618
V``
p8619
atp8620
Rp8621
(dp8622
g16
V``
p8623
sbag5
(g6
g7
(lp8624
Vcompressed
p8625
atp8626
Rp8627
(dp8628
g16
VJJ
p8629
sbag5
(g6
g7
(lp8630
V''
p8631
atp8632
Rp8633
(dp8634
g16
V''
p8635
sbag5
(g6
g7
(lp8636
Vstorage
p8637
atp8638
Rp8639
(dp8640
g16
VNN
p8641
sbag5
(g6
g7
(lp8642
Vcapacity
p8643
atp8644
Rp8645
(dp8646
g16
VNN
p8647
sbatp8648
Rp8649
(dp8650
g16
VNP
p8651
sbag5
(g6
g7
(lp8652
g76
atp8653
Rp8654
(dp8655
g16
g76
sbag5
(g6
g7
(lp8656
g5
(g6
g7
(lp8657
g5
(g6
g7
(lp8658
Vclaiming
p8659
atp8660
Rp8661
(dp8662
g16
VVBG
p8663
sbag5
(g6
g7
(lp8664
g5
(g6
g7
(lp8665
g5
(g6
g7
(lp8666
Vcompression
p8667
atp8668
Rp8669
(dp8670
g16
VNN
p8671
sbag5
(g6
g7
(lp8672
Vratios
p8673
atp8674
Rp8675
(dp8676
g16
VNNS
p8677
sbatp8678
Rp8679
(dp8680
g16
VNP
p8681
sbag5
(g6
g7
(lp8682
g5
(g6
g7
(lp8683
Vof
p8684
atp8685
Rp8686
(dp8687
g16
VIN
p8688
sbag5
(g6
g7
(lp8689
g5
(g6
g7
(lp8690
V2.5:1
p8691
atp8692
Rp8693
(dp8694
g16
VCD
p8695
sbatp8696
Rp8697
(dp8698
g16
VNP
p8699
sbatp8700
Rp8701
(dp8702
g16
VPP
p8703
sbatp8704
Rp8705
(dp8706
g16
VNP
p8707
sbatp8708
Rp8709
(dp8710
g16
VVP
p8711
sbatp8712
Rp8713
(dp8714
g16
g135
sbatp8715
Rp8716
(dp8717
g16
VVP
p8718
sbag5
(g6
g7
(lp8719
g473
atp8720
Rp8721
(dp8722
g16
g473
sbatp8723
Rp8724
(dp8725
g16
g135
sbatp8726
Rp8727
(dp8728
g16
VROOT
p8729
sbag5
(g6
g7
(lp8730
g5
(g6
g7
(lp8731
g5
(g6
g7
(lp8732
VSo
p8733
atp8734
Rp8735
(dp8736
g16
VIN
p8737
sbag5
(g6
g7
(lp8738
g5
(g6
g7
(lp8739
g258
atp8740
Rp8741
(dp8742
g16
VDT
p8743
sbag5
(g6
g7
(lp8744
V40GB
p8745
atp8746
Rp8747
(dp8748
g16
VCD
p8749
sbag5
(g6
g7
(lp8750
Vtape
p8751
atp8752
Rp8753
(dp8754
g16
VNN
p8755
sbatp8756
Rp8757
(dp8758
g16
VNP
p8759
sbag5
(g6
g7
(lp8760
g5
(g6
g7
(lp8761
Vis
p8762
atp8763
Rp8764
(dp8765
g16
VVBZ
p8766
sbag5
(g6
g7
(lp8767
g5
(g6
g7
(lp8768
Vadvertised
p8769
atp8770
Rp8771
(dp8772
g16
VVBN
p8773
sbag5
(g6
g7
(lp8774
g5
(g6
g7
(lp8775
Vas
p8776
atp8777
Rp8778
(dp8779
g16
VIN
p8780
sbag5
(g6
g7
(lp8781
g5
(g6
g7
(lp8782
g5
(g6
g7
(lp8783
g5
(g6
g7
(lp8784
V100GB
p8785
atp8786
Rp8787
(dp8788
g16
VCD
p8789
sbatp8790
Rp8791
(dp8792
g16
VNP
p8793
sbag5
(g6
g7
(lp8794
Vand
p8795
atp8796
Rp8797
(dp8798
g16
VCC
p8799
sbag5
(g6
g7
(lp8800
g5
(g6
g7
(lp8801
g258
atp8802
Rp8803
(dp8804
g16
VDT
p8805
sbag5
(g6
g7
(lp8806
V4MBps
p8807
atp8808
Rp8809
(dp8810
g16
VJJ
p8811
sbag5
(g6
g7
(lp8812
Vdata
p8813
atp8814
Rp8815
(dp8816
g16
VNN
p8817
sbag5
(g6
g7
(lp8818
Vrate
p8819
atp8820
Rp8821
(dp8822
g16
VNN
p8823
sbatp8824
Rp8825
(dp8826
g16
VNP
p8827
sbatp8828
Rp8829
(dp8830
g16
VNP
p8831
sbag5
(g6
g7
(lp8832
g5
(g6
g7
(lp8833
Vis
p8834
atp8835
Rp8836
(dp8837
g16
VVBZ
p8838
sbag5
(g6
g7
(lp8839
g5
(g6
g7
(lp8840
Vquoted
p8841
atp8842
Rp8843
(dp8844
g16
VVBN
p8845
sbag5
(g6
g7
(lp8846
g5
(g6
g7
(lp8847
Vat
p8848
atp8849
Rp8850
(dp8851
g16
VIN
p8852
sbag5
(g6
g7
(lp8853
g5
(g6
g7
(lp8854
V10MBps
p8855
atp8856
Rp8857
(dp8858
g16
VCD
p8859
sbatp8860
Rp8861
(dp8862
g16
VNP
p8863
sbatp8864
Rp8865
(dp8866
g16
VPP
p8867
sbatp8868
Rp8869
(dp8870
g16
VVP
p8871
sbatp8872
Rp8873
(dp8874
g16
VVP
p8875
sbatp8876
Rp8877
(dp8878
g16
g135
sbatp8879
Rp8880
(dp8881
g16
VSBAR
p8882
sbatp8883
Rp8884
(dp8885
g16
VVP
p8886
sbatp8887
Rp8888
(dp8889
g16
VVP
p8890
sbag5
(g6
g7
(lp8891
g473
atp8892
Rp8893
(dp8894
g16
g473
sbatp8895
Rp8896
(dp8897
g16
g135
sbatp8898
Rp8899
(dp8900
g16
VROOT
p8901
sbasg484
(icmyPackage
CorE
p8902
(dp8903
g487
(lp8904
(I0
I0
tp8905
a(I0
I14
tp8906
asg491
g5
(g6
g7
(lp8907
g8596
ag8607
ag8716
atp8908
Rp8909
(dp8910
g16
g496
sbsbsg497
(icmyPackage
CorE
p8911
(dp8912
g487
(lp8913
(I1
I1
tp8914
a(I1
I17
tp8915
asg491
g5
(g6
g7
(lp8916
g8757
ag8888
ag8893
atp8917
Rp8918
(dp8919
g16
g496
sbsbsg507
g918
sg529
(lp8920
(icmyPackage
Sent
p8921
(dp8922
g533
I9
sg534
I33
sg535
S'Tape vendors often quote "compressed" storage capacity, claiming compression ratios of 2.5:1.'
p8923
sg537
I0
sg538
I119
sg491
(lp8924
g8727
asba(icmyPackage
Sent
p8925
(dp8926
g533
I9
sg534
I33
sg535
S'So a 40GB tape is advertised as 100GB and a 4MBps data rate is quoted at 10MBps.'
p8927
sg537
I0
sg538
I120
sg491
(lp8928
g8899
asbasba(icmyPackage
CELink
p8929
(dp8930
g3
(lp8931
g5
(g6
g7
(lp8932
g5
(g6
g7
(lp8933
g5
(g6
g7
(lp8934
g5
(g6
g7
(lp8935
g5
(g6
g7
(lp8936
VIt
p8937
atp8938
Rp8939
(dp8940
g16
VPRP
p8941
sbatp8942
Rp8943
(dp8944
g16
VNP
p8945
sbag5
(g6
g7
(lp8946
g5
(g6
g7
(lp8947
Vcan
p8948
atp8949
Rp8950
(dp8951
g16
VMD
p8952
sbag5
(g6
g7
(lp8953
g5
(g6
g7
(lp8954
Vcompress
p8955
atp8956
Rp8957
(dp8958
g16
VVB
p8959
sbag5
(g6
g7
(lp8960
g5
(g6
g7
(lp8961
Vthe
p8962
atp8963
Rp8964
(dp8965
g16
VDT
p8966
sbag5
(g6
g7
(lp8967
Vdata
p8968
atp8969
Rp8970
(dp8971
g16
VNNS
p8972
sbatp8973
Rp8974
(dp8975
g16
VNP
p8976
sbatp8977
Rp8978
(dp8979
g16
VVP
p8980
sbatp8981
Rp8982
(dp8983
g16
VVP
p8984
sbatp8985
Rp8986
(dp8987
g16
g135
sbag5
(g6
g7
(lp8988
Vand
p8989
atp8990
Rp8991
(dp8992
g16
VCC
p8993
sbag5
(g6
g7
(lp8994
Vso
p8995
atp8996
Rp8997
(dp8998
g16
VRB
p8999
sbag5
(g6
g7
(lp9000
g5
(g6
g7
(lp9001
g5
(g6
g7
(lp9002
g5
(g6
g7
(lp9003
Vour
p9004
atp9005
Rp9006
(dp9007
g16
VPRP$
p9008
sbag5
(g6
g7
(lp9009
Vbricks
p9010
atp9011
Rp9012
(dp9013
g16
VNNS
p9014
sbatp9015
Rp9016
(dp9017
g16
VNP
p9018
sbag5
(g6
g7
(lp9019
g5
(g6
g7
(lp9020
Vcould
p9021
atp9022
Rp9023
(dp9024
g16
VMD
p9025
sbag5
(g6
g7
(lp9026
g5
(g6
g7
(lp9027
Vclaim
p9028
atp9029
Rp9030
(dp9031
g16
VVB
p9032
sbag5
(g6
g7
(lp9033
g5
(g6
g7
(lp9034
g5
(g6
g7
(lp9035
Vto
p9036
atp9037
Rp9038
(dp9039
g16
VTO
p9040
sbag5
(g6
g7
(lp9041
g5
(g6
g7
(lp9042
Vbe
p9043
atp9044
Rp9045
(dp9046
g16
VVB
p9047
sbag5
(g6
g7
(lp9048
g5
(g6
g7
(lp9049
g5
(g6
g7
(lp9050
V2.5
p9051
atp9052
Rp9053
(dp9054
g16
VCD
p9055
sbag5
(g6
g7
(lp9056
VTB
p9057
atp9058
Rp9059
(dp9060
g16
VNN
p9061
sbatp9062
Rp9063
(dp9064
g16
VNP
p9065
sbag5
(g6
g7
(lp9066
g5
(g6
g7
(lp9067
Vrather
p9068
atp9069
Rp9070
(dp9071
g16
VRB
p9072
sbag5
(g6
g7
(lp9073
Vthan
p9074
atp9075
Rp9076
(dp9077
g16
VIN
p9078
sbatp9079
Rp9080
(dp9081
g16
VCONJP
p9082
sbag5
(g6
g7
(lp9083
g5
(g6
g7
(lp9084
V1TB
p9085
atp9086
Rp9087
(dp9088
g16
VCD
p9089
sbatp9090
Rp9091
(dp9092
g16
VNP
p9093
sbatp9094
Rp9095
(dp9096
g16
VNP
p9097
sbatp9098
Rp9099
(dp9100
g16
VVP
p9101
sbatp9102
Rp9103
(dp9104
g16
VVP
p9105
sbatp9106
Rp9107
(dp9108
g16
g135
sbatp9109
Rp9110
(dp9111
g16
VVP
p9112
sbatp9113
Rp9114
(dp9115
g16
VVP
p9116
sbatp9117
Rp9118
(dp9119
g16
g135
sbag5
(g6
g7
(lp9120
Vand
p9121
atp9122
Rp9123
(dp9124
g16
VCC
p9125
sbag5
(g6
g7
(lp9126
g5
(g6
g7
(lp9127
g5
(g6
g7
(lp9128
Vthe
p9129
atp9130
Rp9131
(dp9132
g16
VDT
p9133
sbag5
(g6
g7
(lp9134
Vdata
p9135
atp9136
Rp9137
(dp9138
g16
VNN
p9139
sbag5
(g6
g7
(lp9140
Vrate
p9141
atp9142
Rp9143
(dp9144
g16
VNN
p9145
sbatp9146
Rp9147
(dp9148
g16
VNP
p9149
sbag5
(g6
g7
(lp9150
g5
(g6
g7
(lp9151
Vcould
p9152
atp9153
Rp9154
(dp9155
g16
VMD
p9156
sbag5
(g6
g7
(lp9157
g5
(g6
g7
(lp9158
Vclaim
p9159
atp9160
Rp9161
(dp9162
g16
VVB
p9163
sbag5
(g6
g7
(lp9164
g5
(g6
g7
(lp9165
g5
(g6
g7
(lp9166
Vto
p9167
atp9168
Rp9169
(dp9170
g16
VTO
p9171
sbag5
(g6
g7
(lp9172
g5
(g6
g7
(lp9173
Vbe
p9174
atp9175
Rp9176
(dp9177
g16
VVB
p9178
sbag5
(g6
g7
(lp9179
g5
(g6
g7
(lp9180
g5
(g6
g7
(lp9181
V60MBps
p9182
atp9183
Rp9184
(dp9185
g16
VNNS
p9186
sbatp9187
Rp9188
(dp9189
g16
VNP
p9190
sbag5
(g6
g7
(lp9191
g5
(g6
g7
(lp9192
Vrather
p9193
atp9194
Rp9195
(dp9196
g16
VRB
p9197
sbag5
(g6
g7
(lp9198
Vthan
p9199
atp9200
Rp9201
(dp9202
g16
VIN
p9203
sbatp9204
Rp9205
(dp9206
g16
VCONJP
p9207
sbag5
(g6
g7
(lp9208
g5
(g6
g7
(lp9209
V25MBps
p9210
atp9211
Rp9212
(dp9213
g16
VNNS
p9214
sbatp9215
Rp9216
(dp9217
g16
VNP
p9218
sbatp9219
Rp9220
(dp9221
g16
VNP
p9222
sbatp9223
Rp9224
(dp9225
g16
VVP
p9226
sbatp9227
Rp9228
(dp9229
g16
VVP
p9230
sbatp9231
Rp9232
(dp9233
g16
g135
sbatp9234
Rp9235
(dp9236
g16
VVP
p9237
sbatp9238
Rp9239
(dp9240
g16
VVP
p9241
sbatp9242
Rp9243
(dp9244
g16
g135
sbatp9245
Rp9246
(dp9247
g16
g135
sbag5
(g6
g7
(lp9248
g473
atp9249
Rp9250
(dp9251
g16
g473
sbatp9252
Rp9253
(dp9254
g16
g135
sbatp9255
Rp9256
(dp9257
g16
VROOT
p9258
sbasg484
(icmyPackage
CorE
p9259
(dp9260
g487
(lp9261
(I0
I0
tp9262
a(I0
I4
tp9263
asg491
g8986
sbsg497
(icmyPackage
CorE
p9264
(dp9265
g487
(lp9266
(I0
I7
tp9267
a(I0
I30
tp9268
asg491
g5
(g6
g7
(lp9269
g9246
ag9250
atp9270
Rp9271
(dp9272
g16
g496
sbsbsg507
g918
sg529
(lp9273
(icmyPackage
Sent
p9274
(dp9275
g533
I9
sg534
I33
sg535
S'It can compress the data and so our bricks could claim to be 2.5TB rather than 1TB and the data rate could claim to be 60MBps rather than 25MBps.'
p9276
sg537
I0
sg538
I122
sg491
(lp9277
g9256
asbasba(icmyPackage
CELink
p9278
(dp9279
g3
(lp9280
g5
(g6
g7
(lp9281
g5
(g6
g7
(lp9282
g5
(g6
g7
(lp9283
g5
(g6
g7
(lp9284
VA
p9285
atp9286
Rp9287
(dp9288
g16
VDT
p9289
sbag5
(g6
g7
(lp9290
g5
(g6
g7
(lp9291
Vmore
p9292
atp9293
Rp9294
(dp9295
g16
VRBR
p9296
sbag5
(g6
g7
(lp9297
Vinteresting
p9298
atp9299
Rp9300
(dp9301
g16
VJJ
p9302
sbatp9303
Rp9304
(dp9305
g16
VADJP
p9306
sbag5
(g6
g7
(lp9307
Vpossibility
p9308
atp9309
Rp9310
(dp9311
g16
VNN
p9312
sbatp9313
Rp9314
(dp9315
g16
VNP
p9316
sbag5
(g6
g7
(lp9317
g5
(g6
g7
(lp9318
Vis
p9319
atp9320
Rp9321
(dp9322
g16
VVBZ
p9323
sbag5
(g6
g7
(lp9324
g5
(g6
g7
(lp9325
Vthat
p9326
atp9327
Rp9328
(dp9329
g16
VIN
p9330
sbag5
(g6
g7
(lp9331
g5
(g6
g7
(lp9332
g5
(g6
g7
(lp9333
Vthe
p9334
atp9335
Rp9336
(dp9337
g16
VDT
p9338
sbag5
(g6
g7
(lp9339
Voperating
p9340
atp9341
Rp9342
(dp9343
g16
VVBG
p9344
sbag5
(g6
g7
(lp9345
Vsystem
p9346
atp9347
Rp9348
(dp9349
g16
VNN
p9350
sbatp9351
Rp9352
(dp9353
g16
VNP
p9354
sbag5
(g6
g7
(lp9355
g5
(g6
g7
(lp9356
Vcan
p9357
atp9358
Rp9359
(dp9360
g16
VMD
p9361
sbag5
(g6
g7
(lp9362
g5
(g6
g7
(lp9363
g5
(g6
g7
(lp9364
Vencrypt
p9365
atp9366
Rp9367
(dp9368
g16
VVB
p9369
sbag5
(g6
g7
(lp9370
g5
(g6
g7
(lp9371
Vall
p9372
atp9373
Rp9374
(dp9375
g16
VPDT
p9376
sbag5
(g6
g7
(lp9377
Vthe
p9378
atp9379
Rp9380
(dp9381
g16
VDT
p9382
sbag5
(g6
g7
(lp9383
Vdata
p9384
atp9385
Rp9386
(dp9387
g16
VNNS
p9388
sbatp9389
Rp9390
(dp9391
g16
VNP
p9392
sbag5
(g6
g7
(lp9393
g5
(g6
g7
(lp9394
Von
p9395
atp9396
Rp9397
(dp9398
g16
VIN
p9399
sbag5
(g6
g7
(lp9400
g5
(g6
g7
(lp9401
Vthe
p9402
atp9403
Rp9404
(dp9405
g16
VDT
p9406
sbag5
(g6
g7
(lp9407
Vdisks
p9408
atp9409
Rp9410
(dp9411
g16
VNNS
p9412
sbatp9413
Rp9414
(dp9415
g16
VNP
p9416
sbatp9417
Rp9418
(dp9419
g16
VPP
p9420
sbatp9421
Rp9422
(dp9423
g16
VVP
p9424
sbag5
(g6
g7
(lp9425
g76
atp9426
Rp9427
(dp9428
g16
g76
sbag5
(g6
g7
(lp9429
Vand
p9430
atp9431
Rp9432
(dp9433
g16
VCC
p9434
sbag5
(g6
g7
(lp9435
g5
(g6
g7
(lp9436
Vso
p9437
atp9438
Rp9439
(dp9440
g16
VRB
p9441
sbatp9442
Rp9443
(dp9444
g16
VADVP
p9445
sbag5
(g6
g7
(lp9446
g5
(g6
g7
(lp9447
Vprevent
p9448
atp9449
Rp9450
(dp9451
g16
VVB
p9452
sbag5
(g6
g7
(lp9453
g5
(g6
g7
(lp9454
Vthe
p9455
atp9456
Rp9457
(dp9458
g16
VDT
p9459
sbag5
(g6
g7
(lp9460
Vdata
p9461
atp9462
Rp9463
(dp9464
g16
VNNS
p9465
sbatp9466
Rp9467
(dp9468
g16
VNP
p9469
sbag5
(g6
g7
(lp9470
g5
(g6
g7
(lp9471
Vfrom
p9472
atp9473
Rp9474
(dp9475
g16
VIN
p9476
sbag5
(g6
g7
(lp9477
g5
(g6
g7
(lp9478
g5
(g6
g7
(lp9479
Vbeing
p9480
atp9481
Rp9482
(dp9483
g16
VVBG
p9484
sbag5
(g6
g7
(lp9485
g5
(g6
g7
(lp9486
Vdisclosed
p9487
atp9488
Rp9489
(dp9490
g16
VVBN
p9491
sbag5
(g6
g7
(lp9492
g5
(g6
g7
(lp9493
Vto
p9494
atp9495
Rp9496
(dp9497
g16
VTO
p9498
sbag5
(g6
g7
(lp9499
g5
(g6
g7
(lp9500
Vanyone
p9501
atp9502
Rp9503
(dp9504
g16
VNN
p9505
sbatp9506
Rp9507
(dp9508
g16
VNP
p9509
sbatp9510
Rp9511
(dp9512
g16
VPP
p9513
sbag5
(g6
g7
(lp9514
g5
(g6
g7
(lp9515
Vnot
p9516
atp9517
Rp9518
(dp9519
g16
VRB
p9520
sbag5
(g6
g7
(lp9521
g5
(g6
g7
(lp9522
Vknowing
p9523
atp9524
Rp9525
(dp9526
g16
VVBG
p9527
sbag5
(g6
g7
(lp9528
g5
(g6
g7
(lp9529
Vthe
p9530
atp9531
Rp9532
(dp9533
g16
VDT
p9534
sbag5
(g6
g7
(lp9535
Vdecryption
p9536
atp9537
Rp9538
(dp9539
g16
VNN
p9540
sbag5
(g6
g7
(lp9541
Vkey
p9542
atp9543
Rp9544
(dp9545
g16
VNN
p9546
sbatp9547
Rp9548
(dp9549
g16
VNP
p9550
sbatp9551
Rp9552
(dp9553
g16
VVP
p9554
sbatp9555
Rp9556
(dp9557
g16
g135
sbatp9558
Rp9559
(dp9560
g16
VVP
p9561
sbatp9562
Rp9563
(dp9564
g16
VVP
p9565
sbatp9566
Rp9567
(dp9568
g16
g135
sbatp9569
Rp9570
(dp9571
g16
VPP
p9572
sbatp9573
Rp9574
(dp9575
g16
VVP
p9576
sbatp9577
Rp9578
(dp9579
g16
VVP
p9580
sbatp9581
Rp9582
(dp9583
g16
VVP
p9584
sbatp9585
Rp9586
(dp9587
g16
g135
sbatp9588
Rp9589
(dp9590
g16
VSBAR
p9591
sbatp9592
Rp9593
(dp9594
g16
VVP
p9595
sbag5
(g6
g7
(lp9596
g473
atp9597
Rp9598
(dp9599
g16
g473
sbatp9600
Rp9601
(dp9602
g16
g135
sbatp9603
Rp9604
(dp9605
g16
VROOT
p9606
sbasg484
(icmyPackage
CorE
p9607
(dp9608
g487
(lp9609
(I0
I0
tp9610
a(I0
I16
tp9611
asg491
g5
(g6
g7
(lp9612
g9314
ag9321
ag9328
ag9352
ag9359
ag9422
atp9613
Rp9614
(dp9615
g16
g496
sbsbsg497
(icmyPackage
CorE
p9616
(dp9617
g487
(lp9618
(I0
I20
tp9619
a(I0
I33
tp9620
asg491
g5
(g6
g7
(lp9621
g9574
ag9598
atp9622
Rp9623
(dp9624
g16
g496
sbsbsg507
g918
sg529
(lp9625
(icmyPackage
Sent
p9626
(dp9627
g533
I9
sg534
I34
sg535
S'A more interesting possibility is that the operating system can encrypt all the data on the disks, and so prevent the data from being disclosed to anyone not knowing the decryption key.'
p9628
sg537
I0
sg538
I123
sg491
(lp9629
g9604
asbasba(icmyPackage
CELink
p9630
(dp9631
g3
(lp9632
g5
(g6
g7
(lp9633
g5
(g6
g7
(lp9634
g5
(g6
g7
(lp9635
g5
(g6
g7
(lp9636
g5
(g6
g7
(lp9637
VCompression
p9638
atp9639
Rp9640
(dp9641
g16
VNN
p9642
sbag5
(g6
g7
(lp9643
Vand
p9644
atp9645
Rp9646
(dp9647
g16
VCC
p9648
sbag5
(g6
g7
(lp9649
Vencryption
p9650
atp9651
Rp9652
(dp9653
g16
VNN
p9654
sbatp9655
Rp9656
(dp9657
g16
VNP
p9658
sbag5
(g6
g7
(lp9659
g5
(g6
g7
(lp9660
Vcan
p9661
atp9662
Rp9663
(dp9664
g16
VMD
p9665
sbag5
(g6
g7
(lp9666
g5
(g6
g7
(lp9667
Vcertainly
p9668
atp9669
Rp9670
(dp9671
g16
VRB
p9672
sbatp9673
Rp9674
(dp9675
g16
VADVP
p9676
sbag5
(g6
g7
(lp9677
g5
(g6
g7
(lp9678
Vbe
p9679
atp9680
Rp9681
(dp9682
g16
VVB
p9683
sbag5
(g6
g7
(lp9684
g5
(g6
g7
(lp9685
Vdone
p9686
atp9687
Rp9688
(dp9689
g16
VVBN
p9690
sbag5
(g6
g7
(lp9691
g5
(g6
g7
(lp9692
Vwith
p9693
atp9694
Rp9695
(dp9696
g16
VIN
p9697
sbag5
(g6
g7
(lp9698
g5
(g6
g7
(lp9699
Vpassive
p9700
atp9701
Rp9702
(dp9703
g16
VJJ
p9704
sbag5
(g6
g7
(lp9705
Vmedia
p9706
atp9707
Rp9708
(dp9709
g16
VNNS
p9710
sbatp9711
Rp9712
(dp9713
g16
VNP
p9714
sbatp9715
Rp9716
(dp9717
g16
VPP
p9718
sbatp9719
Rp9720
(dp9721
g16
VVP
p9722
sbatp9723
Rp9724
(dp9725
g16
VVP
p9726
sbatp9727
Rp9728
(dp9729
g16
VVP
p9730
sbatp9731
Rp9732
(dp9733
g16
g135
sbag5
(g6
g7
(lp9734
g76
atp9735
Rp9736
(dp9737
g16
g76
sbag5
(g6
g7
(lp9738
Vbut
p9739
atp9740
Rp9741
(dp9742
g16
VCC
p9743
sbag5
(g6
g7
(lp9744
g5
(g6
g7
(lp9745
g5
(g6
g7
(lp9746
g5
(g6
g7
(lp9747
Vthe
p9748
atp9749
Rp9750
(dp9751
g16
VDT
p9752
sbag5
(g6
g7
(lp9753
Vnice
p9754
atp9755
Rp9756
(dp9757
g16
VJJ
p9758
sbag5
(g6
g7
(lp9759
Vthing
p9760
atp9761
Rp9762
(dp9763
g16
VNN
p9764
sbatp9765
Rp9766
(dp9767
g16
VNP
p9768
sbag5
(g6
g7
(lp9769
g5
(g6
g7
(lp9770
Vabout
p9771
atp9772
Rp9773
(dp9774
g16
VIN
p9775
sbag5
(g6
g7
(lp9776
g5
(g6
g7
(lp9777
Vstorage
p9778
atp9779
Rp9780
(dp9781
g16
VNN
p9782
sbag5
(g6
g7
(lp9783
Vbricks
p9784
atp9785
Rp9786
(dp9787
g16
VNNS
p9788
sbatp9789
Rp9790
(dp9791
g16
VNP
p9792
sbatp9793
Rp9794
(dp9795
g16
VPP
p9796
sbatp9797
Rp9798
(dp9799
g16
VNP
p9800
sbag5
(g6
g7
(lp9801
g5
(g6
g7
(lp9802
Vis
p9803
atp9804
Rp9805
(dp9806
g16
VVBZ
p9807
sbag5
(g6
g7
(lp9808
g5
(g6
g7
(lp9809
Vthat
p9810
atp9811
Rp9812
(dp9813
g16
VIN
p9814
sbag5
(g6
g7
(lp9815
g5
(g6
g7
(lp9816
g5
(g6
g7
(lp9817
Vthe
p9818
atp9819
Rp9820
(dp9821
g16
VDT
p9822
sbag5
(g6
g7
(lp9823
Vcompression
p9824
atp9825
Rp9826
(dp9827
g16
VNN
p9828
sbag5
(g6
g7
(lp9829
Vand
p9830
atp9831
Rp9832
(dp9833
g16
VCC
p9834
sbag5
(g6
g7
(lp9835
Vencryption
p9836
atp9837
Rp9838
(dp9839
g16
VNN
p9840
sbag5
(g6
g7
(lp9841
Valgorithms
p9842
atp9843
Rp9844
(dp9845
g16
VNNS
p9846
sbatp9847
Rp9848
(dp9849
g16
VNP
p9850
sbag5
(g6
g7
(lp9851
g5
(g6
g7
(lp9852
Vare
p9853
atp9854
Rp9855
(dp9856
g16
VVBP
p9857
sbag5
(g6
g7
(lp9858
g5
(g6
g7
(lp9859
Vco-located
p9860
atp9861
Rp9862
(dp9863
g16
VJJ
p9864
sbag5
(g6
g7
(lp9865
g5
(g6
g7
(lp9866
Vwith
p9867
atp9868
Rp9869
(dp9870
g16
VIN
p9871
sbag5
(g6
g7
(lp9872
g5
(g6
g7
(lp9873
Vthe
p9874
atp9875
Rp9876
(dp9877
g16
VDT
p9878
sbag5
(g6
g7
(lp9879
Vdata
p9880
atp9881
Rp9882
(dp9883
g16
VNNS
p9884
sbatp9885
Rp9886
(dp9887
g16
VNP
p9888
sbatp9889
Rp9890
(dp9891
g16
VPP
p9892
sbatp9893
Rp9894
(dp9895
g16
VADJP
p9896
sbag5
(g6
g7
(lp9897
V--
p9898
atp9899
Rp9900
(dp9901
g16
g1313
sbag5
(g6
g7
(lp9902
g5
(g6
g7
(lp9903
Vso
p9904
atp9905
Rp9906
(dp9907
g16
VIN
p9908
sbag5
(g6
g7
(lp9909
g5
(g6
g7
(lp9910
g5
(g6
g7
(lp9911
Vone
p9912
atp9913
Rp9914
(dp9915
g16
VPRP
p9916
sbatp9917
Rp9918
(dp9919
g16
VNP
p9920
sbag5
(g6
g7
(lp9921
g5
(g6
g7
(lp9922
Vis
p9923
atp9924
Rp9925
(dp9926
g16
VVBZ
p9927
sbag5
(g6
g7
(lp9928
g5
(g6
g7
(lp9929
Varchiving
p9930
atp9931
Rp9932
(dp9933
g16
VVBG
p9934
sbag5
(g6
g7
(lp9935
Vor
p9936
atp9937
Rp9938
(dp9939
g16
VCC
p9940
sbag5
(g6
g7
(lp9941
Vexchanging
p9942
atp9943
Rp9944
(dp9945
g16
VVBG
p9946
sbag5
(g6
g7
(lp9947
g5
(g6
g7
(lp9948
g5
(g6
g7
(lp9949
Vboth
p9950
atp9951
Rp9952
(dp9953
g16
VPDT
p9954
sbag5
(g6
g7
(lp9955
Vthe
p9956
atp9957
Rp9958
(dp9959
g16
VDT
p9960
sbag5
(g6
g7
(lp9961
Vdata
p9962
atp9963
Rp9964
(dp9965
g16
VNNS
p9966
sbatp9967
Rp9968
(dp9969
g16
VNP
p9970
sbag5
(g6
g7
(lp9971
Vand
p9972
atp9973
Rp9974
(dp9975
g16
VCC
p9976
sbag5
(g6
g7
(lp9977
g5
(g6
g7
(lp9978
Vthe
p9979
atp9980
Rp9981
(dp9982
g16
VDT
p9983
sbag5
(g6
g7
(lp9984
Valgorithms
p9985
atp9986
Rp9987
(dp9988
g16
VNNS
p9989
sbatp9990
Rp9991
(dp9992
g16
VNP
p9993
sbatp9994
Rp9995
(dp9996
g16
VNP
p9997
sbatp9998
Rp9999
(dp10000
g16
VVP
p10001
sbatp10002
Rp10003
(dp10004
g16
VVP
p10005
sbatp10006
Rp10007
(dp10008
g16
g135
sbatp10009
Rp10010
(dp10011
g16
VSBAR
p10012
sbatp10013
Rp10014
(dp10015
g16
VVP
p10016
sbatp10017
Rp10018
(dp10019
g16
g135
sbatp10020
Rp10021
(dp10022
g16
VSBAR
p10023
sbatp10024
Rp10025
(dp10026
g16
VVP
p10027
sbatp10028
Rp10029
(dp10030
g16
g135
sbag5
(g6
g7
(lp10031
g473
atp10032
Rp10033
(dp10034
g16
g473
sbatp10035
Rp10036
(dp10037
g16
g135
sbatp10038
Rp10039
(dp10040
g16
VROOT
p10041
sbasg484
(icmyPackage
CorE
p10042
(dp10043
g487
(lp10044
(I0
I0
tp10045
a(I0
I29
tp10046
asg491
g5
(g6
g7
(lp10047
g9732
ag9736
ag9741
ag9798
ag9805
ag9812
ag9848
ag9855
ag9894
atp10048
Rp10049
(dp10050
g16
g496
sbsbsg497
(icmyPackage
CorE
p10051
(dp10052
g487
(lp10053
(I0
I32
tp10054
a(I0
I43
tp10055
asg491
g5
(g6
g7
(lp10056
g10007
ag10033
atp10057
Rp10058
(dp10059
g16
g496
sbsbsg507
g918
sg529
(lp10060
(icmyPackage
Sent
p10061
(dp10062
g533
I9
sg534
I35
sg535
S'Compression and encryption can certainly be done with passive media, but the nice thing about storage bricks is that the compression and encryption algorithms are co-located with the data -- so one is archiving or exchanging both the data and the algorithms.'
p10063
sg537
I0
sg538
I124
sg491
(lp10064
g10039
asbasba(icmyPackage
CELink
p10065
(dp10066
g3
(lp10067
g5
(g6
g7
(lp10068
g5
(g6
g7
(lp10069
g5
(g6
g7
(lp10070
g5
(g6
g7
(lp10071
g5
(g6
g7
(lp10072
VWhen
p10073
atp10074
Rp10075
(dp10076
g16
VWRB
p10077
sbatp10078
Rp10079
(dp10080
g16
VWHADVP
p10081
sbag5
(g6
g7
(lp10082
g5
(g6
g7
(lp10083
g5
(g6
g7
(lp10084
Vthe
p10085
atp10086
Rp10087
(dp10088
g16
VDT
p10089
sbag5
(g6
g7
(lp10090
Valgorithms
p10091
atp10092
Rp10093
(dp10094
g16
VNNS
p10095
sbag5
(g6
g7
(lp10096
Vand
p10097
atp10098
Rp10099
(dp10100
g16
VCC
p10101
sbag5
(g6
g7
(lp10102
Vdata
p10103
atp10104
Rp10105
(dp10106
g16
VNNS
p10107
sbatp10108
Rp10109
(dp10110
g16
VNP
p10111
sbag5
(g6
g7
(lp10112
g5
(g6
g7
(lp10113
Vare
p10114
atp10115
Rp10116
(dp10117
g16
VVBP
p10118
sbag5
(g6
g7
(lp10119
g5
(g6
g7
(lp10120
Vseparated
p10121
atp10122
Rp10123
(dp10124
g16
VJJ
p10125
sbatp10126
Rp10127
(dp10128
g16
VADJP
p10129
sbag5
(g6
g7
(lp10130
g5
(g6
g7
(lp10131
V-LRB-
p10132
atp10133
Rp10134
(dp10135
g16
V-LRB-
p10136
sbag5
(g6
g7
(lp10137
g5
(g6
g7
(lp10138
Vas
p10139
atp10140
Rp10141
(dp10142
g16
VRB
p10143
sbag5
(g6
g7
(lp10144
Vwith
p10145
atp10146
Rp10147
(dp10148
g16
VIN
p10149
sbag5
(g6
g7
(lp10150
g5
(g6
g7
(lp10151
g5
(g6
g7
(lp10152
Vpassive
p10153
atp10154
Rp10155
(dp10156
g16
VJJ
p10157
sbag5
(g6
g7
(lp10158
Vmedia
p10159
atp10160
Rp10161
(dp10162
g16
VNNS
p10163
sbatp10164
Rp10165
(dp10166
g16
VNP
p10167
sbag5
(g6
g7
(lp10168
g5
(g6
g7
(lp10169
Vlike
p10170
atp10171
Rp10172
(dp10173
g16
VIN
p10174
sbag5
(g6
g7
(lp10175
g5
(g6
g7
(lp10176
Vtape
p10177
atp10178
Rp10179
(dp10180
g16
VNN
p10181
sbag5
(g6
g7
(lp10182
Vor
p10183
atp10184
Rp10185
(dp10186
g16
VCC
p10187
sbag5
(g6
g7
(lp10188
VCD
p10189
atp10190
Rp10191
(dp10192
g16
VNN
p10193
sbatp10194
Rp10195
(dp10196
g16
VNP
p10197
sbatp10198
Rp10199
(dp10200
g16
VPP
p10201
sbatp10202
Rp10203
(dp10204
g16
VNP
p10205
sbatp10206
Rp10207
(dp10208
g16
VPP
p10209
sbag5
(g6
g7
(lp10210
V-RRB-
p10211
atp10212
Rp10213
(dp10214
g16
V-RRB-
p10215
sbatp10216
Rp10217
(dp10218
g16
VPRN
p10219
sbatp10220
Rp10221
(dp10222
g16
VVP
p10223
sbatp10224
Rp10225
(dp10226
g16
g135
sbatp10227
Rp10228
(dp10229
g16
VSBAR
p10230
sbag5
(g6
g7
(lp10231
g76
atp10232
Rp10233
(dp10234
g16
g76
sbag5
(g6
g7
(lp10235
g5
(g6
g7
(lp10236
Vthe
p10237
atp10238
Rp10239
(dp10240
g16
VDT
p10241
sbag5
(g6
g7
(lp10242
Valgorithms
p10243
atp10244
Rp10245
(dp10246
g16
VNNS
p10247
sbatp10248
Rp10249
(dp10250
g16
VNP
p10251
sbag5
(g6
g7
(lp10252
g5
(g6
g7
(lp10253
Vmay
p10254
atp10255
Rp10256
(dp10257
g16
VMD
p10258
sbag5
(g6
g7
(lp10259
Vnot
p10260
atp10261
Rp10262
(dp10263
g16
VRB
p10264
sbag5
(g6
g7
(lp10265
g5
(g6
g7
(lp10266
Vexist
p10267
atp10268
Rp10269
(dp10270
g16
VVB
p10271
sbag5
(g6
g7
(lp10272
g5
(g6
g7
(lp10273
Vat
p10274
atp10275
Rp10276
(dp10277
g16
VIN
p10278
sbag5
(g6
g7
(lp10279
g5
(g6
g7
(lp10280
Vthe
p10281
atp10282
Rp10283
(dp10284
g16
VDT
p10285
sbag5
(g6
g7
(lp10286
Vreceiver
p10287
atp10288
Rp10289
(dp10290
g16
VNN
p10291
sbatp10292
Rp10293
(dp10294
g16
VNP
p10295
sbatp10296
Rp10297
(dp10298
g16
VPP
p10299
sbatp10300
Rp10301
(dp10302
g16
VVP
p10303
sbatp10304
Rp10305
(dp10306
g16
VVP
p10307
sbag5
(g6
g7
(lp10308
g473
atp10309
Rp10310
(dp10311
g16
g473
sbatp10312
Rp10313
(dp10314
g16
g135
sbatp10315
Rp10316
(dp10317
g16
VROOT
p10318
sbasg484
(icmyPackage
CorE
p10319
(dp10320
g487
(lp10321
(I0
I9
tp10322
a(I0
I26
tp10323
asg491
g5
(g6
g7
(lp10324
g10147
ag10203
ag10213
ag10233
ag10249
ag10305
ag10310
atp10325
Rp10326
(dp10327
g16
g496
sbsbsg497
(icmyPackage
CorE
p10328
(dp10329
g487
(lp10330
(I0
I1
tp10331
a(I0
I7
tp10332
asg491
g5
(g6
g7
(lp10333
g10109
ag10116
ag10127
ag10134
atp10334
Rp10335
(dp10336
g16
g496
sbsbsg507
g5563
sg529
(lp10337
(icmyPackage
Sent
p10338
(dp10339
g533
I9
sg534
I35
sg535
S'When the algorithms and data are separated (as with passive media like tape or CD), the algorithms may not exist at the receiver.'
p10340
sg537
I0
sg538
I125
sg491
(lp10341
g10316
asbasba(icmyPackage
CELink
p10342
(dp10343
g3
(lp10344
g5
(g6
g7
(lp10345
g5
(g6
g7
(lp10346
g5
(g6
g7
(lp10347
g5
(g6
g7
(lp10348
g5
(g6
g7
(lp10349
VWe
p10350
atp10351
Rp10352
(dp10353
g16
VPRP
p10354
sbatp10355
Rp10356
(dp10357
g16
VNP
p10358
sbag5
(g6
g7
(lp10359
g5
(g6
g7
(lp10360
Vsuspect
p10361
atp10362
Rp10363
(dp10364
g16
VVBP
p10365
sbag5
(g6
g7
(lp10366
g5
(g6
g7
(lp10367
Vthat
p10368
atp10369
Rp10370
(dp10371
g16
VIN
p10372
sbag5
(g6
g7
(lp10373
g5
(g6
g7
(lp10374
g5
(g6
g7
(lp10375
Vby
p10376
atp10377
Rp10378
(dp10379
g16
VIN
p10380
sbag5
(g6
g7
(lp10381
g5
(g6
g7
(lp10382
Vthe
p10383
atp10384
Rp10385
(dp10386
g16
VDT
p10387
sbag5
(g6
g7
(lp10388
Vtime
p10389
atp10390
Rp10391
(dp10392
g16
VNN
p10393
sbatp10394
Rp10395
(dp10396
g16
VNP
p10397
sbatp10398
Rp10399
(dp10400
g16
VPP
p10401
sbag5
(g6
g7
(lp10402
g5
(g6
g7
(lp10403
Vthe
p10404
atp10405
Rp10406
(dp10407
g16
VDT
p10408
sbag5
(g6
g7
(lp10409
Vpromised
p10410
atp10411
Rp10412
(dp10413
g16
VJJ
p10414
sbag5
(g6
g7
(lp10415
Vend-to-end
p10416
atp10417
Rp10418
(dp10419
g16
VJJ
p10420
sbag5
(g6
g7
(lp10421
Vgigabit
p10422
atp10423
Rp10424
(dp10425
g16
VNN
p10426
sbag5
(g6
g7
(lp10427
VNGI
p10428
atp10429
Rp10430
(dp10431
g16
VNN
p10432
sbatp10433
Rp10434
(dp10435
g16
VNP
p10436
sbag5
(g6
g7
(lp10437
g5
(g6
g7
(lp10438
Varrives
p10439
atp10440
Rp10441
(dp10442
g16
VVBZ
p10443
sbatp10444
Rp10445
(dp10446
g16
VVP
p10447
sbatp10448
Rp10449
(dp10450
g16
g135
sbatp10451
Rp10452
(dp10453
g16
VSBAR
p10454
sbatp10455
Rp10456
(dp10457
g16
VVP
p10458
sbatp10459
Rp10460
(dp10461
g16
g135
sbag5
(g6
g7
(lp10462
g76
atp10463
Rp10464
(dp10465
g16
g76
sbag5
(g6
g7
(lp10466
g5
(g6
g7
(lp10467
Vwe
p10468
atp10469
Rp10470
(dp10471
g16
VPRP
p10472
sbatp10473
Rp10474
(dp10475
g16
VNP
p10476
sbag5
(g6
g7
(lp10477
g5
(g6
g7
(lp10478
g5
(g6
g7
(lp10479
Vwill
p10480
atp10481
Rp10482
(dp10483
g16
VMD
p10484
sbag5
(g6
g7
(lp10485
g5
(g6
g7
(lp10486
Vbe
p10487
atp10488
Rp10489
(dp10490
g16
VVB
p10491
sbag5
(g6
g7
(lp10492
g5
(g6
g7
(lp10493
Vmoving
p10494
atp10495
Rp10496
(dp10497
g16
VVBG
p10498
sbag5
(g6
g7
(lp10499
g5
(g6
g7
(lp10500
Vpetabyte
p10501
atp10502
Rp10503
(dp10504
g16
VJJ
p10505
sbag5
(g6
g7
(lp10506
Vscale
p10507
atp10508
Rp10509
(dp10510
g16
VNN
p10511
sbag5
(g6
g7
(lp10512
Vdatasets
p10513
atp10514
Rp10515
(dp10516
g16
VNNS
p10517
sbatp10518
Rp10519
(dp10520
g16
VNP
p10521
sbatp10522
Rp10523
(dp10524
g16
VVP
p10525
sbatp10526
Rp10527
(dp10528
g16
VVP
p10529
sbatp10530
Rp10531
(dp10532
g16
VVP
p10533
sbag5
(g6
g7
(lp10534
Vand
p10535
atp10536
Rp10537
(dp10538
g16
VCC
p10539
sbag5
(g6
g7
(lp10540
g5
(g6
g7
(lp10541
g5
(g6
g7
(lp10542
Vso
p10543
atp10544
Rp10545
(dp10546
g16
VRB
p10547
sbatp10548
Rp10549
(dp10550
g16
VADVP
p10551
sbag5
(g6
g7
(lp10552
Vwill
p10553
atp10554
Rp10555
(dp10556
g16
VMD
p10557
sbag5
(g6
g7
(lp10558
g5
(g6
g7
(lp10559
Vstill
p10560
atp10561
Rp10562
(dp10563
g16
VRB
p10564
sbatp10565
Rp10566
(dp10567
g16
VADVP
p10568
sbag5
(g6
g7
(lp10569
g5
(g6
g7
(lp10570
Vneed
p10571
atp10572
Rp10573
(dp10574
g16
VVB
p10575
sbag5
(g6
g7
(lp10576
g5
(g6
g7
(lp10577
g258
atp10578
Rp10579
(dp10580
g16
VDT
p10581
sbag5
(g6
g7
(lp10582
Vsneaker
p10583
atp10584
Rp10585
(dp10586
g16
VJJ
p10587
sbag5
(g6
g7
(lp10588
Vnet
p10589
atp10590
Rp10591
(dp10592
g16
VJJ
p10593
sbag5
(g6
g7
(lp10594
Vsolution
p10595
atp10596
Rp10597
(dp10598
g16
VNN
p10599
sbatp10600
Rp10601
(dp10602
g16
VNP
p10603
sbatp10604
Rp10605
(dp10606
g16
VVP
p10607
sbatp10608
Rp10609
(dp10610
g16
VVP
p10611
sbatp10612
Rp10613
(dp10614
g16
VVP
p10615
sbag5
(g6
g7
(lp10616
g473
atp10617
Rp10618
(dp10619
g16
g473
sbatp10620
Rp10621
(dp10622
g16
g135
sbatp10623
Rp10624
(dp10625
g16
VROOT
p10626
sbasg484
(icmyPackage
CorE
p10627
(dp10628
g487
(lp10629
(I0
I0
tp10630
a(I0
I19
tp10631
asg491
g5
(g6
g7
(lp10632
g10460
ag10464
ag10474
ag10531
atp10633
Rp10634
(dp10635
g16
g496
sbsbsg497
(icmyPackage
CorE
p10636
(dp10637
g487
(lp10638
(I0
I22
tp10639
a(I0
I29
tp10640
asg491
g5
(g6
g7
(lp10641
g10555
ag10566
ag10605
ag10618
atp10642
Rp10643
(dp10644
g16
g496
sbsbsg507
g918
sg529
(lp10645
(icmyPackage
Sent
p10646
(dp10647
g533
I10
sg534
I36
sg535
S'We suspect that by the time the promised end-to-end gigabit NGI arrives, we will be moving petabyte scale datasets and so will still need a sneaker net solution.'
p10648
sg537
I0
sg538
I128
sg491
(lp10649
g10624
asbasba.