(lp0
(icmyPackage
CELink
p1
(dp2
S'PTreelst'
p3
(lp4
ccopy_reg
_reconstructor
p5
(cnltk.tree
Tree
p6
c__builtin__
list
p7
(lp8
g5
(g6
g7
(lp9
g5
(g6
g7
(lp10
g5
(g6
g7
(lp11
VThe
p12
atp13
Rp14
(dp15
S'_label'
p16
VDT
p17
sbag5
(g6
g7
(lp18
Vdata
p19
atp20
Rp21
(dp22
g16
VNNS
p23
sbatp24
Rp25
(dp26
g16
VNP
p27
sbag5
(g6
g7
(lp28
g5
(g6
g7
(lp29
Vshould
p30
atp31
Rp32
(dp33
g16
VMD
p34
sbag5
(g6
g7
(lp35
g5
(g6
g7
(lp36
Vbe
p37
atp38
Rp39
(dp40
g16
VVB
p41
sbag5
(g6
g7
(lp42
g5
(g6
g7
(lp43
Vaccessible
p44
atp45
Rp46
(dp47
g16
VJJ
p48
sbag5
(g6
g7
(lp49
g5
(g6
g7
(lp50
Vto
p51
atp52
Rp53
(dp54
g16
VTO
p55
sbag5
(g6
g7
(lp56
g5
(g6
g7
(lp57
Vscientists
p58
atp59
Rp60
(dp61
g16
VNNS
p62
sbag5
(g6
g7
(lp63
Vand
p64
atp65
Rp66
(dp67
g16
VCC
p68
sbag5
(g6
g7
(lp69
Veducators
p70
atp71
Rp72
(dp73
g16
VNNS
p74
sbatp75
Rp76
(dp77
g16
VNP
p78
sbatp79
Rp80
(dp81
g16
VPP
p82
sbatp83
Rp84
(dp85
g16
VADJP
p86
sbag5
(g6
g7
(lp87
g5
(g6
g7
(lp88
Vso
p89
atp90
Rp91
(dp92
g16
VRB
p93
sbag5
(g6
g7
(lp94
Vthat
p95
atp96
Rp97
(dp98
g16
VIN
p99
sbag5
(g6
g7
(lp100
g5
(g6
g7
(lp101
g5
(g6
g7
(lp102
g5
(g6
g7
(lp103
Vthe
p104
atp105
Rp106
(dp107
g16
VDT
p108
sbag5
(g6
g7
(lp109
Vgap
p110
atp111
Rp112
(dp113
g16
VNN
p114
sbatp115
Rp116
(dp117
g16
VNP
p118
sbag5
(g6
g7
(lp119
g5
(g6
g7
(lp120
Vbetween
p121
atp122
Rp123
(dp124
g16
VIN
p125
sbag5
(g6
g7
(lp126
g5
(g6
g7
(lp127
g5
(g6
g7
(lp128
Vcutting-edge
p129
atp130
Rp131
(dp132
g16
VJJ
p133
sbag5
(g6
g7
(lp134
Vresearch
p135
atp136
Rp137
(dp138
g16
VNN
p139
sbag5
(g6
g7
(lp140
Vand
p141
atp142
Rp143
(dp144
g16
VCC
p145
sbag5
(g6
g7
(lp146
Veducation
p147
atp148
Rp149
(dp150
g16
VNN
p151
sbatp152
Rp153
(dp154
g16
VNP
p155
sbag5
(g6
g7
(lp156
Vand
p157
atp158
Rp159
(dp160
g16
VCC
p161
sbag5
(g6
g7
(lp162
g5
(g6
g7
(lp163
Vpublic
p164
atp165
Rp166
(dp167
g16
VJJ
p168
sbag5
(g6
g7
(lp169
Vknowledge
p170
atp171
Rp172
(dp173
g16
VNN
p174
sbatp175
Rp176
(dp177
g16
VNP
p178
sbatp179
Rp180
(dp181
g16
VNP
p182
sbatp183
Rp184
(dp185
g16
VPP
p186
sbatp187
Rp188
(dp189
g16
VNP
p190
sbag5
(g6
g7
(lp191
g5
(g6
g7
(lp192
g5
(g6
g7
(lp193
Vis
p194
atp195
Rp196
(dp197
g16
VVBZ
p198
sbag5
(g6
g7
(lp199
g5
(g6
g7
(lp200
Vminimized
p201
atp202
Rp203
(dp204
g16
VVBN
p205
sbatp206
Rp207
(dp208
g16
VVP
p209
sbatp210
Rp211
(dp212
g16
VVP
p213
sbag5
(g6
g7
(lp214
Vand
p215
atp216
Rp217
(dp218
g16
VCC
p219
sbag5
(g6
g7
(lp220
g5
(g6
g7
(lp221
Vshould
p222
atp223
Rp224
(dp225
g16
VMD
p226
sbag5
(g6
g7
(lp227
g5
(g6
g7
(lp228
Vbe
p229
atp230
Rp231
(dp232
g16
VVB
p233
sbag5
(g6
g7
(lp234
g5
(g6
g7
(lp235
Vpresented
p236
atp237
Rp238
(dp239
g16
VVBN
p240
sbag5
(g6
g7
(lp241
g5
(g6
g7
(lp242
Vin
p243
atp244
Rp245
(dp246
g16
VIN
p247
sbag5
(g6
g7
(lp248
g5
(g6
g7
(lp249
g5
(g6
g7
(lp250
Va
p251
atp252
Rp253
(dp254
g16
VDT
p255
sbag5
(g6
g7
(lp256
Vform
p257
atp258
Rp259
(dp260
g16
VNN
p261
sbatp262
Rp263
(dp264
g16
VNP
p265
sbag5
(g6
g7
(lp266
g5
(g6
g7
(lp267
g5
(g6
g7
(lp268
Vthat
p269
atp270
Rp271
(dp272
g16
VWDT
p273
sbatp274
Rp275
(dp276
g16
VWHNP
p277
sbag5
(g6
g7
(lp278
g5
(g6
g7
(lp279
g5
(g6
g7
(lp280
Vwill
p281
atp282
Rp283
(dp284
g16
VMD
p285
sbag5
(g6
g7
(lp286
g5
(g6
g7
(lp287
Vfacilitate
p288
atp289
Rp290
(dp291
g16
VVB
p292
sbag5
(g6
g7
(lp293
g5
(g6
g7
(lp294
Vintegrative
p295
atp296
Rp297
(dp298
g16
VJJ
p299
sbag5
(g6
g7
(lp300
Vresearch
p301
atp302
Rp303
(dp304
g16
VNN
p305
sbatp306
Rp307
(dp308
g16
VNP
p309
sbatp310
Rp311
(dp312
g16
VVP
p313
sbatp314
Rp315
(dp316
g16
VVP
p317
sbatp318
Rp319
(dp320
g16
VS
p321
sbatp322
Rp323
(dp324
g16
VSBAR
p325
sbatp326
Rp327
(dp328
g16
VNP
p329
sbatp330
Rp331
(dp332
g16
VPP
p333
sbatp334
Rp335
(dp336
g16
VVP
p337
sbatp338
Rp339
(dp340
g16
VVP
p341
sbatp342
Rp343
(dp344
g16
VVP
p345
sbatp346
Rp347
(dp348
g16
VVP
p349
sbatp350
Rp351
(dp352
g16
g321
sbatp353
Rp354
(dp355
g16
VSBAR
p356
sbatp357
Rp358
(dp359
g16
VVP
p360
sbatp361
Rp362
(dp363
g16
VVP
p364
sbag5
(g6
g7
(lp365
V.
p366
atp367
Rp368
(dp369
g16
g366
sbatp370
Rp371
(dp372
g16
g321
sbatp373
Rp374
(dp375
g16
VROOT
p376
sbasS'cause'
p377
(icmyPackage
CorE
p378
(dp379
S'span'
p380
(lp381
(I0
I0
tp382
a(I0
I8
tp383
asS'PTree'
p384
g5
(g6
g7
(lp385
g25
ag32
ag39
ag84
atp386
Rp387
(dp388
g16
S'ROOT'
p389
sbsbsS'effect'
p390
(icmyPackage
CorE
p391
(dp392
g380
(lp393
(I0
I11
tp394
a(I0
I35
tp395
asg384
g5
(g6
g7
(lp396
g351
ag368
atp397
Rp398
(dp399
g16
g389
sbsbsS'pt'
p400
(icmyPackage
pattern
p401
(dp402
S'pfreq'
p403
I45
sS'moresent'
p404
I0
sS'main_token'
p405
(lp406
(lp407
S'so'
p408
aS'that'
p409
aasS'ptype'
p410
(lp411
I3
aI1
aI1
asS'cases'
p412
(lp413
S'The teacher then decided to ask him some very easy questions so that he could get a few right.'
p414
asS'id'
p415
I77
sS'constraints'
p416
(lp417
(lp418
S'&C'
p419
aa(lp420
S'&R'
p421
aasbsS'sInfo'
p422
(lp423
(icmyPackage
Sent
p424
(dp425
S'Ctag'
p426
I1
sS'Ptag'
p427
I1
sS'text'
p428
S'The data should be accessible to scientists and educators so that the gap between cutting-edge research and education and public knowledge is minimized and should be presented in a form that will facilitate integrative research.'
p429
sS'SCtag'
p430
I0
sS'Stag'
p431
I6
sg384
(lp432
g374
asbasba(icmyPackage
CELink
p433
(dp434
g3
(lp435
g5
(g6
g7
(lp436
g5
(g6
g7
(lp437
g5
(g6
g7
(lp438
g5
(g6
g7
(lp439
VHere
p440
atp441
Rp442
(dp443
g16
VRB
p444
sbatp445
Rp446
(dp447
g16
VADVP
p448
sbag5
(g6
g7
(lp449
g5
(g6
g7
(lp450
Vwe
p451
atp452
Rp453
(dp454
g16
VPRP
p455
sbatp456
Rp457
(dp458
g16
VNP
p459
sbag5
(g6
g7
(lp460
g5
(g6
g7
(lp461
Vdescribe
p462
atp463
Rp464
(dp465
g16
VVBP
p466
sbag5
(g6
g7
(lp467
g5
(g6
g7
(lp468
g5
(g6
g7
(lp469
g251
atp470
Rp471
(dp472
g16
VDT
p473
sbag5
(g6
g7
(lp474
Vplan
p475
atp476
Rp477
(dp478
g16
VNN
p479
sbatp480
Rp481
(dp482
g16
VNP
p483
sbag5
(g6
g7
(lp484
g5
(g6
g7
(lp485
Vto
p486
atp487
Rp488
(dp489
g16
VTO
p490
sbag5
(g6
g7
(lp491
g5
(g6
g7
(lp492
Vdevelop
p493
atp494
Rp495
(dp496
g16
VVB
p497
sbag5
(g6
g7
(lp498
g5
(g6
g7
(lp499
g5
(g6
g7
(lp500
Van
p501
atp502
Rp503
(dp504
g16
VDT
p505
sbag5
(g6
g7
(lp506
VInternet
p507
atp508
Rp509
(dp510
g16
VNN
p511
sbag5
(g6
g7
(lp512
Vdata
p513
atp514
Rp515
(dp516
g16
VNNS
p517
sbag5
(g6
g7
(lp518
Vresource
p519
atp520
Rp521
(dp522
g16
VNN
p523
sbatp524
Rp525
(dp526
g16
VNP
p527
sbag5
(g6
g7
(lp528
g5
(g6
g7
(lp529
Vin
p530
atp531
Rp532
(dp533
g16
VIN
p534
sbag5
(g6
g7
(lp535
g5
(g6
g7
(lp536
Vastronomy
p537
atp538
Rp539
(dp540
g16
VNN
p541
sbatp542
Rp543
(dp544
g16
VNP
p545
sbatp546
Rp547
(dp548
g16
VPP
p549
sbatp550
Rp551
(dp552
g16
VNP
p553
sbag5
(g6
g7
(lp554
g5
(g6
g7
(lp555
g5
(g6
g7
(lp556
Vto
p557
atp558
Rp559
(dp560
g16
VTO
p561
sbag5
(g6
g7
(lp562
g5
(g6
g7
(lp563
Vhelp
p564
atp565
Rp566
(dp567
g16
VNN
p568
sbag5
(g6
g7
(lp569
Vaddress
p570
atp571
Rp572
(dp573
g16
VVB
p574
sbag5
(g6
g7
(lp575
g5
(g6
g7
(lp576
g5
(g6
g7
(lp577
Vthis
p578
atp579
Rp580
(dp581
g16
VDT
p582
sbag5
(g6
g7
(lp583
Vproblem
p584
atp585
Rp586
(dp587
g16
VNN
p588
sbatp589
Rp590
(dp591
g16
VNP
p592
sbag5
(g6
g7
(lp593
g5
(g6
g7
(lp594
g5
(g6
g7
(lp595
Vin
p596
atp597
Rp598
(dp599
g16
VIN
p600
sbag5
(g6
g7
(lp601
g5
(g6
g7
(lp602
Vwhich
p603
atp604
Rp605
(dp606
g16
VWDT
p607
sbatp608
Rp609
(dp610
g16
VWHNP
p611
sbatp612
Rp613
(dp614
g16
VWHPP
p615
sbag5
(g6
g7
(lp616
g5
(g6
g7
(lp617
V,
p618
atp619
Rp620
(dp621
g16
g618
sbag5
(g6
g7
(lp622
g5
(g6
g7
(lp623
Vbecause
p624
atp625
Rp626
(dp627
g16
VRB
p628
sbag5
(g6
g7
(lp629
Vof
p630
atp631
Rp632
(dp633
g16
VIN
p634
sbag5
(g6
g7
(lp635
g5
(g6
g7
(lp636
g5
(g6
g7
(lp637
Vthe
p638
atp639
Rp640
(dp641
g16
VDT
p642
sbag5
(g6
g7
(lp643
Vnature
p644
atp645
Rp646
(dp647
g16
VNN
p648
sbatp649
Rp650
(dp651
g16
VNP
p652
sbag5
(g6
g7
(lp653
g5
(g6
g7
(lp654
Vof
p655
atp656
Rp657
(dp658
g16
VIN
p659
sbag5
(g6
g7
(lp660
g5
(g6
g7
(lp661
g5
(g6
g7
(lp662
Vthe
p663
atp664
Rp665
(dp666
g16
VDT
p667
sbag5
(g6
g7
(lp668
Vdata
p669
atp670
Rp671
(dp672
g16
VNNS
p673
sbag5
(g6
g7
(lp674
Vand
p675
atp676
Rp677
(dp678
g16
VCC
p679
sbag5
(g6
g7
(lp680
Vanalyses
p681
atp682
Rp683
(dp684
g16
VNNS
p685
sbatp686
Rp687
(dp688
g16
VNP
p689
sbag5
(g6
g7
(lp690
g5
(g6
g7
(lp691
Vrequired
p692
atp693
Rp694
(dp695
g16
VVBN
p696
sbag5
(g6
g7
(lp697
g5
(g6
g7
(lp698
Vof
p699
atp700
Rp701
(dp702
g16
VIN
p703
sbag5
(g6
g7
(lp704
g5
(g6
g7
(lp705
Vthem
p706
atp707
Rp708
(dp709
g16
VPRP
p710
sbatp711
Rp712
(dp713
g16
VNP
p714
sbatp715
Rp716
(dp717
g16
VPP
p718
sbatp719
Rp720
(dp721
g16
VVP
p722
sbatp723
Rp724
(dp725
g16
VNP
p726
sbatp727
Rp728
(dp729
g16
VPP
p730
sbatp731
Rp732
(dp733
g16
VNP
p734
sbatp735
Rp736
(dp737
g16
VPP
p738
sbag5
(g6
g7
(lp739
g618
atp740
Rp741
(dp742
g16
g618
sbatp743
Rp744
(dp745
g16
VPRN
p746
sbag5
(g6
g7
(lp747
g5
(g6
g7
(lp748
g5
(g6
g7
(lp749
Vthe
p750
atp751
Rp752
(dp753
g16
VDT
p754
sbag5
(g6
g7
(lp755
Vdata
p756
atp757
Rp758
(dp759
g16
VNNS
p760
sbatp761
Rp762
(dp763
g16
VNP
p764
sbag5
(g6
g7
(lp765
g5
(g6
g7
(lp766
Vremain
p767
atp768
Rp769
(dp770
g16
VVBP
p771
sbag5
(g6
g7
(lp772
g5
(g6
g7
(lp773
Vwidely
p774
atp775
Rp776
(dp777
g16
VRB
p778
sbatp779
Rp780
(dp781
g16
VADVP
p782
sbag5
(g6
g7
(lp783
g5
(g6
g7
(lp784
Vdistributed
p785
atp786
Rp787
(dp788
g16
VVBN
p789
sbag5
(g6
g7
(lp790
g5
(g6
g7
(lp791
Vrather
p792
atp793
Rp794
(dp795
g16
VRB
p796
sbag5
(g6
g7
(lp797
Vthan
p798
atp799
Rp800
(dp801
g16
VIN
p802
sbatp803
Rp804
(dp805
g16
VCONJP
p806
sbag5
(g6
g7
(lp807
Vgathered
p808
atp809
Rp810
(dp811
g16
VVBN
p812
sbatp813
Rp814
(dp815
g16
VVP
p816
sbatp817
Rp818
(dp819
g16
VVP
p820
sbatp821
Rp822
(dp823
g16
g321
sbatp824
Rp825
(dp826
g16
VSBAR
p827
sbatp828
Rp829
(dp830
g16
VNP
p831
sbag5
(g6
g7
(lp832
g5
(g6
g7
(lp833
Vin
p834
atp835
Rp836
(dp837
g16
VIN
p838
sbag5
(g6
g7
(lp839
g5
(g6
g7
(lp840
g5
(g6
g7
(lp841
Vone
p842
atp843
Rp844
(dp845
g16
VCD
p846
sbatp847
Rp848
(dp849
g16
VNP
p850
sbag5
(g6
g7
(lp851
Vor
p852
atp853
Rp854
(dp855
g16
VCC
p856
sbag5
(g6
g7
(lp857
g5
(g6
g7
(lp858
g5
(g6
g7
(lp859
g251
atp860
Rp861
(dp862
g16
VDT
p863
sbag5
(g6
g7
(lp864
Vfew
p865
atp866
Rp867
(dp868
g16
VJJ
p869
sbag5
(g6
g7
(lp870
Vdatabases
p871
atp872
Rp873
(dp874
g16
VNNS
p875
sbatp876
Rp877
(dp878
g16
VNP
p879
sbag5
(g6
g7
(lp880
g5
(g6
g7
(lp881
V-LRB-
p882
atp883
Rp884
(dp885
g16
V-LRB-
p886
sbag5
(g6
g7
(lp887
g5
(g6
g7
(lp888
Ve.g.
p889
atp890
Rp891
(dp892
g16
VNNP
p893
sbatp894
Rp895
(dp896
g16
VNP
p897
sbag5
(g6
g7
(lp898
g618
atp899
Rp900
(dp901
g16
g618
sbag5
(g6
g7
(lp902
g5
(g6
g7
(lp903
VGenBank
p904
atp905
Rp906
(dp907
g16
VNNP
p908
sbatp909
Rp910
(dp911
g16
VNP
p912
sbag5
(g6
g7
(lp913
V-RRB-
p914
atp915
Rp916
(dp917
g16
V-RRB-
p918
sbatp919
Rp920
(dp921
g16
VPRN
p922
sbatp923
Rp924
(dp925
g16
VNP
p926
sbatp927
Rp928
(dp929
g16
VNP
p930
sbatp931
Rp932
(dp933
g16
VPP
p934
sbatp935
Rp936
(dp937
g16
VVP
p938
sbatp939
Rp940
(dp941
g16
VVP
p942
sbatp943
Rp944
(dp945
g16
g321
sbatp946
Rp947
(dp948
g16
VVP
p949
sbatp950
Rp951
(dp952
g16
VVP
p953
sbatp954
Rp955
(dp956
g16
g321
sbatp957
Rp958
(dp959
g16
VVP
p960
sbag5
(g6
g7
(lp961
g366
atp962
Rp963
(dp964
g16
g366
sbatp965
Rp966
(dp967
g16
g321
sbatp968
Rp969
(dp970
g16
VROOT
p971
sbasg377
(icmyPackage
CorE
p972
(dp973
g380
(lp974
(I0
I22
tp975
a(I0
I31
tp976
asg384
g5
(g6
g7
(lp977
g632
ag650
ag657
ag687
ag694
ag701
atp978
Rp979
(dp980
g16
g389
sbsbsg390
(icmyPackage
CorE
p981
(dp982
g380
(lp983
(I0
I34
tp984
a(I0
I41
tp985
asg384
g822
sbsg400
(icmyPackage
pattern
p986
(dp987
g403
I18
sg404
I0
sg405
(lp988
(lp989
S'because'
p990
aa(lp991
S','
p992
aasg410
(lp993
I3
aI1
aI1
asg412
(lp994
S'Because he was absent for two weeks, the other students in his class are ahead of him.'
p995
asg415
I75
sg416
(lp996
(lp997
a(lp998
S'&C'
p999
aa(lp1000
S'&R'
p1001
aasbsg422
(lp1002
(icmyPackage
Sent
p1003
(dp1004
g426
I1
sg427
I1
sg428
S'Here we describe a plan to develop an Internet data resource in astronomy to help address this problem in which, because of the nature of the data and analyses required of them, the data remain widely distributed rather than gathered in one or a few databases (e.g., GenBank).'
p1005
sg430
I0
sg431
I9
sg384
(lp1006
g969
asbasba(icmyPackage
CELink
p1007
(dp1008
g3
(lp1009
g5
(g6
g7
(lp1010
g5
(g6
g7
(lp1011
g5
(g6
g7
(lp1012
g5
(g6
g7
(lp1013
VA
p1014
atp1015
Rp1016
(dp1017
g16
VDT
p1018
sbag5
(g6
g7
(lp1019
Vyoung
p1020
atp1021
Rp1022
(dp1023
g16
VJJ
p1024
sbag5
(g6
g7
(lp1025
Vspiral
p1026
atp1027
Rp1028
(dp1029
g16
VNN
p1030
sbag5
(g6
g7
(lp1031
Vgalaxy
p1032
atp1033
Rp1034
(dp1035
g16
VNN
p1036
sbatp1037
Rp1038
(dp1039
g16
VNP
p1040
sbag5
(g6
g7
(lp1041
g5
(g6
g7
(lp1042
Vappears
p1043
atp1044
Rp1045
(dp1046
g16
VVBZ
p1047
sbag5
(g6
g7
(lp1048
g5
(g6
g7
(lp1049
Vas
p1050
atp1051
Rp1052
(dp1053
g16
VIN
p1054
sbag5
(g6
g7
(lp1055
g5
(g6
g7
(lp1056
g5
(g6
g7
(lp1057
Vmany
p1058
atp1059
Rp1060
(dp1061
g16
VDT
p1062
sbatp1063
Rp1064
(dp1065
g16
VNP
p1066
sbag5
(g6
g7
(lp1067
g5
(g6
g7
(lp1068
Vconcentrated
p1069
atp1070
Rp1071
(dp1072
g16
VVBD
p1073
sbag5
(g6
g7
(lp1074
g5
(g6
g7
(lp1075
V``
p1076
atp1077
Rp1078
(dp1079
g16
V``
p1080
sbag5
(g6
g7
(lp1081
g5
(g6
g7
(lp1082
Vblobs
p1083
atp1084
Rp1085
(dp1086
g16
VNNS
p1087
sbatp1088
Rp1089
(dp1090
g16
VNP
p1091
sbag5
(g6
g7
(lp1092
g618
atp1093
Rp1094
(dp1095
g16
g618
sbag5
(g6
g7
(lp1096
V''
p1097
atp1098
Rp1099
(dp1100
g16
V''
p1101
sbag5
(g6
g7
(lp1102
g5
(g6
g7
(lp1103
g5
(g6
g7
(lp1104
Vthe
p1105
atp1106
Rp1107
(dp1108
g16
VDT
p1109
sbag5
(g6
g7
(lp1110
Vso-called
p1111
atp1112
Rp1113
(dp1114
g16
VJJ
p1115
sbag5
(g6
g7
(lp1116
VHII
p1117
atp1118
Rp1119
(dp1120
g16
VNNP
p1121
sbag5
(g6
g7
(lp1122
Vregions
p1123
atp1124
Rp1125
(dp1126
g16
VNNS
p1127
sbatp1128
Rp1129
(dp1130
g16
VNP
p1131
sbag5
(g6
g7
(lp1132
g5
(g6
g7
(lp1133
Vin
p1134
atp1135
Rp1136
(dp1137
g16
VIN
p1138
sbag5
(g6
g7
(lp1139
g5
(g6
g7
(lp1140
g5
(g6
g7
(lp1141
Vthe
p1142
atp1143
Rp1144
(dp1145
g16
VDT
p1146
sbag5
(g6
g7
(lp1147
Vultraviolet
p1148
atp1149
Rp1150
(dp1151
g16
VNN
p1152
sbatp1153
Rp1154
(dp1155
g16
VNP
p1156
sbag5
(g6
g7
(lp1157
g618
atp1158
Rp1159
(dp1160
g16
g618
sbag5
(g6
g7
(lp1161
g5
(g6
g7
(lp1162
Vwhereas
p1163
atp1164
Rp1165
(dp1166
g16
VIN
p1167
sbag5
(g6
g7
(lp1168
g5
(g6
g7
(lp1169
g5
(g6
g7
(lp1170
Vin
p1171
atp1172
Rp1173
(dp1174
g16
VIN
p1175
sbag5
(g6
g7
(lp1176
g5
(g6
g7
(lp1177
Vthe
p1178
atp1179
Rp1180
(dp1181
g16
VDT
p1182
sbag5
(g6
g7
(lp1183
Voptical
p1184
atp1185
Rp1186
(dp1187
g16
VJJ
p1188
sbatp1189
Rp1190
(dp1191
g16
VNP
p1192
sbatp1193
Rp1194
(dp1195
g16
VPP
p1196
sbag5
(g6
g7
(lp1197
g5
(g6
g7
(lp1198
Vit
p1199
atp1200
Rp1201
(dp1202
g16
VPRP
p1203
sbatp1204
Rp1205
(dp1206
g16
VNP
p1207
sbag5
(g6
g7
(lp1208
g5
(g6
g7
(lp1209
Vappears
p1210
atp1211
Rp1212
(dp1213
g16
VVBZ
p1214
sbag5
(g6
g7
(lp1215
g5
(g6
g7
(lp1216
Vas
p1217
atp1218
Rp1219
(dp1220
g16
VIN
p1221
sbag5
(g6
g7
(lp1222
g5
(g6
g7
(lp1223
Vsmooth
p1224
atp1225
Rp1226
(dp1227
g16
VJJ
p1228
sbag5
(g6
g7
(lp1229
Vspiral
p1230
atp1231
Rp1232
(dp1233
g16
VNN
p1234
sbag5
(g6
g7
(lp1235
Varms
p1236
atp1237
Rp1238
(dp1239
g16
VNNS
p1240
sbatp1241
Rp1242
(dp1243
g16
VNP
p1244
sbatp1245
Rp1246
(dp1247
g16
VPP
p1248
sbatp1249
Rp1250
(dp1251
g16
VVP
p1252
sbatp1253
Rp1254
(dp1255
g16
g321
sbatp1256
Rp1257
(dp1258
g16
VSBAR
p1259
sbatp1260
Rp1261
(dp1262
g16
VNP
p1263
sbatp1264
Rp1265
(dp1266
g16
VPP
p1267
sbatp1268
Rp1269
(dp1270
g16
VNP
p1271
sbatp1272
Rp1273
(dp1274
g16
VNP
p1275
sbatp1276
Rp1277
(dp1278
g16
VVP
p1279
sbatp1280
Rp1281
(dp1282
g16
g321
sbatp1283
Rp1284
(dp1285
g16
VSBAR
p1286
sbatp1287
Rp1288
(dp1289
g16
VVP
p1290
sbag5
(g6
g7
(lp1291
g366
atp1292
Rp1293
(dp1294
g16
g366
sbatp1295
Rp1296
(dp1297
g16
g321
sbatp1298
Rp1299
(dp1300
g16
VROOT
p1301
sbasg377
(icmyPackage
CorE
p1302
(dp1303
g380
(lp1304
(I0
I6
tp1305
a(I0
I30
tp1306
asg384
g5
(g6
g7
(lp1307
g1281
ag1293
atp1308
Rp1309
(dp1310
g16
g389
sbsbsg390
(icmyPackage
CorE
p1311
(dp1312
g380
(lp1313
(I0
I0
tp1314
a(I0
I4
tp1315
asg384
g5
(g6
g7
(lp1316
g1038
ag1045
atp1317
Rp1318
(dp1319
g16
g389
sbsbsg400
(icmyPackage
pattern
p1320
(dp1321
g403
I26
sg404
I1
sg405
(lp1322
(lp1323
S'as'
p1324
aasg410
(lp1325
I3
aI1
aI1
asg412
(lp1326
S'You do not need to worry about the operation, as the software is very easy to use.'
p1327
asg415
I80
sg416
(lp1328
(lp1329
S'&R@Complete@'
p1330
aS'(,)'
p1331
aS'(-such/-same/-seem/-regard/-regards/-regarded/-view/-views/-viewed/-denote/-denoted/-denotes)'
p1332
aa(lp1333
S'(-if/-follow/-follows/-&adv)'
p1334
aS'&C@Complete@'
p1335
aasbsg422
(lp1336
(icmyPackage
Sent
p1337
(dp1338
g426
I1
sg427
I4
sg428
S'A young spiral galaxy appears as many concentrated "blobs," the so-called HII regions in the ultraviolet, whereas in the optical it appears as smooth spiral arms.'
p1339
sg430
I0
sg431
I31
sg384
(lp1340
g1299
asbasba(icmyPackage
CELink
p1341
(dp1342
g3
(lp1343
g5
(g6
g7
(lp1344
g5
(g6
g7
(lp1345
g5
(g6
g7
(lp1346
g5
(g6
g7
(lp1347
g5
(g6
g7
(lp1348
VThe
p1349
atp1350
Rp1351
(dp1352
g16
VDT
p1353
sbag5
(g6
g7
(lp1354
Vphysical
p1355
atp1356
Rp1357
(dp1358
g16
VJJ
p1359
sbag5
(g6
g7
(lp1360
Vprocesses
p1361
atp1362
Rp1363
(dp1364
g16
VNNS
p1365
sbatp1366
Rp1367
(dp1368
g16
VNP
p1369
sbag5
(g6
g7
(lp1370
g5
(g6
g7
(lp1371
Vinside
p1372
atp1373
Rp1374
(dp1375
g16
VIN
p1376
sbag5
(g6
g7
(lp1377
g5
(g6
g7
(lp1378
Vthese
p1379
atp1380
Rp1381
(dp1382
g16
VDT
p1383
sbag5
(g6
g7
(lp1384
Vobjects
p1385
atp1386
Rp1387
(dp1388
g16
VNNS
p1389
sbatp1390
Rp1391
(dp1392
g16
VNP
p1393
sbatp1394
Rp1395
(dp1396
g16
VPP
p1397
sbatp1398
Rp1399
(dp1400
g16
VNP
p1401
sbag5
(g6
g7
(lp1402
g5
(g6
g7
(lp1403
Vcan
p1404
atp1405
Rp1406
(dp1407
g16
VMD
p1408
sbag5
(g6
g7
(lp1409
g5
(g6
g7
(lp1410
Vonly
p1411
atp1412
Rp1413
(dp1414
g16
VRB
p1415
sbatp1416
Rp1417
(dp1418
g16
VADVP
p1419
sbag5
(g6
g7
(lp1420
g5
(g6
g7
(lp1421
Vbe
p1422
atp1423
Rp1424
(dp1425
g16
VVB
p1426
sbag5
(g6
g7
(lp1427
g5
(g6
g7
(lp1428
Vunderstood
p1429
atp1430
Rp1431
(dp1432
g16
VVBN
p1433
sbag5
(g6
g7
(lp1434
g5
(g6
g7
(lp1435
Vby
p1436
atp1437
Rp1438
(dp1439
g16
VIN
p1440
sbag5
(g6
g7
(lp1441
g5
(g6
g7
(lp1442
g5
(g6
g7
(lp1443
Vcombining
p1444
atp1445
Rp1446
(dp1447
g16
VVBG
p1448
sbag5
(g6
g7
(lp1449
g5
(g6
g7
(lp1450
Vobservations
p1451
atp1452
Rp1453
(dp1454
g16
VNNS
p1455
sbatp1456
Rp1457
(dp1458
g16
VNP
p1459
sbag5
(g6
g7
(lp1460
g5
(g6
g7
(lp1461
Vat
p1462
atp1463
Rp1464
(dp1465
g16
VIN
p1466
sbag5
(g6
g7
(lp1467
g5
(g6
g7
(lp1468
Vseveral
p1469
atp1470
Rp1471
(dp1472
g16
VJJ
p1473
sbag5
(g6
g7
(lp1474
Vwavelengths
p1475
atp1476
Rp1477
(dp1478
g16
VNNS
p1479
sbatp1480
Rp1481
(dp1482
g16
VNP
p1483
sbatp1484
Rp1485
(dp1486
g16
VPP
p1487
sbatp1488
Rp1489
(dp1490
g16
VVP
p1491
sbatp1492
Rp1493
(dp1494
g16
g321
sbatp1495
Rp1496
(dp1497
g16
VPP
p1498
sbatp1499
Rp1500
(dp1501
g16
VVP
p1502
sbatp1503
Rp1504
(dp1505
g16
VVP
p1506
sbatp1507
Rp1508
(dp1509
g16
VVP
p1510
sbag5
(g6
g7
(lp1511
g366
atp1512
Rp1513
(dp1514
g16
g366
sbatp1515
Rp1516
(dp1517
g16
g321
sbatp1518
Rp1519
(dp1520
g16
VROOT
p1521
sbasg377
(icmyPackage
CorE
p1522
(dp1523
g380
(lp1524
(I0
I11
tp1525
a(I0
I15
tp1526
asg384
g1493
sbsg390
(icmyPackage
CorE
p1527
(dp1528
g380
(lp1529
(I0
I0
tp1530
a(I0
I9
tp1531
asg384
g5
(g6
g7
(lp1532
g1399
ag1406
ag1417
ag1424
ag1431
atp1533
Rp1534
(dp1535
g16
g389
sbsbsg400
(icmyPackage
pattern
p1536
(dp1537
g403
I0
sg404
I0
sg405
(lp1538
(lp1539
(lp1540
S'by'
p1541
aS'through'
p1542
aaasg410
(lp1543
I2
aI1
aI1
asg412
(lp1544
S'The similar relation can be detected by analyzing the contents of nodes based on such approaches as the Latent Semantic Analysis (LSA) and the Vector Space Model (VSM)'
p1545
asg415
I68
sg416
(lp1546
(lp1547
S'&R@Complete@'
p1548
aa(lp1549
S'&V-ing@C@'
p1550
aasbsg422
(lp1551
(icmyPackage
Sent
p1552
(dp1553
g426
I1
sg427
I5
sg428
S'The physical processes inside these objects can only be understood by combining observations at several wavelengths.'
p1554
sg430
I0
sg431
I33
sg384
(lp1555
g1519
asbasba(icmyPackage
CELink
p1556
(dp1557
g3
(lp1558
g5
(g6
g7
(lp1559
g5
(g6
g7
(lp1560
g5
(g6
g7
(lp1561
g5
(g6
g7
(lp1562
VIn
p1563
atp1564
Rp1565
(dp1566
g16
VIN
p1567
sbag5
(g6
g7
(lp1568
g5
(g6
g7
(lp1569
Vmany
p1570
atp1571
Rp1572
(dp1573
g16
VJJ
p1574
sbag5
(g6
g7
(lp1575
Vother
p1576
atp1577
Rp1578
(dp1579
g16
VJJ
p1580
sbag5
(g6
g7
(lp1581
Vdisciplines
p1582
atp1583
Rp1584
(dp1585
g16
VNNS
p1586
sbatp1587
Rp1588
(dp1589
g16
VNP
p1590
sbatp1591
Rp1592
(dp1593
g16
VPP
p1594
sbag5
(g6
g7
(lp1595
g618
atp1596
Rp1597
(dp1598
g16
g618
sbag5
(g6
g7
(lp1599
g5
(g6
g7
(lp1600
Vonce
p1601
atp1602
Rp1603
(dp1604
g16
VIN
p1605
sbag5
(g6
g7
(lp1606
g5
(g6
g7
(lp1607
g5
(g6
g7
(lp1608
Vdata
p1609
atp1610
Rp1611
(dp1612
g16
VNNS
p1613
sbatp1614
Rp1615
(dp1616
g16
VNP
p1617
sbag5
(g6
g7
(lp1618
g5
(g6
g7
(lp1619
Vis
p1620
atp1621
Rp1622
(dp1623
g16
VVBZ
p1624
sbag5
(g6
g7
(lp1625
g5
(g6
g7
(lp1626
Vcollected
p1627
atp1628
Rp1629
(dp1630
g16
VVBN
p1631
sbatp1632
Rp1633
(dp1634
g16
VVP
p1635
sbatp1636
Rp1637
(dp1638
g16
VVP
p1639
sbatp1640
Rp1641
(dp1642
g16
g321
sbatp1643
Rp1644
(dp1645
g16
VSBAR
p1646
sbag5
(g6
g7
(lp1647
g618
atp1648
Rp1649
(dp1650
g16
g618
sbag5
(g6
g7
(lp1651
g5
(g6
g7
(lp1652
Vit
p1653
atp1654
Rp1655
(dp1656
g16
VPRP
p1657
sbatp1658
Rp1659
(dp1660
g16
VNP
p1661
sbag5
(g6
g7
(lp1662
g5
(g6
g7
(lp1663
Vcan
p1664
atp1665
Rp1666
(dp1667
g16
VMD
p1668
sbag5
(g6
g7
(lp1669
g5
(g6
g7
(lp1670
Vbe
p1671
atp1672
Rp1673
(dp1674
g16
VVB
p1675
sbag5
(g6
g7
(lp1676
g5
(g6
g7
(lp1677
Vfrozen
p1678
atp1679
Rp1680
(dp1681
g16
VVBN
p1682
sbag5
(g6
g7
(lp1683
Vand
p1684
atp1685
Rp1686
(dp1687
g16
VCC
p1688
sbag5
(g6
g7
(lp1689
Vdistributed
p1690
atp1691
Rp1692
(dp1693
g16
VVBN
p1694
sbag5
(g6
g7
(lp1695
g5
(g6
g7
(lp1696
Vto
p1697
atp1698
Rp1699
(dp1700
g16
VTO
p1701
sbag5
(g6
g7
(lp1702
g5
(g6
g7
(lp1703
Vother
p1704
atp1705
Rp1706
(dp1707
g16
VJJ
p1708
sbag5
(g6
g7
(lp1709
Vlocations
p1710
atp1711
Rp1712
(dp1713
g16
VNNS
p1714
sbatp1715
Rp1716
(dp1717
g16
VNP
p1718
sbatp1719
Rp1720
(dp1721
g16
VPP
p1722
sbatp1723
Rp1724
(dp1725
g16
VVP
p1726
sbatp1727
Rp1728
(dp1729
g16
VVP
p1730
sbatp1731
Rp1732
(dp1733
g16
VVP
p1734
sbag5
(g6
g7
(lp1735
g366
atp1736
Rp1737
(dp1738
g16
g366
sbatp1739
Rp1740
(dp1741
g16
g321
sbatp1742
Rp1743
(dp1744
g16
VROOT
p1745
sbasg377
(icmyPackage
CorE
p1746
(dp1747
g380
(lp1748
(I0
I6
tp1749
a(I0
I8
tp1750
asg384
g1641
sbsg390
(icmyPackage
CorE
p1751
(dp1752
g380
(lp1753
(I0
I10
tp1754
a(I0
I19
tp1755
asg384
g5
(g6
g7
(lp1756
g1659
ag1732
ag1737
atp1757
Rp1758
(dp1759
g16
g389
sbsbsg400
(icmyPackage
pattern
p1760
(dp1761
g403
I0
sg404
I0
sg405
(lp1762
(lp1763
(lp1764
S'if'
p1765
aS'once'
p1766
aaa(lp1767
g992
aasg410
(lp1768
I1
aI1
aI1
asg412
(lp1769
S'If some light and mobile detection devices can be invented in the future, many new applications can be imagined, for example, people can get some services while thinking.'
p1770
asg415
I15
sg416
(lp1771
(lp1772
a(lp1773
S'&C@Complete@'
p1774
aa(lp1775
S'&R@Complete@'
p1776
aasbsg422
(lp1777
(icmyPackage
Sent
p1778
(dp1779
g426
I1
sg427
I7
sg428
S'In many other disciplines, once data is collected, it can be frozen and distributed to other locations.'
p1780
sg430
I0
sg431
I39
sg384
(lp1781
g1743
asbasba(icmyPackage
CELink
p1782
(dp1783
g3
(lp1784
g5
(g6
g7
(lp1785
g5
(g6
g7
(lp1786
g5
(g6
g7
(lp1787
g5
(g6
g7
(lp1788
VAstronomy
p1789
atp1790
Rp1791
(dp1792
g16
VNNP
p1793
sbag5
(g6
g7
(lp1794
Vdata
p1795
atp1796
Rp1797
(dp1798
g16
VNNS
p1799
sbatp1800
Rp1801
(dp1802
g16
VNP
p1803
sbag5
(g6
g7
(lp1804
g5
(g6
g7
(lp1805
Vneeds
p1806
atp1807
Rp1808
(dp1809
g16
VVBZ
p1810
sbag5
(g6
g7
(lp1811
g5
(g6
g7
(lp1812
g5
(g6
g7
(lp1813
Vto
p1814
atp1815
Rp1816
(dp1817
g16
VTO
p1818
sbag5
(g6
g7
(lp1819
g5
(g6
g7
(lp1820
Vbe
p1821
atp1822
Rp1823
(dp1824
g16
VVB
p1825
sbag5
(g6
g7
(lp1826
g5
(g6
g7
(lp1827
Vcalibrated
p1828
atp1829
Rp1830
(dp1831
g16
VVBN
p1832
sbag5
(g6
g7
(lp1833
g5
(g6
g7
(lp1834
g5
(g6
g7
(lp1835
Vfor
p1836
atp1837
Rp1838
(dp1839
g16
VIN
p1840
sbag5
(g6
g7
(lp1841
g5
(g6
g7
(lp1842
g5
(g6
g7
(lp1843
Vthe
p1844
atp1845
Rp1846
(dp1847
g16
VDT
p1848
sbag5
(g6
g7
(lp1849
Vtransmission
p1850
atp1851
Rp1852
(dp1853
g16
VNN
p1854
sbatp1855
Rp1856
(dp1857
g16
VNP
p1858
sbag5
(g6
g7
(lp1859
g5
(g6
g7
(lp1860
Vof
p1861
atp1862
Rp1863
(dp1864
g16
VIN
p1865
sbag5
(g6
g7
(lp1866
g5
(g6
g7
(lp1867
Vthe
p1868
atp1869
Rp1870
(dp1871
g16
VDT
p1872
sbag5
(g6
g7
(lp1873
Vatmosphere
p1874
atp1875
Rp1876
(dp1877
g16
VNN
p1878
sbatp1879
Rp1880
(dp1881
g16
VNP
p1882
sbatp1883
Rp1884
(dp1885
g16
VPP
p1886
sbatp1887
Rp1888
(dp1889
g16
VNP
p1890
sbatp1891
Rp1892
(dp1893
g16
VPP
p1894
sbag5
(g6
g7
(lp1895
Vand
p1896
atp1897
Rp1898
(dp1899
g16
VCC
p1900
sbag5
(g6
g7
(lp1901
g5
(g6
g7
(lp1902
Vfor
p1903
atp1904
Rp1905
(dp1906
g16
VIN
p1907
sbag5
(g6
g7
(lp1908
g5
(g6
g7
(lp1909
g5
(g6
g7
(lp1910
Vthe
p1911
atp1912
Rp1913
(dp1914
g16
VDT
p1915
sbag5
(g6
g7
(lp1916
Vresponse
p1917
atp1918
Rp1919
(dp1920
g16
VNN
p1921
sbatp1922
Rp1923
(dp1924
g16
VNP
p1925
sbag5
(g6
g7
(lp1926
g5
(g6
g7
(lp1927
Vof
p1928
atp1929
Rp1930
(dp1931
g16
VIN
p1932
sbag5
(g6
g7
(lp1933
g5
(g6
g7
(lp1934
Vthe
p1935
atp1936
Rp1937
(dp1938
g16
VDT
p1939
sbag5
(g6
g7
(lp1940
Vinstruments
p1941
atp1942
Rp1943
(dp1944
g16
VNNS
p1945
sbatp1946
Rp1947
(dp1948
g16
VNP
p1949
sbatp1950
Rp1951
(dp1952
g16
VPP
p1953
sbatp1954
Rp1955
(dp1956
g16
VNP
p1957
sbatp1958
Rp1959
(dp1960
g16
VPP
p1961
sbatp1962
Rp1963
(dp1964
g16
VPP
p1965
sbatp1966
Rp1967
(dp1968
g16
VADJP
p1969
sbatp1970
Rp1971
(dp1972
g16
VVP
p1973
sbatp1974
Rp1975
(dp1976
g16
VVP
p1977
sbatp1978
Rp1979
(dp1980
g16
g321
sbatp1981
Rp1982
(dp1983
g16
VVP
p1984
sbag5
(g6
g7
(lp1985
g366
atp1986
Rp1987
(dp1988
g16
g366
sbatp1989
Rp1990
(dp1991
g16
g321
sbatp1992
Rp1993
(dp1994
g16
VROOT
p1995
sbag5
(g6
g7
(lp1996
g5
(g6
g7
(lp1997
g5
(g6
g7
(lp1998
g5
(g6
g7
(lp1999
VThis
p2000
atp2001
Rp2002
(dp2003
g16
VDT
p2004
sbatp2005
Rp2006
(dp2007
g16
VNP
p2008
sbag5
(g6
g7
(lp2009
g5
(g6
g7
(lp2010
Vrequires
p2011
atp2012
Rp2013
(dp2014
g16
VVBZ
p2015
sbag5
(g6
g7
(lp2016
g5
(g6
g7
(lp2017
g5
(g6
g7
(lp2018
Van
p2019
atp2020
Rp2021
(dp2022
g16
VDT
p2023
sbag5
(g6
g7
(lp2024
Vexquisite
p2025
atp2026
Rp2027
(dp2028
g16
VJJ
p2029
sbag5
(g6
g7
(lp2030
Vunderstanding
p2031
atp2032
Rp2033
(dp2034
g16
VNN
p2035
sbatp2036
Rp2037
(dp2038
g16
VNP
p2039
sbag5
(g6
g7
(lp2040
g5
(g6
g7
(lp2041
Vof
p2042
atp2043
Rp2044
(dp2045
g16
VIN
p2046
sbag5
(g6
g7
(lp2047
g5
(g6
g7
(lp2048
g5
(g6
g7
(lp2049
Vall
p2050
atp2051
Rp2052
(dp2053
g16
VPDT
p2054
sbag5
(g6
g7
(lp2055
Vthe
p2056
atp2057
Rp2058
(dp2059
g16
VDT
p2060
sbag5
(g6
g7
(lp2061
Vproperties
p2062
atp2063
Rp2064
(dp2065
g16
VNNS
p2066
sbatp2067
Rp2068
(dp2069
g16
VNP
p2070
sbag5
(g6
g7
(lp2071
g5
(g6
g7
(lp2072
Vof
p2073
atp2074
Rp2075
(dp2076
g16
VIN
p2077
sbag5
(g6
g7
(lp2078
g5
(g6
g7
(lp2079
g5
(g6
g7
(lp2080
Vthe
p2081
atp2082
Rp2083
(dp2084
g16
VDT
p2085
sbag5
(g6
g7
(lp2086
Vwhole
p2087
atp2088
Rp2089
(dp2090
g16
VJJ
p2091
sbag5
(g6
g7
(lp2092
Vsystem
p2093
atp2094
Rp2095
(dp2096
g16
VNN
p2097
sbatp2098
Rp2099
(dp2100
g16
VNP
p2101
sbag5
(g6
g7
(lp2102
g618
atp2103
Rp2104
(dp2105
g16
g618
sbag5
(g6
g7
(lp2106
g5
(g6
g7
(lp2107
g5
(g6
g7
(lp2108
Vwhich
p2109
atp2110
Rp2111
(dp2112
g16
VWDT
p2113
sbatp2114
Rp2115
(dp2116
g16
VWHNP
p2117
sbag5
(g6
g7
(lp2118
g5
(g6
g7
(lp2119
g5
(g6
g7
(lp2120
Vsometimes
p2121
atp2122
Rp2123
(dp2124
g16
VRB
p2125
sbatp2126
Rp2127
(dp2128
g16
VADVP
p2129
sbag5
(g6
g7
(lp2130
g5
(g6
g7
(lp2131
Vtakes
p2132
atp2133
Rp2134
(dp2135
g16
VVBZ
p2136
sbag5
(g6
g7
(lp2137
g5
(g6
g7
(lp2138
Vseveral
p2139
atp2140
Rp2141
(dp2142
g16
VJJ
p2143
sbag5
(g6
g7
(lp2144
Vyears
p2145
atp2146
Rp2147
(dp2148
g16
VNNS
p2149
sbatp2150
Rp2151
(dp2152
g16
VNP
p2153
sbatp2154
Rp2155
(dp2156
g16
VVP
p2157
sbatp2158
Rp2159
(dp2160
g16
g321
sbatp2161
Rp2162
(dp2163
g16
VSBAR
p2164
sbatp2165
Rp2166
(dp2167
g16
VNP
p2168
sbatp2169
Rp2170
(dp2171
g16
VPP
p2172
sbatp2173
Rp2174
(dp2175
g16
VNP
p2176
sbatp2177
Rp2178
(dp2179
g16
VPP
p2180
sbatp2181
Rp2182
(dp2183
g16
VNP
p2184
sbatp2185
Rp2186
(dp2187
g16
VVP
p2188
sbag5
(g6
g7
(lp2189
g366
atp2190
Rp2191
(dp2192
g16
g366
sbatp2193
Rp2194
(dp2195
g16
g321
sbatp2196
Rp2197
(dp2198
g16
VROOT
p2199
sbasg377
(icmyPackage
CorE
p2200
(dp2201
g380
(lp2202
(I1
I2
tp2203
a(I1
I18
tp2204
asg384
g2182
sbsg390
(icmyPackage
CorE
p2205
(dp2206
g380
(lp2207
(I0
I0
tp2208
a(I0
I18
tp2209
asg384
g5
(g6
g7
(lp2210
g1801
ag1982
atp2211
Rp2212
(dp2213
g16
g389
sbsbsg400
(icmyPackage
pattern
p2214
(dp2215
g403
I0
sg404
I1
sg405
(lp2216
(lp2217
(lp2218
S'concern'
p2219
aS'concerns'
p2220
aS'concerned'
p2221
aS'require'
p2222
aS'requires'
p2223
aS'required'
p2224
aS'request'
p2225
aS'requests'
p2226
aS'requested'
p2227
aaasg410
(lp2228
I4
aI1
aI1
asg412
(lp2229
S'For example, this enables e-learning systems to capture student behaviors during studying so that leaning materials and processes can be organized and adapted in real time to raise the effectiveness of study. This concerns the classification on students\xe2\x80\x99 behaviors (including micro expressions) and carrying out real-time analysis and adaptation.'
p2230
asg415
I90
sg416
(lp2231
(lp2232
S'&R'
p2233
aS'(,/./;/--)'
p2234
aS'&this'
p2235
aS'(&adj)'
p2236
aS'(&N)'
p2237
aS'(&CAN/have/has/had)'
p2238
aS'(&ADV)'
p2239
aa(lp2240
S'(about)'
p2241
aS'&V-ing/&NP@C@'
p2242
aasbsg422
(lp2243
(icmyPackage
Sent
p2244
(dp2245
g426
I1
sg427
I7
sg428
S'Astronomy data needs to be calibrated for the transmission of the atmosphere and for the response of the instruments.'
p2246
sg430
I0
sg431
I41
sg384
(lp2247
g1993
asba(icmyPackage
Sent
p2248
(dp2249
g426
I1
sg427
I7
sg428
S'This requires an exquisite understanding of all the properties of the whole system, which sometimes takes several years.'
p2250
sg430
I0
sg431
I42
sg384
(lp2251
g2197
asbasba(icmyPackage
CELink
p2252
(dp2253
g3
(lp2254
g5
(g6
g7
(lp2255
g5
(g6
g7
(lp2256
g5
(g6
g7
(lp2257
g5
(g6
g7
(lp2258
VWith
p2259
atp2260
Rp2261
(dp2262
g16
VIN
p2263
sbag5
(g6
g7
(lp2264
g5
(g6
g7
(lp2265
g5
(g6
g7
(lp2266
Veach
p2267
atp2268
Rp2269
(dp2270
g16
VDT
p2271
sbag5
(g6
g7
(lp2272
Vnew
p2273
atp2274
Rp2275
(dp2276
g16
VJJ
p2277
sbag5
(g6
g7
(lp2278
Vunderstanding
p2279
atp2280
Rp2281
(dp2282
g16
VNN
p2283
sbatp2284
Rp2285
(dp2286
g16
VNP
p2287
sbag5
(g6
g7
(lp2288
g5
(g6
g7
(lp2289
Vof
p2290
atp2291
Rp2292
(dp2293
g16
VIN
p2294
sbag5
(g6
g7
(lp2295
g5
(g6
g7
(lp2296
g5
(g6
g7
(lp2297
Vhow
p2298
atp2299
Rp2300
(dp2301
g16
VWRB
p2302
sbatp2303
Rp2304
(dp2305
g16
VWHADVP
p2306
sbag5
(g6
g7
(lp2307
g5
(g6
g7
(lp2308
g5
(g6
g7
(lp2309
Vcorrections
p2310
atp2311
Rp2312
(dp2313
g16
VNNS
p2314
sbatp2315
Rp2316
(dp2317
g16
VNP
p2318
sbag5
(g6
g7
(lp2319
g5
(g6
g7
(lp2320
Vshould
p2321
atp2322
Rp2323
(dp2324
g16
VMD
p2325
sbag5
(g6
g7
(lp2326
g5
(g6
g7
(lp2327
Vbe
p2328
atp2329
Rp2330
(dp2331
g16
VVB
p2332
sbag5
(g6
g7
(lp2333
g5
(g6
g7
(lp2334
Vmade
p2335
atp2336
Rp2337
(dp2338
g16
VVBN
p2339
sbatp2340
Rp2341
(dp2342
g16
VVP
p2343
sbatp2344
Rp2345
(dp2346
g16
VVP
p2347
sbatp2348
Rp2349
(dp2350
g16
VVP
p2351
sbatp2352
Rp2353
(dp2354
g16
g321
sbatp2355
Rp2356
(dp2357
g16
VSBAR
p2358
sbatp2359
Rp2360
(dp2361
g16
VPP
p2362
sbatp2363
Rp2364
(dp2365
g16
VNP
p2366
sbatp2367
Rp2368
(dp2369
g16
VPP
p2370
sbag5
(g6
g7
(lp2371
g618
atp2372
Rp2373
(dp2374
g16
g618
sbag5
(g6
g7
(lp2375
g5
(g6
g7
(lp2376
Vthe
p2377
atp2378
Rp2379
(dp2380
g16
VDT
p2381
sbag5
(g6
g7
(lp2382
Vdata
p2383
atp2384
Rp2385
(dp2386
g16
VNNS
p2387
sbatp2388
Rp2389
(dp2390
g16
VNP
p2391
sbag5
(g6
g7
(lp2392
g5
(g6
g7
(lp2393
Vare
p2394
atp2395
Rp2396
(dp2397
g16
VVBP
p2398
sbag5
(g6
g7
(lp2399
g5
(g6
g7
(lp2400
Vreprocessed
p2401
atp2402
Rp2403
(dp2404
g16
VVBN
p2405
sbag5
(g6
g7
(lp2406
Vand
p2407
atp2408
Rp2409
(dp2410
g16
VCC
p2411
sbag5
(g6
g7
(lp2412
Vrecalibrated
p2413
atp2414
Rp2415
(dp2416
g16
VVBN
p2417
sbatp2418
Rp2419
(dp2420
g16
VVP
p2421
sbatp2422
Rp2423
(dp2424
g16
VVP
p2425
sbag5
(g6
g7
(lp2426
g366
atp2427
Rp2428
(dp2429
g16
g366
sbatp2430
Rp2431
(dp2432
g16
g321
sbatp2433
Rp2434
(dp2435
g16
VROOT
p2436
sbag5
(g6
g7
(lp2437
g5
(g6
g7
(lp2438
g5
(g6
g7
(lp2439
g5
(g6
g7
(lp2440
g5
(g6
g7
(lp2441
VAs
p2442
atp2443
Rp2444
(dp2445
g16
VIN
p2446
sbag5
(g6
g7
(lp2447
g5
(g6
g7
(lp2448
g251
atp2449
Rp2450
(dp2451
g16
VDT
p2452
sbag5
(g6
g7
(lp2453
Vresult
p2454
atp2455
Rp2456
(dp2457
g16
VNN
p2458
sbatp2459
Rp2460
(dp2461
g16
VNP
p2462
sbatp2463
Rp2464
(dp2465
g16
VPP
p2466
sbag5
(g6
g7
(lp2467
g618
atp2468
Rp2469
(dp2470
g16
g618
sbag5
(g6
g7
(lp2471
g5
(g6
g7
(lp2472
g5
(g6
g7
(lp2473
Vdata
p2474
atp2475
Rp2476
(dp2477
g16
VNNS
p2478
sbatp2479
Rp2480
(dp2481
g16
VNP
p2482
sbag5
(g6
g7
(lp2483
g5
(g6
g7
(lp2484
Vin
p2485
atp2486
Rp2487
(dp2488
g16
VIN
p2489
sbag5
(g6
g7
(lp2490
g5
(g6
g7
(lp2491
Vastronomy
p2492
atp2493
Rp2494
(dp2495
g16
VJJ
p2496
sbag5
(g6
g7
(lp2497
Vstays
p2498
atp2499
Rp2500
(dp2501
g16
VNNS
p2502
sbatp2503
Rp2504
(dp2505
g16
VNP
p2506
sbatp2507
Rp2508
(dp2509
g16
VPP
p2510
sbatp2511
Rp2512
(dp2513
g16
VNP
p2514
sbag5
(g6
g7
(lp2515
g5
(g6
g7
(lp2516
V``
p2517
atp2518
Rp2519
(dp2520
g16
V``
p2521
sbag5
(g6
g7
(lp2522
Vlive
p2523
atp2524
Rp2525
(dp2526
g16
VVBP
p2527
sbag5
(g6
g7
(lp2528
V''
p2529
atp2530
Rp2531
(dp2532
g16
V''
p2533
sbag5
(g6
g7
(lp2534
g5
(g6
g7
(lp2535
g5
(g6
g7
(lp2536
Vmuch
p2537
atp2538
Rp2539
(dp2540
g16
VRB
p2541
sbag5
(g6
g7
(lp2542
Vlonger
p2543
atp2544
Rp2545
(dp2546
g16
VRB
p2547
sbatp2548
Rp2549
(dp2550
g16
VADVP
p2551
sbag5
(g6
g7
(lp2552
Vthan
p2553
atp2554
Rp2555
(dp2556
g16
VIN
p2557
sbag5
(g6
g7
(lp2558
Vin
p2559
atp2560
Rp2561
(dp2562
g16
VIN
p2563
sbag5
(g6
g7
(lp2564
g5
(g6
g7
(lp2565
Vother
p2566
atp2567
Rp2568
(dp2569
g16
VJJ
p2570
sbag5
(g6
g7
(lp2571
Vdisciplines
p2572
atp2573
Rp2574
(dp2575
g16
VNNS
p2576
sbatp2577
Rp2578
(dp2579
g16
VNP
p2580
sbatp2581
Rp2582
(dp2583
g16
VPP
p2584
sbatp2585
Rp2586
(dp2587
g16
VVP
p2588
sbatp2589
Rp2590
(dp2591
g16
g321
sbag5
(g6
g7
(lp2592
V--
p2593
atp2594
Rp2595
(dp2596
g16
V:
p2597
sbag5
(g6
g7
(lp2598
g5
(g6
g7
(lp2599
g5
(g6
g7
(lp2600
Vit
p2601
atp2602
Rp2603
(dp2604
g16
VPRP
p2605
sbatp2606
Rp2607
(dp2608
g16
VNP
p2609
sbag5
(g6
g7
(lp2610
g5
(g6
g7
(lp2611
Vneeds
p2612
atp2613
Rp2614
(dp2615
g16
VVBZ
p2616
sbag5
(g6
g7
(lp2617
g5
(g6
g7
(lp2618
Van
p2619
atp2620
Rp2621
(dp2622
g16
VDT
p2623
sbag5
(g6
g7
(lp2624
Vactive
p2625
atp2626
Rp2627
(dp2628
g16
VJJ
p2629
sbag5
(g6
g7
(lp2630
V``
p2631
atp2632
Rp2633
(dp2634
g16
V``
p2635
sbag5
(g6
g7
(lp2636
Vcuration
p2637
atp2638
Rp2639
(dp2640
g16
VNN
p2641
sbag5
(g6
g7
(lp2642
g618
atp2643
Rp2644
(dp2645
g16
g618
sbag5
(g6
g7
(lp2646
V''
p2647
atp2648
Rp2649
(dp2650
g16
V''
p2651
sbatp2652
Rp2653
(dp2654
g16
VNP
p2655
sbag5
(g6
g7
(lp2656
g5
(g6
g7
(lp2657
Vmostly
p2658
atp2659
Rp2660
(dp2661
g16
VRB
p2662
sbag5
(g6
g7
(lp2663
Vby
p2664
atp2665
Rp2666
(dp2667
g16
VIN
p2668
sbag5
(g6
g7
(lp2669
g5
(g6
g7
(lp2670
g5
(g6
g7
(lp2671
Vthe
p2672
atp2673
Rp2674
(dp2675
g16
VDT
p2676
sbag5
(g6
g7
(lp2677
Vexpert
p2678
atp2679
Rp2680
(dp2681
g16
VNN
p2682
sbag5
(g6
g7
(lp2683
Vgroup
p2684
atp2685
Rp2686
(dp2687
g16
VNN
p2688
sbatp2689
Rp2690
(dp2691
g16
VNP
p2692
sbag5
(g6
g7
(lp2693
g5
(g6
g7
(lp2694
g5
(g6
g7
(lp2695
Vthat
p2696
atp2697
Rp2698
(dp2699
g16
VWDT
p2700
sbatp2701
Rp2702
(dp2703
g16
VWHNP
p2704
sbag5
(g6
g7
(lp2705
g5
(g6
g7
(lp2706
g5
(g6
g7
(lp2707
Vcollected
p2708
atp2709
Rp2710
(dp2711
g16
VVBD
p2712
sbag5
(g6
g7
(lp2713
g5
(g6
g7
(lp2714
Vthe
p2715
atp2716
Rp2717
(dp2718
g16
VDT
p2719
sbag5
(g6
g7
(lp2720
Vdata
p2721
atp2722
Rp2723
(dp2724
g16
VNNS
p2725
sbatp2726
Rp2727
(dp2728
g16
VNP
p2729
sbatp2730
Rp2731
(dp2732
g16
VVP
p2733
sbatp2734
Rp2735
(dp2736
g16
g321
sbatp2737
Rp2738
(dp2739
g16
VSBAR
p2740
sbatp2741
Rp2742
(dp2743
g16
VNP
p2744
sbatp2745
Rp2746
(dp2747
g16
VPP
p2748
sbatp2749
Rp2750
(dp2751
g16
VVP
p2752
sbatp2753
Rp2754
(dp2755
g16
g321
sbag5
(g6
g7
(lp2756
g366
atp2757
Rp2758
(dp2759
g16
g366
sbatp2760
Rp2761
(dp2762
g16
g321
sbatp2763
Rp2764
(dp2765
g16
VROOT
p2766
sbasg377
(icmyPackage
CorE
p2767
(dp2768
g380
(lp2769
(I0
I0
tp2770
a(I0
I16
tp2771
asg384
g5
(g6
g7
(lp2772
g2368
ag2373
ag2389
ag2423
atp2773
Rp2774
(dp2775
g16
g389
sbsbsg390
(icmyPackage
CorE
p2776
(dp2777
g380
(lp2778
(I1
I4
tp2779
a(I1
I35
tp2780
asg384
g5
(g6
g7
(lp2781
g2512
ag2586
ag2595
ag2754
ag2758
atp2782
Rp2783
(dp2784
g16
g389
sbsbsg400
(icmyPackage
pattern
p2785
(dp2786
g403
I3
sg404
I1
sg405
(lp2787
(lp2788
S'as'
p2789
aS'a'
p2790
aa(lp2791
S'result'
p2792
aasg410
(lp2793
I1
aI1
aI1
asg412
(lp2794
S'All singers kept together. As a result,their performance was successful.'
p2795
asg415
I5
sg416
(lp2796
(lp2797
S'&C'
p2798
aS'(,/;/./--)'
p2799
aS'(&AND)'
p2800
aa(lp2801
S'(&ADJ)'
p2802
aa(lp2803
S'(,)'
p2804
aS'&R'
p2805
aasbsg422
(lp2806
(icmyPackage
Sent
p2807
(dp2808
g426
I1
sg427
I7
sg428
S'With each new understanding of how corrections should be made, the data are reprocessed and recalibrated.'
p2809
sg430
I0
sg431
I43
sg384
(lp2810
g2434
asba(icmyPackage
Sent
p2811
(dp2812
g426
I1
sg427
I7
sg428
S'As a result, data in astronomy stays "live" much longer than in other disciplines -- it needs an active "curation," mostly by the expert group that collected the data.'
p2813
sg430
I0
sg431
I44
sg384
(lp2814
g2764
asbasba(icmyPackage
CELink
p2815
(dp2816
g3
(lp2817
g2764
ag5
(g6
g7
(lp2818
g5
(g6
g7
(lp2819
g5
(g6
g7
(lp2820
g5
(g6
g7
(lp2821
g5
(g6
g7
(lp2822
VConsequently
p2823
atp2824
Rp2825
(dp2826
g16
VRB
p2827
sbatp2828
Rp2829
(dp2830
g16
VADVP
p2831
sbag5
(g6
g7
(lp2832
g618
atp2833
Rp2834
(dp2835
g16
g618
sbag5
(g6
g7
(lp2836
g5
(g6
g7
(lp2837
Vastronomy
p2838
atp2839
Rp2840
(dp2841
g16
VJJ
p2842
sbag5
(g6
g7
(lp2843
Vdata
p2844
atp2845
Rp2846
(dp2847
g16
VNNS
p2848
sbatp2849
Rp2850
(dp2851
g16
VNP
p2852
sbag5
(g6
g7
(lp2853
g5
(g6
g7
(lp2854
Vreside
p2855
atp2856
Rp2857
(dp2858
g16
VVB
p2859
sbag5
(g6
g7
(lp2860
g5
(g6
g7
(lp2861
Vat
p2862
atp2863
Rp2864
(dp2865
g16
VIN
p2866
sbag5
(g6
g7
(lp2867
g5
(g6
g7
(lp2868
Vmany
p2869
atp2870
Rp2871
(dp2872
g16
VJJ
p2873
sbag5
(g6
g7
(lp2874
Vdifferent
p2875
atp2876
Rp2877
(dp2878
g16
VJJ
p2879
sbag5
(g6
g7
(lp2880
Vgeographical
p2881
atp2882
Rp2883
(dp2884
g16
VJJ
p2885
sbag5
(g6
g7
(lp2886
Vlocations
p2887
atp2888
Rp2889
(dp2890
g16
VNNS
p2891
sbatp2892
Rp2893
(dp2894
g16
VNP
p2895
sbatp2896
Rp2897
(dp2898
g16
VPP
p2899
sbatp2900
Rp2901
(dp2902
g16
VVP
p2903
sbatp2904
Rp2905
(dp2906
g16
g321
sbag5
(g6
g7
(lp2907
g618
atp2908
Rp2909
(dp2910
g16
g618
sbag5
(g6
g7
(lp2911
Vand
p2912
atp2913
Rp2914
(dp2915
g16
VCC
p2916
sbag5
(g6
g7
(lp2917
g5
(g6
g7
(lp2918
g5
(g6
g7
(lp2919
Vthat
p2920
atp2921
Rp2922
(dp2923
g16
VDT
p2924
sbatp2925
Rp2926
(dp2927
g16
VNP
p2928
sbag5
(g6
g7
(lp2929
g5
(g6
g7
(lp2930
Vwill
p2931
atp2932
Rp2933
(dp2934
g16
VMD
p2935
sbag5
(g6
g7
(lp2936
Vnot
p2937
atp2938
Rp2939
(dp2940
g16
VRB
p2941
sbag5
(g6
g7
(lp2942
g5
(g6
g7
(lp2943
Vchange
p2944
atp2945
Rp2946
(dp2947
g16
VVB
p2948
sbatp2949
Rp2950
(dp2951
g16
VVP
p2952
sbatp2953
Rp2954
(dp2955
g16
VVP
p2956
sbatp2957
Rp2958
(dp2959
g16
g321
sbag5
(g6
g7
(lp2960
g366
atp2961
Rp2962
(dp2963
g16
g366
sbatp2964
Rp2965
(dp2966
g16
g321
sbatp2967
Rp2968
(dp2969
g16
VROOT
p2970
sbasg377
(icmyPackage
CorE
p2971
(dp2972
g380
(lp2973
(I0
I0
tp2974
a(I0
I34
tp2975
asg384
g5
(g6
g7
(lp2976
g2590
ag2595
ag2754
atp2977
Rp2978
(dp2979
g16
g389
sbsbsg390
(icmyPackage
CorE
p2980
(dp2981
g380
(lp2982
(I1
I2
tp2983
a(I1
I16
tp2984
asg384
g5
(g6
g7
(lp2985
g2850
ag2901
ag2909
ag2914
ag2958
ag2962
atp2986
Rp2987
(dp2988
g16
g389
sbsbsg400
(icmyPackage
pattern
p2989
(dp2990
g403
I9
sg404
I1
sg405
(lp2991
(lp2992
S'consequently'
p2993
aasg410
(lp2994
I1
aI1
aI1
asg412
(lp2995
S'Her mother was seriously ill. Consequently, she left school.'
p2996
asg415
I3
sg416
(lp2997
(lp2998
S'&C'
p2999
aS'(,/;/./--)'
p3000
aa(lp3001
S'(,)'
p3002
aS'&R'
p3003
aasbsg422
(lp3004
g2811
a(icmyPackage
Sent
p3005
(dp3006
g426
I1
sg427
I8
sg428
S'Consequently, astronomy data reside at many different geographical locations, and that will not change.'
p3007
sg430
I0
sg431
I45
sg384
(lp3008
g2968
asbasba(icmyPackage
CELink
p3009
(dp3010
g3
(lp3011
g5
(g6
g7
(lp3012
g5
(g6
g7
(lp3013
g5
(g6
g7
(lp3014
g5
(g6
g7
(lp3015
g5
(g6
g7
(lp3016
VTime
p3017
atp3018
Rp3019
(dp3020
g16
VNNP
p3021
sbatp3022
Rp3023
(dp3024
g16
VNP
p3025
sbag5
(g6
g7
(lp3026
g5
(g6
g7
(lp3027
Von
p3028
atp3029
Rp3030
(dp3031
g16
VIN
p3032
sbag5
(g6
g7
(lp3033
g5
(g6
g7
(lp3034
Vthe
p3035
atp3036
Rp3037
(dp3038
g16
VDT
p3039
sbag5
(g6
g7
(lp3040
Vinstrument
p3041
atp3042
Rp3043
(dp3044
g16
VNN
p3045
sbatp3046
Rp3047
(dp3048
g16
VNP
p3049
sbatp3050
Rp3051
(dp3052
g16
VPP
p3053
sbatp3054
Rp3055
(dp3056
g16
VNP
p3057
sbag5
(g6
g7
(lp3058
g5
(g6
g7
(lp3059
Vwill
p3060
atp3061
Rp3062
(dp3063
g16
VMD
p3064
sbag5
(g6
g7
(lp3065
g5
(g6
g7
(lp3066
Vbe
p3067
atp3068
Rp3069
(dp3070
g16
VVB
p3071
sbag5
(g6
g7
(lp3072
g5
(g6
g7
(lp3073
Vavailable
p3074
atp3075
Rp3076
(dp3077
g16
VJJ
p3078
sbag5
(g6
g7
(lp3079
g5
(g6
g7
(lp3080
Vto
p3081
atp3082
Rp3083
(dp3084
g16
VTO
p3085
sbag5
(g6
g7
(lp3086
g5
(g6
g7
(lp3087
Vall
p3088
atp3089
Rp3090
(dp3091
g16
VDT
p3092
sbatp3093
Rp3094
(dp3095
g16
VNP
p3096
sbatp3097
Rp3098
(dp3099
g16
VPP
p3100
sbatp3101
Rp3102
(dp3103
g16
VADJP
p3104
sbatp3105
Rp3106
(dp3107
g16
VVP
p3108
sbatp3109
Rp3110
(dp3111
g16
VVP
p3112
sbag5
(g6
g7
(lp3113
g366
atp3114
Rp3115
(dp3116
g16
g366
sbatp3117
Rp3118
(dp3119
g16
g321
sbatp3120
Rp3121
(dp3122
g16
VROOT
p3123
sbag5
(g6
g7
(lp3124
g5
(g6
g7
(lp3125
g5
(g6
g7
(lp3126
g5
(g6
g7
(lp3127
VThus
p3128
atp3129
Rp3130
(dp3131
g16
VRB
p3132
sbatp3133
Rp3134
(dp3135
g16
VADVP
p3136
sbag5
(g6
g7
(lp3137
g618
atp3138
Rp3139
(dp3140
g16
g618
sbag5
(g6
g7
(lp3141
g5
(g6
g7
(lp3142
Vthe
p3143
atp3144
Rp3145
(dp3146
g16
VDT
p3147
sbag5
(g6
g7
(lp3148
VVirtual
p3149
atp3150
Rp3151
(dp3152
g16
VNNP
p3153
sbag5
(g6
g7
(lp3154
VObservatory
p3155
atp3156
Rp3157
(dp3158
g16
VNNP
p3159
sbatp3160
Rp3161
(dp3162
g16
VNP
p3163
sbag5
(g6
g7
(lp3164
g5
(g6
g7
(lp3165
Vshould
p3166
atp3167
Rp3168
(dp3169
g16
VMD
p3170
sbag5
(g6
g7
(lp3171
g5
(g6
g7
(lp3172
Vmake
p3173
atp3174
Rp3175
(dp3176
g16
VVB
p3177
sbag5
(g6
g7
(lp3178
g5
(g6
g7
(lp3179
g5
(g6
g7
(lp3180
Vit
p3181
atp3182
Rp3183
(dp3184
g16
VPRP
p3185
sbatp3186
Rp3187
(dp3188
g16
VNP
p3189
sbag5
(g6
g7
(lp3190
g5
(g6
g7
(lp3191
Veasy
p3192
atp3193
Rp3194
(dp3195
g16
VJJ
p3196
sbag5
(g6
g7
(lp3197
g5
(g6
g7
(lp3198
g5
(g6
g7
(lp3199
Vto
p3200
atp3201
Rp3202
(dp3203
g16
VTO
p3204
sbag5
(g6
g7
(lp3205
g5
(g6
g7
(lp3206
Vconduct
p3207
atp3208
Rp3209
(dp3210
g16
VVB
p3211
sbag5
(g6
g7
(lp3212
g5
(g6
g7
(lp3213
Vsuch
p3214
atp3215
Rp3216
(dp3217
g16
VJJ
p3218
sbag5
(g6
g7
(lp3219
Vtemporal
p3220
atp3221
Rp3222
(dp3223
g16
VJJ
p3224
sbag5
(g6
g7
(lp3225
Vand
p3226
atp3227
Rp3228
(dp3229
g16
VCC
p3230
sbag5
(g6
g7
(lp3231
Vmultispectral
p3232
atp3233
Rp3234
(dp3235
g16
VJJ
p3236
sbag5
(g6
g7
(lp3237
Vstudies
p3238
atp3239
Rp3240
(dp3241
g16
VNNS
p3242
sbatp3243
Rp3244
(dp3245
g16
VNP
p3246
sbag5
(g6
g7
(lp3247
g5
(g6
g7
(lp3248
Vby
p3249
atp3250
Rp3251
(dp3252
g16
VIN
p3253
sbag5
(g6
g7
(lp3254
g5
(g6
g7
(lp3255
g5
(g6
g7
(lp3256
Vautomating
p3257
atp3258
Rp3259
(dp3260
g16
VVBG
p3261
sbag5
(g6
g7
(lp3262
g5
(g6
g7
(lp3263
g5
(g6
g7
(lp3264
Vthe
p3265
atp3266
Rp3267
(dp3268
g16
VDT
p3269
sbag5
(g6
g7
(lp3270
Vdiscovery
p3271
atp3272
Rp3273
(dp3274
g16
VNN
p3275
sbatp3276
Rp3277
(dp3278
g16
VNP
p3279
sbag5
(g6
g7
(lp3280
Vand
p3281
atp3282
Rp3283
(dp3284
g16
VCC
p3285
sbag5
(g6
g7
(lp3286
g5
(g6
g7
(lp3287
g5
(g6
g7
(lp3288
Vthe
p3289
atp3290
Rp3291
(dp3292
g16
VDT
p3293
sbag5
(g6
g7
(lp3294
Vassembly
p3295
atp3296
Rp3297
(dp3298
g16
VNN
p3299
sbatp3300
Rp3301
(dp3302
g16
VNP
p3303
sbag5
(g6
g7
(lp3304
g5
(g6
g7
(lp3305
Vof
p3306
atp3307
Rp3308
(dp3309
g16
VIN
p3310
sbag5
(g6
g7
(lp3311
g5
(g6
g7
(lp3312
Vthe
p3313
atp3314
Rp3315
(dp3316
g16
VDT
p3317
sbag5
(g6
g7
(lp3318
Vnecessary
p3319
atp3320
Rp3321
(dp3322
g16
VJJ
p3323
sbag5
(g6
g7
(lp3324
Vdata
p3325
atp3326
Rp3327
(dp3328
g16
VNNS
p3329
sbatp3330
Rp3331
(dp3332
g16
VNP
p3333
sbatp3334
Rp3335
(dp3336
g16
VPP
p3337
sbatp3338
Rp3339
(dp3340
g16
VNP
p3341
sbatp3342
Rp3343
(dp3344
g16
VNP
p3345
sbatp3346
Rp3347
(dp3348
g16
VVP
p3349
sbatp3350
Rp3351
(dp3352
g16
g321
sbatp3353
Rp3354
(dp3355
g16
VPP
p3356
sbatp3357
Rp3358
(dp3359
g16
VVP
p3360
sbatp3361
Rp3362
(dp3363
g16
VVP
p3364
sbatp3365
Rp3366
(dp3367
g16
g321
sbatp3368
Rp3369
(dp3370
g16
VADJP
p3371
sbatp3372
Rp3373
(dp3374
g16
g321
sbatp3375
Rp3376
(dp3377
g16
VVP
p3378
sbatp3379
Rp3380
(dp3381
g16
VVP
p3382
sbag5
(g6
g7
(lp3383
g366
atp3384
Rp3385
(dp3386
g16
g366
sbatp3387
Rp3388
(dp3389
g16
g321
sbatp3390
Rp3391
(dp3392
g16
VROOT
p3393
sbasg377
(icmyPackage
CorE
p3394
(dp3395
g380
(lp3396
(I0
I0
tp3397
a(I0
I8
tp3398
asg384
g5
(g6
g7
(lp3399
g3055
ag3110
atp3400
Rp3401
(dp3402
g16
g389
sbsbsg390
(icmyPackage
CorE
p3403
(dp3404
g380
(lp3405
(I1
I1
tp3406
a(I1
I27
tp3407
asg384
g5
(g6
g7
(lp3408
g3139
ag3161
ag3380
ag3385
atp3409
Rp3410
(dp3411
g16
g389
sbsbsg400
(icmyPackage
pattern
p3412
(dp3413
g403
I35
sg404
I1
sg405
(lp3414
(lp3415
S'thus'
p3416
aasg410
(lp3417
I1
aI1
aI1
asg412
(lp3418
S'Japan will be on the dark side of the Earth, and thus will lack the warming influence of the Sun.'
p3419
asg415
I2
sg416
(lp3420
(lp3421
S'&C'
p3422
aS'(,/;/./--)'
p3423
aS'(&AND)'
p3424
aa(lp3425
S'&R'
p3426
aasbsg422
(lp3427
(icmyPackage
Sent
p3428
(dp3429
g426
I1
sg427
I12
sg428
S'Time on the instrument will be available to all.'
p3430
sg430
I0
sg431
I61
sg384
(lp3431
g3121
asba(icmyPackage
Sent
p3432
(dp3433
g426
I1
sg427
I12
sg428
S'Thus, the Virtual Observatory should make it easy to conduct such temporal and multispectral studies by automating the discovery and the assembly of the necessary data.'
p3434
sg430
I0
sg431
I62
sg384
(lp3435
g3391
asbasba(icmyPackage
CELink
p3436
(dp3437
g3
(lp3438
g5
(g6
g7
(lp3439
g5
(g6
g7
(lp3440
g5
(g6
g7
(lp3441
g5
(g6
g7
(lp3442
VWe
p3443
atp3444
Rp3445
(dp3446
g16
VPRP
p3447
sbatp3448
Rp3449
(dp3450
g16
VNP
p3451
sbag5
(g6
g7
(lp3452
g5
(g6
g7
(lp3453
Vneed
p3454
atp3455
Rp3456
(dp3457
g16
VVBP
p3458
sbag5
(g6
g7
(lp3459
g5
(g6
g7
(lp3460
g5
(g6
g7
(lp3461
Vlarge
p3462
atp3463
Rp3464
(dp3465
g16
VJJ
p3466
sbag5
(g6
g7
(lp3467
Vsamples
p3468
atp3469
Rp3470
(dp3471
g16
VNNS
p3472
sbatp3473
Rp3474
(dp3475
g16
VNP
p3476
sbag5
(g6
g7
(lp3477
g5
(g6
g7
(lp3478
Vof
p3479
atp3480
Rp3481
(dp3482
g16
VIN
p3483
sbag5
(g6
g7
(lp3484
g5
(g6
g7
(lp3485
g5
(g6
g7
(lp3486
Vgalaxies
p3487
atp3488
Rp3489
(dp3490
g16
VNNS
p3491
sbatp3492
Rp3493
(dp3494
g16
VNP
p3495
sbag5
(g6
g7
(lp3496
g5
(g6
g7
(lp3497
Vin
p3498
atp3499
Rp3500
(dp3501
g16
VIN
p3502
sbag5
(g6
g7
(lp3503
g5
(g6
g7
(lp3504
Vorder
p3505
atp3506
Rp3507
(dp3508
g16
VNN
p3509
sbatp3510
Rp3511
(dp3512
g16
VNP
p3513
sbatp3514
Rp3515
(dp3516
g16
VPP
p3517
sbatp3518
Rp3519
(dp3520
g16
VNP
p3521
sbatp3522
Rp3523
(dp3524
g16
VPP
p3525
sbag5
(g6
g7
(lp3526
g5
(g6
g7
(lp3527
g5
(g6
g7
(lp3528
g5
(g6
g7
(lp3529
Vto
p3530
atp3531
Rp3532
(dp3533
g16
VTO
p3534
sbag5
(g6
g7
(lp3535
g5
(g6
g7
(lp3536
Vunderstand
p3537
atp3538
Rp3539
(dp3540
g16
VVB
p3541
sbag5
(g6
g7
(lp3542
g5
(g6
g7
(lp3543
g5
(g6
g7
(lp3544
Vthe
p3545
atp3546
Rp3547
(dp3548
g16
VDT
p3549
sbag5
(g6
g7
(lp3550
Vfine
p3551
atp3552
Rp3553
(dp3554
g16
VJJ
p3555
sbag5
(g6
g7
(lp3556
Vdetails
p3557
atp3558
Rp3559
(dp3560
g16
VNNS
p3561
sbatp3562
Rp3563
(dp3564
g16
VNP
p3565
sbag5
(g6
g7
(lp3566
g5
(g6
g7
(lp3567
Vof
p3568
atp3569
Rp3570
(dp3571
g16
VIN
p3572
sbag5
(g6
g7
(lp3573
g5
(g6
g7
(lp3574
Vthe
p3575
atp3576
Rp3577
(dp3578
g16
VDT
p3579
sbag5
(g6
g7
(lp3580
Vexpanding
p3581
atp3582
Rp3583
(dp3584
g16
VVBG
p3585
sbag5
(g6
g7
(lp3586
Vuniverse
p3587
atp3588
Rp3589
(dp3590
g16
VNN
p3591
sbatp3592
Rp3593
(dp3594
g16
VNP
p3595
sbatp3596
Rp3597
(dp3598
g16
VPP
p3599
sbatp3600
Rp3601
(dp3602
g16
VNP
p3603
sbatp3604
Rp3605
(dp3606
g16
VVP
p3607
sbatp3608
Rp3609
(dp3610
g16
VVP
p3611
sbatp3612
Rp3613
(dp3614
g16
g321
sbag5
(g6
g7
(lp3615
Vand
p3616
atp3617
Rp3618
(dp3619
g16
VCC
p3620
sbag5
(g6
g7
(lp3621
g5
(g6
g7
(lp3622
Vof
p3623
atp3624
Rp3625
(dp3626
g16
VIN
p3627
sbag5
(g6
g7
(lp3628
g5
(g6
g7
(lp3629
Vgalaxy
p3630
atp3631
Rp3632
(dp3633
g16
VNN
p3634
sbag5
(g6
g7
(lp3635
Vformation
p3636
atp3637
Rp3638
(dp3639
g16
VNN
p3640
sbatp3641
Rp3642
(dp3643
g16
VNP
p3644
sbatp3645
Rp3646
(dp3647
g16
VPP
p3648
sbatp3649
Rp3650
(dp3651
g16
VUCP
p3652
sbatp3653
Rp3654
(dp3655
g16
VNP
p3656
sbatp3657
Rp3658
(dp3659
g16
VVP
p3660
sbag5
(g6
g7
(lp3661
g366
atp3662
Rp3663
(dp3664
g16
g366
sbatp3665
Rp3666
(dp3667
g16
g321
sbatp3668
Rp3669
(dp3670
g16
VROOT
p3671
sbag5
(g6
g7
(lp3672
g5
(g6
g7
(lp3673
g5
(g6
g7
(lp3674
g5
(g6
g7
(lp3675
VThese
p3676
atp3677
Rp3678
(dp3679
g16
VDT
p3680
sbag5
(g6
g7
(lp3681
Vstatistical
p3682
atp3683
Rp3684
(dp3685
g16
VJJ
p3686
sbag5
(g6
g7
(lp3687
Vstudies
p3688
atp3689
Rp3690
(dp3691
g16
VNNS
p3692
sbatp3693
Rp3694
(dp3695
g16
VNP
p3696
sbag5
(g6
g7
(lp3697
g5
(g6
g7
(lp3698
Vrequire
p3699
atp3700
Rp3701
(dp3702
g16
VVBP
p3703
sbag5
(g6
g7
(lp3704
g5
(g6
g7
(lp3705
g5
(g6
g7
(lp3706
Vmulticolor
p3707
atp3708
Rp3709
(dp3710
g16
VNN
p3711
sbag5
(g6
g7
(lp3712
Vimaging
p3713
atp3714
Rp3715
(dp3716
g16
VNN
p3717
sbatp3718
Rp3719
(dp3720
g16
VNP
p3721
sbag5
(g6
g7
(lp3722
g5
(g6
g7
(lp3723
Vof
p3724
atp3725
Rp3726
(dp3727
g16
VIN
p3728
sbag5
(g6
g7
(lp3729
g5
(g6
g7
(lp3730
g5
(g6
g7
(lp3731
Vmillions
p3732
atp3733
Rp3734
(dp3735
g16
VNNS
p3736
sbatp3737
Rp3738
(dp3739
g16
VNP
p3740
sbag5
(g6
g7
(lp3741
g5
(g6
g7
(lp3742
Vof
p3743
atp3744
Rp3745
(dp3746
g16
VIN
p3747
sbag5
(g6
g7
(lp3748
g5
(g6
g7
(lp3749
Vgalaxies
p3750
atp3751
Rp3752
(dp3753
g16
VNNS
p3754
sbag5
(g6
g7
(lp3755
Vand
p3756
atp3757
Rp3758
(dp3759
g16
VCC
p3760
sbag5
(g6
g7
(lp3761
Vmeasurement
p3762
atp3763
Rp3764
(dp3765
g16
VNN
p3766
sbatp3767
Rp3768
(dp3769
g16
VNP
p3770
sbatp3771
Rp3772
(dp3773
g16
VPP
p3774
sbatp3775
Rp3776
(dp3777
g16
VNP
p3778
sbatp3779
Rp3780
(dp3781
g16
VPP
p3782
sbag5
(g6
g7
(lp3783
g5
(g6
g7
(lp3784
Vof
p3785
atp3786
Rp3787
(dp3788
g16
VIN
p3789
sbag5
(g6
g7
(lp3790
g5
(g6
g7
(lp3791
Vtheir
p3792
atp3793
Rp3794
(dp3795
g16
VPRP$
p3796
sbag5
(g6
g7
(lp3797
Vdistances
p3798
atp3799
Rp3800
(dp3801
g16
VNNS
p3802
sbatp3803
Rp3804
(dp3805
g16
VNP
p3806
sbatp3807
Rp3808
(dp3809
g16
VPP
p3810
sbatp3811
Rp3812
(dp3813
g16
VNP
p3814
sbatp3815
Rp3816
(dp3817
g16
VVP
p3818
sbag5
(g6
g7
(lp3819
g366
atp3820
Rp3821
(dp3822
g16
g366
sbatp3823
Rp3824
(dp3825
g16
g321
sbatp3826
Rp3827
(dp3828
g16
VROOT
p3829
sbasg377
(icmyPackage
CorE
p3830
(dp3831
g380
(lp3832
(I1
I4
tp3833
a(I1
I14
tp3834
asg384
g3812
sbsg390
(icmyPackage
CorE
p3835
(dp3836
g380
(lp3837
(I0
I0
tp3838
a(I0
I20
tp3839
asg384
g5
(g6
g7
(lp3840
g3449
ag3658
atp3841
Rp3842
(dp3843
g16
g389
sbsbsg400
g2214
sg422
(lp3844
(icmyPackage
Sent
p3845
(dp3846
g426
I1
sg427
I13
sg428
S'We need large samples of galaxies in order to understand the fine details of the expanding universe and of galaxy formation.'
p3847
sg430
I0
sg431
I64
sg384
(lp3848
g3669
asba(icmyPackage
Sent
p3849
(dp3850
g426
I1
sg427
I13
sg428
S'These statistical studies require multicolor imaging of millions of galaxies and measurement of their distances.'
p3851
sg430
I0
sg431
I65
sg384
(lp3852
g3827
asbasba(icmyPackage
CELink
p3853
(dp3854
g3
(lp3855
g5
(g6
g7
(lp3856
g5
(g6
g7
(lp3857
g5
(g6
g7
(lp3858
VAnd
p3859
atp3860
Rp3861
(dp3862
g16
VCC
p3863
sbag5
(g6
g7
(lp3864
g5
(g6
g7
(lp3865
Vin
p3866
atp3867
Rp3868
(dp3869
g16
VIN
p3870
sbag5
(g6
g7
(lp3871
g5
(g6
g7
(lp3872
Vthe
p3873
atp3874
Rp3875
(dp3876
g16
VDT
p3877
sbag5
(g6
g7
(lp3878
Vexpanding
p3879
atp3880
Rp3881
(dp3882
g16
VVBG
p3883
sbag5
(g6
g7
(lp3884
VUniverse
p3885
atp3886
Rp3887
(dp3888
g16
VNNP
p3889
sbatp3890
Rp3891
(dp3892
g16
VNP
p3893
sbatp3894
Rp3895
(dp3896
g16
VPP
p3897
sbag5
(g6
g7
(lp3898
g618
atp3899
Rp3900
(dp3901
g16
g618
sbag5
(g6
g7
(lp3902
g5
(g6
g7
(lp3903
g5
(g6
g7
(lp3904
Vthe
p3905
atp3906
Rp3907
(dp3908
g16
VDT
p3909
sbag5
(g6
g7
(lp3910
Vlight
p3911
atp3912
Rp3913
(dp3914
g16
VNN
p3915
sbatp3916
Rp3917
(dp3918
g16
VNP
p3919
sbag5
(g6
g7
(lp3920
g5
(g6
g7
(lp3921
Vemitted
p3922
atp3923
Rp3924
(dp3925
g16
VVBN
p3926
sbag5
(g6
g7
(lp3927
g5
(g6
g7
(lp3928
Vby
p3929
atp3930
Rp3931
(dp3932
g16
VIN
p3933
sbag5
(g6
g7
(lp3934
g5
(g6
g7
(lp3935
Vdistant
p3936
atp3937
Rp3938
(dp3939
g16
VJJ
p3940
sbag5
(g6
g7
(lp3941
Vobjects
p3942
atp3943
Rp3944
(dp3945
g16
VNNS
p3946
sbatp3947
Rp3948
(dp3949
g16
VNP
p3950
sbatp3951
Rp3952
(dp3953
g16
VPP
p3954
sbatp3955
Rp3956
(dp3957
g16
VVP
p3958
sbatp3959
Rp3960
(dp3961
g16
VNP
p3962
sbag5
(g6
g7
(lp3963
g5
(g6
g7
(lp3964
Vis
p3965
atp3966
Rp3967
(dp3968
g16
VVBZ
p3969
sbag5
(g6
g7
(lp3970
g5
(g6
g7
(lp3971
Vredshifted
p3972
atp3973
Rp3974
(dp3975
g16
VVBN
p3976
sbatp3977
Rp3978
(dp3979
g16
VVP
p3980
sbatp3981
Rp3982
(dp3983
g16
VVP
p3984
sbag5
(g6
g7
(lp3985
g366
atp3986
Rp3987
(dp3988
g16
g366
sbatp3989
Rp3990
(dp3991
g16
g321
sbatp3992
Rp3993
(dp3994
g16
VROOT
p3995
sbag5
(g6
g7
(lp3996
g5
(g6
g7
(lp3997
g5
(g6
g7
(lp3998
g5
(g6
g7
(lp3999
VTherefore
p4000
atp4001
Rp4002
(dp4003
g16
VRB
p4004
sbatp4005
Rp4006
(dp4007
g16
VADVP
p4008
sbag5
(g6
g7
(lp4009
g618
atp4010
Rp4011
(dp4012
g16
g618
sbag5
(g6
g7
(lp4013
g5
(g6
g7
(lp4014
Vsearching
p4015
atp4016
Rp4017
(dp4018
g16
VVBG
p4019
sbag5
(g6
g7
(lp4020
g5
(g6
g7
(lp4021
Vfor
p4022
atp4023
Rp4024
(dp4025
g16
VIN
p4026
sbag5
(g6
g7
(lp4027
g5
(g6
g7
(lp4028
g5
(g6
g7
(lp4029
Vextremely
p4030
atp4031
Rp4032
(dp4033
g16
VRB
p4034
sbag5
(g6
g7
(lp4035
Vred
p4036
atp4037
Rp4038
(dp4039
g16
VJJ
p4040
sbatp4041
Rp4042
(dp4043
g16
VADJP
p4044
sbag5
(g6
g7
(lp4045
Vobjects
p4046
atp4047
Rp4048
(dp4049
g16
VNNS
p4050
sbatp4051
Rp4052
(dp4053
g16
VNP
p4054
sbatp4055
Rp4056
(dp4057
g16
VPP
p4058
sbatp4059
Rp4060
(dp4061
g16
VVP
p4062
sbag5
(g6
g7
(lp4063
g5
(g6
g7
(lp4064
Vfinds
p4065
atp4066
Rp4067
(dp4068
g16
VVBZ
p4069
sbag5
(g6
g7
(lp4070
g5
(g6
g7
(lp4071
g5
(g6
g7
(lp4072
Veither
p4073
atp4074
Rp4075
(dp4076
g16
VDT
p4077
sbag5
(g6
g7
(lp4078
g5
(g6
g7
(lp4079
Vextremely
p4080
atp4081
Rp4082
(dp4083
g16
VRB
p4084
sbag5
(g6
g7
(lp4085
Vcold
p4086
atp4087
Rp4088
(dp4089
g16
VJJ
p4090
sbatp4091
Rp4092
(dp4093
g16
VADJP
p4094
sbag5
(g6
g7
(lp4095
Vobjects
p4096
atp4097
Rp4098
(dp4099
g16
VNNS
p4100
sbatp4101
Rp4102
(dp4103
g16
VNP
p4104
sbag5
(g6
g7
(lp4105
Vor
p4106
atp4107
Rp4108
(dp4109
g16
VCC
p4110
sbag5
(g6
g7
(lp4111
g5
(g6
g7
(lp4112
Vextremely
p4113
atp4114
Rp4115
(dp4116
g16
VRB
p4117
sbag5
(g6
g7
(lp4118
Vdistant
p4119
atp4120
Rp4121
(dp4122
g16
VJJ
p4123
sbag5
(g6
g7
(lp4124
Vones
p4125
atp4126
Rp4127
(dp4128
g16
VNNS
p4129
sbatp4130
Rp4131
(dp4132
g16
VNP
p4133
sbatp4134
Rp4135
(dp4136
g16
VNP
p4137
sbatp4138
Rp4139
(dp4140
g16
VVP
p4141
sbag5
(g6
g7
(lp4142
g366
atp4143
Rp4144
(dp4145
g16
g366
sbatp4146
Rp4147
(dp4148
g16
g321
sbatp4149
Rp4150
(dp4151
g16
VROOT
p4152
sbasg377
(icmyPackage
CorE
p4153
(dp4154
g380
(lp4155
(I0
I0
tp4156
a(I0
I13
tp4157
asg384
g5
(g6
g7
(lp4158
g3861
ag3895
ag3900
ag3960
ag3982
atp4159
Rp4160
(dp4161
g16
g389
sbsbsg390
(icmyPackage
CorE
p4162
(dp4163
g380
(lp4164
(I1
I2
tp4165
a(I1
I16
tp4166
asg384
g5
(g6
g7
(lp4167
g4060
ag4139
ag4144
atp4168
Rp4169
(dp4170
g16
g389
sbsbsg400
(icmyPackage
pattern
p4171
(dp4172
g403
I62
sg404
I1
sg405
(lp4173
(lp4174
S'therefore'
p4175
aasg410
(lp4176
I1
aI1
aI1
asg412
(lp4177
S'He never lies; therefore, everyone likes to make friends with him.'
p4178
asg415
I1
sg416
(lp4179
(lp4180
S'&C'
p4181
aS'(,/;/./--)'
p4182
aS'(&AND)'
p4183
aa(lp4184
S'(,)'
p4185
aS'&R'
p4186
aasbsg422
(lp4187
(icmyPackage
Sent
p4188
(dp4189
g426
I1
sg427
I14
sg428
S'And in the expanding Universe, the light emitted by distant objects is redshifted.'
p4190
sg430
I0
sg431
I71
sg384
(lp4191
g3993
asba(icmyPackage
Sent
p4192
(dp4193
g426
I1
sg427
I14
sg428
S'Therefore, searching for extremely red objects finds either extremely cold objects or extremely distant ones.'
p4194
sg430
I0
sg431
I72
sg384
(lp4195
g4150
asbasba(icmyPackage
CELink
p4196
(dp4197
g3
(lp4198
g5
(g6
g7
(lp4199
g5
(g6
g7
(lp4200
g5
(g6
g7
(lp4201
g5
(g6
g7
(lp4202
VIf
p4203
atp4204
Rp4205
(dp4206
g16
VIN
p4207
sbag5
(g6
g7
(lp4208
g5
(g6
g7
(lp4209
g5
(g6
g7
(lp4210
g5
(g6
g7
(lp4211
g251
atp4212
Rp4213
(dp4214
g16
VDT
p4215
sbag5
(g6
g7
(lp4216
Vdark
p4217
atp4218
Rp4219
(dp4220
g16
VJJ
p4221
sbag5
(g6
g7
(lp4222
Vobject
p4223
atp4224
Rp4225
(dp4226
g16
VNN
p4227
sbatp4228
Rp4229
(dp4230
g16
VNP
p4231
sbag5
(g6
g7
(lp4232
g5
(g6
g7
(lp4233
Vin
p4234
atp4235
Rp4236
(dp4237
g16
VIN
p4238
sbag5
(g6
g7
(lp4239
g5
(g6
g7
(lp4240
Vour
p4241
atp4242
Rp4243
(dp4244
g16
VPRP$
p4245
sbag5
(g6
g7
(lp4246
Vgalaxy
p4247
atp4248
Rp4249
(dp4250
g16
VNN
p4251
sbatp4252
Rp4253
(dp4254
g16
VNP
p4255
sbatp4256
Rp4257
(dp4258
g16
VPP
p4259
sbatp4260
Rp4261
(dp4262
g16
VNP
p4263
sbag5
(g6
g7
(lp4264
g5
(g6
g7
(lp4265
Vpasses
p4266
atp4267
Rp4268
(dp4269
g16
VVBZ
p4270
sbag5
(g6
g7
(lp4271
g5
(g6
g7
(lp4272
Vin
p4273
atp4274
Rp4275
(dp4276
g16
VIN
p4277
sbag5
(g6
g7
(lp4278
g5
(g6
g7
(lp4279
g5
(g6
g7
(lp4280
Vfront
p4281
atp4282
Rp4283
(dp4284
g16
VNN
p4285
sbatp4286
Rp4287
(dp4288
g16
VNP
p4289
sbag5
(g6
g7
(lp4290
g5
(g6
g7
(lp4291
Vof
p4292
atp4293
Rp4294
(dp4295
g16
VIN
p4296
sbag5
(g6
g7
(lp4297
g5
(g6
g7
(lp4298
g251
atp4299
Rp4300
(dp4301
g16
VDT
p4302
sbag5
(g6
g7
(lp4303
Vstar
p4304
atp4305
Rp4306
(dp4307
g16
VNN
p4308
sbag5
(g6
g7
(lp4309
Vor
p4310
atp4311
Rp4312
(dp4313
g16
VCC
p4314
sbag5
(g6
g7
(lp4315
Vgalaxy
p4316
atp4317
Rp4318
(dp4319
g16
VNN
p4320
sbatp4321
Rp4322
(dp4323
g16
VNP
p4324
sbatp4325
Rp4326
(dp4327
g16
VPP
p4328
sbatp4329
Rp4330
(dp4331
g16
VNP
p4332
sbatp4333
Rp4334
(dp4335
g16
VPP
p4336
sbatp4337
Rp4338
(dp4339
g16
VVP
p4340
sbatp4341
Rp4342
(dp4343
g16
g321
sbatp4344
Rp4345
(dp4346
g16
VSBAR
p4347
sbag5
(g6
g7
(lp4348
g618
atp4349
Rp4350
(dp4351
g16
g618
sbag5
(g6
g7
(lp4352
g5
(g6
g7
(lp4353
Vwe
p4354
atp4355
Rp4356
(dp4357
g16
VPRP
p4358
sbatp4359
Rp4360
(dp4361
g16
VNP
p4362
sbag5
(g6
g7
(lp4363
g5
(g6
g7
(lp4364
Vcan
p4365
atp4366
Rp4367
(dp4368
g16
VMD
p4369
sbag5
(g6
g7
(lp4370
g5
(g6
g7
(lp4371
Vmeasure
p4372
atp4373
Rp4374
(dp4375
g16
VVB
p4376
sbag5
(g6
g7
(lp4377
g5
(g6
g7
(lp4378
g5
(g6
g7
(lp4379
g251
atp4380
Rp4381
(dp4382
g16
VDT
p4383
sbag5
(g6
g7
(lp4384
Vsudden
p4385
atp4386
Rp4387
(dp4388
g16
VJJ
p4389
sbag5
(g6
g7
(lp4390
Vbrightening
p4391
atp4392
Rp4393
(dp4394
g16
VNN
p4395
sbatp4396
Rp4397
(dp4398
g16
VNP
p4399
sbag5
(g6
g7
(lp4400
g5
(g6
g7
(lp4401
Vof
p4402
atp4403
Rp4404
(dp4405
g16
VIN
p4406
sbag5
(g6
g7
(lp4407
g5
(g6
g7
(lp4408
Vthe
p4409
atp4410
Rp4411
(dp4412
g16
VDT
p4413
sbag5
(g6
g7
(lp4414
Vbackground
p4415
atp4416
Rp4417
(dp4418
g16
VNN
p4419
sbag5
(g6
g7
(lp4420
Vobject
p4421
atp4422
Rp4423
(dp4424
g16
VNN
p4425
sbatp4426
Rp4427
(dp4428
g16
VNP
p4429
sbatp4430
Rp4431
(dp4432
g16
VPP
p4433
sbag5
(g6
g7
(lp4434
g618
atp4435
Rp4436
(dp4437
g16
g618
sbag5
(g6
g7
(lp4438
g5
(g6
g7
(lp4439
Vdue
p4440
atp4441
Rp4442
(dp4443
g16
VJJ
p4444
sbag5
(g6
g7
(lp4445
g5
(g6
g7
(lp4446
Vto
p4447
atp4448
Rp4449
(dp4450
g16
VTO
p4451
sbag5
(g6
g7
(lp4452
g5
(g6
g7
(lp4453
Vgravitational
p4454
atp4455
Rp4456
(dp4457
g16
VJJ
p4458
sbag5
(g6
g7
(lp4459
Vmicrolensing
p4460
atp4461
Rp4462
(dp4463
g16
VNN
p4464
sbatp4465
Rp4466
(dp4467
g16
VNP
p4468
sbatp4469
Rp4470
(dp4471
g16
VPP
p4472
sbatp4473
Rp4474
(dp4475
g16
VADJP
p4476
sbatp4477
Rp4478
(dp4479
g16
VNP
p4480
sbatp4481
Rp4482
(dp4483
g16
VVP
p4484
sbatp4485
Rp4486
(dp4487
g16
VVP
p4488
sbag5
(g6
g7
(lp4489
g366
atp4490
Rp4491
(dp4492
g16
g366
sbatp4493
Rp4494
(dp4495
g16
g321
sbatp4496
Rp4497
(dp4498
g16
VROOT
p4499
sbasg377
(icmyPackage
CorE
p4500
(dp4501
g380
(lp4502
(I0
I1
tp4503
a(I0
I14
tp4504
asg384
g4342
sbsg390
(icmyPackage
CorE
p4505
(dp4506
g380
(lp4507
(I0
I16
tp4508
a(I0
I31
tp4509
asg384
g5
(g6
g7
(lp4510
g4360
ag4486
ag4491
atp4511
Rp4512
(dp4513
g16
g389
sbsbsg400
g1760
sg422
(lp4514
(icmyPackage
Sent
p4515
(dp4516
g426
I2
sg427
I15
sg428
S'If a dark object in our galaxy passes in front of a star or galaxy, we can measure a sudden brightening of the background object, due to gravitational microlensing.'
p4517
sg430
I0
sg431
I82
sg384
(lp4518
g4497
asbasba(icmyPackage
CELink
p4519
(dp4520
g3
(lp4521
g4512
asg377
(icmyPackage
CorE
p4522
(dp4523
g380
(lp4524
(I0
I13
tp4525
a(I0
I14
tp4526
asg384
g4466
sbsg390
(icmyPackage
CorE
p4527
(dp4528
g380
(lp4529
(I0
I0
tp4530
a(I0
I10
tp4531
asg384
g5
(g6
g7
(lp4532
g4360
ag4367
ag4374
ag4397
ag4431
ag4436
atp4533
Rp4534
(dp4535
g16
g389
sbsbsg400
(icmyPackage
pattern
p4536
(dp4537
g403
I0
sg404
I0
sg405
(lp4538
(lp4539
S'due'
p4540
aS'to'
p4541
aasg410
(lp4542
I2
aI1
aI1
asg412
(lp4543
S'Data stored on hard disks is at higher risk due to the mechanical nature of the device.'
p4544
asg415
I72
sg416
(lp4545
(lp4546
S'&R'
p4547
aa(lp4548
S'&NP@C@'
p4549
aasbsg422
(lp4550
g4515
asba(icmyPackage
CELink
p4551
(dp4552
g3
(lp4553
g5
(g6
g7
(lp4554
g5
(g6
g7
(lp4555
g5
(g6
g7
(lp4556
g5
(g6
g7
(lp4557
VNot
p4558
atp4559
Rp4560
(dp4561
g16
VRB
p4562
sbag5
(g6
g7
(lp4563
g5
(g6
g7
(lp4564
g5
(g6
g7
(lp4565
Vonly
p4566
atp4567
Rp4568
(dp4569
g16
VRB
p4570
sbatp4571
Rp4572
(dp4573
g16
VADVP
p4574
sbag5
(g6
g7
(lp4575
g5
(g6
g7
(lp4576
Vdo
p4577
atp4578
Rp4579
(dp4580
g16
VVBP
p4581
sbag5
(g6
g7
(lp4582
g5
(g6
g7
(lp4583
g5
(g6
g7
(lp4584
g5
(g6
g7
(lp4585
Vwe
p4586
atp4587
Rp4588
(dp4589
g16
VPRP
p4590
sbatp4591
Rp4592
(dp4593
g16
VNP
p4594
sbag5
(g6
g7
(lp4595
g5
(g6
g7
(lp4596
Vneed
p4597
atp4598
Rp4599
(dp4600
g16
VVBP
p4601
sbag5
(g6
g7
(lp4602
g5
(g6
g7
(lp4603
g5
(g6
g7
(lp4604
Vto
p4605
atp4606
Rp4607
(dp4608
g16
VTO
p4609
sbag5
(g6
g7
(lp4610
g5
(g6
g7
(lp4611
Vmap
p4612
atp4613
Rp4614
(dp4615
g16
VVB
p4616
sbag5
(g6
g7
(lp4617
g5
(g6
g7
(lp4618
Vthe
p4619
atp4620
Rp4621
(dp4622
g16
VDT
p4623
sbag5
(g6
g7
(lp4624
VUniverse
p4625
atp4626
Rp4627
(dp4628
g16
VNN
p4629
sbatp4630
Rp4631
(dp4632
g16
VNP
p4633
sbag5
(g6
g7
(lp4634
g5
(g6
g7
(lp4635
Vat
p4636
atp4637
Rp4638
(dp4639
g16
VIN
p4640
sbag5
(g6
g7
(lp4641
g5
(g6
g7
(lp4642
Vmany
p4643
atp4644
Rp4645
(dp4646
g16
VJJ
p4647
sbag5
(g6
g7
(lp4648
Vdifferent
p4649
atp4650
Rp4651
(dp4652
g16
VJJ
p4653
sbag5
(g6
g7
(lp4654
Vwavelengths
p4655
atp4656
Rp4657
(dp4658
g16
VNNS
p4659
sbatp4660
Rp4661
(dp4662
g16
VNP
p4663
sbatp4664
Rp4665
(dp4666
g16
VPP
p4667
sbatp4668
Rp4669
(dp4670
g16
VVP
p4671
sbatp4672
Rp4673
(dp4674
g16
VVP
p4675
sbatp4676
Rp4677
(dp4678
g16
g321
sbatp4679
Rp4680
(dp4681
g16
VVP
p4682
sbatp4683
Rp4684
(dp4685
g16
g321
sbatp4686
Rp4687
(dp4688
g16
VSBAR
p4689
sbatp4690
Rp4691
(dp4692
g16
VVP
p4693
sbatp4694
Rp4695
(dp4696
g16
g321
sbatp4697
Rp4698
(dp4699
g16
VSBAR
p4700
sbag5
(g6
g7
(lp4701
g618
atp4702
Rp4703
(dp4704
g16
g618
sbag5
(g6
g7
(lp4705
g5
(g6
g7
(lp4706
Vwe
p4707
atp4708
Rp4709
(dp4710
g16
VPRP
p4711
sbatp4712
Rp4713
(dp4714
g16
VNP
p4715
sbag5
(g6
g7
(lp4716
g5
(g6
g7
(lp4717
Vneed
p4718
atp4719
Rp4720
(dp4721
g16
VVBP
p4722
sbag5
(g6
g7
(lp4723
g5
(g6
g7
(lp4724
g5
(g6
g7
(lp4725
Vto
p4726
atp4727
Rp4728
(dp4729
g16
VTO
p4730
sbag5
(g6
g7
(lp4731
g5
(g6
g7
(lp4732
Vdo
p4733
atp4734
Rp4735
(dp4736
g16
VVB
p4737
sbag5
(g6
g7
(lp4738
g5
(g6
g7
(lp4739
Vit
p4740
atp4741
Rp4742
(dp4743
g16
VPRP
p4744
sbatp4745
Rp4746
(dp4747
g16
VNP
p4748
sbag5
(g6
g7
(lp4749
g5
(g6
g7
(lp4750
Voften
p4751
atp4752
Rp4753
(dp4754
g16
VRB
p4755
sbatp4756
Rp4757
(dp4758
g16
VADVP
p4759
sbag5
(g6
g7
(lp4760
g618
atp4761
Rp4762
(dp4763
g16
g618
sbag5
(g6
g7
(lp4764
g5
(g6
g7
(lp4765
Vso
p4766
atp4767
Rp4768
(dp4769
g16
VRB
p4770
sbag5
(g6
g7
(lp4771
Vthat
p4772
atp4773
Rp4774
(dp4775
g16
VIN
p4776
sbag5
(g6
g7
(lp4777
g5
(g6
g7
(lp4778
g5
(g6
g7
(lp4779
Vwe
p4780
atp4781
Rp4782
(dp4783
g16
VPRP
p4784
sbatp4785
Rp4786
(dp4787
g16
VNP
p4788
sbag5
(g6
g7
(lp4789
g5
(g6
g7
(lp4790
Vcan
p4791
atp4792
Rp4793
(dp4794
g16
VMD
p4795
sbag5
(g6
g7
(lp4796
g5
(g6
g7
(lp4797
Vfind
p4798
atp4799
Rp4800
(dp4801
g16
VVB
p4802
sbag5
(g6
g7
(lp4803
g5
(g6
g7
(lp4804
Vthe
p4805
atp4806
Rp4807
(dp4808
g16
VDT
p4809
sbag5
(g6
g7
(lp4810
Vtemporal
p4811
atp4812
Rp4813
(dp4814
g16
VJJ
p4815
sbag5
(g6
g7
(lp4816
Vvariations
p4817
atp4818
Rp4819
(dp4820
g16
VNNS
p4821
sbatp4822
Rp4823
(dp4824
g16
VNP
p4825
sbag5
(g6
g7
(lp4826
g5
(g6
g7
(lp4827
Von
p4828
atp4829
Rp4830
(dp4831
g16
VIN
p4832
sbag5
(g6
g7
(lp4833
g5
(g6
g7
(lp4834
Vmany
p4835
atp4836
Rp4837
(dp4838
g16
VJJ
p4839
sbag5
(g6
g7
(lp4840
Vtime
p4841
atp4842
Rp4843
(dp4844
g16
VNN
p4845
sbag5
(g6
g7
(lp4846
Vscales
p4847
atp4848
Rp4849
(dp4850
g16
VNNS
p4851
sbatp4852
Rp4853
(dp4854
g16
VNP
p4855
sbatp4856
Rp4857
(dp4858
g16
VPP
p4859
sbatp4860
Rp4861
(dp4862
g16
VVP
p4863
sbatp4864
Rp4865
(dp4866
g16
VVP
p4867
sbatp4868
Rp4869
(dp4870
g16
g321
sbatp4871
Rp4872
(dp4873
g16
VSBAR
p4874
sbatp4875
Rp4876
(dp4877
g16
VVP
p4878
sbatp4879
Rp4880
(dp4881
g16
VVP
p4882
sbatp4883
Rp4884
(dp4885
g16
g321
sbatp4886
Rp4887
(dp4888
g16
VVP
p4889
sbag5
(g6
g7
(lp4890
g366
atp4891
Rp4892
(dp4893
g16
g366
sbatp4894
Rp4895
(dp4896
g16
g321
sbatp4897
Rp4898
(dp4899
g16
VROOT
p4900
sbasg377
(icmyPackage
CorE
p4901
(dp4902
g380
(lp4903
(I0
I0
tp4904
a(I0
I20
tp4905
asg384
g5
(g6
g7
(lp4906
g4698
ag4703
ag4713
ag4720
ag4728
ag4735
ag4746
ag4757
ag4762
atp4907
Rp4908
(dp4909
g16
g389
sbsbsg390
(icmyPackage
CorE
p4910
(dp4911
g380
(lp4912
(I0
I23
tp4913
a(I0
I33
tp4914
asg384
g5
(g6
g7
(lp4915
g4869
ag4892
atp4916
Rp4917
(dp4918
g16
g389
sbsbsg400
g401
sg422
(lp4919
(icmyPackage
Sent
p4920
(dp4921
g426
I2
sg427
I16
sg428
S'Not only do we need to map the Universe at many different wavelengths, we need to do it often, so that we can find the temporal variations on many time scales.'
p4922
sg430
I0
sg431
I88
sg384
(lp4923
g4898
asbasba(icmyPackage
CELink
p4924
(dp4925
g3
(lp4926
g5
(g6
g7
(lp4927
g5
(g6
g7
(lp4928
g5
(g6
g7
(lp4929
g5
(g6
g7
(lp4930
VOnce
p4931
atp4932
Rp4933
(dp4934
g16
VIN
p4935
sbag5
(g6
g7
(lp4936
g5
(g6
g7
(lp4937
g5
(g6
g7
(lp4938
g5
(g6
g7
(lp4939
Vthis
p4940
atp4941
Rp4942
(dp4943
g16
VDT
p4944
sbag5
(g6
g7
(lp4945
Vambitious
p4946
atp4947
Rp4948
(dp4949
g16
VJJ
p4950
sbag5
(g6
g7
(lp4951
Vgathering
p4952
atp4953
Rp4954
(dp4955
g16
VNN
p4956
sbatp4957
Rp4958
(dp4959
g16
VNP
p4960
sbag5
(g6
g7
(lp4961
g5
(g6
g7
(lp4962
Vof
p4963
atp4964
Rp4965
(dp4966
g16
VIN
p4967
sbag5
(g6
g7
(lp4968
g5
(g6
g7
(lp4969
Vpossibly
p4970
atp4971
Rp4972
(dp4973
g16
VRB
p4974
sbag5
(g6
g7
(lp4975
Vpetabyte-size
p4976
atp4977
Rp4978
(dp4979
g16
VJJ
p4980
sbag5
(g6
g7
(lp4981
Vdata
p4982
atp4983
Rp4984
(dp4985
g16
VNN
p4986
sbag5
(g6
g7
(lp4987
Vsets
p4988
atp4989
Rp4990
(dp4991
g16
VNNS
p4992
sbatp4993
Rp4994
(dp4995
g16
VNP
p4996
sbatp4997
Rp4998
(dp4999
g16
VPP
p5000
sbatp5001
Rp5002
(dp5003
g16
VNP
p5004
sbag5
(g6
g7
(lp5005
g5
(g6
g7
(lp5006
Vis
p5007
atp5008
Rp5009
(dp5010
g16
VVBZ
p5011
sbag5
(g6
g7
(lp5012
g5
(g6
g7
(lp5013
Vunder
p5014
atp5015
Rp5016
(dp5017
g16
VIN
p5018
sbag5
(g6
g7
(lp5019
g5
(g6
g7
(lp5020
Vway
p5021
atp5022
Rp5023
(dp5024
g16
VNN
p5025
sbatp5026
Rp5027
(dp5028
g16
VNP
p5029
sbatp5030
Rp5031
(dp5032
g16
VPP
p5033
sbatp5034
Rp5035
(dp5036
g16
VVP
p5037
sbatp5038
Rp5039
(dp5040
g16
g321
sbatp5041
Rp5042
(dp5043
g16
VSBAR
p5044
sbag5
(g6
g7
(lp5045
g618
atp5046
Rp5047
(dp5048
g16
g618
sbag5
(g6
g7
(lp5049
g5
(g6
g7
(lp5050
Vwe
p5051
atp5052
Rp5053
(dp5054
g16
VPRP
p5055
sbatp5056
Rp5057
(dp5058
g16
VNP
p5059
sbag5
(g6
g7
(lp5060
g5
(g6
g7
(lp5061
Vwill
p5062
atp5063
Rp5064
(dp5065
g16
VMD
p5066
sbag5
(g6
g7
(lp5067
g5
(g6
g7
(lp5068
Vneed
p5069
atp5070
Rp5071
(dp5072
g16
VVB
p5073
sbag5
(g6
g7
(lp5074
g5
(g6
g7
(lp5075
g5
(g6
g7
(lp5076
Vsummaries
p5077
atp5078
Rp5079
(dp5080
g16
VNNS
p5081
sbatp5082
Rp5083
(dp5084
g16
VNP
p5085
sbag5
(g6
g7
(lp5086
g5
(g6
g7
(lp5087
Vof
p5088
atp5089
Rp5090
(dp5091
g16
VIN
p5092
sbag5
(g6
g7
(lp5093
g5
(g6
g7
(lp5094
Vlight
p5095
atp5096
Rp5097
(dp5098
g16
VJJ
p5099
sbag5
(g6
g7
(lp5100
Vcurves
p5101
atp5102
Rp5103
(dp5104
g16
VNNS
p5105
sbatp5106
Rp5107
(dp5108
g16
VNP
p5109
sbatp5110
Rp5111
(dp5112
g16
VPP
p5113
sbatp5114
Rp5115
(dp5116
g16
VNP
p5117
sbatp5118
Rp5119
(dp5120
g16
VVP
p5121
sbatp5122
Rp5123
(dp5124
g16
VVP
p5125
sbag5
(g6
g7
(lp5126
V;
p5127
atp5128
Rp5129
(dp5130
g16
g2597
sbatp5131
Rp5132
(dp5133
g16
g321
sbatp5134
Rp5135
(dp5136
g16
VROOT
p5137
sbasg377
(icmyPackage
CorE
p5138
(dp5139
g380
(lp5140
(I0
I1
tp5141
a(I0
I11
tp5142
asg384
g5039
sbsg390
(icmyPackage
CorE
p5143
(dp5144
g380
(lp5145
(I0
I13
tp5146
a(I0
I20
tp5147
asg384
g5
(g6
g7
(lp5148
g5057
ag5123
ag5129
atp5149
Rp5150
(dp5151
g16
g389
sbsbsg400
g1760
sg422
(lp5152
(icmyPackage
Sent
p5153
(dp5154
g426
I2
sg427
I16
sg428
S'Once this ambitious gathering of possibly petabyte-size data sets is under way, we will need summaries of light curves;'
p5155
sg430
I0
sg431
I89
sg384
(lp5156
g5135
asbasba(icmyPackage
CELink
p5157
(dp5158
g3
(lp5159
g5
(g6
g7
(lp5160
g5
(g6
g7
(lp5161
g5
(g6
g7
(lp5162
g5
(g6
g7
(lp5163
g5
(g6
g7
(lp5164
VThe
p5165
atp5166
Rp5167
(dp5168
g16
VDT
p5169
sbag5
(g6
g7
(lp5170
Varchitecture
p5171
atp5172
Rp5173
(dp5174
g16
VNN
p5175
sbatp5176
Rp5177
(dp5178
g16
VNP
p5179
sbag5
(g6
g7
(lp5180
g5
(g6
g7
(lp5181
Vmust
p5182
atp5183
Rp5184
(dp5185
g16
VMD
p5186
sbag5
(g6
g7
(lp5187
g5
(g6
g7
(lp5188
Vbe
p5189
atp5190
Rp5191
(dp5192
g16
VVB
p5193
sbag5
(g6
g7
(lp5194
g5
(g6
g7
(lp5195
Vdesigned
p5196
atp5197
Rp5198
(dp5199
g16
VVBN
p5200
sbag5
(g6
g7
(lp5201
g5
(g6
g7
(lp5202
Vwith
p5203
atp5204
Rp5205
(dp5206
g16
VIN
p5207
sbag5
(g6
g7
(lp5208
g5
(g6
g7
(lp5209
g251
atp5210
Rp5211
(dp5212
g16
VDT
p5213
sbag5
(g6
g7
(lp5214
V50-year
p5215
atp5216
Rp5217
(dp5218
g16
VJJ
p5219
sbag5
(g6
g7
(lp5220
Vhorizon
p5221
atp5222
Rp5223
(dp5224
g16
VNN
p5225
sbatp5226
Rp5227
(dp5228
g16
VNP
p5229
sbatp5230
Rp5231
(dp5232
g16
VPP
p5233
sbag5
(g6
g7
(lp5234
g618
atp5235
Rp5236
(dp5237
g16
g618
sbag5
(g6
g7
(lp5238
g5
(g6
g7
(lp5239
Vbecause
p5240
atp5241
Rp5242
(dp5243
g16
VIN
p5244
sbag5
(g6
g7
(lp5245
g5
(g6
g7
(lp5246
g5
(g6
g7
(lp5247
Vthings
p5248
atp5249
Rp5250
(dp5251
g16
VNNS
p5252
sbatp5253
Rp5254
(dp5255
g16
VNP
p5256
sbag5
(g6
g7
(lp5257
g5
(g6
g7
(lp5258
Vchange
p5259
atp5260
Rp5261
(dp5262
g16
VVBP
p5263
sbag5
(g6
g7
(lp5264
g5
(g6
g7
(lp5265
Vsignificantly
p5266
atp5267
Rp5268
(dp5269
g16
VRB
p5270
sbatp5271
Rp5272
(dp5273
g16
VADVP
p5274
sbag5
(g6
g7
(lp5275
g5
(g6
g7
(lp5276
Vin
p5277
atp5278
Rp5279
(dp5280
g16
VIN
p5281
sbag5
(g6
g7
(lp5282
g5
(g6
g7
(lp5283
Vthat
p5284
atp5285
Rp5286
(dp5287
g16
VDT
p5288
sbag5
(g6
g7
(lp5289
Vtime
p5290
atp5291
Rp5292
(dp5293
g16
VNN
p5294
sbatp5295
Rp5296
(dp5297
g16
VNP
p5298
sbatp5299
Rp5300
(dp5301
g16
VPP
p5302
sbatp5303
Rp5304
(dp5305
g16
VVP
p5306
sbatp5307
Rp5308
(dp5309
g16
g321
sbatp5310
Rp5311
(dp5312
g16
VSBAR
p5313
sbatp5314
Rp5315
(dp5316
g16
VVP
p5317
sbatp5318
Rp5319
(dp5320
g16
VVP
p5321
sbatp5322
Rp5323
(dp5324
g16
VVP
p5325
sbatp5326
Rp5327
(dp5328
g16
g321
sbag5
(g6
g7
(lp5329
V--
p5330
atp5331
Rp5332
(dp5333
g16
g2597
sbag5
(g6
g7
(lp5334
g5
(g6
g7
(lp5335
g5
(g6
g7
(lp5336
Vcomputers
p5337
atp5338
Rp5339
(dp5340
g16
VNNS
p5341
sbatp5342
Rp5343
(dp5344
g16
VNP
p5345
sbag5
(g6
g7
(lp5346
g5
(g6
g7
(lp5347
Vwill
p5348
atp5349
Rp5350
(dp5351
g16
VMD
p5352
sbag5
(g6
g7
(lp5353
g5
(g6
g7
(lp5354
Vbe
p5355
atp5356
Rp5357
(dp5358
g16
VVB
p5359
sbag5
(g6
g7
(lp5360
g5
(g6
g7
(lp5361
g5
(g6
g7
(lp5362
g5
(g6
g7
(lp5363
g5
(g6
g7
(lp5364
Vseveral
p5365
atp5366
Rp5367
(dp5368
g16
VJJ
p5369
sbag5
(g6
g7
(lp5370
Vorders
p5371
atp5372
Rp5373
(dp5374
g16
VNNS
p5375
sbatp5376
Rp5377
(dp5378
g16
VNP
p5379
sbag5
(g6
g7
(lp5380
g5
(g6
g7
(lp5381
Vof
p5382
atp5383
Rp5384
(dp5385
g16
VIN
p5386
sbag5
(g6
g7
(lp5387
g5
(g6
g7
(lp5388
Vmagnitude
p5389
atp5390
Rp5391
(dp5392
g16
VNN
p5393
sbatp5394
Rp5395
(dp5396
g16
VNP
p5397
sbatp5398
Rp5399
(dp5400
g16
VPP
p5401
sbatp5402
Rp5403
(dp5404
g16
VNP
p5405
sbag5
(g6
g7
(lp5406
Vfaster
p5407
atp5408
Rp5409
(dp5410
g16
VJJR
p5411
sbatp5412
Rp5413
(dp5414
g16
VADJP
p5415
sbag5
(g6
g7
(lp5416
g618
atp5417
Rp5418
(dp5419
g16
g618
sbag5
(g6
g7
(lp5420
g5
(g6
g7
(lp5421
Vcheaper
p5422
atp5423
Rp5424
(dp5425
g16
VJJR
p5426
sbatp5427
Rp5428
(dp5429
g16
VADJP
p5430
sbag5
(g6
g7
(lp5431
g618
atp5432
Rp5433
(dp5434
g16
g618
sbag5
(g6
g7
(lp5435
Vand
p5436
atp5437
Rp5438
(dp5439
g16
VCC
p5440
sbag5
(g6
g7
(lp5441
g5
(g6
g7
(lp5442
Vsmarter
p5443
atp5444
Rp5445
(dp5446
g16
VRBR
p5447
sbatp5448
Rp5449
(dp5450
g16
VADVP
p5451
sbatp5452
Rp5453
(dp5454
g16
VADJP
p5455
sbatp5456
Rp5457
(dp5458
g16
VVP
p5459
sbatp5460
Rp5461
(dp5462
g16
VVP
p5463
sbatp5464
Rp5465
(dp5466
g16
g321
sbag5
(g6
g7
(lp5467
g366
atp5468
Rp5469
(dp5470
g16
g366
sbatp5471
Rp5472
(dp5473
g16
g321
sbatp5474
Rp5475
(dp5476
g16
VROOT
p5477
sbasg377
(icmyPackage
CorE
p5478
(dp5479
g380
(lp5480
(I0
I11
tp5481
a(I0
I31
tp5482
asg384
g5
(g6
g7
(lp5483
g5308
ag5332
ag5465
ag5469
atp5484
Rp5485
(dp5486
g16
g389
sbsbsg390
(icmyPackage
CorE
p5487
(dp5488
g380
(lp5489
(I0
I0
tp5490
a(I0
I8
tp5491
asg384
g5
(g6
g7
(lp5492
g5177
ag5184
ag5191
ag5198
ag5231
atp5493
Rp5494
(dp5495
g16
g389
sbsbsg400
(icmyPackage
pattern
p5496
(dp5497
g403
I407
sg404
I1
sg405
(lp5498
(lp5499
S'because'
p5500
aasg410
(lp5501
I3
aI1
aI1
asg412
(lp5502
S'It ends up in burnout and less production, because we inevitably run out of energy.'
p5503
asg415
I76
sg416
(lp5504
(lp5505
S'&R'
p5506
aS'(,)'
p5507
aS'(&ADV)'
p5508
aa(lp5509
S'&C'
p5510
aasbsg422
(lp5511
(icmyPackage
Sent
p5512
(dp5513
g426
I2
sg427
I17
sg428
S'The architecture must be designed with a 50-year horizon, because things change significantly in that time -- computers will be several orders of magnitude faster, cheaper, and smarter.'
p5514
sg430
I0
sg431
I93
sg384
(lp5515
g5475
asbasba(icmyPackage
CELink
p5516
(dp5517
g3
(lp5518
g5475
ag5
(g6
g7
(lp5519
g5
(g6
g7
(lp5520
g5
(g6
g7
(lp5521
VSo
p5522
atp5523
Rp5524
(dp5525
g16
VIN
p5526
sbag5
(g6
g7
(lp5527
g5
(g6
g7
(lp5528
Vthe
p5529
atp5530
Rp5531
(dp5532
g16
VDT
p5533
sbag5
(g6
g7
(lp5534
Varchitecture
p5535
atp5536
Rp5537
(dp5538
g16
VNN
p5539
sbatp5540
Rp5541
(dp5542
g16
VNP
p5543
sbag5
(g6
g7
(lp5544
g5
(g6
g7
(lp5545
Vmust
p5546
atp5547
Rp5548
(dp5549
g16
VMD
p5550
sbag5
(g6
g7
(lp5551
Vnot
p5552
atp5553
Rp5554
(dp5555
g16
VRB
p5556
sbag5
(g6
g7
(lp5557
g5
(g6
g7
(lp5558
Vmake
p5559
atp5560
Rp5561
(dp5562
g16
VVB
p5563
sbag5
(g6
g7
(lp5564
g5
(g6
g7
(lp5565
Vshort-term
p5566
atp5567
Rp5568
(dp5569
g16
VJJ
p5570
sbag5
(g6
g7
(lp5571
Vtechnology
p5572
atp5573
Rp5574
(dp5575
g16
VNN
p5576
sbag5
(g6
g7
(lp5577
Vcompromises
p5578
atp5579
Rp5580
(dp5581
g16
VNNS
p5582
sbatp5583
Rp5584
(dp5585
g16
VNP
p5586
sbatp5587
Rp5588
(dp5589
g16
VVP
p5590
sbatp5591
Rp5592
(dp5593
g16
VVP
p5594
sbag5
(g6
g7
(lp5595
g366
atp5596
Rp5597
(dp5598
g16
g366
sbatp5599
Rp5600
(dp5601
g16
g321
sbatp5602
Rp5603
(dp5604
g16
VROOT
p5605
sbasg377
(icmyPackage
CorE
p5606
(dp5607
g380
(lp5608
(I0
I0
tp5609
a(I0
I30
tp5610
asg384
g5
(g6
g7
(lp5611
g5327
ag5332
ag5465
atp5612
Rp5613
(dp5614
g16
g389
sbsbsg390
(icmyPackage
CorE
p5615
(dp5616
g380
(lp5617
(I1
I1
tp5618
a(I1
I9
tp5619
asg384
g5
(g6
g7
(lp5620
g5541
ag5592
ag5597
atp5621
Rp5622
(dp5623
g16
g389
sbsbsg400
(icmyPackage
pattern
p5624
(dp5625
g403
I265
sg404
I1
sg405
(lp5626
(lp5627
S'so'
p5628
aasg410
(lp5629
I1
aI1
aI1
asg412
(lp5630
S'It was not long before he saw me looking at him, and so he began to move.'
p5631
asg415
I0
sg416
(lp5632
(lp5633
S'&C'
p5634
aS'(,/;/./--)'
p5635
aS'(&AND)'
p5636
aa(lp5637
S'(-far)'
p5638
aS'(,)'
p5639
aS'&R'
p5640
aasbsg422
(lp5641
g5512
a(icmyPackage
Sent
p5642
(dp5643
g426
I2
sg427
I17
sg428
S'So the architecture must not make short-term technology compromises.'
p5644
sg430
I0
sg431
I94
sg384
(lp5645
g5603
asbasba(icmyPackage
CELink
p5646
(dp5647
g3
(lp5648
g5
(g6
g7
(lp5649
g5
(g6
g7
(lp5650
g5
(g6
g7
(lp5651
g5
(g6
g7
(lp5652
g5
(g6
g7
(lp5653
g1014
atp5654
Rp5655
(dp5656
g16
VDT
p5657
sbag5
(g6
g7
(lp5658
Vfew
p5659
atp5660
Rp5661
(dp5662
g16
VJJ
p5663
sbag5
(g6
g7
(lp5664
Vastronomers
p5665
atp5666
Rp5667
(dp5668
g16
VNNS
p5669
sbatp5670
Rp5671
(dp5672
g16
VNP
p5673
sbag5
(g6
g7
(lp5674
g5
(g6
g7
(lp5675
Vhave
p5676
atp5677
Rp5678
(dp5679
g16
VVBP
p5680
sbag5
(g6
g7
(lp5681
g5
(g6
g7
(lp5682
Vaccess
p5683
atp5684
Rp5685
(dp5686
g16
VNN
p5687
sbatp5688
Rp5689
(dp5690
g16
VNP
p5691
sbag5
(g6
g7
(lp5692
g5
(g6
g7
(lp5693
Vto
p5694
atp5695
Rp5696
(dp5697
g16
VTO
p5698
sbag5
(g6
g7
(lp5699
g5
(g6
g7
(lp5700
g5
(g6
g7
(lp5701
g251
atp5702
Rp5703
(dp5704
g16
VDT
p5705
sbag5
(g6
g7
(lp5706
Vprivate
p5707
atp5708
Rp5709
(dp5710
g16
VJJ
p5711
sbag5
(g6
g7
(lp5712
Vdata
p5713
atp5714
Rp5715
(dp5716
g16
VNN
p5717
sbag5
(g6
g7
(lp5718
Vstream
p5719
atp5720
Rp5721
(dp5722
g16
VNN
p5723
sbatp5724
Rp5725
(dp5726
g16
VNP
p5727
sbag5
(g6
g7
(lp5728
g5
(g6
g7
(lp5729
Vfrom
p5730
atp5731
Rp5732
(dp5733
g16
VIN
p5734
sbag5
(g6
g7
(lp5735
g5
(g6
g7
(lp5736
Vsome
p5737
atp5738
Rp5739
(dp5740
g16
VDT
p5741
sbag5
(g6
g7
(lp5742
Vinstrument
p5743
atp5744
Rp5745
(dp5746
g16
VNN
p5747
sbatp5748
Rp5749
(dp5750
g16
VNP
p5751
sbatp5752
Rp5753
(dp5754
g16
VPP
p5755
sbatp5756
Rp5757
(dp5758
g16
VNP
p5759
sbatp5760
Rp5761
(dp5762
g16
VPP
p5763
sbatp5764
Rp5765
(dp5766
g16
VVP
p5767
sbatp5768
Rp5769
(dp5770
g16
g321
sbag5
(g6
g7
(lp5771
g618
atp5772
Rp5773
(dp5774
g16
g618
sbag5
(g6
g7
(lp5775
Vso
p5776
atp5777
Rp5778
(dp5779
g16
VIN
p5780
sbag5
(g6
g7
(lp5781
g5
(g6
g7
(lp5782
g5
(g6
g7
(lp5783
Vwe
p5784
atp5785
Rp5786
(dp5787
g16
VPRP
p5788
sbatp5789
Rp5790
(dp5791
g16
VNP
p5792
sbag5
(g6
g7
(lp5793
g5
(g6
g7
(lp5794
Vestimate
p5795
atp5796
Rp5797
(dp5798
g16
VVBP
p5799
sbag5
(g6
g7
(lp5800
g5
(g6
g7
(lp5801
Vthat
p5802
atp5803
Rp5804
(dp5805
g16
VIN
p5806
sbag5
(g6
g7
(lp5807
g5
(g6
g7
(lp5808
g5
(g6
g7
(lp5809
Veveryone
p5810
atp5811
Rp5812
(dp5813
g16
VNN
p5814
sbatp5815
Rp5816
(dp5817
g16
VNP
p5818
sbag5
(g6
g7
(lp5819
g5
(g6
g7
(lp5820
Vhas
p5821
atp5822
Rp5823
(dp5824
g16
VVBZ
p5825
sbag5
(g6
g7
(lp5826
g5
(g6
g7
(lp5827
Vaccess
p5828
atp5829
Rp5830
(dp5831
g16
VNN
p5832
sbatp5833
Rp5834
(dp5835
g16
VNP
p5836
sbag5
(g6
g7
(lp5837
g5
(g6
g7
(lp5838
Vto
p5839
atp5840
Rp5841
(dp5842
g16
VTO
p5843
sbag5
(g6
g7
(lp5844
g5
(g6
g7
(lp5845
g5
(g6
g7
(lp5846
V50
p5847
atp5848
Rp5849
(dp5850
g16
VCD
p5851
sbag5
(g6
g7
(lp5852
V%
p5853
atp5854
Rp5855
(dp5856
g16
VNN
p5857
sbatp5858
Rp5859
(dp5860
g16
VNP
p5861
sbag5
(g6
g7
(lp5862
g5
(g6
g7
(lp5863
Vof
p5864
atp5865
Rp5866
(dp5867
g16
VIN
p5868
sbag5
(g6
g7
(lp5869
g5
(g6
g7
(lp5870
Vthe
p5871
atp5872
Rp5873
(dp5874
g16
VDT
p5875
sbag5
(g6
g7
(lp5876
Vdata
p5877
atp5878
Rp5879
(dp5880
g16
VNNS
p5881
sbatp5882
Rp5883
(dp5884
g16
VNP
p5885
sbatp5886
Rp5887
(dp5888
g16
VPP
p5889
sbatp5890
Rp5891
(dp5892
g16
VNP
p5893
sbatp5894
Rp5895
(dp5896
g16
VPP
p5897
sbatp5898
Rp5899
(dp5900
g16
VVP
p5901
sbatp5902
Rp5903
(dp5904
g16
g321
sbatp5905
Rp5906
(dp5907
g16
VSBAR
p5908
sbatp5909
Rp5910
(dp5911
g16
VVP
p5912
sbatp5913
Rp5914
(dp5915
g16
g321
sbag5
(g6
g7
(lp5916
Vand
p5917
atp5918
Rp5919
(dp5920
g16
VCC
p5921
sbag5
(g6
g7
(lp5922
g5
(g6
g7
(lp5923
g5
(g6
g7
(lp5924
Vsome
p5925
atp5926
Rp5927
(dp5928
g16
VDT
p5929
sbatp5930
Rp5931
(dp5932
g16
VNP
p5933
sbag5
(g6
g7
(lp5934
g5
(g6
g7
(lp5935
Vhave
p5936
atp5937
Rp5938
(dp5939
g16
VVBP
p5940
sbag5
(g6
g7
(lp5941
g5
(g6
g7
(lp5942
Vaccess
p5943
atp5944
Rp5945
(dp5946
g16
VNN
p5947
sbatp5948
Rp5949
(dp5950
g16
VNP
p5951
sbag5
(g6
g7
(lp5952
g5
(g6
g7
(lp5953
Vto
p5954
atp5955
Rp5956
(dp5957
g16
VTO
p5958
sbag5
(g6
g7
(lp5959
g5
(g6
g7
(lp5960
g5
(g6
g7
(lp5961
V55
p5962
atp5963
Rp5964
(dp5965
g16
VCD
p5966
sbag5
(g6
g7
(lp5967
g5853
atp5968
Rp5969
(dp5970
g16
VNN
p5971
sbatp5972
Rp5973
(dp5974
g16
VNP
p5975
sbag5
(g6
g7
(lp5976
g5
(g6
g7
(lp5977
Vof
p5978
atp5979
Rp5980
(dp5981
g16
VIN
p5982
sbag5
(g6
g7
(lp5983
g5
(g6
g7
(lp5984
Vthe
p5985
atp5986
Rp5987
(dp5988
g16
VDT
p5989
sbag5
(g6
g7
(lp5990
Vdata
p5991
atp5992
Rp5993
(dp5994
g16
VNNS
p5995
sbatp5996
Rp5997
(dp5998
g16
VNP
p5999
sbatp6000
Rp6001
(dp6002
g16
VPP
p6003
sbatp6004
Rp6005
(dp6006
g16
VNP
p6007
sbatp6008
Rp6009
(dp6010
g16
VPP
p6011
sbatp6012
Rp6013
(dp6014
g16
VVP
p6015
sbatp6016
Rp6017
(dp6018
g16
g321
sbag5
(g6
g7
(lp6019
g366
atp6020
Rp6021
(dp6022
g16
g366
sbatp6023
Rp6024
(dp6025
g16
g321
sbatp6026
Rp6027
(dp6028
g16
VROOT
p6029
sbasg377
(icmyPackage
CorE
p6030
(dp6031
g380
(lp6032
(I0
I0
tp6033
a(I0
I12
tp6034
asg384
g5769
sbsg390
(icmyPackage
CorE
p6035
(dp6036
g380
(lp6037
(I0
I15
tp6038
a(I0
I37
tp6039
asg384
g5
(g6
g7
(lp6040
g5914
ag5919
ag6017
ag6021
atp6041
Rp6042
(dp6043
g16
g389
sbsbsg400
g5624
sg422
(lp6044
(icmyPackage
Sent
p6045
(dp6046
g426
I2
sg427
I19
sg428
S'A few astronomers have access to a private data stream from some instrument, so we estimate that everyone has access to 50% of the data and some have access to 55% of the data.'
p6047
sg430
I0
sg431
I104
sg384
(lp6048
g6027
asbasba(icmyPackage
CELink
p6049
(dp6050
g3
(lp6051
g5
(g6
g7
(lp6052
g5
(g6
g7
(lp6053
g5
(g6
g7
(lp6054
g5
(g6
g7
(lp6055
g5
(g6
g7
(lp6056
VEach
p6057
atp6058
Rp6059
(dp6060
g16
VDT
p6061
sbag5
(g6
g7
(lp6062
Varchive
p6063
atp6064
Rp6065
(dp6066
g16
VNN
p6067
sbatp6068
Rp6069
(dp6070
g16
VNP
p6071
sbag5
(g6
g7
(lp6072
g5
(g6
g7
(lp6073
Vneeds
p6074
atp6075
Rp6076
(dp6077
g16
VVBZ
p6078
sbag5
(g6
g7
(lp6079
g5
(g6
g7
(lp6080
g5
(g6
g7
(lp6081
Vto
p6082
atp6083
Rp6084
(dp6085
g16
VTO
p6086
sbag5
(g6
g7
(lp6087
g5
(g6
g7
(lp6088
g5
(g6
g7
(lp6089
Veasily
p6090
atp6091
Rp6092
(dp6093
g16
VRB
p6094
sbatp6095
Rp6096
(dp6097
g16
VADVP
p6098
sbag5
(g6
g7
(lp6099
Vpresent
p6100
atp6101
Rp6102
(dp6103
g16
VVB
p6104
sbag5
(g6
g7
(lp6105
g5
(g6
g7
(lp6106
Vits
p6107
atp6108
Rp6109
(dp6110
g16
VPRP$
p6111
sbag5
(g6
g7
(lp6112
Vdata
p6113
atp6114
Rp6115
(dp6116
g16
VNNS
p6117
sbatp6118
Rp6119
(dp6120
g16
VNP
p6121
sbag5
(g6
g7
(lp6122
g5
(g6
g7
(lp6123
Vin
p6124
atp6125
Rp6126
(dp6127
g16
VIN
p6128
sbag5
(g6
g7
(lp6129
g5
(g6
g7
(lp6130
Vcompatible
p6131
atp6132
Rp6133
(dp6134
g16
VJJ
p6135
sbag5
(g6
g7
(lp6136
Vformats
p6137
atp6138
Rp6139
(dp6140
g16
VNNS
p6141
sbatp6142
Rp6143
(dp6144
g16
VNP
p6145
sbatp6146
Rp6147
(dp6148
g16
VPP
p6149
sbatp6150
Rp6151
(dp6152
g16
VVP
p6153
sbatp6154
Rp6155
(dp6156
g16
VVP
p6157
sbatp6158
Rp6159
(dp6160
g16
g321
sbatp6161
Rp6162
(dp6163
g16
VVP
p6164
sbatp6165
Rp6166
(dp6167
g16
g321
sbag5
(g6
g7
(lp6168
g618
atp6169
Rp6170
(dp6171
g16
g618
sbag5
(g6
g7
(lp6172
Vand
p6173
atp6174
Rp6175
(dp6176
g16
VCC
p6177
sbag5
(g6
g7
(lp6178
g5
(g6
g7
(lp6179
g5
(g6
g7
(lp6180
Vthe
p6181
atp6182
Rp6183
(dp6184
g16
VDT
p6185
sbag5
(g6
g7
(lp6186
Varchives
p6187
atp6188
Rp6189
(dp6190
g16
VNNS
p6191
sbatp6192
Rp6193
(dp6194
g16
VNP
p6195
sbag5
(g6
g7
(lp6196
g5
(g6
g7
(lp6197
Vmust
p6198
atp6199
Rp6200
(dp6201
g16
VMD
p6202
sbag5
(g6
g7
(lp6203
g5
(g6
g7
(lp6204
Vbe
p6205
atp6206
Rp6207
(dp6208
g16
VVB
p6209
sbag5
(g6
g7
(lp6210
g5
(g6
g7
(lp6211
Vable
p6212
atp6213
Rp6214
(dp6215
g16
VJJ
p6216
sbag5
(g6
g7
(lp6217
g5
(g6
g7
(lp6218
g5
(g6
g7
(lp6219
Vto
p6220
atp6221
Rp6222
(dp6223
g16
VTO
p6224
sbag5
(g6
g7
(lp6225
g5
(g6
g7
(lp6226
Vexchange
p6227
atp6228
Rp6229
(dp6230
g16
VVB
p6231
sbag5
(g6
g7
(lp6232
g5
(g6
g7
(lp6233
Vdata
p6234
atp6235
Rp6236
(dp6237
g16
VNNS
p6238
sbatp6239
Rp6240
(dp6241
g16
VNP
p6242
sbatp6243
Rp6244
(dp6245
g16
VVP
p6246
sbatp6247
Rp6248
(dp6249
g16
VVP
p6250
sbatp6251
Rp6252
(dp6253
g16
g321
sbatp6254
Rp6255
(dp6256
g16
VADJP
p6257
sbatp6258
Rp6259
(dp6260
g16
VVP
p6261
sbatp6262
Rp6263
(dp6264
g16
VVP
p6265
sbatp6266
Rp6267
(dp6268
g16
g321
sbag5
(g6
g7
(lp6269
g366
atp6270
Rp6271
(dp6272
g16
g366
sbatp6273
Rp6274
(dp6275
g16
g321
sbatp6276
Rp6277
(dp6278
g16
VROOT
p6279
sbag5
(g6
g7
(lp6280
g5
(g6
g7
(lp6281
g5
(g6
g7
(lp6282
g5
(g6
g7
(lp6283
VThis
p6284
atp6285
Rp6286
(dp6287
g16
VDT
p6288
sbag5
(g6
g7
(lp6289
Vuniform
p6290
atp6291
Rp6292
(dp6293
g16
VJJ
p6294
sbag5
(g6
g7
(lp6295
Vview
p6296
atp6297
Rp6298
(dp6299
g16
VNN
p6300
sbatp6301
Rp6302
(dp6303
g16
VNP
p6304
sbag5
(g6
g7
(lp6305
g5
(g6
g7
(lp6306
Vwill
p6307
atp6308
Rp6309
(dp6310
g16
VMD
p6311
sbag5
(g6
g7
(lp6312
g5
(g6
g7
(lp6313
Vrequire
p6314
atp6315
Rp6316
(dp6317
g16
VVB
p6318
sbag5
(g6
g7
(lp6319
g5
(g6
g7
(lp6320
Vagreement
p6321
atp6322
Rp6323
(dp6324
g16
VNN
p6325
sbatp6326
Rp6327
(dp6328
g16
VNP
p6329
sbag5
(g6
g7
(lp6330
g5
(g6
g7
(lp6331
g5
(g6
g7
(lp6332
Von
p6333
atp6334
Rp6335
(dp6336
g16
VIN
p6337
sbag5
(g6
g7
(lp6338
g5
(g6
g7
(lp6339
Vterminology
p6340
atp6341
Rp6342
(dp6343
g16
VNN
p6344
sbatp6345
Rp6346
(dp6347
g16
VNP
p6348
sbatp6349
Rp6350
(dp6351
g16
VPP
p6352
sbag5
(g6
g7
(lp6353
g618
atp6354
Rp6355
(dp6356
g16
g618
sbag5
(g6
g7
(lp6357
g5
(g6
g7
(lp6358
Von
p6359
atp6360
Rp6361
(dp6362
g16
VIN
p6363
sbag5
(g6
g7
(lp6364
g5
(g6
g7
(lp6365
Vunits
p6366
atp6367
Rp6368
(dp6369
g16
VNNS
p6370
sbatp6371
Rp6372
(dp6373
g16
VNP
p6374
sbatp6375
Rp6376
(dp6377
g16
VPP
p6378
sbag5
(g6
g7
(lp6379
g618
atp6380
Rp6381
(dp6382
g16
g618
sbag5
(g6
g7
(lp6383
Vand
p6384
atp6385
Rp6386
(dp6387
g16
VCC
p6388
sbag5
(g6
g7
(lp6389
g5
(g6
g7
(lp6390
Von
p6391
atp6392
Rp6393
(dp6394
g16
VIN
p6395
sbag5
(g6
g7
(lp6396
g5
(g6
g7
(lp6397
g5
(g6
g7
(lp6398
Vrepresentations
p6399
atp6400
Rp6401
(dp6402
g16
VNNS
p6403
sbatp6404
Rp6405
(dp6406
g16
VNP
p6407
sbag5
(g6
g7
(lp6408
V--
p6409
atp6410
Rp6411
(dp6412
g16
g2597
sbag5
(g6
g7
(lp6413
g5
(g6
g7
(lp6414
g5
(g6
g7
(lp6415
g251
atp6416
Rp6417
(dp6418
g16
VDT
p6419
sbag5
(g6
g7
(lp6420
Vunified
p6421
atp6422
Rp6423
(dp6424
g16
VJJ
p6425
sbag5
(g6
g7
(lp6426
Vconceptual
p6427
atp6428
Rp6429
(dp6430
g16
VJJ
p6431
sbag5
(g6
g7
(lp6432
Vschema
p6433
atp6434
Rp6435
(dp6436
g16
VNN
p6437
sbatp6438
Rp6439
(dp6440
g16
VNP
p6441
sbag5
(g6
g7
(lp6442
g5
(g6
g7
(lp6443
V-LRB-
p6444
atp6445
Rp6446
(dp6447
g16
V-LRB-
p6448
sbag5
(g6
g7
(lp6449
g5
(g6
g7
(lp6450
Vdata
p6451
atp6452
Rp6453
(dp6454
g16
VNN
p6455
sbag5
(g6
g7
(lp6456
Vmodel
p6457
atp6458
Rp6459
(dp6460
g16
VNN
p6461
sbatp6462
Rp6463
(dp6464
g16
VNP
p6465
sbag5
(g6
g7
(lp6466
V-RRB-
p6467
atp6468
Rp6469
(dp6470
g16
V-RRB-
p6471
sbatp6472
Rp6473
(dp6474
g16
VPRN
p6475
sbag5
(g6
g7
(lp6476
g5
(g6
g7
(lp6477
g5
(g6
g7
(lp6478
Vthat
p6479
atp6480
Rp6481
(dp6482
g16
VWDT
p6483
sbatp6484
Rp6485
(dp6486
g16
VWHNP
p6487
sbag5
(g6
g7
(lp6488
g5
(g6
g7
(lp6489
g5
(g6
g7
(lp6490
Vdescribes
p6491
atp6492
Rp6493
(dp6494
g16
VVBZ
p6495
sbag5
(g6
g7
(lp6496
g5
(g6
g7
(lp6497
g5
(g6
g7
(lp6498
Vall
p6499
atp6500
Rp6501
(dp6502
g16
VPDT
p6503
sbag5
(g6
g7
(lp6504
Vthe
p6505
atp6506
Rp6507
(dp6508
g16
VDT
p6509
sbag5
(g6
g7
(lp6510
Vdata
p6511
atp6512
Rp6513
(dp6514
g16
VNNS
p6515
sbatp6516
Rp6517
(dp6518
g16
VNP
p6519
sbag5
(g6
g7
(lp6520
g5
(g6
g7
(lp6521
Vin
p6522
atp6523
Rp6524
(dp6525
g16
VIN
p6526
sbag5
(g6
g7
(lp6527
g5
(g6
g7
(lp6528
g5
(g6
g7
(lp6529
Vall
p6530
atp6531
Rp6532
(dp6533
g16
VPDT
p6534
sbag5
(g6
g7
(lp6535
Vthe
p6536
atp6537
Rp6538
(dp6539
g16
VDT
p6540
sbag5
(g6
g7
(lp6541
Varchives
p6542
atp6543
Rp6544
(dp6545
g16
VNNS
p6546
sbatp6547
Rp6548
(dp6549
g16
VNP
p6550
sbag5
(g6
g7
(lp6551
g5
(g6
g7
(lp6552
Vwith
p6553
atp6554
Rp6555
(dp6556
g16
VIN
p6557
sbag5
(g6
g7
(lp6558
g5
(g6
g7
(lp6559
g251
atp6560
Rp6561
(dp6562
g16
VDT
p6563
sbag5
(g6
g7
(lp6564
Vcommon
p6565
atp6566
Rp6567
(dp6568
g16
VJJ
p6569
sbag5
(g6
g7
(lp6570
Vterminology
p6571
atp6572
Rp6573
(dp6574
g16
VNN
p6575
sbatp6576
Rp6577
(dp6578
g16
VNP
p6579
sbatp6580
Rp6581
(dp6582
g16
VPP
p6583
sbatp6584
Rp6585
(dp6586
g16
VNP
p6587
sbatp6588
Rp6589
(dp6590
g16
VPP
p6591
sbatp6592
Rp6593
(dp6594
g16
VNP
p6595
sbag5
(g6
g7
(lp6596
g618
atp6597
Rp6598
(dp6599
g16
g618
sbag5
(g6
g7
(lp6600
g5
(g6
g7
(lp6601
Vlike
p6602
atp6603
Rp6604
(dp6605
g16
VIN
p6606
sbag5
(g6
g7
(lp6607
g5
(g6
g7
(lp6608
g5
(g6
g7
(lp6609
VVizier
p6610
atp6611
Rp6612
(dp6613
g16
VNNP
p6614
sbatp6615
Rp6616
(dp6617
g16
VNP
p6618
sbag5
(g6
g7
(lp6619
g5
(g6
g7
(lp6620
V-LRB-
p6621
atp6622
Rp6623
(dp6624
g16
V-LRB-
p6625
sbag5
(g6
g7
(lp6626
g5
(g6
g7
(lp6627
V10
p6628
atp6629
Rp6630
(dp6631
g16
VCD
p6632
sbatp6633
Rp6634
(dp6635
g16
VNP
p6636
sbag5
(g6
g7
(lp6637
V-RRB-
p6638
atp6639
Rp6640
(dp6641
g16
V-RRB-
p6642
sbatp6643
Rp6644
(dp6645
g16
VPRN
p6646
sbatp6647
Rp6648
(dp6649
g16
VNP
p6650
sbatp6651
Rp6652
(dp6653
g16
VPP
p6654
sbatp6655
Rp6656
(dp6657
g16
VVP
p6658
sbatp6659
Rp6660
(dp6661
g16
g321
sbatp6662
Rp6663
(dp6664
g16
VSBAR
p6665
sbatp6666
Rp6667
(dp6668
g16
VNP
p6669
sbatp6670
Rp6671
(dp6672
g16
VNP
p6673
sbatp6674
Rp6675
(dp6676
g16
VPP
p6677
sbatp6678
Rp6679
(dp6680
g16
VPP
p6681
sbatp6682
Rp6683
(dp6684
g16
VVP
p6685
sbatp6686
Rp6687
(dp6688
g16
VVP
p6689
sbag5
(g6
g7
(lp6690
g366
atp6691
Rp6692
(dp6693
g16
g366
sbatp6694
Rp6695
(dp6696
g16
g321
sbatp6697
Rp6698
(dp6699
g16
VROOT
p6700
sbasg377
(icmyPackage
CorE
p6701
(dp6702
g380
(lp6703
(I1
I5
tp6704
a(I1
I42
tp6705
asg384
g5
(g6
g7
(lp6706
g6327
ag6679
atp6707
Rp6708
(dp6709
g16
g389
sbsbsg390
(icmyPackage
CorE
p6710
(dp6711
g380
(lp6712
(I0
I0
tp6713
a(I0
I20
tp6714
asg384
g5
(g6
g7
(lp6715
g6166
ag6170
ag6175
ag6267
atp6716
Rp6717
(dp6718
g16
g389
sbsbsg400
g2214
sg422
(lp6719
(icmyPackage
Sent
p6720
(dp6721
g426
I3
sg427
I21
sg428
S'Each archive needs to easily present its data in compatible formats, and the archives must be able to exchange data.'
p6722
sg430
I0
sg431
I111
sg384
(lp6723
g6277
asba(icmyPackage
Sent
p6724
(dp6725
g426
I3
sg427
I22
sg428
S'This uniform view will require agreement on terminology, on units, and on representations -- a unified conceptual schema (data model) that describes all the data in all the archives with a common terminology, like Vizier (10).'
p6726
sg430
I0
sg431
I112
sg384
(lp6727
g6698
asbasba(icmyPackage
CELink
p6728
(dp6729
g3
(lp6730
g5
(g6
g7
(lp6731
g5
(g6
g7
(lp6732
g5
(g6
g7
(lp6733
g5
(g6
g7
(lp6734
g5
(g6
g7
(lp6735
VThe
p6736
atp6737
Rp6738
(dp6739
g16
VDT
p6740
sbag5
(g6
g7
(lp6741
Vusers
p6742
atp6743
Rp6744
(dp6745
g16
VNNS
p6746
sbatp6747
Rp6748
(dp6749
g16
VNP
p6750
sbag5
(g6
g7
(lp6751
g5
(g6
g7
(lp6752
Vwill
p6753
atp6754
Rp6755
(dp6756
g16
VMD
p6757
sbag5
(g6
g7
(lp6758
g5
(g6
g7
(lp6759
Vrange
p6760
atp6761
Rp6762
(dp6763
g16
VVB
p6764
sbag5
(g6
g7
(lp6765
g5
(g6
g7
(lp6766
Vin
p6767
atp6768
Rp6769
(dp6770
g16
VIN
p6771
sbag5
(g6
g7
(lp6772
g5
(g6
g7
(lp6773
Vskill
p6774
atp6775
Rp6776
(dp6777
g16
VNN
p6778
sbatp6779
Rp6780
(dp6781
g16
VNP
p6782
sbatp6783
Rp6784
(dp6785
g16
VPP
p6786
sbag5
(g6
g7
(lp6787
g5
(g6
g7
(lp6788
Vfrom
p6789
atp6790
Rp6791
(dp6792
g16
VIN
p6793
sbag5
(g6
g7
(lp6794
g5
(g6
g7
(lp6795
Vprofessional
p6796
atp6797
Rp6798
(dp6799
g16
VJJ
p6800
sbag5
(g6
g7
(lp6801
Vastronomers
p6802
atp6803
Rp6804
(dp6805
g16
VNNS
p6806
sbatp6807
Rp6808
(dp6809
g16
VNP
p6810
sbatp6811
Rp6812
(dp6813
g16
VPP
p6814
sbag5
(g6
g7
(lp6815
g5
(g6
g7
(lp6816
Vto
p6817
atp6818
Rp6819
(dp6820
g16
VTO
p6821
sbag5
(g6
g7
(lp6822
g5
(g6
g7
(lp6823
Vbright
p6824
atp6825
Rp6826
(dp6827
g16
VJJ
p6828
sbag5
(g6
g7
(lp6829
Vgrammar
p6830
atp6831
Rp6832
(dp6833
g16
VNN
p6834
sbag5
(g6
g7
(lp6835
Vschool
p6836
atp6837
Rp6838
(dp6839
g16
VNN
p6840
sbag5
(g6
g7
(lp6841
Vstudents
p6842
atp6843
Rp6844
(dp6845
g16
VNNS
p6846
sbatp6847
Rp6848
(dp6849
g16
VNP
p6850
sbatp6851
Rp6852
(dp6853
g16
VPP
p6854
sbatp6855
Rp6856
(dp6857
g16
VVP
p6858
sbatp6859
Rp6860
(dp6861
g16
VVP
p6862
sbatp6863
Rp6864
(dp6865
g16
g321
sbag5
(g6
g7
(lp6866
g618
atp6867
Rp6868
(dp6869
g16
g618
sbag5
(g6
g7
(lp6870
Vso
p6871
atp6872
Rp6873
(dp6874
g16
VIN
p6875
sbag5
(g6
g7
(lp6876
g5
(g6
g7
(lp6877
g5
(g6
g7
(lp6878
g5
(g6
g7
(lp6879
g251
atp6880
Rp6881
(dp6882
g16
VDT
p6883
sbag5
(g6
g7
(lp6884
Vvariety
p6885
atp6886
Rp6887
(dp6888
g16
VNN
p6889
sbatp6890
Rp6891
(dp6892
g16
VNP
p6893
sbag5
(g6
g7
(lp6894
g5
(g6
g7
(lp6895
Vof
p6896
atp6897
Rp6898
(dp6899
g16
VIN
p6900
sbag5
(g6
g7
(lp6901
g5
(g6
g7
(lp6902
Vtools
p6903
atp6904
Rp6905
(dp6906
g16
VNNS
p6907
sbatp6908
Rp6909
(dp6910
g16
VNP
p6911
sbatp6912
Rp6913
(dp6914
g16
VPP
p6915
sbatp6916
Rp6917
(dp6918
g16
VNP
p6919
sbag5
(g6
g7
(lp6920
g5
(g6
g7
(lp6921
Vwill
p6922
atp6923
Rp6924
(dp6925
g16
VMD
p6926
sbag5
(g6
g7
(lp6927
g5
(g6
g7
(lp6928
Vbe
p6929
atp6930
Rp6931
(dp6932
g16
VVB
p6933
sbag5
(g6
g7
(lp6934
g5
(g6
g7
(lp6935
Vneeded
p6936
atp6937
Rp6938
(dp6939
g16
VVBN
p6940
sbatp6941
Rp6942
(dp6943
g16
VVP
p6944
sbatp6945
Rp6946
(dp6947
g16
VVP
p6948
sbatp6949
Rp6950
(dp6951
g16
VVP
p6952
sbatp6953
Rp6954
(dp6955
g16
g321
sbag5
(g6
g7
(lp6956
g366
atp6957
Rp6958
(dp6959
g16
g366
sbatp6960
Rp6961
(dp6962
g16
g321
sbatp6963
Rp6964
(dp6965
g16
VROOT
p6966
sbasg377
(icmyPackage
CorE
p6967
(dp6968
g380
(lp6969
(I0
I0
tp6970
a(I0
I13
tp6971
asg384
g6864
sbsg390
(icmyPackage
CorE
p6972
(dp6973
g380
(lp6974
(I0
I16
tp6975
a(I0
I23
tp6976
asg384
g5
(g6
g7
(lp6977
g6954
ag6958
atp6978
Rp6979
(dp6980
g16
g389
sbsbsg400
g5624
sg422
(lp6981
(icmyPackage
Sent
p6982
(dp6983
g426
I3
sg427
I24
sg428
S'The users will range in skill from professional astronomers to bright grammar school students, so a variety of tools will be needed.'
p6984
sg430
I0
sg431
I117
sg384
(lp6985
g6964
asbasba(icmyPackage
CELink
p6986
(dp6987
g3
(lp6988
g5
(g6
g7
(lp6989
g5
(g6
g7
(lp6990
g5
(g6
g7
(lp6991
g5
(g6
g7
(lp6992
VIt
p6993
atp6994
Rp6995
(dp6996
g16
VPRP
p6997
sbatp6998
Rp6999
(dp7000
g16
VNP
p7001
sbag5
(g6
g7
(lp7002
g5
(g6
g7
(lp7003
Vwill
p7004
atp7005
Rp7006
(dp7007
g16
VMD
p7008
sbag5
(g6
g7
(lp7009
g5
(g6
g7
(lp7010
Vbe
p7011
atp7012
Rp7013
(dp7014
g16
VVB
p7015
sbag5
(g6
g7
(lp7016
g5
(g6
g7
(lp7017
Vup
p7018
atp7019
Rp7020
(dp7021
g16
VRB
p7022
sbag5
(g6
g7
(lp7023
g5
(g6
g7
(lp7024
Vto
p7025
atp7026
Rp7027
(dp7028
g16
VTO
p7029
sbag5
(g6
g7
(lp7030
g5
(g6
g7
(lp7031
Vthe
p7032
atp7033
Rp7034
(dp7035
g16
VDT
p7036
sbag5
(g6
g7
(lp7037
Vquery
p7038
atp7039
Rp7040
(dp7041
g16
VJJ
p7042
sbag5
(g6
g7
(lp7043
Vsystem
p7044
atp7045
Rp7046
(dp7047
g16
VNN
p7048
sbatp7049
Rp7050
(dp7051
g16
VNP
p7052
sbatp7053
Rp7054
(dp7055
g16
VPP
p7056
sbatp7057
Rp7058
(dp7059
g16
VADVP
p7060
sbag5
(g6
g7
(lp7061
g5
(g6
g7
(lp7062
g5
(g6
g7
(lp7063
Vto
p7064
atp7065
Rp7066
(dp7067
g16
VTO
p7068
sbag5
(g6
g7
(lp7069
g5
(g6
g7
(lp7070
g5
(g6
g7
(lp7071
Vlocate
p7072
atp7073
Rp7074
(dp7075
g16
VVB
p7076
sbag5
(g6
g7
(lp7077
g5
(g6
g7
(lp7078
Vthe
p7079
atp7080
Rp7081
(dp7082
g16
VDT
p7083
sbag5
(g6
g7
(lp7084
Vappropriate
p7085
atp7086
Rp7087
(dp7088
g16
VJJ
p7089
sbag5
(g6
g7
(lp7090
Vdata
p7091
atp7092
Rp7093
(dp7094
g16
VNN
p7095
sbag5
(g6
g7
(lp7096
Vsets
p7097
atp7098
Rp7099
(dp7100
g16
VNNS
p7101
sbatp7102
Rp7103
(dp7104
g16
VNP
p7105
sbatp7106
Rp7107
(dp7108
g16
VVP
p7109
sbag5
(g6
g7
(lp7110
g618
atp7111
Rp7112
(dp7113
g16
g618
sbag5
(g6
g7
(lp7114
g5
(g6
g7
(lp7115
Vsubset
p7116
atp7117
Rp7118
(dp7119
g16
VVB
p7120
sbag5
(g6
g7
(lp7121
g5
(g6
g7
(lp7122
Vthem
p7123
atp7124
Rp7125
(dp7126
g16
VPRP
p7127
sbatp7128
Rp7129
(dp7130
g16
VNP
p7131
sbatp7132
Rp7133
(dp7134
g16
VVP
p7135
sbag5
(g6
g7
(lp7136
g618
atp7137
Rp7138
(dp7139
g16
g618
sbag5
(g6
g7
(lp7140
Vand
p7141
atp7142
Rp7143
(dp7144
g16
VCC
p7145
sbag5
(g6
g7
(lp7146
g5
(g6
g7
(lp7147
Vcross-correlate
p7148
atp7149
Rp7150
(dp7151
g16
VVB
p7152
sbag5
(g6
g7
(lp7153
g5
(g6
g7
(lp7154
Vthem
p7155
atp7156
Rp7157
(dp7158
g16
VPRP
p7159
sbatp7160
Rp7161
(dp7162
g16
VNP
p7163
sbatp7164
Rp7165
(dp7166
g16
VVP
p7167
sbatp7168
Rp7169
(dp7170
g16
VVP
p7171
sbatp7172
Rp7173
(dp7174
g16
VVP
p7175
sbatp7176
Rp7177
(dp7178
g16
g321
sbag5
(g6
g7
(lp7179
g618
atp7180
Rp7181
(dp7182
g16
g618
sbag5
(g6
g7
(lp7183
g5
(g6
g7
(lp7184
g5
(g6
g7
(lp7185
Vreturning
p7186
atp7187
Rp7188
(dp7189
g16
VVBG
p7190
sbag5
(g6
g7
(lp7191
g5
(g6
g7
(lp7192
Vthe
p7193
atp7194
Rp7195
(dp7196
g16
VDT
p7197
sbag5
(g6
g7
(lp7198
Vrequested
p7199
atp7200
Rp7201
(dp7202
g16
VJJ
p7203
sbag5
(g6
g7
(lp7204
Vattributes
p7205
atp7206
Rp7207
(dp7208
g16
VNNS
p7209
sbatp7210
Rp7211
(dp7212
g16
VNP
p7213
sbag5
(g6
g7
(lp7214
g5
(g6
g7
(lp7215
Vfrom
p7216
atp7217
Rp7218
(dp7219
g16
VIN
p7220
sbag5
(g6
g7
(lp7221
g5
(g6
g7
(lp7222
Veach
p7223
atp7224
Rp7225
(dp7226
g16
VDT
p7227
sbag5
(g6
g7
(lp7228
Vdata
p7229
atp7230
Rp7231
(dp7232
g16
VNN
p7233
sbag5
(g6
g7
(lp7234
Vsource
p7235
atp7236
Rp7237
(dp7238
g16
VNN
p7239
sbatp7240
Rp7241
(dp7242
g16
VNP
p7243
sbatp7244
Rp7245
(dp7246
g16
VPP
p7247
sbatp7248
Rp7249
(dp7250
g16
VVP
p7251
sbatp7252
Rp7253
(dp7254
g16
g321
sbatp7255
Rp7256
(dp7257
g16
VVP
p7258
sbatp7259
Rp7260
(dp7261
g16
VVP
p7262
sbag5
(g6
g7
(lp7263
g366
atp7264
Rp7265
(dp7266
g16
g366
sbatp7267
Rp7268
(dp7269
g16
g321
sbatp7270
Rp7271
(dp7272
g16
VROOT
p7273
sbag5
(g6
g7
(lp7274
g5
(g6
g7
(lp7275
g5
(g6
g7
(lp7276
g5
(g6
g7
(lp7277
VAs
p7278
atp7279
Rp7280
(dp7281
g16
VIN
p7282
sbag5
(g6
g7
(lp7283
g5
(g6
g7
(lp7284
Vwith
p7285
atp7286
Rp7287
(dp7288
g16
VIN
p7289
sbag5
(g6
g7
(lp7290
g5
(g6
g7
(lp7291
Vschema
p7292
atp7293
Rp7294
(dp7295
g16
VNN
p7296
sbag5
(g6
g7
(lp7297
Vintegration
p7298
atp7299
Rp7300
(dp7301
g16
VNN
p7302
sbatp7303
Rp7304
(dp7305
g16
VNP
p7306
sbatp7307
Rp7308
(dp7309
g16
VPP
p7310
sbatp7311
Rp7312
(dp7313
g16
VPP
p7314
sbag5
(g6
g7
(lp7315
g618
atp7316
Rp7317
(dp7318
g16
g618
sbag5
(g6
g7
(lp7319
g5
(g6
g7
(lp7320
Vthere
p7321
atp7322
Rp7323
(dp7324
g16
VEX
p7325
sbatp7326
Rp7327
(dp7328
g16
VNP
p7329
sbag5
(g6
g7
(lp7330
g5
(g6
g7
(lp7331
Vis
p7332
atp7333
Rp7334
(dp7335
g16
VVBZ
p7336
sbag5
(g6
g7
(lp7337
g5
(g6
g7
(lp7338
g5
(g6
g7
(lp7339
Vgood
p7340
atp7341
Rp7342
(dp7343
g16
VJJ
p7344
sbag5
(g6
g7
(lp7345
Vtechnology
p7346
atp7347
Rp7348
(dp7349
g16
VNN
p7350
sbatp7351
Rp7352
(dp7353
g16
VNP
p7354
sbag5
(g6
g7
(lp7355
g5
(g6
g7
(lp7356
Vfor
p7357
atp7358
Rp7359
(dp7360
g16
VIN
p7361
sbag5
(g6
g7
(lp7362
g5
(g6
g7
(lp7363
g5
(g6
g7
(lp7364
Vautomatic
p7365
atp7366
Rp7367
(dp7368
g16
VJJ
p7369
sbag5
(g6
g7
(lp7370
Vindexing
p7371
atp7372
Rp7373
(dp7374
g16
VNN
p7375
sbatp7376
Rp7377
(dp7378
g16
VNP
p7379
sbag5
(g6
g7
(lp7380
g618
atp7381
Rp7382
(dp7383
g16
g618
sbag5
(g6
g7
(lp7384
g5
(g6
g7
(lp7385
Vlocation-transparent
p7386
atp7387
Rp7388
(dp7389
g16
VNN
p7390
sbatp7391
Rp7392
(dp7393
g16
VNP
p7394
sbag5
(g6
g7
(lp7395
g618
atp7396
Rp7397
(dp7398
g16
g618
sbag5
(g6
g7
(lp7399
Vand
p7400
atp7401
Rp7402
(dp7403
g16
VCC
p7404
sbag5
(g6
g7
(lp7405
g5
(g6
g7
(lp7406
Vparallel
p7407
atp7408
Rp7409
(dp7410
g16
VJJ
p7411
sbag5
(g6
g7
(lp7412
Vdata
p7413
atp7414
Rp7415
(dp7416
g16
VNN
p7417
sbag5
(g6
g7
(lp7418
Vsearch
p7419
atp7420
Rp7421
(dp7422
g16
VNN
p7423
sbatp7424
Rp7425
(dp7426
g16
VNP
p7427
sbatp7428
Rp7429
(dp7430
g16
VNP
p7431
sbatp7432
Rp7433
(dp7434
g16
VPP
p7435
sbatp7436
Rp7437
(dp7438
g16
VNP
p7439
sbatp7440
Rp7441
(dp7442
g16
VVP
p7443
sbag5
(g6
g7
(lp7444
g366
atp7445
Rp7446
(dp7447
g16
g366
sbatp7448
Rp7449
(dp7450
g16
g321
sbatp7451
Rp7452
(dp7453
g16
VROOT
p7454
sbasg377
(icmyPackage
CorE
p7455
(dp7456
g380
(lp7457
(I1
I1
tp7458
a(I1
I19
tp7459
asg384
g5
(g6
g7
(lp7460
g7308
ag7317
ag7327
ag7441
ag7446
atp7461
Rp7462
(dp7463
g16
g389
sbsbsg390
(icmyPackage
CorE
p7464
(dp7465
g380
(lp7466
(I0
I0
tp7467
a(I0
I30
tp7468
asg384
g7271
sbsg400
g1320
sg422
(lp7469
(icmyPackage
Sent
p7470
(dp7471
g426
I3
sg427
I25
sg428
S'It will be up to the query system to locate the appropriate data sets, subset them, and cross-correlate them, returning the requested attributes from each data source.'
p7472
sg430
I0
sg431
I120
sg384
(lp7473
g7271
asba(icmyPackage
Sent
p7474
(dp7475
g426
I3
sg427
I25
sg428
S'As with schema integration, there is good technology for automatic indexing, location-transparent, and parallel data search.'
p7476
sg430
I0
sg431
I121
sg384
(lp7477
g7452
asbasba(icmyPackage
CELink
p7478
(dp7479
g3
(lp7480
g5
(g6
g7
(lp7481
g5
(g6
g7
(lp7482
g5
(g6
g7
(lp7483
g5
(g6
g7
(lp7484
g5
(g6
g7
(lp7485
VThese
p7486
atp7487
Rp7488
(dp7489
g16
VDT
p7490
sbag5
(g6
g7
(lp7491
Vpipelines
p7492
atp7493
Rp7494
(dp7495
g16
VNNS
p7496
sbatp7497
Rp7498
(dp7499
g16
VNP
p7500
sbag5
(g6
g7
(lp7501
g5
(g6
g7
(lp7502
Vare
p7503
atp7504
Rp7505
(dp7506
g16
VVBP
p7507
sbag5
(g6
g7
(lp7508
g5
(g6
g7
(lp7509
Vconstantly
p7510
atp7511
Rp7512
(dp7513
g16
VRB
p7514
sbatp7515
Rp7516
(dp7517
g16
VADVP
p7518
sbag5
(g6
g7
(lp7519
g5
(g6
g7
(lp7520
Vimproving
p7521
atp7522
Rp7523
(dp7524
g16
VVBG
p7525
sbag5
(g6
g7
(lp7526
g5
(g6
g7
(lp7527
g5
(g6
g7
(lp7528
Vas
p7529
atp7530
Rp7531
(dp7532
g16
VIN
p7533
sbag5
(g6
g7
(lp7534
g5
(g6
g7
(lp7535
g5
(g6
g7
(lp7536
Vwe
p7537
atp7538
Rp7539
(dp7540
g16
VPRP
p7541
sbatp7542
Rp7543
(dp7544
g16
VNP
p7545
sbag5
(g6
g7
(lp7546
g5
(g6
g7
(lp7547
Vlearn
p7548
atp7549
Rp7550
(dp7551
g16
VVBP
p7552
sbag5
(g6
g7
(lp7553
g5
(g6
g7
(lp7554
g5
(g6
g7
(lp7555
Vnew
p7556
atp7557
Rp7558
(dp7559
g16
VJJ
p7560
sbag5
(g6
g7
(lp7561
Vproperties
p7562
atp7563
Rp7564
(dp7565
g16
VNNS
p7566
sbatp7567
Rp7568
(dp7569
g16
VNP
p7570
sbag5
(g6
g7
(lp7571
g5
(g6
g7
(lp7572
Vof
p7573
atp7574
Rp7575
(dp7576
g16
VIN
p7577
sbag5
(g6
g7
(lp7578
g5
(g6
g7
(lp7579
Vastronomy
p7580
atp7581
Rp7582
(dp7583
g16
VNN
p7584
sbatp7585
Rp7586
(dp7587
g16
VNP
p7588
sbatp7589
Rp7590
(dp7591
g16
VPP
p7592
sbatp7593
Rp7594
(dp7595
g16
VNP
p7596
sbatp7597
Rp7598
(dp7599
g16
VVP
p7600
sbatp7601
Rp7602
(dp7603
g16
g321
sbatp7604
Rp7605
(dp7606
g16
VSBAR
p7607
sbag5
(g6
g7
(lp7608
Vand
p7609
atp7610
Rp7611
(dp7612
g16
VCC
p7613
sbag5
(g6
g7
(lp7614
g5
(g6
g7
(lp7615
Vas
p7616
atp7617
Rp7618
(dp7619
g16
VIN
p7620
sbag5
(g6
g7
(lp7621
g5
(g6
g7
(lp7622
g5
(g6
g7
(lp7623
Vwe
p7624
atp7625
Rp7626
(dp7627
g16
VPRP
p7628
sbatp7629
Rp7630
(dp7631
g16
VNP
p7632
sbag5
(g6
g7
(lp7633
g5
(g6
g7
(lp7634
Vdiscover
p7635
atp7636
Rp7637
(dp7638
g16
VVBP
p7639
sbag5
(g6
g7
(lp7640
g5
(g6
g7
(lp7641
g5
(g6
g7
(lp7642
Vflaws
p7643
atp7644
Rp7645
(dp7646
g16
VNNS
p7647
sbatp7648
Rp7649
(dp7650
g16
VNP
p7651
sbag5
(g6
g7
(lp7652
g5
(g6
g7
(lp7653
Vin
p7654
atp7655
Rp7656
(dp7657
g16
VIN
p7658
sbag5
(g6
g7
(lp7659
g5
(g6
g7
(lp7660
Vthe
p7661
atp7662
Rp7663
(dp7664
g16
VDT
p7665
sbag5
(g6
g7
(lp7666
Vpipeline
p7667
atp7668
Rp7669
(dp7670
g16
VNN
p7671
sbag5
(g6
g7
(lp7672
Vsoftware
p7673
atp7674
Rp7675
(dp7676
g16
VNN
p7677
sbatp7678
Rp7679
(dp7680
g16
VNP
p7681
sbatp7682
Rp7683
(dp7684
g16
VPP
p7685
sbatp7686
Rp7687
(dp7688
g16
VNP
p7689
sbatp7690
Rp7691
(dp7692
g16
VVP
p7693
sbatp7694
Rp7695
(dp7696
g16
g321
sbatp7697
Rp7698
(dp7699
g16
VSBAR
p7700
sbatp7701
Rp7702
(dp7703
g16
VSBAR
p7704
sbatp7705
Rp7706
(dp7707
g16
VVP
p7708
sbatp7709
Rp7710
(dp7711
g16
VVP
p7712
sbatp7713
Rp7714
(dp7715
g16
g321
sbag5
(g6
g7
(lp7716
g618
atp7717
Rp7718
(dp7719
g16
g618
sbag5
(g6
g7
(lp7720
Vso
p7721
atp7722
Rp7723
(dp7724
g16
VIN
p7725
sbag5
(g6
g7
(lp7726
g5
(g6
g7
(lp7727
g5
(g6
g7
(lp7728
Vthe
p7729
atp7730
Rp7731
(dp7732
g16
VDT
p7733
sbag5
(g6
g7
(lp7734
Vderived
p7735
atp7736
Rp7737
(dp7738
g16
VJJ
p7739
sbag5
(g6
g7
(lp7740
Vdata
p7741
atp7742
Rp7743
(dp7744
g16
VNNS
p7745
sbatp7746
Rp7747
(dp7748
g16
VNP
p7749
sbag5
(g6
g7
(lp7750
g5
(g6
g7
(lp7751
Vis
p7752
atp7753
Rp7754
(dp7755
g16
VVBZ
p7756
sbag5
(g6
g7
(lp7757
g5
(g6
g7
(lp7758
Vconstantly
p7759
atp7760
Rp7761
(dp7762
g16
VRB
p7763
sbatp7764
Rp7765
(dp7766
g16
VADVP
p7767
sbag5
(g6
g7
(lp7768
g5
(g6
g7
(lp7769
Vevolving
p7770
atp7771
Rp7772
(dp7773
g16
VVBG
p7774
sbag5
(g6
g7
(lp7775
g5
(g6
g7
(lp7776
Vinto
p7777
atp7778
Rp7779
(dp7780
g16
VIN
p7781
sbag5
(g6
g7
(lp7782
g5
(g6
g7
(lp7783
Vmore
p7784
atp7785
Rp7786
(dp7787
g16
VJJR
p7788
sbag5
(g6
g7
(lp7789
Vcurrent
p7790
atp7791
Rp7792
(dp7793
g16
VJJ
p7794
sbag5
(g6
g7
(lp7795
Vversions
p7796
atp7797
Rp7798
(dp7799
g16
VNNS
p7800
sbatp7801
Rp7802
(dp7803
g16
VNP
p7804
sbatp7805
Rp7806
(dp7807
g16
VPP
p7808
sbatp7809
Rp7810
(dp7811
g16
VVP
p7812
sbatp7813
Rp7814
(dp7815
g16
VVP
p7816
sbatp7817
Rp7818
(dp7819
g16
g321
sbag5
(g6
g7
(lp7820
g366
atp7821
Rp7822
(dp7823
g16
g366
sbatp7824
Rp7825
(dp7826
g16
g321
sbatp7827
Rp7828
(dp7829
g16
VROOT
p7830
sbasg377
(icmyPackage
CorE
p7831
(dp7832
g380
(lp7833
(I0
I0
tp7834
a(I0
I20
tp7835
asg384
g7714
sbsg390
(icmyPackage
CorE
p7836
(dp7837
g380
(lp7838
(I0
I23
tp7839
a(I0
I33
tp7840
asg384
g5
(g6
g7
(lp7841
g7818
ag7822
atp7842
Rp7843
(dp7844
g16
g389
sbsbsg400
g5624
sg422
(lp7845
(icmyPackage
Sent
p7846
(dp7847
g426
I3
sg427
I27
sg428
S'These pipelines are constantly improving as we learn new properties of astronomy and as we discover flaws in the pipeline software, so the derived data is constantly evolving into more current versions.'
p7848
sg430
I0
sg431
I129
sg384
(lp7849
g7828
asbasba(icmyPackage
CELink
p7850
(dp7851
g3
(lp7852
g7714
asg377
(icmyPackage
CorE
p7853
(dp7854
g380
(lp7855
(I0
I6
tp7856
a(I0
I20
tp7857
asg384
g5
(g6
g7
(lp7858
g7602
ag7611
ag7698
atp7859
Rp7860
(dp7861
g16
g389
sbsbsg390
(icmyPackage
CorE
p7862
(dp7863
g380
(lp7864
(I0
I0
tp7865
a(I0
I4
tp7866
asg384
g5
(g6
g7
(lp7867
g7498
ag7505
ag7516
ag7523
atp7868
Rp7869
(dp7870
g16
g389
sbsbsg400
g1320
sg422
(lp7871
g7846
asba(icmyPackage
CELink
p7872
(dp7873
g3
(lp7874
g7860
asg377
(icmyPackage
CorE
p7875
(dp7876
g380
(lp7877
(I0
I8
tp7878
a(I0
I14
tp7879
asg384
g7695
sbsg390
(icmyPackage
CorE
p7880
(dp7881
g380
(lp7882
(I0
I0
tp7883
a(I0
I6
tp7884
asg384
g5
(g6
g7
(lp7885
g7602
ag7611
atp7886
Rp7887
(dp7888
g16
g389
sbsbsg400
g1320
sg422
(lp7889
g7846
asba(icmyPackage
CELink
p7890
(dp7891
g3
(lp7892
g5
(g6
g7
(lp7893
g5
(g6
g7
(lp7894
g5
(g6
g7
(lp7895
g5
(g6
g7
(lp7896
g5
(g6
g7
(lp7897
VEach
p7898
atp7899
Rp7900
(dp7901
g16
VDT
p7902
sbag5
(g6
g7
(lp7903
Varchive
p7904
atp7905
Rp7906
(dp7907
g16
VNN
p7908
sbag5
(g6
g7
(lp7909
V's
p7910
atp7911
Rp7912
(dp7913
g16
VPOS
p7914
sbatp7915
Rp7916
(dp7917
g16
VNP
p7918
sbag5
(g6
g7
(lp7919
Vdata
p7920
atp7921
Rp7922
(dp7923
g16
VNNS
p7924
sbatp7925
Rp7926
(dp7927
g16
VNP
p7928
sbag5
(g6
g7
(lp7929
g5
(g6
g7
(lp7930
Vwill
p7931
atp7932
Rp7933
(dp7934
g16
VMD
p7935
sbag5
(g6
g7
(lp7936
g5
(g6
g7
(lp7937
Vlikely
p7938
atp7939
Rp7940
(dp7941
g16
VRB
p7942
sbatp7943
Rp7944
(dp7945
g16
VADVP
p7946
sbag5
(g6
g7
(lp7947
g5
(g6
g7
(lp7948
Vbe
p7949
atp7950
Rp7951
(dp7952
g16
VVB
p7953
sbag5
(g6
g7
(lp7954
g5
(g6
g7
(lp7955
Vreplicated
p7956
atp7957
Rp7958
(dp7959
g16
VVBN
p7960
sbag5
(g6
g7
(lp7961
g5
(g6
g7
(lp7962
Vat
p7963
atp7964
Rp7965
(dp7966
g16
VIN
p7967
sbag5
(g6
g7
(lp7968
g5
(g6
g7
(lp7969
g5
(g6
g7
(lp7970
Vone
p7971
atp7972
Rp7973
(dp7974
g16
VCD
p7975
sbag5
(g6
g7
(lp7976
Vor
p7977
atp7978
Rp7979
(dp7980
g16
VCC
p7981
sbag5
(g6
g7
(lp7982
Vmore
p7983
atp7984
Rp7985
(dp7986
g16
VJJR
p7987
sbatp7988
Rp7989
(dp7990
g16
VQP
p7991
sbag5
(g6
g7
(lp7992
Vmirror
p7993
atp7994
Rp7995
(dp7996
g16
VNN
p7997
sbag5
(g6
g7
(lp7998
Vsites
p7999
atp8000
Rp8001
(dp8002
g16
VNNS
p8003
sbatp8004
Rp8005
(dp8006
g16
VNP
p8007
sbatp8008
Rp8009
(dp8010
g16
VPP
p8011
sbag5
(g6
g7
(lp8012
g5
(g6
g7
(lp8013
Vso
p8014
atp8015
Rp8016
(dp8017
g16
VRB
p8018
sbag5
(g6
g7
(lp8019
Vthat
p8020
atp8021
Rp8022
(dp8023
g16
VIN
p8024
sbag5
(g6
g7
(lp8025
g5
(g6
g7
(lp8026
g5
(g6
g7
(lp8027
g5
(g6
g7
(lp8028
g251
atp8029
Rp8030
(dp8031
g16
VDT
p8032
sbag5
(g6
g7
(lp8033
Vcatastrophe
p8034
atp8035
Rp8036
(dp8037
g16
VNN
p8038
sbatp8039
Rp8040
(dp8041
g16
VNP
p8042
sbag5
(g6
g7
(lp8043
g5
(g6
g7
(lp8044
Vat
p8045
atp8046
Rp8047
(dp8048
g16
VIN
p8049
sbag5
(g6
g7
(lp8050
g5
(g6
g7
(lp8051
Vone
p8052
atp8053
Rp8054
(dp8055
g16
VCD
p8056
sbag5
(g6
g7
(lp8057
Vsite
p8058
atp8059
Rp8060
(dp8061
g16
VNN
p8062
sbatp8063
Rp8064
(dp8065
g16
VNP
p8066
sbatp8067
Rp8068
(dp8069
g16
VPP
p8070
sbatp8071
Rp8072
(dp8073
g16
VNP
p8074
sbag5
(g6
g7
(lp8075
g5
(g6
g7
(lp8076
Vwill
p8077
atp8078
Rp8079
(dp8080
g16
VMD
p8081
sbag5
(g6
g7
(lp8082
Vnot
p8083
atp8084
Rp8085
(dp8086
g16
VRB
p8087
sbag5
(g6
g7
(lp8088
g5
(g6
g7
(lp8089
Vcause
p8090
atp8091
Rp8092
(dp8093
g16
VVB
p8094
sbag5
(g6
g7
(lp8095
g5
(g6
g7
(lp8096
Vany
p8097
atp8098
Rp8099
(dp8100
g16
VDT
p8101
sbag5
(g6
g7
(lp8102
Vlong-term
p8103
atp8104
Rp8105
(dp8106
g16
VJJ
p8107
sbag5
(g6
g7
(lp8108
Vdata
p8109
atp8110
Rp8111
(dp8112
g16
VNN
p8113
sbag5
(g6
g7
(lp8114
Vloss
p8115
atp8116
Rp8117
(dp8118
g16
VNN
p8119
sbatp8120
Rp8121
(dp8122
g16
VNP
p8123
sbatp8124
Rp8125
(dp8126
g16
VVP
p8127
sbatp8128
Rp8129
(dp8130
g16
VVP
p8131
sbatp8132
Rp8133
(dp8134
g16
g321
sbatp8135
Rp8136
(dp8137
g16
VSBAR
p8138
sbatp8139
Rp8140
(dp8141
g16
VVP
p8142
sbatp8143
Rp8144
(dp8145
g16
VVP
p8146
sbatp8147
Rp8148
(dp8149
g16
VVP
p8150
sbag5
(g6
g7
(lp8151
g366
atp8152
Rp8153
(dp8154
g16
g366
sbatp8155
Rp8156
(dp8157
g16
g321
sbatp8158
Rp8159
(dp8160
g16
VROOT
p8161
sbasg377
(icmyPackage
CorE
p8162
(dp8163
g380
(lp8164
(I0
I0
tp8165
a(I0
I13
tp8166
asg384
g5
(g6
g7
(lp8167
g7926
ag7933
ag7944
ag7951
ag7958
ag8009
atp8168
Rp8169
(dp8170
g16
g389
sbsbsg390
(icmyPackage
CorE
p8171
(dp8172
g380
(lp8173
(I0
I16
tp8174
a(I0
I28
tp8175
asg384
g5
(g6
g7
(lp8176
g8133
ag8153
atp8177
Rp8178
(dp8179
g16
g389
sbsbsg400
g401
sg422
(lp8180
(icmyPackage
Sent
p8181
(dp8182
g426
I3
sg427
I27
sg428
S"Each archive's data will likely be replicated at one or more mirror sites so that a catastrophe at one site will not cause any long-term data loss."
p8183
sg430
I0
sg431
I130
sg384
(lp8184
g8159
asbasba(icmyPackage
CELink
p8185
(dp8186
g3
(lp8187
g5
(g6
g7
(lp8188
g5
(g6
g7
(lp8189
g5
(g6
g7
(lp8190
g5
(g6
g7
(lp8191
VData
p8192
atp8193
Rp8194
(dp8195
g16
VNNP
p8196
sbatp8197
Rp8198
(dp8199
g16
VNP
p8200
sbag5
(g6
g7
(lp8201
g5
(g6
g7
(lp8202
Vmay
p8203
atp8204
Rp8205
(dp8206
g16
VMD
p8207
sbag5
(g6
g7
(lp8208
g5
(g6
g7
(lp8209
Valso
p8210
atp8211
Rp8212
(dp8213
g16
VRB
p8214
sbatp8215
Rp8216
(dp8217
g16
VADVP
p8218
sbag5
(g6
g7
(lp8219
g5
(g6
g7
(lp8220
Vbe
p8221
atp8222
Rp8223
(dp8224
g16
VVB
p8225
sbag5
(g6
g7
(lp8226
g5
(g6
g7
(lp8227
g5
(g6
g7
(lp8228
Vwholly
p8229
atp8230
Rp8231
(dp8232
g16
VRB
p8233
sbatp8234
Rp8235
(dp8236
g16
VADVP
p8237
sbag5
(g6
g7
(lp8238
Vor
p8239
atp8240
Rp8241
(dp8242
g16
VCC
p8243
sbag5
(g6
g7
(lp8244
g5
(g6
g7
(lp8245
Vpartially
p8246
atp8247
Rp8248
(dp8249
g16
VRB
p8250
sbatp8251
Rp8252
(dp8253
g16
VADVP
p8254
sbatp8255
Rp8256
(dp8257
g16
VADVP
p8258
sbag5
(g6
g7
(lp8259
g5
(g6
g7
(lp8260
Vreplicated
p8261
atp8262
Rp8263
(dp8264
g16
VVBN
p8265
sbag5
(g6
g7
(lp8266
g5
(g6
g7
(lp8267
Vat
p8268
atp8269
Rp8270
(dp8271
g16
VIN
p8272
sbag5
(g6
g7
(lp8273
g5
(g6
g7
(lp8274
Vother
p8275
atp8276
Rp8277
(dp8278
g16
VJJ
p8279
sbag5
(g6
g7
(lp8280
Vsites
p8281
atp8282
Rp8283
(dp8284
g16
VNNS
p8285
sbatp8286
Rp8287
(dp8288
g16
VNP
p8289
sbatp8290
Rp8291
(dp8292
g16
VPP
p8293
sbag5
(g6
g7
(lp8294
g5
(g6
g7
(lp8295
Vso
p8296
atp8297
Rp8298
(dp8299
g16
VRB
p8300
sbag5
(g6
g7
(lp8301
g5
(g6
g7
(lp8302
Vto
p8303
atp8304
Rp8305
(dp8306
g16
VTO
p8307
sbag5
(g6
g7
(lp8308
g5
(g6
g7
(lp8309
Vspeed
p8310
atp8311
Rp8312
(dp8313
g16
VVB
p8314
sbag5
(g6
g7
(lp8315
g5
(g6
g7
(lp8316
Vlocal
p8317
atp8318
Rp8319
(dp8320
g16
VJJ
p8321
sbag5
(g6
g7
(lp8322
Vcomputations
p8323
atp8324
Rp8325
(dp8326
g16
VNNS
p8327
sbatp8328
Rp8329
(dp8330
g16
VNP
p8331
sbag5
(g6
g7
(lp8332
g618
atp8333
Rp8334
(dp8335
g16
g618
sbag5
(g6
g7
(lp8336
g5
(g6
g7
(lp8337
Vbecause
p8338
atp8339
Rp8340
(dp8341
g16
VIN
p8342
sbag5
(g6
g7
(lp8343
g5
(g6
g7
(lp8344
g5
(g6
g7
(lp8345
Vit
p8346
atp8347
Rp8348
(dp8349
g16
VPRP
p8350
sbatp8351
Rp8352
(dp8353
g16
VNP
p8354
sbag5
(g6
g7
(lp8355
g5
(g6
g7
(lp8356
Vis
p8357
atp8358
Rp8359
(dp8360
g16
VVBZ
p8361
sbag5
(g6
g7
(lp8362
g5
(g6
g7
(lp8363
g5
(g6
g7
(lp8364
Voften
p8365
atp8366
Rp8367
(dp8368
g16
VRB
p8369
sbag5
(g6
g7
(lp8370
Vfaster
p8371
atp8372
Rp8373
(dp8374
g16
VJJR
p8375
sbatp8376
Rp8377
(dp8378
g16
VADJP
p8379
sbag5
(g6
g7
(lp8380
Vand
p8381
atp8382
Rp8383
(dp8384
g16
VCC
p8385
sbag5
(g6
g7
(lp8386
g5
(g6
g7
(lp8387
Vcheaper
p8388
atp8389
Rp8390
(dp8391
g16
VJJR
p8392
sbatp8393
Rp8394
(dp8395
g16
VADJP
p8396
sbatp8397
Rp8398
(dp8399
g16
VADJP
p8400
sbag5
(g6
g7
(lp8401
g5
(g6
g7
(lp8402
g5
(g6
g7
(lp8403
Vto
p8404
atp8405
Rp8406
(dp8407
g16
VTO
p8408
sbag5
(g6
g7
(lp8409
g5
(g6
g7
(lp8410
Vaccess
p8411
atp8412
Rp8413
(dp8414
g16
VVB
p8415
sbag5
(g6
g7
(lp8416
g5
(g6
g7
(lp8417
Vlocal
p8418
atp8419
Rp8420
(dp8421
g16
VJJ
p8422
sbag5
(g6
g7
(lp8423
Vdata
p8424
atp8425
Rp8426
(dp8427
g16
VNNS
p8428
sbatp8429
Rp8430
(dp8431
g16
VNP
p8432
sbatp8433
Rp8434
(dp8435
g16
VVP
p8436
sbatp8437
Rp8438
(dp8439
g16
VVP
p8440
sbatp8441
Rp8442
(dp8443
g16
g321
sbag5
(g6
g7
(lp8444
g5
(g6
g7
(lp8445
Vthan
p8446
atp8447
Rp8448
(dp8449
g16
VIN
p8450
sbag5
(g6
g7
(lp8451
g5
(g6
g7
(lp8452
g5
(g6
g7
(lp8453
Vto
p8454
atp8455
Rp8456
(dp8457
g16
VTO
p8458
sbag5
(g6
g7
(lp8459
g5
(g6
g7
(lp8460
Vfetch
p8461
atp8462
Rp8463
(dp8464
g16
VVB
p8465
sbag5
(g6
g7
(lp8466
g5
(g6
g7
(lp8467
Vit
p8468
atp8469
Rp8470
(dp8471
g16
VPRP
p8472
sbatp8473
Rp8474
(dp8475
g16
VNP
p8476
sbag5
(g6
g7
(lp8477
g5
(g6
g7
(lp8478
Vfrom
p8479
atp8480
Rp8481
(dp8482
g16
VIN
p8483
sbag5
(g6
g7
(lp8484
g5
(g6
g7
(lp8485
g251
atp8486
Rp8487
(dp8488
g16
VDT
p8489
sbag5
(g6
g7
(lp8490
Vremote
p8491
atp8492
Rp8493
(dp8494
g16
VJJ
p8495
sbag5
(g6
g7
(lp8496
Vsite
p8497
atp8498
Rp8499
(dp8500
g16
VNN
p8501
sbatp8502
Rp8503
(dp8504
g16
VNP
p8505
sbatp8506
Rp8507
(dp8508
g16
VPP
p8509
sbatp8510
Rp8511
(dp8512
g16
VVP
p8513
sbatp8514
Rp8515
(dp8516
g16
VVP
p8517
sbatp8518
Rp8519
(dp8520
g16
g321
sbatp8521
Rp8522
(dp8523
g16
VSBAR
p8524
sbatp8525
Rp8526
(dp8527
g16
VVP
p8528
sbatp8529
Rp8530
(dp8531
g16
g321
sbatp8532
Rp8533
(dp8534
g16
VSBAR
p8535
sbatp8536
Rp8537
(dp8538
g16
VVP
p8539
sbatp8540
Rp8541
(dp8542
g16
VVP
p8543
sbatp8544
Rp8545
(dp8546
g16
g321
sbatp8547
Rp8548
(dp8549
g16
VVP
p8550
sbatp8551
Rp8552
(dp8553
g16
VVP
p8554
sbatp8555
Rp8556
(dp8557
g16
VVP
p8558
sbag5
(g6
g7
(lp8559
g366
atp8560
Rp8561
(dp8562
g16
g366
sbatp8563
Rp8564
(dp8565
g16
g321
sbatp8566
Rp8567
(dp8568
g16
VROOT
p8569
sbasg377
(icmyPackage
CorE
p8570
(dp8571
g380
(lp8572
(I0
I0
tp8573
a(I0
I10
tp8574
asg384
g5
(g6
g7
(lp8575
g8198
ag8205
ag8216
ag8223
ag8256
ag8263
ag8291
atp8576
Rp8577
(dp8578
g16
g389
sbsbsg390
(icmyPackage
CorE
p8579
(dp8580
g380
(lp8581
(I0
I12
tp8582
a(I0
I36
tp8583
asg384
g5
(g6
g7
(lp8584
g8541
ag8561
atp8585
Rp8586
(dp8587
g16
g389
sbsbsg400
g5624
sg422
(lp8588
(icmyPackage
Sent
p8589
(dp8590
g426
I3
sg427
I27
sg428
S'Data may also be wholly or partially replicated at other sites so to speed local computations, because it is often faster and cheaper to access local data than to fetch it from a remote site.'
p8591
sg430
I0
sg431
I131
sg384
(lp8592
g8567
asbasba(icmyPackage
CELink
p8593
(dp8594
g3
(lp8595
g8586
asg377
(icmyPackage
CorE
p8596
(dp8597
g380
(lp8598
(I0
I6
tp8599
a(I0
I24
tp8600
asg384
g5
(g6
g7
(lp8601
g8530
ag8561
atp8602
Rp8603
(dp8604
g16
g389
sbsbsg390
(icmyPackage
CorE
p8605
(dp8606
g380
(lp8607
(I0
I0
tp8608
a(I0
I3
tp8609
asg384
g5
(g6
g7
(lp8610
g8305
ag8312
ag8329
atp8611
Rp8612
(dp8613
g16
g389
sbsbsg400
g5496
sg422
(lp8614
g8589
asba(icmyPackage
CELink
p8615
(dp8616
g3
(lp8617
g5
(g6
g7
(lp8618
g5
(g6
g7
(lp8619
g5
(g6
g7
(lp8620
g5
(g6
g7
(lp8621
VWe
p8622
atp8623
Rp8624
(dp8625
g16
VPRP
p8626
sbatp8627
Rp8628
(dp8629
g16
VNP
p8630
sbag5
(g6
g7
(lp8631
g5
(g6
g7
(lp8632
Vassume
p8633
atp8634
Rp8635
(dp8636
g16
VVBP
p8637
sbag5
(g6
g7
(lp8638
g5
(g6
g7
(lp8639
g5
(g6
g7
(lp8640
g5
(g6
g7
(lp8641
Vthe
p8642
atp8643
Rp8644
(dp8645
g16
VDT
p8646
sbag5
(g6
g7
(lp8647
VInternet
p8648
atp8649
Rp8650
(dp8651
g16
VNN
p8652
sbatp8653
Rp8654
(dp8655
g16
VNP
p8656
sbag5
(g6
g7
(lp8657
g5
(g6
g7
(lp8658
Vwill
p8659
atp8660
Rp8661
(dp8662
g16
VMD
p8663
sbag5
(g6
g7
(lp8664
g5
(g6
g7
(lp8665
Vevolve
p8666
atp8667
Rp8668
(dp8669
g16
VVB
p8670
sbag5
(g6
g7
(lp8671
g5
(g6
g7
(lp8672
Vso
p8673
atp8674
Rp8675
(dp8676
g16
VRB
p8677
sbag5
(g6
g7
(lp8678
Vthat
p8679
atp8680
Rp8681
(dp8682
g16
VIN
p8683
sbag5
(g6
g7
(lp8684
g5
(g6
g7
(lp8685
g5
(g6
g7
(lp8686
g5
(g6
g7
(lp8687
Vcopying
p8688
atp8689
Rp8690
(dp8691
g16
VVBG
p8692
sbag5
(g6
g7
(lp8693
g5
(g6
g7
(lp8694
Vlarger
p8695
atp8696
Rp8697
(dp8698
g16
VJJR
p8699
sbag5
(g6
g7
(lp8700
Vdata
p8701
atp8702
Rp8703
(dp8704
g16
VNN
p8705
sbag5
(g6
g7
(lp8706
Vsets
p8707
atp8708
Rp8709
(dp8710
g16
VNNS
p8711
sbatp8712
Rp8713
(dp8714
g16
VNP
p8715
sbatp8716
Rp8717
(dp8718
g16
VVP
p8719
sbatp8720
Rp8721
(dp8722
g16
g321
sbag5
(g6
g7
(lp8723
g5
(g6
g7
(lp8724
Vwill
p8725
atp8726
Rp8727
(dp8728
g16
VMD
p8729
sbag5
(g6
g7
(lp8730
g5
(g6
g7
(lp8731
Vbe
p8732
atp8733
Rp8734
(dp8735
g16
VVB
p8736
sbag5
(g6
g7
(lp8737
g5
(g6
g7
(lp8738
Vfeasible
p8739
atp8740
Rp8741
(dp8742
g16
VJJ
p8743
sbag5
(g6
g7
(lp8744
Vand
p8745
atp8746
Rp8747
(dp8748
g16
VCC
p8749
sbag5
(g6
g7
(lp8750
Veconomic
p8751
atp8752
Rp8753
(dp8754
g16
VJJ
p8755
sbatp8756
Rp8757
(dp8758
g16
VADJP
p8759
sbag5
(g6
g7
(lp8760
g5
(g6
g7
(lp8761
V-LRB-
p8762
atp8763
Rp8764
(dp8765
g16
V-LRB-
p8766
sbag5
(g6
g7
(lp8767
g5
(g6
g7
(lp8768
g5
(g6
g7
(lp8769
Vin
p8770
atp8771
Rp8772
(dp8773
g16
VIN
p8774
sbag5
(g6
g7
(lp8775
g5
(g6
g7
(lp8776
Vcontrast
p8777
atp8778
Rp8779
(dp8780
g16
VNN
p8781
sbatp8782
Rp8783
(dp8784
g16
VNP
p8785
sbatp8786
Rp8787
(dp8788
g16
VPP
p8789
sbag5
(g6
g7
(lp8790
g618
atp8791
Rp8792
(dp8793
g16
g618
sbag5
(g6
g7
(lp8794
g5
(g6
g7
(lp8795
Vtoday
p8796
atp8797
Rp8798
(dp8799
g16
VNN
p8800
sbag5
(g6
g7
(lp8801
Vdata
p8802
atp8803
Rp8804
(dp8805
g16
VNNS
p8806
sbatp8807
Rp8808
(dp8809
g16
VNP
p8810
sbag5
(g6
g7
(lp8811
g5
(g6
g7
(lp8812
Vsets
p8813
atp8814
Rp8815
(dp8816
g16
VVBZ
p8817
sbag5
(g6
g7
(lp8818
g5
(g6
g7
(lp8819
Vin
p8820
atp8821
Rp8822
(dp8823
g16
VIN
p8824
sbag5
(g6
g7
(lp8825
g5
(g6
g7
(lp8826
g5
(g6
g7
(lp8827
Vthe
p8828
atp8829
Rp8830
(dp8831
g16
VDT
p8832
sbag5
(g6
g7
(lp8833
Vterabyte
p8834
atp8835
Rp8836
(dp8837
g16
VJJ
p8838
sbag5
(g6
g7
(lp8839
Vrange
p8840
atp8841
Rp8842
(dp8843
g16
VNN
p8844
sbatp8845
Rp8846
(dp8847
g16
VNP
p8848
sbag5
(g6
g7
(lp8849
g5
(g6
g7
(lp8850
Vare
p8851
atp8852
Rp8853
(dp8854
g16
VVBP
p8855
sbag5
(g6
g7
(lp8856
g5
(g6
g7
(lp8857
Vtypically
p8858
atp8859
Rp8860
(dp8861
g16
VRB
p8862
sbatp8863
Rp8864
(dp8865
g16
VADVP
p8866
sbag5
(g6
g7
(lp8867
g5
(g6
g7
(lp8868
Vmoved
p8869
atp8870
Rp8871
(dp8872
g16
VVBN
p8873
sbag5
(g6
g7
(lp8874
g5
(g6
g7
(lp8875
Vby
p8876
atp8877
Rp8878
(dp8879
g16
VIN
p8880
sbag5
(g6
g7
(lp8881
g5
(g6
g7
(lp8882
Vparcel
p8883
atp8884
Rp8885
(dp8886
g16
VNN
p8887
sbag5
(g6
g7
(lp8888
Vpost
p8889
atp8890
Rp8891
(dp8892
g16
VNN
p8893
sbatp8894
Rp8895
(dp8896
g16
VNP
p8897
sbatp8898
Rp8899
(dp8900
g16
VPP
p8901
sbatp8902
Rp8903
(dp8904
g16
VVP
p8905
sbatp8906
Rp8907
(dp8908
g16
VVP
p8909
sbatp8910
Rp8911
(dp8912
g16
g321
sbatp8913
Rp8914
(dp8915
g16
VSBAR
p8916
sbatp8917
Rp8918
(dp8919
g16
VVP
p8920
sbatp8921
Rp8922
(dp8923
g16
g321
sbag5
(g6
g7
(lp8924
V-RRB-
p8925
atp8926
Rp8927
(dp8928
g16
V-RRB-
p8929
sbatp8930
Rp8931
(dp8932
g16
VPRN
p8933
sbatp8934
Rp8935
(dp8936
g16
VVP
p8937
sbatp8938
Rp8939
(dp8940
g16
VVP
p8941
sbatp8942
Rp8943
(dp8944
g16
g321
sbatp8945
Rp8946
(dp8947
g16
VSBAR
p8948
sbatp8949
Rp8950
(dp8951
g16
VVP
p8952
sbatp8953
Rp8954
(dp8955
g16
VVP
p8956
sbatp8957
Rp8958
(dp8959
g16
g321
sbatp8960
Rp8961
(dp8962
g16
VSBAR
p8963
sbatp8964
Rp8965
(dp8966
g16
VVP
p8967
sbag5
(g6
g7
(lp8968
g366
atp8969
Rp8970
(dp8971
g16
g366
sbatp8972
Rp8973
(dp8974
g16
g321
sbatp8975
Rp8976
(dp8977
g16
VROOT
p8978
sbasg377
(icmyPackage
CorE
p8979
(dp8980
g380
(lp8981
(I0
I0
tp8982
a(I0
I5
tp8983
asg384
g5
(g6
g7
(lp8984
g8628
ag8635
ag8654
ag8661
ag8668
atp8985
Rp8986
(dp8987
g16
g389
sbsbsg390
(icmyPackage
CorE
p8988
(dp8989
g380
(lp8990
(I0
I8
tp8991
a(I0
I35
tp8992
asg384
g5
(g6
g7
(lp8993
g8943
ag8970
atp8994
Rp8995
(dp8996
g16
g389
sbsbsg400
g401
sg422
(lp8997
(icmyPackage
Sent
p8998
(dp8999
g426
I3
sg427
I28
sg428
S'We assume the Internet will evolve so that copying larger data sets will be feasible and economic (in contrast, today data sets in the terabyte range are typically moved by parcel post).'
p9000
sg430
I0
sg431
I132
sg384
(lp9001
g8976
asbasba(icmyPackage
CELink
p9002
(dp9003
g3
(lp9004
g5
(g6
g7
(lp9005
g5
(g6
g7
(lp9006
g5
(g6
g7
(lp9007
g5
(g6
g7
(lp9008
VAdministrators
p9009
atp9010
Rp9011
(dp9012
g16
VNNPS
p9013
sbatp9014
Rp9015
(dp9016
g16
VNP
p9017
sbag5
(g6
g7
(lp9018
g5
(g6
g7
(lp9019
g5
(g6
g7
(lp9020
Vmust
p9021
atp9022
Rp9023
(dp9024
g16
VMD
p9025
sbag5
(g6
g7
(lp9026
g5
(g6
g7
(lp9027
Vdesign
p9028
atp9029
Rp9030
(dp9031
g16
VVB
p9032
sbag5
(g6
g7
(lp9033
Vand
p9034
atp9035
Rp9036
(dp9037
g16
VCC
p9038
sbag5
(g6
g7
(lp9039
Vmanage
p9040
atp9041
Rp9042
(dp9043
g16
VVB
p9044
sbag5
(g6
g7
(lp9045
g5
(g6
g7
(lp9046
Vthe
p9047
atp9048
Rp9049
(dp9050
g16
VDT
p9051
sbag5
(g6
g7
(lp9052
Vreplication
p9053
atp9054
Rp9055
(dp9056
g16
VNN
p9057
sbag5
(g6
g7
(lp9058
Vstrategy
p9059
atp9060
Rp9061
(dp9062
g16
VNN
p9063
sbatp9064
Rp9065
(dp9066
g16
VNP
p9067
sbatp9068
Rp9069
(dp9070
g16
VVP
p9071
sbatp9072
Rp9073
(dp9074
g16
VVP
p9075
sbag5
(g6
g7
(lp9076
Vand
p9077
atp9078
Rp9079
(dp9080
g16
VCC
p9081
sbag5
(g6
g7
(lp9082
g5
(g6
g7
(lp9083
Vmust
p9084
atp9085
Rp9086
(dp9087
g16
VMD
p9088
sbag5
(g6
g7
(lp9089
g5
(g6
g7
(lp9090
Vtrack
p9091
atp9092
Rp9093
(dp9094
g16
VVB
p9095
sbag5
(g6
g7
(lp9096
g5
(g6
g7
(lp9097
g5
(g6
g7
(lp9098
Vdata
p9099
atp9100
Rp9101
(dp9102
g16
VNN
p9103
sbag5
(g6
g7
(lp9104
Vversions
p9105
atp9106
Rp9107
(dp9108
g16
VNNS
p9109
sbag5
(g6
g7
(lp9110
Vand
p9111
atp9112
Rp9113
(dp9114
g16
VCC
p9115
sbag5
(g6
g7
(lp9116
Vdata
p9117
atp9118
Rp9119
(dp9120
g16
VNNS
p9121
sbatp9122
Rp9123
(dp9124
g16
VNP
p9125
sbag5
(g6
g7
(lp9126
g5
(g6
g7
(lp9127
Vlineage
p9128
atp9129
Rp9130
(dp9131
g16
VJJ
p9132
sbatp9133
Rp9134
(dp9135
g16
VADJP
p9136
sbatp9137
Rp9138
(dp9139
g16
g321
sbatp9140
Rp9141
(dp9142
g16
VVP
p9143
sbatp9144
Rp9145
(dp9146
g16
VVP
p9147
sbatp9148
Rp9149
(dp9150
g16
VVP
p9151
sbag5
(g6
g7
(lp9152
g366
atp9153
Rp9154
(dp9155
g16
g366
sbatp9156
Rp9157
(dp9158
g16
g321
sbatp9159
Rp9160
(dp9161
g16
VROOT
p9162
sbag5
(g6
g7
(lp9163
g5
(g6
g7
(lp9164
g5
(g6
g7
(lp9165
g5
(g6
g7
(lp9166
VAs
p9167
atp9168
Rp9169
(dp9170
g16
VIN
p9171
sbag5
(g6
g7
(lp9172
g5
(g6
g7
(lp9173
g5
(g6
g7
(lp9174
Vthe
p9175
atp9176
Rp9177
(dp9178
g16
VDT
p9179
sbag5
(g6
g7
(lp9180
Vprograms
p9181
atp9182
Rp9183
(dp9184
g16
VNNS
p9185
sbatp9186
Rp9187
(dp9188
g16
VNP
p9189
sbag5
(g6
g7
(lp9190
g5
(g6
g7
(lp9191
Vevolve
p9192
atp9193
Rp9194
(dp9195
g16
VVB
p9196
sbatp9197
Rp9198
(dp9199
g16
VVP
p9200
sbatp9201
Rp9202
(dp9203
g16
g321
sbatp9204
Rp9205
(dp9206
g16
VSBAR
p9207
sbag5
(g6
g7
(lp9208
g618
atp9209
Rp9210
(dp9211
g16
g618
sbag5
(g6
g7
(lp9212
g5
(g6
g7
(lp9213
Vthe
p9214
atp9215
Rp9216
(dp9217
g16
VDT
p9218
sbag5
(g6
g7
(lp9219
Vcomputer
p9220
atp9221
Rp9222
(dp9223
g16
VNN
p9224
sbag5
(g6
g7
(lp9225
Vscience
p9226
atp9227
Rp9228
(dp9229
g16
VNN
p9230
sbag5
(g6
g7
(lp9231
Vchallenge
p9232
atp9233
Rp9234
(dp9235
g16
VNN
p9236
sbatp9237
Rp9238
(dp9239
g16
VNP
p9240
sbag5
(g6
g7
(lp9241
g5
(g6
g7
(lp9242
Vis
p9243
atp9244
Rp9245
(dp9246
g16
VVBZ
p9247
sbag5
(g6
g7
(lp9248
g5
(g6
g7
(lp9249
g5
(g6
g7
(lp9250
g5
(g6
g7
(lp9251
Vto
p9252
atp9253
Rp9254
(dp9255
g16
VTO
p9256
sbag5
(g6
g7
(lp9257
g5
(g6
g7
(lp9258
Vautomate
p9259
atp9260
Rp9261
(dp9262
g16
VVB
p9263
sbag5
(g6
g7
(lp9264
g5
(g6
g7
(lp9265
g5
(g6
g7
(lp9266
Vthese
p9267
atp9268
Rp9269
(dp9270
g16
VDT
p9271
sbag5
(g6
g7
(lp9272
Vtasks
p9273
atp9274
Rp9275
(dp9276
g16
VNNS
p9277
sbatp9278
Rp9279
(dp9280
g16
VNP
p9281
sbag5
(g6
g7
(lp9282
g5
(g6
g7
(lp9283
Vof
p9284
atp9285
Rp9286
(dp9287
g16
VIN
p9288
sbag5
(g6
g7
(lp9289
g5
(g6
g7
(lp9290
g5
(g6
g7
(lp9291
Vconfiguring
p9292
atp9293
Rp9294
(dp9295
g16
VVBG
p9296
sbag5
(g6
g7
(lp9297
Vand
p9298
atp9299
Rp9300
(dp9301
g16
VCC
p9302
sbag5
(g6
g7
(lp9303
Vtracking
p9304
atp9305
Rp9306
(dp9307
g16
VVBG
p9308
sbag5
(g6
g7
(lp9309
g5
(g6
g7
(lp9310
Vreplicas
p9311
atp9312
Rp9313
(dp9314
g16
VNNS
p9315
sbatp9316
Rp9317
(dp9318
g16
VNP
p9319
sbatp9320
Rp9321
(dp9322
g16
VVP
p9323
sbatp9324
Rp9325
(dp9326
g16
g321
sbatp9327
Rp9328
(dp9329
g16
VPP
p9330
sbatp9331
Rp9332
(dp9333
g16
VNP
p9334
sbatp9335
Rp9336
(dp9337
g16
VVP
p9338
sbatp9339
Rp9340
(dp9341
g16
VVP
p9342
sbatp9343
Rp9344
(dp9345
g16
g321
sbag5
(g6
g7
(lp9346
Vand
p9347
atp9348
Rp9349
(dp9350
g16
VCC
p9351
sbag5
(g6
g7
(lp9352
g5
(g6
g7
(lp9353
Vof
p9354
atp9355
Rp9356
(dp9357
g16
VIN
p9358
sbag5
(g6
g7
(lp9359
g5
(g6
g7
(lp9360
g5
(g6
g7
(lp9361
Vtracking
p9362
atp9363
Rp9364
(dp9365
g16
VVBG
p9366
sbag5
(g6
g7
(lp9367
g5
(g6
g7
(lp9368
g5
(g6
g7
(lp9369
Vdata
p9370
atp9371
Rp9372
(dp9373
g16
VNNS
p9374
sbatp9375
Rp9376
(dp9377
g16
VNP
p9378
sbag5
(g6
g7
(lp9379
g5
(g6
g7
(lp9380
Vlineage
p9381
atp9382
Rp9383
(dp9384
g16
VJJ
p9385
sbag5
(g6
g7
(lp9386
Vand
p9387
atp9388
Rp9389
(dp9390
g16
VCC
p9391
sbag5
(g6
g7
(lp9392
Vdependencies
p9393
atp9394
Rp9395
(dp9396
g16
VJJ
p9397
sbatp9398
Rp9399
(dp9400
g16
VADJP
p9401
sbatp9402
Rp9403
(dp9404
g16
VNP
p9405
sbag5
(g6
g7
(lp9406
g5
(g6
g7
(lp9407
Von
p9408
atp9409
Rp9410
(dp9411
g16
VIN
p9412
sbag5
(g6
g7
(lp9413
g5
(g6
g7
(lp9414
Vdifferent
p9415
atp9416
Rp9417
(dp9418
g16
VJJ
p9419
sbag5
(g6
g7
(lp9420
Vderived
p9421
atp9422
Rp9423
(dp9424
g16
VJJ
p9425
sbag5
(g6
g7
(lp9426
Vdata
p9427
atp9428
Rp9429
(dp9430
g16
VNN
p9431
sbag5
(g6
g7
(lp9432
Vversions
p9433
atp9434
Rp9435
(dp9436
g16
VNNS
p9437
sbatp9438
Rp9439
(dp9440
g16
VNP
p9441
sbatp9442
Rp9443
(dp9444
g16
VPP
p9445
sbatp9446
Rp9447
(dp9448
g16
VVP
p9449
sbatp9450
Rp9451
(dp9452
g16
g321
sbatp9453
Rp9454
(dp9455
g16
VPP
p9456
sbatp9457
Rp9458
(dp9459
g16
VUCP
p9460
sbatp9461
Rp9462
(dp9463
g16
VVP
p9464
sbag5
(g6
g7
(lp9465
g366
atp9466
Rp9467
(dp9468
g16
g366
sbatp9469
Rp9470
(dp9471
g16
g321
sbatp9472
Rp9473
(dp9474
g16
VROOT
p9475
sbasg377
(icmyPackage
CorE
p9476
(dp9477
g380
(lp9478
(I1
I1
tp9479
a(I1
I31
tp9480
asg384
g5
(g6
g7
(lp9481
g9202
ag9210
ag9238
ag9462
ag9467
atp9482
Rp9483
(dp9484
g16
g389
sbsbsg390
(icmyPackage
CorE
p9485
(dp9486
g380
(lp9487
(I0
I0
tp9488
a(I0
I16
tp9489
asg384
g9160
sbsg400
g1320
sg422
(lp9490
(icmyPackage
Sent
p9491
(dp9492
g426
I3
sg427
I29
sg428
S'Administrators must design and manage the replication strategy and must track data versions and data lineage.'
p9493
sg430
I0
sg431
I135
sg384
(lp9494
g9160
asba(icmyPackage
Sent
p9495
(dp9496
g426
I3
sg427
I29
sg428
S'As the programs evolve, the computer science challenge is to automate these tasks of configuring and tracking replicas and of tracking data lineage and dependencies on different derived data versions.'
p9497
sg430
I0
sg431
I136
sg384
(lp9498
g9473
asbasba(icmyPackage
CELink
p9499
(dp9500
g3
(lp9501
g5
(g6
g7
(lp9502
g5
(g6
g7
(lp9503
g5
(g6
g7
(lp9504
g5
(g6
g7
(lp9505
g5
(g6
g7
(lp9506
VStatistical
p9507
atp9508
Rp9509
(dp9510
g16
VNNP
p9511
sbag5
(g6
g7
(lp9512
Vmethods
p9513
atp9514
Rp9515
(dp9516
g16
VNNS
p9517
sbatp9518
Rp9519
(dp9520
g16
VNP
p9521
sbag5
(g6
g7
(lp9522
g5
(g6
g7
(lp9523
Vlie
p9524
atp9525
Rp9526
(dp9527
g16
VVBP
p9528
sbag5
(g6
g7
(lp9529
g5
(g6
g7
(lp9530
Vat
p9531
atp9532
Rp9533
(dp9534
g16
VIN
p9535
sbag5
(g6
g7
(lp9536
g5
(g6
g7
(lp9537
g5
(g6
g7
(lp9538
Vthat
p9539
atp9540
Rp9541
(dp9542
g16
VDT
p9543
sbag5
(g6
g7
(lp9544
Vheart
p9545
atp9546
Rp9547
(dp9548
g16
VNN
p9549
sbatp9550
Rp9551
(dp9552
g16
VNP
p9553
sbag5
(g6
g7
(lp9554
g5
(g6
g7
(lp9555
Vof
p9556
atp9557
Rp9558
(dp9559
g16
VIN
p9560
sbag5
(g6
g7
(lp9561
g5
(g6
g7
(lp9562
g5
(g6
g7
(lp9563
Vmost
p9564
atp9565
Rp9566
(dp9567
g16
VJJS
p9568
sbatp9569
Rp9570
(dp9571
g16
VNP
p9572
sbag5
(g6
g7
(lp9573
g5
(g6
g7
(lp9574
Vof
p9575
atp9576
Rp9577
(dp9578
g16
VIN
p9579
sbag5
(g6
g7
(lp9580
g5
(g6
g7
(lp9581
Vour
p9582
atp9583
Rp9584
(dp9585
g16
VPRP$
p9586
sbag5
(g6
g7
(lp9587
Vdata
p9588
atp9589
Rp9590
(dp9591
g16
VNN
p9592
sbag5
(g6
g7
(lp9593
Vsearch
p9594
atp9595
Rp9596
(dp9597
g16
VNN
p9598
sbag5
(g6
g7
(lp9599
Valgorithms
p9600
atp9601
Rp9602
(dp9603
g16
VNNS
p9604
sbatp9605
Rp9606
(dp9607
g16
VNP
p9608
sbatp9609
Rp9610
(dp9611
g16
VPP
p9612
sbatp9613
Rp9614
(dp9615
g16
VNP
p9616
sbatp9617
Rp9618
(dp9619
g16
VPP
p9620
sbatp9621
Rp9622
(dp9623
g16
VNP
p9624
sbatp9625
Rp9626
(dp9627
g16
VPP
p9628
sbatp9629
Rp9630
(dp9631
g16
VVP
p9632
sbatp9633
Rp9634
(dp9635
g16
g321
sbag5
(g6
g7
(lp9636
g618
atp9637
Rp9638
(dp9639
g16
g618
sbag5
(g6
g7
(lp9640
Vso
p9641
atp9642
Rp9643
(dp9644
g16
VIN
p9645
sbag5
(g6
g7
(lp9646
g5
(g6
g7
(lp9647
g5
(g6
g7
(lp9648
g5
(g6
g7
(lp9649
Vadvances
p9650
atp9651
Rp9652
(dp9653
g16
VNNS
p9654
sbatp9655
Rp9656
(dp9657
g16
VNP
p9658
sbag5
(g6
g7
(lp9659
g5
(g6
g7
(lp9660
Vin
p9661
atp9662
Rp9663
(dp9664
g16
VIN
p9665
sbag5
(g6
g7
(lp9666
g5
(g6
g7
(lp9667
Vcomputational
p9668
atp9669
Rp9670
(dp9671
g16
VJJ
p9672
sbag5
(g6
g7
(lp9673
Vstatistics
p9674
atp9675
Rp9676
(dp9677
g16
VNNS
p9678
sbatp9679
Rp9680
(dp9681
g16
VNP
p9682
sbatp9683
Rp9684
(dp9685
g16
VPP
p9686
sbatp9687
Rp9688
(dp9689
g16
VNP
p9690
sbag5
(g6
g7
(lp9691
g5
(g6
g7
(lp9692
Vwill
p9693
atp9694
Rp9695
(dp9696
g16
VMD
p9697
sbag5
(g6
g7
(lp9698
g5
(g6
g7
(lp9699
Vbe
p9700
atp9701
Rp9702
(dp9703
g16
VVB
p9704
sbag5
(g6
g7
(lp9705
g5
(g6
g7
(lp9706
Vessential
p9707
atp9708
Rp9709
(dp9710
g16
VJJ
p9711
sbag5
(g6
g7
(lp9712
g5
(g6
g7
(lp9713
Vto
p9714
atp9715
Rp9716
(dp9717
g16
VTO
p9718
sbag5
(g6
g7
(lp9719
g5
(g6
g7
(lp9720
g5
(g6
g7
(lp9721
Vthe
p9722
atp9723
Rp9724
(dp9725
g16
VDT
p9726
sbag5
(g6
g7
(lp9727
Vsuccess
p9728
atp9729
Rp9730
(dp9731
g16
VNN
p9732
sbatp9733
Rp9734
(dp9735
g16
VNP
p9736
sbag5
(g6
g7
(lp9737
g5
(g6
g7
(lp9738
Vof
p9739
atp9740
Rp9741
(dp9742
g16
VIN
p9743
sbag5
(g6
g7
(lp9744
g5
(g6
g7
(lp9745
Vthe
p9746
atp9747
Rp9748
(dp9749
g16
VDT
p9750
sbag5
(g6
g7
(lp9751
VVirtual
p9752
atp9753
Rp9754
(dp9755
g16
VNNP
p9756
sbag5
(g6
g7
(lp9757
VObservatory
p9758
atp9759
Rp9760
(dp9761
g16
VNNP
p9762
sbatp9763
Rp9764
(dp9765
g16
VNP
p9766
sbatp9767
Rp9768
(dp9769
g16
VPP
p9770
sbatp9771
Rp9772
(dp9773
g16
VNP
p9774
sbatp9775
Rp9776
(dp9777
g16
VPP
p9778
sbatp9779
Rp9780
(dp9781
g16
VADJP
p9782
sbatp9783
Rp9784
(dp9785
g16
VVP
p9786
sbatp9787
Rp9788
(dp9789
g16
VVP
p9790
sbatp9791
Rp9792
(dp9793
g16
g321
sbag5
(g6
g7
(lp9794
g366
atp9795
Rp9796
(dp9797
g16
g366
sbatp9798
Rp9799
(dp9800
g16
g321
sbatp9801
Rp9802
(dp9803
g16
VROOT
p9804
sbasg377
(icmyPackage
CorE
p9805
(dp9806
g380
(lp9807
(I0
I0
tp9808
a(I0
I12
tp9809
asg384
g9634
sbsg390
(icmyPackage
CorE
p9810
(dp9811
g380
(lp9812
(I0
I15
tp9813
a(I0
I29
tp9814
asg384
g5
(g6
g7
(lp9815
g9792
ag9796
atp9816
Rp9817
(dp9818
g16
g389
sbsbsg400
g5624
sg422
(lp9819
(icmyPackage
Sent
p9820
(dp9821
g426
I4
sg427
I30
sg428
S'Statistical methods lie at that heart of most of our data search algorithms, so advances in computational statistics will be essential to the success of the Virtual Observatory.'
p9822
sg430
I0
sg431
I142
sg384
(lp9823
g9802
asbasba(icmyPackage
CELink
p9824
(dp9825
g3
(lp9826
g5
(g6
g7
(lp9827
g5
(g6
g7
(lp9828
g5
(g6
g7
(lp9829
g5
(g6
g7
(lp9830
VAstronomy
p9831
atp9832
Rp9833
(dp9834
g16
VNNP
p9835
sbatp9836
Rp9837
(dp9838
g16
VNP
p9839
sbag5
(g6
g7
(lp9840
g5
(g6
g7
(lp9841
Vcan
p9842
atp9843
Rp9844
(dp9845
g16
VMD
p9846
sbag5
(g6
g7
(lp9847
g5
(g6
g7
(lp9848
Vbe
p9849
atp9850
Rp9851
(dp9852
g16
VVB
p9853
sbag5
(g6
g7
(lp9854
g5
(g6
g7
(lp9855
g5
(g6
g7
(lp9856
Vused
p9857
atp9858
Rp9859
(dp9860
g16
VVBN
p9861
sbag5
(g6
g7
(lp9862
g5
(g6
g7
(lp9863
Vas
p9864
atp9865
Rp9866
(dp9867
g16
VIN
p9868
sbag5
(g6
g7
(lp9869
g5
(g6
g7
(lp9870
g251
atp9871
Rp9872
(dp9873
g16
VDT
p9874
sbag5
(g6
g7
(lp9875
Vvehicle
p9876
atp9877
Rp9878
(dp9879
g16
VNN
p9880
sbatp9881
Rp9882
(dp9883
g16
VNP
p9884
sbatp9885
Rp9886
(dp9887
g16
VPP
p9888
sbag5
(g6
g7
(lp9889
g5
(g6
g7
(lp9890
Vfor
p9891
atp9892
Rp9893
(dp9894
g16
VIN
p9895
sbag5
(g6
g7
(lp9896
g5
(g6
g7
(lp9897
g5
(g6
g7
(lp9898
Vintroducing
p9899
atp9900
Rp9901
(dp9902
g16
VVBG
p9903
sbag5
(g6
g7
(lp9904
g5
(g6
g7
(lp9905
g5
(g6
g7
(lp9906
Vthe
p9907
atp9908
Rp9909
(dp9910
g16
VDT
p9911
sbag5
(g6
g7
(lp9912
Vbasic
p9913
atp9914
Rp9915
(dp9916
g16
VJJ
p9917
sbag5
(g6
g7
(lp9918
Vconcepts
p9919
atp9920
Rp9921
(dp9922
g16
VNNS
p9923
sbatp9924
Rp9925
(dp9926
g16
VNP
p9927
sbag5
(g6
g7
(lp9928
g5
(g6
g7
(lp9929
Vof
p9930
atp9931
Rp9932
(dp9933
g16
VIN
p9934
sbag5
(g6
g7
(lp9935
g5
(g6
g7
(lp9936
Vall
p9937
atp9938
Rp9939
(dp9940
g16
VPDT
p9941
sbag5
(g6
g7
(lp9942
Vthese
p9943
atp9944
Rp9945
(dp9946
g16
VDT
p9947
sbag5
(g6
g7
(lp9948
Vfields
p9949
atp9950
Rp9951
(dp9952
g16
VNNS
p9953
sbatp9954
Rp9955
(dp9956
g16
VNP
p9957
sbatp9958
Rp9959
(dp9960
g16
VPP
p9961
sbatp9962
Rp9963
(dp9964
g16
VNP
p9965
sbatp9966
Rp9967
(dp9968
g16
VVP
p9969
sbatp9970
Rp9971
(dp9972
g16
g321
sbatp9973
Rp9974
(dp9975
g16
VPP
p9976
sbatp9977
Rp9978
(dp9979
g16
VVP
p9980
sbag5
(g6
g7
(lp9981
Vand
p9982
atp9983
Rp9984
(dp9985
g16
VCC
p9986
sbag5
(g6
g7
(lp9987
g5
(g6
g7
(lp9988
Valso
p9989
atp9990
Rp9991
(dp9992
g16
VRB
p9993
sbatp9994
Rp9995
(dp9996
g16
VADVP
p9997
sbag5
(g6
g7
(lp9998
g5
(g6
g7
(lp9999
Vused
p10000
atp10001
Rp10002
(dp10003
g16
VVBN
p10004
sbag5
(g6
g7
(lp10005
g5
(g6
g7
(lp10006
g5
(g6
g7
(lp10007
Vto
p10008
atp10009
Rp10010
(dp10011
g16
VTO
p10012
sbag5
(g6
g7
(lp10013
g5
(g6
g7
(lp10014
Vteach
p10015
atp10016
Rp10017
(dp10018
g16
VVB
p10019
sbag5
(g6
g7
(lp10020
g5
(g6
g7
(lp10021
g5
(g6
g7
(lp10022
Vthe
p10023
atp10024
Rp10025
(dp10026
g16
VDT
p10027
sbag5
(g6
g7
(lp10028
Vprocess
p10029
atp10030
Rp10031
(dp10032
g16
VNN
p10033
sbatp10034
Rp10035
(dp10036
g16
VNP
p10037
sbag5
(g6
g7
(lp10038
g5
(g6
g7
(lp10039
Vof
p10040
atp10041
Rp10042
(dp10043
g16
VIN
p10044
sbag5
(g6
g7
(lp10045
g5
(g6
g7
(lp10046
Vscientific
p10047
atp10048
Rp10049
(dp10050
g16
VJJ
p10051
sbag5
(g6
g7
(lp10052
Vdiscovery
p10053
atp10054
Rp10055
(dp10056
g16
VNN
p10057
sbatp10058
Rp10059
(dp10060
g16
VNP
p10061
sbatp10062
Rp10063
(dp10064
g16
VPP
p10065
sbatp10066
Rp10067
(dp10068
g16
VNP
p10069
sbatp10070
Rp10071
(dp10072
g16
VVP
p10073
sbatp10074
Rp10075
(dp10076
g16
VVP
p10077
sbatp10078
Rp10079
(dp10080
g16
g321
sbatp10081
Rp10082
(dp10083
g16
VVP
p10084
sbatp10085
Rp10086
(dp10087
g16
VVP
p10088
sbatp10089
Rp10090
(dp10091
g16
VVP
p10092
sbatp10093
Rp10094
(dp10095
g16
VVP
p10096
sbag5
(g6
g7
(lp10097
g366
atp10098
Rp10099
(dp10100
g16
g366
sbatp10101
Rp10102
(dp10103
g16
g321
sbatp10104
Rp10105
(dp10106
g16
VROOT
p10107
sbasg377
(icmyPackage
CorE
p10108
(dp10109
g380
(lp10110
(I0
I5
tp10111
a(I0
I26
tp10112
asg384
g5
(g6
g7
(lp10113
g9882
ag9974
ag9984
ag9995
ag10082
ag10099
atp10114
Rp10115
(dp10116
g16
g389
sbsbsg390
(icmyPackage
CorE
p10117
(dp10118
g380
(lp10119
(I0
I0
tp10120
a(I0
I3
tp10121
asg384
g5
(g6
g7
(lp10122
g9837
ag9844
ag9851
ag9859
atp10123
Rp10124
(dp10125
g16
g389
sbsbsg400
g1320
sg422
(lp10126
(icmyPackage
Sent
p10127
(dp10128
g426
I5
sg427
I33
sg428
S'Astronomy can be used as a vehicle for introducing the basic concepts of all these fields and also used to teach the process of scientific discovery.'
p10129
sg430
I0
sg431
I156
sg384
(lp10130
g10105
asbasba(icmyPackage
CELink
p10131
(dp10132
g3
(lp10133
g5
(g6
g7
(lp10134
g5
(g6
g7
(lp10135
g5
(g6
g7
(lp10136
g5
(g6
g7
(lp10137
VThe
p10138
atp10139
Rp10140
(dp10141
g16
VDT
p10142
sbag5
(g6
g7
(lp10143
VVirtual
p10144
atp10145
Rp10146
(dp10147
g16
VNNP
p10148
sbag5
(g6
g7
(lp10149
VObservatory
p10150
atp10151
Rp10152
(dp10153
g16
VNNP
p10154
sbatp10155
Rp10156
(dp10157
g16
VNP
p10158
sbag5
(g6
g7
(lp10159
g5
(g6
g7
(lp10160
Vis
p10161
atp10162
Rp10163
(dp10164
g16
VVBZ
p10165
sbag5
(g6
g7
(lp10166
g5
(g6
g7
(lp10167
g251
atp10168
Rp10169
(dp10170
g16
VDT
p10171
sbag5
(g6
g7
(lp10172
Vunique
p10173
atp10174
Rp10175
(dp10176
g16
VJJ
p10177
sbag5
(g6
g7
(lp10178
Vtool
p10179
atp10180
Rp10181
(dp10182
g16
VNN
p10183
sbag5
(g6
g7
(lp10184
g5
(g6
g7
(lp10185
g5
(g6
g7
(lp10186
Vto
p10187
atp10188
Rp10189
(dp10190
g16
VTO
p10191
sbag5
(g6
g7
(lp10192
g5
(g6
g7
(lp10193
Vteach
p10194
atp10195
Rp10196
(dp10197
g16
VVB
p10198
sbag5
(g6
g7
(lp10199
g5
(g6
g7
(lp10200
Vthese
p10201
atp10202
Rp10203
(dp10204
g16
VDT
p10205
sbag5
(g6
g7
(lp10206
Vskills
p10207
atp10208
Rp10209
(dp10210
g16
VNNS
p10211
sbatp10212
Rp10213
(dp10214
g16
VNP
p10215
sbatp10216
Rp10217
(dp10218
g16
VVP
p10219
sbatp10220
Rp10221
(dp10222
g16
VVP
p10223
sbatp10224
Rp10225
(dp10226
g16
g321
sbatp10227
Rp10228
(dp10229
g16
VNP
p10230
sbatp10231
Rp10232
(dp10233
g16
VVP
p10234
sbag5
(g6
g7
(lp10235
g366
atp10236
Rp10237
(dp10238
g16
g366
sbatp10239
Rp10240
(dp10241
g16
g321
sbatp10242
Rp10243
(dp10244
g16
VROOT
p10245
sbag5
(g6
g7
(lp10246
g5
(g6
g7
(lp10247
g5
(g6
g7
(lp10248
g5
(g6
g7
(lp10249
VAs
p10250
atp10251
Rp10252
(dp10253
g16
VIN
p10254
sbag5
(g6
g7
(lp10255
g5
(g6
g7
(lp10256
Vwith
p10257
atp10258
Rp10259
(dp10260
g16
VIN
p10261
sbag5
(g6
g7
(lp10262
g5
(g6
g7
(lp10263
Vastronomy
p10264
atp10265
Rp10266
(dp10267
g16
VNN
p10268
sbatp10269
Rp10270
(dp10271
g16
VNP
p10272
sbatp10273
Rp10274
(dp10275
g16
VPP
p10276
sbatp10277
Rp10278
(dp10279
g16
VPP
p10280
sbag5
(g6
g7
(lp10281
g618
atp10282
Rp10283
(dp10284
g16
g618
sbag5
(g6
g7
(lp10285
g5
(g6
g7
(lp10286
Vthe
p10287
atp10288
Rp10289
(dp10290
g16
VDT
p10291
sbag5
(g6
g7
(lp10292
VVirtual
p10293
atp10294
Rp10295
(dp10296
g16
VNNP
p10297
sbag5
(g6
g7
(lp10298
VObservatory
p10299
atp10300
Rp10301
(dp10302
g16
VNNP
p10303
sbatp10304
Rp10305
(dp10306
g16
VNP
p10307
sbag5
(g6
g7
(lp10308
g5
(g6
g7
(lp10309
Vis
p10310
atp10311
Rp10312
(dp10313
g16
VVBZ
p10314
sbag5
(g6
g7
(lp10315
g5
(g6
g7
(lp10316
g251
atp10317
Rp10318
(dp10319
g16
VDT
p10320
sbag5
(g6
g7
(lp10321
Vworldwide
p10322
atp10323
Rp10324
(dp10325
g16
VJJ
p10326
sbag5
(g6
g7
(lp10327
Veffort
p10328
atp10329
Rp10330
(dp10331
g16
VNN
p10332
sbatp10333
Rp10334
(dp10335
g16
VNP
p10336
sbatp10337
Rp10338
(dp10339
g16
VVP
p10340
sbag5
(g6
g7
(lp10341
g366
atp10342
Rp10343
(dp10344
g16
g366
sbatp10345
Rp10346
(dp10347
g16
g321
sbatp10348
Rp10349
(dp10350
g16
VROOT
p10351
sbasg377
(icmyPackage
CorE
p10352
(dp10353
g380
(lp10354
(I1
I1
tp10355
a(I1
I11
tp10356
asg384
g5
(g6
g7
(lp10357
g10274
ag10283
ag10305
ag10338
ag10343
atp10358
Rp10359
(dp10360
g16
g389
sbsbsg390
(icmyPackage
CorE
p10361
(dp10362
g380
(lp10363
(I0
I0
tp10364
a(I0
I11
tp10365
asg384
g10243
sbsg400
g1320
sg422
(lp10366
(icmyPackage
Sent
p10367
(dp10368
g426
I5
sg427
I34
sg428
S'The Virtual Observatory is a unique tool to teach these skills.'
p10369
sg430
I0
sg431
I162
sg384
(lp10370
g10243
asba(icmyPackage
Sent
p10371
(dp10372
g426
I5
sg427
I35
sg428
S'As with astronomy, the Virtual Observatory is a worldwide effort.'
p10373
sg430
I0
sg431
I163
sg384
(lp10374
g10349
asbasba.